
test5.o:     file format elf32-littleriscv


Disassembly of section .text:

00010094 <exit>:
   10094:	ff010113          	addi	sp,sp,-16
   10098:	00000593          	li	a1,0
   1009c:	00812423          	sw	s0,8(sp)
   100a0:	00112623          	sw	ra,12(sp)
   100a4:	00050413          	mv	s0,a0
   100a8:	499000ef          	jal	10d40 <__call_exitprocs>
   100ac:	d481a783          	lw	a5,-696(gp) # 14bd0 <__stdio_exit_handler>
   100b0:	00078463          	beqz	a5,100b8 <exit+0x24>
   100b4:	000780e7          	jalr	a5
   100b8:	00040513          	mv	a0,s0
   100bc:	20c030ef          	jal	132c8 <_exit>

000100c0 <register_fini>:
   100c0:	00000793          	li	a5,0
   100c4:	00078863          	beqz	a5,100d4 <register_fini+0x14>
   100c8:	00012537          	lui	a0,0x12
   100cc:	64050513          	addi	a0,a0,1600 # 12640 <__libc_fini_array>
   100d0:	5a50006f          	j	10e74 <atexit>
   100d4:	00008067          	ret

000100d8 <_start>:
   100d8:	00005197          	auipc	gp,0x5
   100dc:	db018193          	addi	gp,gp,-592 # 14e88 <__global_pointer$>
   100e0:	d4818513          	addi	a0,gp,-696 # 14bd0 <__stdio_exit_handler>
   100e4:	07018613          	addi	a2,gp,112 # 14ef8 <__BSS_END__>
   100e8:	40a60633          	sub	a2,a2,a0
   100ec:	00000593          	li	a1,0
   100f0:	2e9000ef          	jal	10bd8 <memset>
   100f4:	00001517          	auipc	a0,0x1
   100f8:	d8050513          	addi	a0,a0,-640 # 10e74 <atexit>
   100fc:	00050863          	beqz	a0,1010c <_start+0x34>
   10100:	00002517          	auipc	a0,0x2
   10104:	54050513          	addi	a0,a0,1344 # 12640 <__libc_fini_array>
   10108:	56d000ef          	jal	10e74 <atexit>
   1010c:	231000ef          	jal	10b3c <__libc_init_array>
   10110:	00012503          	lw	a0,0(sp)
   10114:	00410593          	addi	a1,sp,4
   10118:	00000613          	li	a2,0
   1011c:	06c000ef          	jal	10188 <main>
   10120:	f75ff06f          	j	10094 <exit>

00010124 <__do_global_dtors_aux>:
   10124:	ff010113          	addi	sp,sp,-16
   10128:	00812423          	sw	s0,8(sp)
   1012c:	d641c783          	lbu	a5,-668(gp) # 14bec <completed.1>
   10130:	00112623          	sw	ra,12(sp)
   10134:	02079263          	bnez	a5,10158 <__do_global_dtors_aux+0x34>
   10138:	00000793          	li	a5,0
   1013c:	00078a63          	beqz	a5,10150 <__do_global_dtors_aux+0x2c>
   10140:	00014537          	lui	a0,0x14
   10144:	67450513          	addi	a0,a0,1652 # 14674 <__EH_FRAME_BEGIN__>
   10148:	00000097          	auipc	ra,0x0
   1014c:	000000e7          	jalr	zero # 0 <exit-0x10094>
   10150:	00100793          	li	a5,1
   10154:	d6f18223          	sb	a5,-668(gp) # 14bec <completed.1>
   10158:	00c12083          	lw	ra,12(sp)
   1015c:	00812403          	lw	s0,8(sp)
   10160:	01010113          	addi	sp,sp,16
   10164:	00008067          	ret

00010168 <frame_dummy>:
   10168:	00000793          	li	a5,0
   1016c:	00078c63          	beqz	a5,10184 <frame_dummy+0x1c>
   10170:	00014537          	lui	a0,0x14
   10174:	d6818593          	addi	a1,gp,-664 # 14bf0 <object.0>
   10178:	67450513          	addi	a0,a0,1652 # 14674 <__EH_FRAME_BEGIN__>
   1017c:	00000317          	auipc	t1,0x0
   10180:	00000067          	jr	zero # 0 <exit-0x10094>
   10184:	00008067          	ret

00010188 <main>:
   10188:	f9010113          	addi	sp,sp,-112
   1018c:	06112623          	sw	ra,108(sp)
   10190:	06812423          	sw	s0,104(sp)
   10194:	07010413          	addi	s0,sp,112
   10198:	fe042623          	sw	zero,-20(s0)
   1019c:	0400006f          	j	101dc <main+0x54>
   101a0:	fec42783          	lw	a5,-20(s0)
   101a4:	00279793          	slli	a5,a5,0x2
   101a8:	ff078793          	addi	a5,a5,-16
   101ac:	008787b3          	add	a5,a5,s0
   101b0:	fd07a783          	lw	a5,-48(a5)
   101b4:	fef42423          	sw	a5,-24(s0)
   101b8:	fec42783          	lw	a5,-20(s0)
   101bc:	00279793          	slli	a5,a5,0x2
   101c0:	ff078793          	addi	a5,a5,-16
   101c4:	008787b3          	add	a5,a5,s0
   101c8:	fe842703          	lw	a4,-24(s0)
   101cc:	fae7a423          	sw	a4,-88(a5)
   101d0:	fec42783          	lw	a5,-20(s0)
   101d4:	00178793          	addi	a5,a5,1
   101d8:	fef42623          	sw	a5,-20(s0)
   101dc:	fec42703          	lw	a4,-20(s0)
   101e0:	00900793          	li	a5,9
   101e4:	fae7dee3          	bge	a5,a4,101a0 <main+0x18>
   101e8:	fe042623          	sw	zero,-20(s0)
   101ec:	0300006f          	j	1021c <main+0x94>
   101f0:	fec42783          	lw	a5,-20(s0)
   101f4:	00279793          	slli	a5,a5,0x2
   101f8:	ff078793          	addi	a5,a5,-16
   101fc:	008787b3          	add	a5,a5,s0
   10200:	fd07a783          	lw	a5,-48(a5)
   10204:	fe842703          	lw	a4,-24(s0)
   10208:	00f707b3          	add	a5,a4,a5
   1020c:	fef42423          	sw	a5,-24(s0)
   10210:	fec42783          	lw	a5,-20(s0)
   10214:	00178793          	addi	a5,a5,1
   10218:	fef42623          	sw	a5,-20(s0)
   1021c:	fec42703          	lw	a4,-20(s0)
   10220:	00900793          	li	a5,9
   10224:	fce7d6e3          	bge	a5,a4,101f0 <main+0x68>
   10228:	fe842703          	lw	a4,-24(s0)
   1022c:	04d00793          	li	a5,77
   10230:	00f71863          	bne	a4,a5,10240 <main+0xb8>
   10234:	000137b7          	lui	a5,0x13
   10238:	66478513          	addi	a0,a5,1636 # 13664 <__modsi3+0x30>
   1023c:	510000ef          	jal	1074c <puts>
   10240:	00000793          	li	a5,0
   10244:	00078513          	mv	a0,a5
   10248:	06c12083          	lw	ra,108(sp)
   1024c:	06812403          	lw	s0,104(sp)
   10250:	07010113          	addi	sp,sp,112
   10254:	00008067          	ret

00010258 <__fp_lock>:
   10258:	00000513          	li	a0,0
   1025c:	00008067          	ret

00010260 <stdio_exit_handler>:
   10260:	00014637          	lui	a2,0x14
   10264:	000125b7          	lui	a1,0x12
   10268:	00014537          	lui	a0,0x14
   1026c:	68860613          	addi	a2,a2,1672 # 14688 <__sglue>
   10270:	a8858593          	addi	a1,a1,-1400 # 11a88 <_fclose_r>
   10274:	69850513          	addi	a0,a0,1688 # 14698 <_impure_data>
   10278:	3480006f          	j	105c0 <_fwalk_sglue>

0001027c <cleanup_stdio>:
   1027c:	00452583          	lw	a1,4(a0)
   10280:	ff010113          	addi	sp,sp,-16
   10284:	00812423          	sw	s0,8(sp)
   10288:	00112623          	sw	ra,12(sp)
   1028c:	d8018793          	addi	a5,gp,-640 # 14c08 <__sf>
   10290:	00050413          	mv	s0,a0
   10294:	00f58463          	beq	a1,a5,1029c <cleanup_stdio+0x20>
   10298:	7f0010ef          	jal	11a88 <_fclose_r>
   1029c:	00842583          	lw	a1,8(s0)
   102a0:	de818793          	addi	a5,gp,-536 # 14c70 <__sf+0x68>
   102a4:	00f58663          	beq	a1,a5,102b0 <cleanup_stdio+0x34>
   102a8:	00040513          	mv	a0,s0
   102ac:	7dc010ef          	jal	11a88 <_fclose_r>
   102b0:	00c42583          	lw	a1,12(s0)
   102b4:	e5018793          	addi	a5,gp,-432 # 14cd8 <__sf+0xd0>
   102b8:	00f58c63          	beq	a1,a5,102d0 <cleanup_stdio+0x54>
   102bc:	00040513          	mv	a0,s0
   102c0:	00812403          	lw	s0,8(sp)
   102c4:	00c12083          	lw	ra,12(sp)
   102c8:	01010113          	addi	sp,sp,16
   102cc:	7bc0106f          	j	11a88 <_fclose_r>
   102d0:	00c12083          	lw	ra,12(sp)
   102d4:	00812403          	lw	s0,8(sp)
   102d8:	01010113          	addi	sp,sp,16
   102dc:	00008067          	ret

000102e0 <__fp_unlock>:
   102e0:	00000513          	li	a0,0
   102e4:	00008067          	ret

000102e8 <global_stdio_init.part.0>:
   102e8:	fe010113          	addi	sp,sp,-32
   102ec:	000107b7          	lui	a5,0x10
   102f0:	00812c23          	sw	s0,24(sp)
   102f4:	26078793          	addi	a5,a5,608 # 10260 <stdio_exit_handler>
   102f8:	d8018413          	addi	s0,gp,-640 # 14c08 <__sf>
   102fc:	00112e23          	sw	ra,28(sp)
   10300:	00912a23          	sw	s1,20(sp)
   10304:	01212823          	sw	s2,16(sp)
   10308:	01312623          	sw	s3,12(sp)
   1030c:	01412423          	sw	s4,8(sp)
   10310:	d4f1a423          	sw	a5,-696(gp) # 14bd0 <__stdio_exit_handler>
   10314:	00800613          	li	a2,8
   10318:	00400793          	li	a5,4
   1031c:	00000593          	li	a1,0
   10320:	ddc18513          	addi	a0,gp,-548 # 14c64 <__sf+0x5c>
   10324:	00f42623          	sw	a5,12(s0)
   10328:	00042023          	sw	zero,0(s0)
   1032c:	00042223          	sw	zero,4(s0)
   10330:	00042423          	sw	zero,8(s0)
   10334:	06042223          	sw	zero,100(s0)
   10338:	00042823          	sw	zero,16(s0)
   1033c:	00042a23          	sw	zero,20(s0)
   10340:	00042c23          	sw	zero,24(s0)
   10344:	095000ef          	jal	10bd8 <memset>
   10348:	000107b7          	lui	a5,0x10
   1034c:	00010a37          	lui	s4,0x10
   10350:	000109b7          	lui	s3,0x10
   10354:	00011937          	lui	s2,0x11
   10358:	000114b7          	lui	s1,0x11
   1035c:	758a0a13          	addi	s4,s4,1880 # 10758 <__sread>
   10360:	7bc98993          	addi	s3,s3,1980 # 107bc <__swrite>
   10364:	84490913          	addi	s2,s2,-1980 # 10844 <__sseek>
   10368:	8bc48493          	addi	s1,s1,-1860 # 108bc <__sclose>
   1036c:	00978793          	addi	a5,a5,9 # 10009 <exit-0x8b>
   10370:	00800613          	li	a2,8
   10374:	00000593          	li	a1,0
   10378:	e4418513          	addi	a0,gp,-444 # 14ccc <__sf+0xc4>
   1037c:	03442023          	sw	s4,32(s0)
   10380:	03342223          	sw	s3,36(s0)
   10384:	03242423          	sw	s2,40(s0)
   10388:	02942623          	sw	s1,44(s0)
   1038c:	06f42a23          	sw	a5,116(s0)
   10390:	00842e23          	sw	s0,28(s0)
   10394:	06042423          	sw	zero,104(s0)
   10398:	06042623          	sw	zero,108(s0)
   1039c:	06042823          	sw	zero,112(s0)
   103a0:	0c042623          	sw	zero,204(s0)
   103a4:	06042c23          	sw	zero,120(s0)
   103a8:	06042e23          	sw	zero,124(s0)
   103ac:	08042023          	sw	zero,128(s0)
   103b0:	029000ef          	jal	10bd8 <memset>
   103b4:	000207b7          	lui	a5,0x20
   103b8:	01278793          	addi	a5,a5,18 # 20012 <__BSS_END__+0xb11a>
   103bc:	de818713          	addi	a4,gp,-536 # 14c70 <__sf+0x68>
   103c0:	00800613          	li	a2,8
   103c4:	00000593          	li	a1,0
   103c8:	eac18513          	addi	a0,gp,-340 # 14d34 <__sf+0x12c>
   103cc:	09442423          	sw	s4,136(s0)
   103d0:	09342623          	sw	s3,140(s0)
   103d4:	09242823          	sw	s2,144(s0)
   103d8:	08942a23          	sw	s1,148(s0)
   103dc:	0cf42e23          	sw	a5,220(s0)
   103e0:	08e42223          	sw	a4,132(s0)
   103e4:	0c042823          	sw	zero,208(s0)
   103e8:	0c042a23          	sw	zero,212(s0)
   103ec:	0c042c23          	sw	zero,216(s0)
   103f0:	12042a23          	sw	zero,308(s0)
   103f4:	0e042023          	sw	zero,224(s0)
   103f8:	0e042223          	sw	zero,228(s0)
   103fc:	0e042423          	sw	zero,232(s0)
   10400:	7d8000ef          	jal	10bd8 <memset>
   10404:	e5018793          	addi	a5,gp,-432 # 14cd8 <__sf+0xd0>
   10408:	0f442823          	sw	s4,240(s0)
   1040c:	0f342a23          	sw	s3,244(s0)
   10410:	0f242c23          	sw	s2,248(s0)
   10414:	0e942e23          	sw	s1,252(s0)
   10418:	01c12083          	lw	ra,28(sp)
   1041c:	0ef42623          	sw	a5,236(s0)
   10420:	01812403          	lw	s0,24(sp)
   10424:	01412483          	lw	s1,20(sp)
   10428:	01012903          	lw	s2,16(sp)
   1042c:	00c12983          	lw	s3,12(sp)
   10430:	00812a03          	lw	s4,8(sp)
   10434:	02010113          	addi	sp,sp,32
   10438:	00008067          	ret

0001043c <__sfp>:
   1043c:	d481a783          	lw	a5,-696(gp) # 14bd0 <__stdio_exit_handler>
   10440:	fe010113          	addi	sp,sp,-32
   10444:	01312623          	sw	s3,12(sp)
   10448:	00112e23          	sw	ra,28(sp)
   1044c:	00812c23          	sw	s0,24(sp)
   10450:	00912a23          	sw	s1,20(sp)
   10454:	01212823          	sw	s2,16(sp)
   10458:	00050993          	mv	s3,a0
   1045c:	0e078863          	beqz	a5,1054c <__sfp+0x110>
   10460:	00014937          	lui	s2,0x14
   10464:	68890913          	addi	s2,s2,1672 # 14688 <__sglue>
   10468:	fff00493          	li	s1,-1
   1046c:	00492783          	lw	a5,4(s2)
   10470:	00892403          	lw	s0,8(s2)
   10474:	fff78793          	addi	a5,a5,-1
   10478:	0007d863          	bgez	a5,10488 <__sfp+0x4c>
   1047c:	0800006f          	j	104fc <__sfp+0xc0>
   10480:	06840413          	addi	s0,s0,104
   10484:	06978c63          	beq	a5,s1,104fc <__sfp+0xc0>
   10488:	00c41703          	lh	a4,12(s0)
   1048c:	fff78793          	addi	a5,a5,-1
   10490:	fe0718e3          	bnez	a4,10480 <__sfp+0x44>
   10494:	ffff07b7          	lui	a5,0xffff0
   10498:	00178793          	addi	a5,a5,1 # ffff0001 <__BSS_END__+0xfffdb109>
   1049c:	00f42623          	sw	a5,12(s0)
   104a0:	06042223          	sw	zero,100(s0)
   104a4:	00042023          	sw	zero,0(s0)
   104a8:	00042423          	sw	zero,8(s0)
   104ac:	00042223          	sw	zero,4(s0)
   104b0:	00042823          	sw	zero,16(s0)
   104b4:	00042a23          	sw	zero,20(s0)
   104b8:	00042c23          	sw	zero,24(s0)
   104bc:	00800613          	li	a2,8
   104c0:	00000593          	li	a1,0
   104c4:	05c40513          	addi	a0,s0,92
   104c8:	710000ef          	jal	10bd8 <memset>
   104cc:	02042823          	sw	zero,48(s0)
   104d0:	02042a23          	sw	zero,52(s0)
   104d4:	04042223          	sw	zero,68(s0)
   104d8:	04042423          	sw	zero,72(s0)
   104dc:	01c12083          	lw	ra,28(sp)
   104e0:	00040513          	mv	a0,s0
   104e4:	01812403          	lw	s0,24(sp)
   104e8:	01412483          	lw	s1,20(sp)
   104ec:	01012903          	lw	s2,16(sp)
   104f0:	00c12983          	lw	s3,12(sp)
   104f4:	02010113          	addi	sp,sp,32
   104f8:	00008067          	ret
   104fc:	00092403          	lw	s0,0(s2)
   10500:	00040663          	beqz	s0,1050c <__sfp+0xd0>
   10504:	00040913          	mv	s2,s0
   10508:	f65ff06f          	j	1046c <__sfp+0x30>
   1050c:	1ac00593          	li	a1,428
   10510:	00098513          	mv	a0,s3
   10514:	5b1000ef          	jal	112c4 <_malloc_r>
   10518:	00050413          	mv	s0,a0
   1051c:	02050c63          	beqz	a0,10554 <__sfp+0x118>
   10520:	00c50513          	addi	a0,a0,12
   10524:	00400793          	li	a5,4
   10528:	00042023          	sw	zero,0(s0)
   1052c:	00f42223          	sw	a5,4(s0)
   10530:	00a42423          	sw	a0,8(s0)
   10534:	1a000613          	li	a2,416
   10538:	00000593          	li	a1,0
   1053c:	69c000ef          	jal	10bd8 <memset>
   10540:	00892023          	sw	s0,0(s2)
   10544:	00040913          	mv	s2,s0
   10548:	f25ff06f          	j	1046c <__sfp+0x30>
   1054c:	d9dff0ef          	jal	102e8 <global_stdio_init.part.0>
   10550:	f11ff06f          	j	10460 <__sfp+0x24>
   10554:	00092023          	sw	zero,0(s2)
   10558:	00c00793          	li	a5,12
   1055c:	00f9a023          	sw	a5,0(s3)
   10560:	f7dff06f          	j	104dc <__sfp+0xa0>

00010564 <__sinit>:
   10564:	03452783          	lw	a5,52(a0)
   10568:	00078463          	beqz	a5,10570 <__sinit+0xc>
   1056c:	00008067          	ret
   10570:	d481a703          	lw	a4,-696(gp) # 14bd0 <__stdio_exit_handler>
   10574:	000107b7          	lui	a5,0x10
   10578:	27c78793          	addi	a5,a5,636 # 1027c <cleanup_stdio>
   1057c:	02f52a23          	sw	a5,52(a0)
   10580:	fe0716e3          	bnez	a4,1056c <__sinit+0x8>
   10584:	d65ff06f          	j	102e8 <global_stdio_init.part.0>

00010588 <__sfp_lock_acquire>:
   10588:	00008067          	ret

0001058c <__sfp_lock_release>:
   1058c:	00008067          	ret

00010590 <__fp_lock_all>:
   10590:	00014637          	lui	a2,0x14
   10594:	000105b7          	lui	a1,0x10
   10598:	68860613          	addi	a2,a2,1672 # 14688 <__sglue>
   1059c:	25858593          	addi	a1,a1,600 # 10258 <__fp_lock>
   105a0:	00000513          	li	a0,0
   105a4:	01c0006f          	j	105c0 <_fwalk_sglue>

000105a8 <__fp_unlock_all>:
   105a8:	00014637          	lui	a2,0x14
   105ac:	000105b7          	lui	a1,0x10
   105b0:	68860613          	addi	a2,a2,1672 # 14688 <__sglue>
   105b4:	2e058593          	addi	a1,a1,736 # 102e0 <__fp_unlock>
   105b8:	00000513          	li	a0,0
   105bc:	0040006f          	j	105c0 <_fwalk_sglue>

000105c0 <_fwalk_sglue>:
   105c0:	fd010113          	addi	sp,sp,-48
   105c4:	03212023          	sw	s2,32(sp)
   105c8:	01312e23          	sw	s3,28(sp)
   105cc:	01412c23          	sw	s4,24(sp)
   105d0:	01512a23          	sw	s5,20(sp)
   105d4:	01612823          	sw	s6,16(sp)
   105d8:	01712623          	sw	s7,12(sp)
   105dc:	02112623          	sw	ra,44(sp)
   105e0:	02812423          	sw	s0,40(sp)
   105e4:	02912223          	sw	s1,36(sp)
   105e8:	00050b13          	mv	s6,a0
   105ec:	00058b93          	mv	s7,a1
   105f0:	00060a93          	mv	s5,a2
   105f4:	00000a13          	li	s4,0
   105f8:	00100993          	li	s3,1
   105fc:	fff00913          	li	s2,-1
   10600:	004aa483          	lw	s1,4(s5)
   10604:	008aa403          	lw	s0,8(s5)
   10608:	fff48493          	addi	s1,s1,-1
   1060c:	0204c863          	bltz	s1,1063c <_fwalk_sglue+0x7c>
   10610:	00c45783          	lhu	a5,12(s0)
   10614:	00f9fe63          	bgeu	s3,a5,10630 <_fwalk_sglue+0x70>
   10618:	00e41783          	lh	a5,14(s0)
   1061c:	00040593          	mv	a1,s0
   10620:	000b0513          	mv	a0,s6
   10624:	01278663          	beq	a5,s2,10630 <_fwalk_sglue+0x70>
   10628:	000b80e7          	jalr	s7
   1062c:	00aa6a33          	or	s4,s4,a0
   10630:	fff48493          	addi	s1,s1,-1
   10634:	06840413          	addi	s0,s0,104
   10638:	fd249ce3          	bne	s1,s2,10610 <_fwalk_sglue+0x50>
   1063c:	000aaa83          	lw	s5,0(s5)
   10640:	fc0a90e3          	bnez	s5,10600 <_fwalk_sglue+0x40>
   10644:	02c12083          	lw	ra,44(sp)
   10648:	02812403          	lw	s0,40(sp)
   1064c:	02412483          	lw	s1,36(sp)
   10650:	02012903          	lw	s2,32(sp)
   10654:	01c12983          	lw	s3,28(sp)
   10658:	01412a83          	lw	s5,20(sp)
   1065c:	01012b03          	lw	s6,16(sp)
   10660:	00c12b83          	lw	s7,12(sp)
   10664:	000a0513          	mv	a0,s4
   10668:	01812a03          	lw	s4,24(sp)
   1066c:	03010113          	addi	sp,sp,48
   10670:	00008067          	ret

00010674 <_puts_r>:
   10674:	fc010113          	addi	sp,sp,-64
   10678:	02812c23          	sw	s0,56(sp)
   1067c:	00050413          	mv	s0,a0
   10680:	00058513          	mv	a0,a1
   10684:	02912a23          	sw	s1,52(sp)
   10688:	02112e23          	sw	ra,60(sp)
   1068c:	00058493          	mv	s1,a1
   10690:	624000ef          	jal	10cb4 <strlen>
   10694:	000137b7          	lui	a5,0x13
   10698:	67078793          	addi	a5,a5,1648 # 13670 <__modsi3+0x3c>
   1069c:	02f12423          	sw	a5,40(sp)
   106a0:	00100793          	li	a5,1
   106a4:	02f12623          	sw	a5,44(sp)
   106a8:	03442703          	lw	a4,52(s0)
   106ac:	02010793          	addi	a5,sp,32
   106b0:	00150693          	addi	a3,a0,1
   106b4:	00f12a23          	sw	a5,20(sp)
   106b8:	00200793          	li	a5,2
   106bc:	02912023          	sw	s1,32(sp)
   106c0:	02a12223          	sw	a0,36(sp)
   106c4:	00d12e23          	sw	a3,28(sp)
   106c8:	00f12c23          	sw	a5,24(sp)
   106cc:	00842583          	lw	a1,8(s0)
   106d0:	06070063          	beqz	a4,10730 <_puts_r+0xbc>
   106d4:	00c59703          	lh	a4,12(a1)
   106d8:	0645a783          	lw	a5,100(a1)
   106dc:	01271693          	slli	a3,a4,0x12
   106e0:	0206c063          	bltz	a3,10700 <_puts_r+0x8c>
   106e4:	ffffe6b7          	lui	a3,0xffffe
   106e8:	fff68693          	addi	a3,a3,-1 # ffffdfff <__BSS_END__+0xfffe9107>
   106ec:	00002637          	lui	a2,0x2
   106f0:	00c76733          	or	a4,a4,a2
   106f4:	00d7f7b3          	and	a5,a5,a3
   106f8:	00e59623          	sh	a4,12(a1)
   106fc:	06f5a223          	sw	a5,100(a1)
   10700:	01279713          	slli	a4,a5,0x12
   10704:	04074063          	bltz	a4,10744 <_puts_r+0xd0>
   10708:	01410613          	addi	a2,sp,20
   1070c:	00040513          	mv	a0,s0
   10710:	7bc010ef          	jal	11ecc <__sfvwrite_r>
   10714:	02051863          	bnez	a0,10744 <_puts_r+0xd0>
   10718:	00a00513          	li	a0,10
   1071c:	03c12083          	lw	ra,60(sp)
   10720:	03812403          	lw	s0,56(sp)
   10724:	03412483          	lw	s1,52(sp)
   10728:	04010113          	addi	sp,sp,64
   1072c:	00008067          	ret
   10730:	00040513          	mv	a0,s0
   10734:	00b12623          	sw	a1,12(sp)
   10738:	e2dff0ef          	jal	10564 <__sinit>
   1073c:	00c12583          	lw	a1,12(sp)
   10740:	f95ff06f          	j	106d4 <_puts_r+0x60>
   10744:	fff00513          	li	a0,-1
   10748:	fd5ff06f          	j	1071c <_puts_r+0xa8>

0001074c <puts>:
   1074c:	00050593          	mv	a1,a0
   10750:	d3c1a503          	lw	a0,-708(gp) # 14bc4 <_impure_ptr>
   10754:	f21ff06f          	j	10674 <_puts_r>

00010758 <__sread>:
   10758:	ff010113          	addi	sp,sp,-16
   1075c:	00812423          	sw	s0,8(sp)
   10760:	00058413          	mv	s0,a1
   10764:	00e59583          	lh	a1,14(a1)
   10768:	00112623          	sw	ra,12(sp)
   1076c:	300000ef          	jal	10a6c <_read_r>
   10770:	02054063          	bltz	a0,10790 <__sread+0x38>
   10774:	05042783          	lw	a5,80(s0)
   10778:	00c12083          	lw	ra,12(sp)
   1077c:	00a787b3          	add	a5,a5,a0
   10780:	04f42823          	sw	a5,80(s0)
   10784:	00812403          	lw	s0,8(sp)
   10788:	01010113          	addi	sp,sp,16
   1078c:	00008067          	ret
   10790:	00c45783          	lhu	a5,12(s0)
   10794:	fffff737          	lui	a4,0xfffff
   10798:	fff70713          	addi	a4,a4,-1 # ffffefff <__BSS_END__+0xfffea107>
   1079c:	00e7f7b3          	and	a5,a5,a4
   107a0:	00c12083          	lw	ra,12(sp)
   107a4:	00f41623          	sh	a5,12(s0)
   107a8:	00812403          	lw	s0,8(sp)
   107ac:	01010113          	addi	sp,sp,16
   107b0:	00008067          	ret

000107b4 <__seofread>:
   107b4:	00000513          	li	a0,0
   107b8:	00008067          	ret

000107bc <__swrite>:
   107bc:	00c59783          	lh	a5,12(a1)
   107c0:	fe010113          	addi	sp,sp,-32
   107c4:	00812c23          	sw	s0,24(sp)
   107c8:	00912a23          	sw	s1,20(sp)
   107cc:	01212823          	sw	s2,16(sp)
   107d0:	01312623          	sw	s3,12(sp)
   107d4:	00112e23          	sw	ra,28(sp)
   107d8:	1007f713          	andi	a4,a5,256
   107dc:	00058413          	mv	s0,a1
   107e0:	00050493          	mv	s1,a0
   107e4:	00060913          	mv	s2,a2
   107e8:	00068993          	mv	s3,a3
   107ec:	04071063          	bnez	a4,1082c <__swrite+0x70>
   107f0:	fffff737          	lui	a4,0xfffff
   107f4:	fff70713          	addi	a4,a4,-1 # ffffefff <__BSS_END__+0xfffea107>
   107f8:	00e7f7b3          	and	a5,a5,a4
   107fc:	00e41583          	lh	a1,14(s0)
   10800:	00f41623          	sh	a5,12(s0)
   10804:	01812403          	lw	s0,24(sp)
   10808:	01c12083          	lw	ra,28(sp)
   1080c:	00098693          	mv	a3,s3
   10810:	00090613          	mv	a2,s2
   10814:	00c12983          	lw	s3,12(sp)
   10818:	01012903          	lw	s2,16(sp)
   1081c:	00048513          	mv	a0,s1
   10820:	01412483          	lw	s1,20(sp)
   10824:	02010113          	addi	sp,sp,32
   10828:	2ac0006f          	j	10ad4 <_write_r>
   1082c:	00e59583          	lh	a1,14(a1)
   10830:	00200693          	li	a3,2
   10834:	00000613          	li	a2,0
   10838:	1cc000ef          	jal	10a04 <_lseek_r>
   1083c:	00c41783          	lh	a5,12(s0)
   10840:	fb1ff06f          	j	107f0 <__swrite+0x34>

00010844 <__sseek>:
   10844:	ff010113          	addi	sp,sp,-16
   10848:	00812423          	sw	s0,8(sp)
   1084c:	00058413          	mv	s0,a1
   10850:	00e59583          	lh	a1,14(a1)
   10854:	00112623          	sw	ra,12(sp)
   10858:	1ac000ef          	jal	10a04 <_lseek_r>
   1085c:	fff00793          	li	a5,-1
   10860:	02f50863          	beq	a0,a5,10890 <__sseek+0x4c>
   10864:	00c45783          	lhu	a5,12(s0)
   10868:	00001737          	lui	a4,0x1
   1086c:	00c12083          	lw	ra,12(sp)
   10870:	00e7e7b3          	or	a5,a5,a4
   10874:	01079793          	slli	a5,a5,0x10
   10878:	4107d793          	srai	a5,a5,0x10
   1087c:	04a42823          	sw	a0,80(s0)
   10880:	00f41623          	sh	a5,12(s0)
   10884:	00812403          	lw	s0,8(sp)
   10888:	01010113          	addi	sp,sp,16
   1088c:	00008067          	ret
   10890:	00c45783          	lhu	a5,12(s0)
   10894:	fffff737          	lui	a4,0xfffff
   10898:	fff70713          	addi	a4,a4,-1 # ffffefff <__BSS_END__+0xfffea107>
   1089c:	00e7f7b3          	and	a5,a5,a4
   108a0:	01079793          	slli	a5,a5,0x10
   108a4:	4107d793          	srai	a5,a5,0x10
   108a8:	00c12083          	lw	ra,12(sp)
   108ac:	00f41623          	sh	a5,12(s0)
   108b0:	00812403          	lw	s0,8(sp)
   108b4:	01010113          	addi	sp,sp,16
   108b8:	00008067          	ret

000108bc <__sclose>:
   108bc:	00e59583          	lh	a1,14(a1)
   108c0:	0040006f          	j	108c4 <_close_r>

000108c4 <_close_r>:
   108c4:	ff010113          	addi	sp,sp,-16
   108c8:	00812423          	sw	s0,8(sp)
   108cc:	00912223          	sw	s1,4(sp)
   108d0:	00050413          	mv	s0,a0
   108d4:	00058513          	mv	a0,a1
   108d8:	00112623          	sw	ra,12(sp)
   108dc:	d401a623          	sw	zero,-692(gp) # 14bd4 <errno>
   108e0:	1a5020ef          	jal	13284 <_close>
   108e4:	fff00793          	li	a5,-1
   108e8:	00f50c63          	beq	a0,a5,10900 <_close_r+0x3c>
   108ec:	00c12083          	lw	ra,12(sp)
   108f0:	00812403          	lw	s0,8(sp)
   108f4:	00412483          	lw	s1,4(sp)
   108f8:	01010113          	addi	sp,sp,16
   108fc:	00008067          	ret
   10900:	d4c1a783          	lw	a5,-692(gp) # 14bd4 <errno>
   10904:	fe0784e3          	beqz	a5,108ec <_close_r+0x28>
   10908:	00c12083          	lw	ra,12(sp)
   1090c:	00f42023          	sw	a5,0(s0)
   10910:	00812403          	lw	s0,8(sp)
   10914:	00412483          	lw	s1,4(sp)
   10918:	01010113          	addi	sp,sp,16
   1091c:	00008067          	ret

00010920 <_reclaim_reent>:
   10920:	d3c1a783          	lw	a5,-708(gp) # 14bc4 <_impure_ptr>
   10924:	0ca78e63          	beq	a5,a0,10a00 <_reclaim_reent+0xe0>
   10928:	04452583          	lw	a1,68(a0)
   1092c:	fe010113          	addi	sp,sp,-32
   10930:	00912a23          	sw	s1,20(sp)
   10934:	00112e23          	sw	ra,28(sp)
   10938:	00812c23          	sw	s0,24(sp)
   1093c:	00050493          	mv	s1,a0
   10940:	04058863          	beqz	a1,10990 <_reclaim_reent+0x70>
   10944:	01212823          	sw	s2,16(sp)
   10948:	01312623          	sw	s3,12(sp)
   1094c:	00000913          	li	s2,0
   10950:	08000993          	li	s3,128
   10954:	012587b3          	add	a5,a1,s2
   10958:	0007a403          	lw	s0,0(a5)
   1095c:	00040e63          	beqz	s0,10978 <_reclaim_reent+0x58>
   10960:	00040593          	mv	a1,s0
   10964:	00042403          	lw	s0,0(s0)
   10968:	00048513          	mv	a0,s1
   1096c:	654000ef          	jal	10fc0 <_free_r>
   10970:	fe0418e3          	bnez	s0,10960 <_reclaim_reent+0x40>
   10974:	0444a583          	lw	a1,68(s1)
   10978:	00490913          	addi	s2,s2,4
   1097c:	fd391ce3          	bne	s2,s3,10954 <_reclaim_reent+0x34>
   10980:	00048513          	mv	a0,s1
   10984:	63c000ef          	jal	10fc0 <_free_r>
   10988:	01012903          	lw	s2,16(sp)
   1098c:	00c12983          	lw	s3,12(sp)
   10990:	0384a583          	lw	a1,56(s1)
   10994:	00058663          	beqz	a1,109a0 <_reclaim_reent+0x80>
   10998:	00048513          	mv	a0,s1
   1099c:	624000ef          	jal	10fc0 <_free_r>
   109a0:	0404a403          	lw	s0,64(s1)
   109a4:	00040c63          	beqz	s0,109bc <_reclaim_reent+0x9c>
   109a8:	00040593          	mv	a1,s0
   109ac:	00042403          	lw	s0,0(s0)
   109b0:	00048513          	mv	a0,s1
   109b4:	60c000ef          	jal	10fc0 <_free_r>
   109b8:	fe0418e3          	bnez	s0,109a8 <_reclaim_reent+0x88>
   109bc:	04c4a583          	lw	a1,76(s1)
   109c0:	00058663          	beqz	a1,109cc <_reclaim_reent+0xac>
   109c4:	00048513          	mv	a0,s1
   109c8:	5f8000ef          	jal	10fc0 <_free_r>
   109cc:	0344a783          	lw	a5,52(s1)
   109d0:	00078e63          	beqz	a5,109ec <_reclaim_reent+0xcc>
   109d4:	01812403          	lw	s0,24(sp)
   109d8:	01c12083          	lw	ra,28(sp)
   109dc:	00048513          	mv	a0,s1
   109e0:	01412483          	lw	s1,20(sp)
   109e4:	02010113          	addi	sp,sp,32
   109e8:	00078067          	jr	a5
   109ec:	01c12083          	lw	ra,28(sp)
   109f0:	01812403          	lw	s0,24(sp)
   109f4:	01412483          	lw	s1,20(sp)
   109f8:	02010113          	addi	sp,sp,32
   109fc:	00008067          	ret
   10a00:	00008067          	ret

00010a04 <_lseek_r>:
   10a04:	ff010113          	addi	sp,sp,-16
   10a08:	00058713          	mv	a4,a1
   10a0c:	00812423          	sw	s0,8(sp)
   10a10:	00912223          	sw	s1,4(sp)
   10a14:	00060593          	mv	a1,a2
   10a18:	00050413          	mv	s0,a0
   10a1c:	00068613          	mv	a2,a3
   10a20:	00070513          	mv	a0,a4
   10a24:	00112623          	sw	ra,12(sp)
   10a28:	d401a623          	sw	zero,-692(gp) # 14bd4 <errno>
   10a2c:	16d020ef          	jal	13398 <_lseek>
   10a30:	fff00793          	li	a5,-1
   10a34:	00f50c63          	beq	a0,a5,10a4c <_lseek_r+0x48>
   10a38:	00c12083          	lw	ra,12(sp)
   10a3c:	00812403          	lw	s0,8(sp)
   10a40:	00412483          	lw	s1,4(sp)
   10a44:	01010113          	addi	sp,sp,16
   10a48:	00008067          	ret
   10a4c:	d4c1a783          	lw	a5,-692(gp) # 14bd4 <errno>
   10a50:	fe0784e3          	beqz	a5,10a38 <_lseek_r+0x34>
   10a54:	00c12083          	lw	ra,12(sp)
   10a58:	00f42023          	sw	a5,0(s0)
   10a5c:	00812403          	lw	s0,8(sp)
   10a60:	00412483          	lw	s1,4(sp)
   10a64:	01010113          	addi	sp,sp,16
   10a68:	00008067          	ret

00010a6c <_read_r>:
   10a6c:	ff010113          	addi	sp,sp,-16
   10a70:	00058713          	mv	a4,a1
   10a74:	00812423          	sw	s0,8(sp)
   10a78:	00912223          	sw	s1,4(sp)
   10a7c:	00060593          	mv	a1,a2
   10a80:	00050413          	mv	s0,a0
   10a84:	00068613          	mv	a2,a3
   10a88:	00070513          	mv	a0,a4
   10a8c:	00112623          	sw	ra,12(sp)
   10a90:	d401a623          	sw	zero,-692(gp) # 14bd4 <errno>
   10a94:	149020ef          	jal	133dc <_read>
   10a98:	fff00793          	li	a5,-1
   10a9c:	00f50c63          	beq	a0,a5,10ab4 <_read_r+0x48>
   10aa0:	00c12083          	lw	ra,12(sp)
   10aa4:	00812403          	lw	s0,8(sp)
   10aa8:	00412483          	lw	s1,4(sp)
   10aac:	01010113          	addi	sp,sp,16
   10ab0:	00008067          	ret
   10ab4:	d4c1a783          	lw	a5,-692(gp) # 14bd4 <errno>
   10ab8:	fe0784e3          	beqz	a5,10aa0 <_read_r+0x34>
   10abc:	00c12083          	lw	ra,12(sp)
   10ac0:	00f42023          	sw	a5,0(s0)
   10ac4:	00812403          	lw	s0,8(sp)
   10ac8:	00412483          	lw	s1,4(sp)
   10acc:	01010113          	addi	sp,sp,16
   10ad0:	00008067          	ret

00010ad4 <_write_r>:
   10ad4:	ff010113          	addi	sp,sp,-16
   10ad8:	00058713          	mv	a4,a1
   10adc:	00812423          	sw	s0,8(sp)
   10ae0:	00912223          	sw	s1,4(sp)
   10ae4:	00060593          	mv	a1,a2
   10ae8:	00050413          	mv	s0,a0
   10aec:	00068613          	mv	a2,a3
   10af0:	00070513          	mv	a0,a4
   10af4:	00112623          	sw	ra,12(sp)
   10af8:	d401a623          	sw	zero,-692(gp) # 14bd4 <errno>
   10afc:	19d020ef          	jal	13498 <_write>
   10b00:	fff00793          	li	a5,-1
   10b04:	00f50c63          	beq	a0,a5,10b1c <_write_r+0x48>
   10b08:	00c12083          	lw	ra,12(sp)
   10b0c:	00812403          	lw	s0,8(sp)
   10b10:	00412483          	lw	s1,4(sp)
   10b14:	01010113          	addi	sp,sp,16
   10b18:	00008067          	ret
   10b1c:	d4c1a783          	lw	a5,-692(gp) # 14bd4 <errno>
   10b20:	fe0784e3          	beqz	a5,10b08 <_write_r+0x34>
   10b24:	00c12083          	lw	ra,12(sp)
   10b28:	00f42023          	sw	a5,0(s0)
   10b2c:	00812403          	lw	s0,8(sp)
   10b30:	00412483          	lw	s1,4(sp)
   10b34:	01010113          	addi	sp,sp,16
   10b38:	00008067          	ret

00010b3c <__libc_init_array>:
   10b3c:	ff010113          	addi	sp,sp,-16
   10b40:	00812423          	sw	s0,8(sp)
   10b44:	000147b7          	lui	a5,0x14
   10b48:	00014437          	lui	s0,0x14
   10b4c:	01212023          	sw	s2,0(sp)
   10b50:	67878793          	addi	a5,a5,1656 # 14678 <__init_array_start>
   10b54:	67840713          	addi	a4,s0,1656 # 14678 <__init_array_start>
   10b58:	00112623          	sw	ra,12(sp)
   10b5c:	00912223          	sw	s1,4(sp)
   10b60:	40e78933          	sub	s2,a5,a4
   10b64:	02e78263          	beq	a5,a4,10b88 <__libc_init_array+0x4c>
   10b68:	40295913          	srai	s2,s2,0x2
   10b6c:	67840413          	addi	s0,s0,1656
   10b70:	00000493          	li	s1,0
   10b74:	00042783          	lw	a5,0(s0)
   10b78:	00148493          	addi	s1,s1,1
   10b7c:	00440413          	addi	s0,s0,4
   10b80:	000780e7          	jalr	a5
   10b84:	ff24e8e3          	bltu	s1,s2,10b74 <__libc_init_array+0x38>
   10b88:	00014437          	lui	s0,0x14
   10b8c:	000147b7          	lui	a5,0x14
   10b90:	68078793          	addi	a5,a5,1664 # 14680 <__do_global_dtors_aux_fini_array_entry>
   10b94:	67840713          	addi	a4,s0,1656 # 14678 <__init_array_start>
   10b98:	40e78933          	sub	s2,a5,a4
   10b9c:	40295913          	srai	s2,s2,0x2
   10ba0:	02e78063          	beq	a5,a4,10bc0 <__libc_init_array+0x84>
   10ba4:	67840413          	addi	s0,s0,1656
   10ba8:	00000493          	li	s1,0
   10bac:	00042783          	lw	a5,0(s0)
   10bb0:	00148493          	addi	s1,s1,1
   10bb4:	00440413          	addi	s0,s0,4
   10bb8:	000780e7          	jalr	a5
   10bbc:	ff24e8e3          	bltu	s1,s2,10bac <__libc_init_array+0x70>
   10bc0:	00c12083          	lw	ra,12(sp)
   10bc4:	00812403          	lw	s0,8(sp)
   10bc8:	00412483          	lw	s1,4(sp)
   10bcc:	00012903          	lw	s2,0(sp)
   10bd0:	01010113          	addi	sp,sp,16
   10bd4:	00008067          	ret

00010bd8 <memset>:
   10bd8:	00f00313          	li	t1,15
   10bdc:	00050713          	mv	a4,a0
   10be0:	02c37e63          	bgeu	t1,a2,10c1c <memset+0x44>
   10be4:	00f77793          	andi	a5,a4,15
   10be8:	0a079063          	bnez	a5,10c88 <memset+0xb0>
   10bec:	08059263          	bnez	a1,10c70 <memset+0x98>
   10bf0:	ff067693          	andi	a3,a2,-16
   10bf4:	00f67613          	andi	a2,a2,15
   10bf8:	00e686b3          	add	a3,a3,a4
   10bfc:	00b72023          	sw	a1,0(a4)
   10c00:	00b72223          	sw	a1,4(a4)
   10c04:	00b72423          	sw	a1,8(a4)
   10c08:	00b72623          	sw	a1,12(a4)
   10c0c:	01070713          	addi	a4,a4,16
   10c10:	fed766e3          	bltu	a4,a3,10bfc <memset+0x24>
   10c14:	00061463          	bnez	a2,10c1c <memset+0x44>
   10c18:	00008067          	ret
   10c1c:	40c306b3          	sub	a3,t1,a2
   10c20:	00269693          	slli	a3,a3,0x2
   10c24:	00000297          	auipc	t0,0x0
   10c28:	005686b3          	add	a3,a3,t0
   10c2c:	00c68067          	jr	12(a3)
   10c30:	00b70723          	sb	a1,14(a4)
   10c34:	00b706a3          	sb	a1,13(a4)
   10c38:	00b70623          	sb	a1,12(a4)
   10c3c:	00b705a3          	sb	a1,11(a4)
   10c40:	00b70523          	sb	a1,10(a4)
   10c44:	00b704a3          	sb	a1,9(a4)
   10c48:	00b70423          	sb	a1,8(a4)
   10c4c:	00b703a3          	sb	a1,7(a4)
   10c50:	00b70323          	sb	a1,6(a4)
   10c54:	00b702a3          	sb	a1,5(a4)
   10c58:	00b70223          	sb	a1,4(a4)
   10c5c:	00b701a3          	sb	a1,3(a4)
   10c60:	00b70123          	sb	a1,2(a4)
   10c64:	00b700a3          	sb	a1,1(a4)
   10c68:	00b70023          	sb	a1,0(a4)
   10c6c:	00008067          	ret
   10c70:	0ff5f593          	zext.b	a1,a1
   10c74:	00859693          	slli	a3,a1,0x8
   10c78:	00d5e5b3          	or	a1,a1,a3
   10c7c:	01059693          	slli	a3,a1,0x10
   10c80:	00d5e5b3          	or	a1,a1,a3
   10c84:	f6dff06f          	j	10bf0 <memset+0x18>
   10c88:	00279693          	slli	a3,a5,0x2
   10c8c:	00000297          	auipc	t0,0x0
   10c90:	005686b3          	add	a3,a3,t0
   10c94:	00008293          	mv	t0,ra
   10c98:	fa0680e7          	jalr	-96(a3)
   10c9c:	00028093          	mv	ra,t0
   10ca0:	ff078793          	addi	a5,a5,-16
   10ca4:	40f70733          	sub	a4,a4,a5
   10ca8:	00f60633          	add	a2,a2,a5
   10cac:	f6c378e3          	bgeu	t1,a2,10c1c <memset+0x44>
   10cb0:	f3dff06f          	j	10bec <memset+0x14>

00010cb4 <strlen>:
   10cb4:	00357793          	andi	a5,a0,3
   10cb8:	00050713          	mv	a4,a0
   10cbc:	04079c63          	bnez	a5,10d14 <strlen+0x60>
   10cc0:	7f7f86b7          	lui	a3,0x7f7f8
   10cc4:	f7f68693          	addi	a3,a3,-129 # 7f7f7f7f <__BSS_END__+0x7f7e3087>
   10cc8:	fff00593          	li	a1,-1
   10ccc:	00072603          	lw	a2,0(a4)
   10cd0:	00470713          	addi	a4,a4,4
   10cd4:	00d677b3          	and	a5,a2,a3
   10cd8:	00d787b3          	add	a5,a5,a3
   10cdc:	00c7e7b3          	or	a5,a5,a2
   10ce0:	00d7e7b3          	or	a5,a5,a3
   10ce4:	feb784e3          	beq	a5,a1,10ccc <strlen+0x18>
   10ce8:	ffc74683          	lbu	a3,-4(a4)
   10cec:	40a707b3          	sub	a5,a4,a0
   10cf0:	04068463          	beqz	a3,10d38 <strlen+0x84>
   10cf4:	ffd74683          	lbu	a3,-3(a4)
   10cf8:	02068c63          	beqz	a3,10d30 <strlen+0x7c>
   10cfc:	ffe74503          	lbu	a0,-2(a4)
   10d00:	00a03533          	snez	a0,a0
   10d04:	00f50533          	add	a0,a0,a5
   10d08:	ffe50513          	addi	a0,a0,-2
   10d0c:	00008067          	ret
   10d10:	fa0688e3          	beqz	a3,10cc0 <strlen+0xc>
   10d14:	00074783          	lbu	a5,0(a4)
   10d18:	00170713          	addi	a4,a4,1
   10d1c:	00377693          	andi	a3,a4,3
   10d20:	fe0798e3          	bnez	a5,10d10 <strlen+0x5c>
   10d24:	40a70733          	sub	a4,a4,a0
   10d28:	fff70513          	addi	a0,a4,-1
   10d2c:	00008067          	ret
   10d30:	ffd78513          	addi	a0,a5,-3
   10d34:	00008067          	ret
   10d38:	ffc78513          	addi	a0,a5,-4
   10d3c:	00008067          	ret

00010d40 <__call_exitprocs>:
   10d40:	fd010113          	addi	sp,sp,-48
   10d44:	01412c23          	sw	s4,24(sp)
   10d48:	03212023          	sw	s2,32(sp)
   10d4c:	d501a903          	lw	s2,-688(gp) # 14bd8 <__atexit>
   10d50:	02112623          	sw	ra,44(sp)
   10d54:	0a090863          	beqz	s2,10e04 <__call_exitprocs+0xc4>
   10d58:	01312e23          	sw	s3,28(sp)
   10d5c:	01512a23          	sw	s5,20(sp)
   10d60:	01612823          	sw	s6,16(sp)
   10d64:	01712623          	sw	s7,12(sp)
   10d68:	02812423          	sw	s0,40(sp)
   10d6c:	02912223          	sw	s1,36(sp)
   10d70:	01812423          	sw	s8,8(sp)
   10d74:	00050b13          	mv	s6,a0
   10d78:	00058b93          	mv	s7,a1
   10d7c:	fff00993          	li	s3,-1
   10d80:	00100a93          	li	s5,1
   10d84:	00492483          	lw	s1,4(s2)
   10d88:	fff48413          	addi	s0,s1,-1
   10d8c:	04044e63          	bltz	s0,10de8 <__call_exitprocs+0xa8>
   10d90:	00249493          	slli	s1,s1,0x2
   10d94:	009904b3          	add	s1,s2,s1
   10d98:	080b9063          	bnez	s7,10e18 <__call_exitprocs+0xd8>
   10d9c:	00492783          	lw	a5,4(s2)
   10da0:	0044a683          	lw	a3,4(s1)
   10da4:	fff78793          	addi	a5,a5,-1
   10da8:	0a878c63          	beq	a5,s0,10e60 <__call_exitprocs+0x120>
   10dac:	0004a223          	sw	zero,4(s1)
   10db0:	02068663          	beqz	a3,10ddc <__call_exitprocs+0x9c>
   10db4:	18892783          	lw	a5,392(s2)
   10db8:	008a9733          	sll	a4,s5,s0
   10dbc:	00492c03          	lw	s8,4(s2)
   10dc0:	00f777b3          	and	a5,a4,a5
   10dc4:	06079663          	bnez	a5,10e30 <__call_exitprocs+0xf0>
   10dc8:	000680e7          	jalr	a3
   10dcc:	00492703          	lw	a4,4(s2)
   10dd0:	d501a783          	lw	a5,-688(gp) # 14bd8 <__atexit>
   10dd4:	09871063          	bne	a4,s8,10e54 <__call_exitprocs+0x114>
   10dd8:	07279e63          	bne	a5,s2,10e54 <__call_exitprocs+0x114>
   10ddc:	fff40413          	addi	s0,s0,-1
   10de0:	ffc48493          	addi	s1,s1,-4
   10de4:	fb341ae3          	bne	s0,s3,10d98 <__call_exitprocs+0x58>
   10de8:	02812403          	lw	s0,40(sp)
   10dec:	02412483          	lw	s1,36(sp)
   10df0:	01c12983          	lw	s3,28(sp)
   10df4:	01412a83          	lw	s5,20(sp)
   10df8:	01012b03          	lw	s6,16(sp)
   10dfc:	00c12b83          	lw	s7,12(sp)
   10e00:	00812c03          	lw	s8,8(sp)
   10e04:	02c12083          	lw	ra,44(sp)
   10e08:	02012903          	lw	s2,32(sp)
   10e0c:	01812a03          	lw	s4,24(sp)
   10e10:	03010113          	addi	sp,sp,48
   10e14:	00008067          	ret
   10e18:	1044a783          	lw	a5,260(s1)
   10e1c:	f97780e3          	beq	a5,s7,10d9c <__call_exitprocs+0x5c>
   10e20:	fff40413          	addi	s0,s0,-1
   10e24:	ffc48493          	addi	s1,s1,-4
   10e28:	ff3418e3          	bne	s0,s3,10e18 <__call_exitprocs+0xd8>
   10e2c:	fbdff06f          	j	10de8 <__call_exitprocs+0xa8>
   10e30:	18c92783          	lw	a5,396(s2)
   10e34:	0844a583          	lw	a1,132(s1)
   10e38:	00f77733          	and	a4,a4,a5
   10e3c:	02071663          	bnez	a4,10e68 <__call_exitprocs+0x128>
   10e40:	000b0513          	mv	a0,s6
   10e44:	000680e7          	jalr	a3
   10e48:	00492703          	lw	a4,4(s2)
   10e4c:	d501a783          	lw	a5,-688(gp) # 14bd8 <__atexit>
   10e50:	f98704e3          	beq	a4,s8,10dd8 <__call_exitprocs+0x98>
   10e54:	f8078ae3          	beqz	a5,10de8 <__call_exitprocs+0xa8>
   10e58:	00078913          	mv	s2,a5
   10e5c:	f29ff06f          	j	10d84 <__call_exitprocs+0x44>
   10e60:	00892223          	sw	s0,4(s2)
   10e64:	f4dff06f          	j	10db0 <__call_exitprocs+0x70>
   10e68:	00058513          	mv	a0,a1
   10e6c:	000680e7          	jalr	a3
   10e70:	f5dff06f          	j	10dcc <__call_exitprocs+0x8c>

00010e74 <atexit>:
   10e74:	00050593          	mv	a1,a0
   10e78:	00000693          	li	a3,0
   10e7c:	00000613          	li	a2,0
   10e80:	00000513          	li	a0,0
   10e84:	2c90106f          	j	1294c <__register_exitproc>

00010e88 <_malloc_trim_r>:
   10e88:	fe010113          	addi	sp,sp,-32
   10e8c:	01312623          	sw	s3,12(sp)
   10e90:	000149b7          	lui	s3,0x14
   10e94:	00812c23          	sw	s0,24(sp)
   10e98:	00912a23          	sw	s1,20(sp)
   10e9c:	01212823          	sw	s2,16(sp)
   10ea0:	01412423          	sw	s4,8(sp)
   10ea4:	00112e23          	sw	ra,28(sp)
   10ea8:	00058a13          	mv	s4,a1
   10eac:	00050913          	mv	s2,a0
   10eb0:	7b898993          	addi	s3,s3,1976 # 147b8 <__malloc_av_>
   10eb4:	3cd000ef          	jal	11a80 <__malloc_lock>
   10eb8:	0089a703          	lw	a4,8(s3)
   10ebc:	000017b7          	lui	a5,0x1
   10ec0:	fef78793          	addi	a5,a5,-17 # fef <exit-0xf0a5>
   10ec4:	00472483          	lw	s1,4(a4)
   10ec8:	00001737          	lui	a4,0x1
   10ecc:	ffc4f493          	andi	s1,s1,-4
   10ed0:	00f48433          	add	s0,s1,a5
   10ed4:	41440433          	sub	s0,s0,s4
   10ed8:	00c45413          	srli	s0,s0,0xc
   10edc:	fff40413          	addi	s0,s0,-1
   10ee0:	00c41413          	slli	s0,s0,0xc
   10ee4:	00e44e63          	blt	s0,a4,10f00 <_malloc_trim_r+0x78>
   10ee8:	00000593          	li	a1,0
   10eec:	00090513          	mv	a0,s2
   10ef0:	6f4010ef          	jal	125e4 <_sbrk_r>
   10ef4:	0089a783          	lw	a5,8(s3)
   10ef8:	009787b3          	add	a5,a5,s1
   10efc:	02f50863          	beq	a0,a5,10f2c <_malloc_trim_r+0xa4>
   10f00:	00090513          	mv	a0,s2
   10f04:	381000ef          	jal	11a84 <__malloc_unlock>
   10f08:	01c12083          	lw	ra,28(sp)
   10f0c:	01812403          	lw	s0,24(sp)
   10f10:	01412483          	lw	s1,20(sp)
   10f14:	01012903          	lw	s2,16(sp)
   10f18:	00c12983          	lw	s3,12(sp)
   10f1c:	00812a03          	lw	s4,8(sp)
   10f20:	00000513          	li	a0,0
   10f24:	02010113          	addi	sp,sp,32
   10f28:	00008067          	ret
   10f2c:	408005b3          	neg	a1,s0
   10f30:	00090513          	mv	a0,s2
   10f34:	6b0010ef          	jal	125e4 <_sbrk_r>
   10f38:	fff00793          	li	a5,-1
   10f3c:	04f50863          	beq	a0,a5,10f8c <_malloc_trim_r+0x104>
   10f40:	eb818793          	addi	a5,gp,-328 # 14d40 <__malloc_current_mallinfo>
   10f44:	0007a703          	lw	a4,0(a5)
   10f48:	0089a683          	lw	a3,8(s3)
   10f4c:	408484b3          	sub	s1,s1,s0
   10f50:	0014e493          	ori	s1,s1,1
   10f54:	40870733          	sub	a4,a4,s0
   10f58:	00090513          	mv	a0,s2
   10f5c:	0096a223          	sw	s1,4(a3)
   10f60:	00e7a023          	sw	a4,0(a5)
   10f64:	321000ef          	jal	11a84 <__malloc_unlock>
   10f68:	01c12083          	lw	ra,28(sp)
   10f6c:	01812403          	lw	s0,24(sp)
   10f70:	01412483          	lw	s1,20(sp)
   10f74:	01012903          	lw	s2,16(sp)
   10f78:	00c12983          	lw	s3,12(sp)
   10f7c:	00812a03          	lw	s4,8(sp)
   10f80:	00100513          	li	a0,1
   10f84:	02010113          	addi	sp,sp,32
   10f88:	00008067          	ret
   10f8c:	00000593          	li	a1,0
   10f90:	00090513          	mv	a0,s2
   10f94:	650010ef          	jal	125e4 <_sbrk_r>
   10f98:	0089a703          	lw	a4,8(s3)
   10f9c:	00f00693          	li	a3,15
   10fa0:	40e507b3          	sub	a5,a0,a4
   10fa4:	f4f6dee3          	bge	a3,a5,10f00 <_malloc_trim_r+0x78>
   10fa8:	d401a683          	lw	a3,-704(gp) # 14bc8 <__malloc_sbrk_base>
   10fac:	0017e793          	ori	a5,a5,1
   10fb0:	00f72223          	sw	a5,4(a4) # 1004 <exit-0xf090>
   10fb4:	40d50533          	sub	a0,a0,a3
   10fb8:	eaa1ac23          	sw	a0,-328(gp) # 14d40 <__malloc_current_mallinfo>
   10fbc:	f45ff06f          	j	10f00 <_malloc_trim_r+0x78>

00010fc0 <_free_r>:
   10fc0:	18058263          	beqz	a1,11144 <_free_r+0x184>
   10fc4:	ff010113          	addi	sp,sp,-16
   10fc8:	00812423          	sw	s0,8(sp)
   10fcc:	00912223          	sw	s1,4(sp)
   10fd0:	00058413          	mv	s0,a1
   10fd4:	00050493          	mv	s1,a0
   10fd8:	00112623          	sw	ra,12(sp)
   10fdc:	2a5000ef          	jal	11a80 <__malloc_lock>
   10fe0:	ffc42503          	lw	a0,-4(s0)
   10fe4:	ff840713          	addi	a4,s0,-8
   10fe8:	000145b7          	lui	a1,0x14
   10fec:	ffe57793          	andi	a5,a0,-2
   10ff0:	00f70633          	add	a2,a4,a5
   10ff4:	7b858593          	addi	a1,a1,1976 # 147b8 <__malloc_av_>
   10ff8:	00462683          	lw	a3,4(a2) # 2004 <exit-0xe090>
   10ffc:	0085a803          	lw	a6,8(a1)
   11000:	ffc6f693          	andi	a3,a3,-4
   11004:	1ac80263          	beq	a6,a2,111a8 <_free_r+0x1e8>
   11008:	00d62223          	sw	a3,4(a2)
   1100c:	00157513          	andi	a0,a0,1
   11010:	00d60833          	add	a6,a2,a3
   11014:	0a051063          	bnez	a0,110b4 <_free_r+0xf4>
   11018:	ff842303          	lw	t1,-8(s0)
   1101c:	00482803          	lw	a6,4(a6)
   11020:	00014537          	lui	a0,0x14
   11024:	40670733          	sub	a4,a4,t1
   11028:	00872883          	lw	a7,8(a4)
   1102c:	7c050513          	addi	a0,a0,1984 # 147c0 <__malloc_av_+0x8>
   11030:	006787b3          	add	a5,a5,t1
   11034:	00187813          	andi	a6,a6,1
   11038:	14a88263          	beq	a7,a0,1117c <_free_r+0x1bc>
   1103c:	00c72303          	lw	t1,12(a4)
   11040:	0068a623          	sw	t1,12(a7)
   11044:	01132423          	sw	a7,8(t1) # 10184 <frame_dummy+0x1c>
   11048:	1a080663          	beqz	a6,111f4 <_free_r+0x234>
   1104c:	0017e693          	ori	a3,a5,1
   11050:	00d72223          	sw	a3,4(a4)
   11054:	00f62023          	sw	a5,0(a2)
   11058:	1ff00693          	li	a3,511
   1105c:	06f6ec63          	bltu	a3,a5,110d4 <_free_r+0x114>
   11060:	ff87f693          	andi	a3,a5,-8
   11064:	00868693          	addi	a3,a3,8
   11068:	0045a503          	lw	a0,4(a1)
   1106c:	00d586b3          	add	a3,a1,a3
   11070:	0006a603          	lw	a2,0(a3)
   11074:	0057d813          	srli	a6,a5,0x5
   11078:	00100793          	li	a5,1
   1107c:	010797b3          	sll	a5,a5,a6
   11080:	00a7e7b3          	or	a5,a5,a0
   11084:	ff868513          	addi	a0,a3,-8
   11088:	00a72623          	sw	a0,12(a4)
   1108c:	00c72423          	sw	a2,8(a4)
   11090:	00f5a223          	sw	a5,4(a1)
   11094:	00e6a023          	sw	a4,0(a3)
   11098:	00e62623          	sw	a4,12(a2)
   1109c:	00812403          	lw	s0,8(sp)
   110a0:	00c12083          	lw	ra,12(sp)
   110a4:	00048513          	mv	a0,s1
   110a8:	00412483          	lw	s1,4(sp)
   110ac:	01010113          	addi	sp,sp,16
   110b0:	1d50006f          	j	11a84 <__malloc_unlock>
   110b4:	00482503          	lw	a0,4(a6)
   110b8:	00157513          	andi	a0,a0,1
   110bc:	08050663          	beqz	a0,11148 <_free_r+0x188>
   110c0:	0017e693          	ori	a3,a5,1
   110c4:	fed42e23          	sw	a3,-4(s0)
   110c8:	00f62023          	sw	a5,0(a2)
   110cc:	1ff00693          	li	a3,511
   110d0:	f8f6f8e3          	bgeu	a3,a5,11060 <_free_r+0xa0>
   110d4:	0097d693          	srli	a3,a5,0x9
   110d8:	00400613          	li	a2,4
   110dc:	12d66063          	bltu	a2,a3,111fc <_free_r+0x23c>
   110e0:	0067d693          	srli	a3,a5,0x6
   110e4:	03968513          	addi	a0,a3,57
   110e8:	03868613          	addi	a2,a3,56
   110ec:	00351513          	slli	a0,a0,0x3
   110f0:	00a58533          	add	a0,a1,a0
   110f4:	00052683          	lw	a3,0(a0)
   110f8:	ff850513          	addi	a0,a0,-8
   110fc:	00d51863          	bne	a0,a3,1110c <_free_r+0x14c>
   11100:	1540006f          	j	11254 <_free_r+0x294>
   11104:	0086a683          	lw	a3,8(a3)
   11108:	00d50863          	beq	a0,a3,11118 <_free_r+0x158>
   1110c:	0046a603          	lw	a2,4(a3)
   11110:	ffc67613          	andi	a2,a2,-4
   11114:	fec7e8e3          	bltu	a5,a2,11104 <_free_r+0x144>
   11118:	00c6a503          	lw	a0,12(a3)
   1111c:	00a72623          	sw	a0,12(a4)
   11120:	00d72423          	sw	a3,8(a4)
   11124:	00812403          	lw	s0,8(sp)
   11128:	00e52423          	sw	a4,8(a0)
   1112c:	00c12083          	lw	ra,12(sp)
   11130:	00048513          	mv	a0,s1
   11134:	00412483          	lw	s1,4(sp)
   11138:	00e6a623          	sw	a4,12(a3)
   1113c:	01010113          	addi	sp,sp,16
   11140:	1450006f          	j	11a84 <__malloc_unlock>
   11144:	00008067          	ret
   11148:	00014537          	lui	a0,0x14
   1114c:	00d787b3          	add	a5,a5,a3
   11150:	7c050513          	addi	a0,a0,1984 # 147c0 <__malloc_av_+0x8>
   11154:	00862683          	lw	a3,8(a2)
   11158:	0ca68c63          	beq	a3,a0,11230 <_free_r+0x270>
   1115c:	00c62803          	lw	a6,12(a2)
   11160:	0017e513          	ori	a0,a5,1
   11164:	00f70633          	add	a2,a4,a5
   11168:	0106a623          	sw	a6,12(a3)
   1116c:	00d82423          	sw	a3,8(a6)
   11170:	00a72223          	sw	a0,4(a4)
   11174:	00f62023          	sw	a5,0(a2)
   11178:	ee1ff06f          	j	11058 <_free_r+0x98>
   1117c:	12081c63          	bnez	a6,112b4 <_free_r+0x2f4>
   11180:	00862583          	lw	a1,8(a2)
   11184:	00c62603          	lw	a2,12(a2)
   11188:	00f686b3          	add	a3,a3,a5
   1118c:	0016e793          	ori	a5,a3,1
   11190:	00c5a623          	sw	a2,12(a1)
   11194:	00b62423          	sw	a1,8(a2)
   11198:	00f72223          	sw	a5,4(a4)
   1119c:	00d70733          	add	a4,a4,a3
   111a0:	00d72023          	sw	a3,0(a4)
   111a4:	ef9ff06f          	j	1109c <_free_r+0xdc>
   111a8:	00157513          	andi	a0,a0,1
   111ac:	00d786b3          	add	a3,a5,a3
   111b0:	02051063          	bnez	a0,111d0 <_free_r+0x210>
   111b4:	ff842503          	lw	a0,-8(s0)
   111b8:	40a70733          	sub	a4,a4,a0
   111bc:	00c72783          	lw	a5,12(a4)
   111c0:	00872603          	lw	a2,8(a4)
   111c4:	00a686b3          	add	a3,a3,a0
   111c8:	00f62623          	sw	a5,12(a2)
   111cc:	00c7a423          	sw	a2,8(a5)
   111d0:	0016e613          	ori	a2,a3,1
   111d4:	d441a783          	lw	a5,-700(gp) # 14bcc <__malloc_trim_threshold>
   111d8:	00c72223          	sw	a2,4(a4)
   111dc:	00e5a423          	sw	a4,8(a1)
   111e0:	eaf6eee3          	bltu	a3,a5,1109c <_free_r+0xdc>
   111e4:	d5c1a583          	lw	a1,-676(gp) # 14be4 <__malloc_top_pad>
   111e8:	00048513          	mv	a0,s1
   111ec:	c9dff0ef          	jal	10e88 <_malloc_trim_r>
   111f0:	eadff06f          	j	1109c <_free_r+0xdc>
   111f4:	00d787b3          	add	a5,a5,a3
   111f8:	f5dff06f          	j	11154 <_free_r+0x194>
   111fc:	01400613          	li	a2,20
   11200:	02d67063          	bgeu	a2,a3,11220 <_free_r+0x260>
   11204:	05400613          	li	a2,84
   11208:	06d66463          	bltu	a2,a3,11270 <_free_r+0x2b0>
   1120c:	00c7d693          	srli	a3,a5,0xc
   11210:	06f68513          	addi	a0,a3,111
   11214:	06e68613          	addi	a2,a3,110
   11218:	00351513          	slli	a0,a0,0x3
   1121c:	ed5ff06f          	j	110f0 <_free_r+0x130>
   11220:	05c68513          	addi	a0,a3,92
   11224:	05b68613          	addi	a2,a3,91
   11228:	00351513          	slli	a0,a0,0x3
   1122c:	ec5ff06f          	j	110f0 <_free_r+0x130>
   11230:	00e5aa23          	sw	a4,20(a1)
   11234:	00e5a823          	sw	a4,16(a1)
   11238:	0017e693          	ori	a3,a5,1
   1123c:	00a72623          	sw	a0,12(a4)
   11240:	00a72423          	sw	a0,8(a4)
   11244:	00d72223          	sw	a3,4(a4)
   11248:	00f70733          	add	a4,a4,a5
   1124c:	00f72023          	sw	a5,0(a4)
   11250:	e4dff06f          	j	1109c <_free_r+0xdc>
   11254:	0045a803          	lw	a6,4(a1)
   11258:	40265613          	srai	a2,a2,0x2
   1125c:	00100793          	li	a5,1
   11260:	00c797b3          	sll	a5,a5,a2
   11264:	0107e7b3          	or	a5,a5,a6
   11268:	00f5a223          	sw	a5,4(a1)
   1126c:	eb1ff06f          	j	1111c <_free_r+0x15c>
   11270:	15400613          	li	a2,340
   11274:	00d66c63          	bltu	a2,a3,1128c <_free_r+0x2cc>
   11278:	00f7d693          	srli	a3,a5,0xf
   1127c:	07868513          	addi	a0,a3,120
   11280:	07768613          	addi	a2,a3,119
   11284:	00351513          	slli	a0,a0,0x3
   11288:	e69ff06f          	j	110f0 <_free_r+0x130>
   1128c:	55400613          	li	a2,1364
   11290:	00d66c63          	bltu	a2,a3,112a8 <_free_r+0x2e8>
   11294:	0127d693          	srli	a3,a5,0x12
   11298:	07d68513          	addi	a0,a3,125
   1129c:	07c68613          	addi	a2,a3,124
   112a0:	00351513          	slli	a0,a0,0x3
   112a4:	e4dff06f          	j	110f0 <_free_r+0x130>
   112a8:	3f800513          	li	a0,1016
   112ac:	07e00613          	li	a2,126
   112b0:	e41ff06f          	j	110f0 <_free_r+0x130>
   112b4:	0017e693          	ori	a3,a5,1
   112b8:	00d72223          	sw	a3,4(a4)
   112bc:	00f62023          	sw	a5,0(a2)
   112c0:	dddff06f          	j	1109c <_free_r+0xdc>

000112c4 <_malloc_r>:
   112c4:	fd010113          	addi	sp,sp,-48
   112c8:	01312e23          	sw	s3,28(sp)
   112cc:	02112623          	sw	ra,44(sp)
   112d0:	02812423          	sw	s0,40(sp)
   112d4:	02912223          	sw	s1,36(sp)
   112d8:	03212023          	sw	s2,32(sp)
   112dc:	00b58793          	addi	a5,a1,11
   112e0:	01600713          	li	a4,22
   112e4:	00050993          	mv	s3,a0
   112e8:	08f76263          	bltu	a4,a5,1136c <_malloc_r+0xa8>
   112ec:	01000793          	li	a5,16
   112f0:	20b7e663          	bltu	a5,a1,114fc <_malloc_r+0x238>
   112f4:	78c000ef          	jal	11a80 <__malloc_lock>
   112f8:	01800793          	li	a5,24
   112fc:	00200593          	li	a1,2
   11300:	01000493          	li	s1,16
   11304:	00014937          	lui	s2,0x14
   11308:	7b890913          	addi	s2,s2,1976 # 147b8 <__malloc_av_>
   1130c:	00f907b3          	add	a5,s2,a5
   11310:	0047a403          	lw	s0,4(a5)
   11314:	ff878713          	addi	a4,a5,-8
   11318:	34e40463          	beq	s0,a4,11660 <_malloc_r+0x39c>
   1131c:	00442783          	lw	a5,4(s0)
   11320:	00c42683          	lw	a3,12(s0)
   11324:	00842603          	lw	a2,8(s0)
   11328:	ffc7f793          	andi	a5,a5,-4
   1132c:	00f407b3          	add	a5,s0,a5
   11330:	0047a703          	lw	a4,4(a5)
   11334:	00d62623          	sw	a3,12(a2)
   11338:	00c6a423          	sw	a2,8(a3)
   1133c:	00176713          	ori	a4,a4,1
   11340:	00098513          	mv	a0,s3
   11344:	00e7a223          	sw	a4,4(a5)
   11348:	73c000ef          	jal	11a84 <__malloc_unlock>
   1134c:	00840513          	addi	a0,s0,8
   11350:	02c12083          	lw	ra,44(sp)
   11354:	02812403          	lw	s0,40(sp)
   11358:	02412483          	lw	s1,36(sp)
   1135c:	02012903          	lw	s2,32(sp)
   11360:	01c12983          	lw	s3,28(sp)
   11364:	03010113          	addi	sp,sp,48
   11368:	00008067          	ret
   1136c:	ff87f493          	andi	s1,a5,-8
   11370:	1807c663          	bltz	a5,114fc <_malloc_r+0x238>
   11374:	18b4e463          	bltu	s1,a1,114fc <_malloc_r+0x238>
   11378:	708000ef          	jal	11a80 <__malloc_lock>
   1137c:	1f700793          	li	a5,503
   11380:	3e97fa63          	bgeu	a5,s1,11774 <_malloc_r+0x4b0>
   11384:	0094d793          	srli	a5,s1,0x9
   11388:	18078263          	beqz	a5,1150c <_malloc_r+0x248>
   1138c:	00400713          	li	a4,4
   11390:	34f76063          	bltu	a4,a5,116d0 <_malloc_r+0x40c>
   11394:	0064d793          	srli	a5,s1,0x6
   11398:	03978593          	addi	a1,a5,57
   1139c:	03878813          	addi	a6,a5,56
   113a0:	00359613          	slli	a2,a1,0x3
   113a4:	00014937          	lui	s2,0x14
   113a8:	7b890913          	addi	s2,s2,1976 # 147b8 <__malloc_av_>
   113ac:	00c90633          	add	a2,s2,a2
   113b0:	00462403          	lw	s0,4(a2)
   113b4:	ff860613          	addi	a2,a2,-8
   113b8:	02860863          	beq	a2,s0,113e8 <_malloc_r+0x124>
   113bc:	00f00513          	li	a0,15
   113c0:	0140006f          	j	113d4 <_malloc_r+0x110>
   113c4:	00c42683          	lw	a3,12(s0)
   113c8:	28075863          	bgez	a4,11658 <_malloc_r+0x394>
   113cc:	00d60e63          	beq	a2,a3,113e8 <_malloc_r+0x124>
   113d0:	00068413          	mv	s0,a3
   113d4:	00442783          	lw	a5,4(s0)
   113d8:	ffc7f793          	andi	a5,a5,-4
   113dc:	40978733          	sub	a4,a5,s1
   113e0:	fee552e3          	bge	a0,a4,113c4 <_malloc_r+0x100>
   113e4:	00080593          	mv	a1,a6
   113e8:	01092403          	lw	s0,16(s2)
   113ec:	00014837          	lui	a6,0x14
   113f0:	7c080813          	addi	a6,a6,1984 # 147c0 <__malloc_av_+0x8>
   113f4:	25040e63          	beq	s0,a6,11650 <_malloc_r+0x38c>
   113f8:	00442783          	lw	a5,4(s0)
   113fc:	00f00693          	li	a3,15
   11400:	ffc7f793          	andi	a5,a5,-4
   11404:	40978733          	sub	a4,a5,s1
   11408:	36e6cc63          	blt	a3,a4,11780 <_malloc_r+0x4bc>
   1140c:	01092a23          	sw	a6,20(s2)
   11410:	01092823          	sw	a6,16(s2)
   11414:	34075063          	bgez	a4,11754 <_malloc_r+0x490>
   11418:	1ff00713          	li	a4,511
   1141c:	00492503          	lw	a0,4(s2)
   11420:	24f76863          	bltu	a4,a5,11670 <_malloc_r+0x3ac>
   11424:	ff87f713          	andi	a4,a5,-8
   11428:	00870713          	addi	a4,a4,8
   1142c:	00e90733          	add	a4,s2,a4
   11430:	00072683          	lw	a3,0(a4)
   11434:	0057d613          	srli	a2,a5,0x5
   11438:	00100793          	li	a5,1
   1143c:	00c797b3          	sll	a5,a5,a2
   11440:	00f56533          	or	a0,a0,a5
   11444:	ff870793          	addi	a5,a4,-8
   11448:	00f42623          	sw	a5,12(s0)
   1144c:	00d42423          	sw	a3,8(s0)
   11450:	00a92223          	sw	a0,4(s2)
   11454:	00872023          	sw	s0,0(a4)
   11458:	0086a623          	sw	s0,12(a3)
   1145c:	4025d793          	srai	a5,a1,0x2
   11460:	00100613          	li	a2,1
   11464:	00f61633          	sll	a2,a2,a5
   11468:	0ac56a63          	bltu	a0,a2,1151c <_malloc_r+0x258>
   1146c:	00a677b3          	and	a5,a2,a0
   11470:	02079463          	bnez	a5,11498 <_malloc_r+0x1d4>
   11474:	00161613          	slli	a2,a2,0x1
   11478:	ffc5f593          	andi	a1,a1,-4
   1147c:	00a677b3          	and	a5,a2,a0
   11480:	00458593          	addi	a1,a1,4
   11484:	00079a63          	bnez	a5,11498 <_malloc_r+0x1d4>
   11488:	00161613          	slli	a2,a2,0x1
   1148c:	00a677b3          	and	a5,a2,a0
   11490:	00458593          	addi	a1,a1,4
   11494:	fe078ae3          	beqz	a5,11488 <_malloc_r+0x1c4>
   11498:	00f00893          	li	a7,15
   1149c:	00359313          	slli	t1,a1,0x3
   114a0:	00690333          	add	t1,s2,t1
   114a4:	00030513          	mv	a0,t1
   114a8:	00c52783          	lw	a5,12(a0)
   114ac:	00058e13          	mv	t3,a1
   114b0:	24f50263          	beq	a0,a5,116f4 <_malloc_r+0x430>
   114b4:	0047a703          	lw	a4,4(a5)
   114b8:	00078413          	mv	s0,a5
   114bc:	00c7a783          	lw	a5,12(a5)
   114c0:	ffc77713          	andi	a4,a4,-4
   114c4:	409706b3          	sub	a3,a4,s1
   114c8:	24d8c263          	blt	a7,a3,1170c <_malloc_r+0x448>
   114cc:	fe06c2e3          	bltz	a3,114b0 <_malloc_r+0x1ec>
   114d0:	00e40733          	add	a4,s0,a4
   114d4:	00472683          	lw	a3,4(a4)
   114d8:	00842603          	lw	a2,8(s0)
   114dc:	00098513          	mv	a0,s3
   114e0:	0016e693          	ori	a3,a3,1
   114e4:	00d72223          	sw	a3,4(a4)
   114e8:	00f62623          	sw	a5,12(a2)
   114ec:	00c7a423          	sw	a2,8(a5)
   114f0:	594000ef          	jal	11a84 <__malloc_unlock>
   114f4:	00840513          	addi	a0,s0,8
   114f8:	e59ff06f          	j	11350 <_malloc_r+0x8c>
   114fc:	00c00793          	li	a5,12
   11500:	00f9a023          	sw	a5,0(s3)
   11504:	00000513          	li	a0,0
   11508:	e49ff06f          	j	11350 <_malloc_r+0x8c>
   1150c:	20000613          	li	a2,512
   11510:	04000593          	li	a1,64
   11514:	03f00813          	li	a6,63
   11518:	e8dff06f          	j	113a4 <_malloc_r+0xe0>
   1151c:	00892403          	lw	s0,8(s2)
   11520:	01612823          	sw	s6,16(sp)
   11524:	00442783          	lw	a5,4(s0)
   11528:	ffc7fb13          	andi	s6,a5,-4
   1152c:	009b6863          	bltu	s6,s1,1153c <_malloc_r+0x278>
   11530:	409b0733          	sub	a4,s6,s1
   11534:	00f00793          	li	a5,15
   11538:	0ce7ca63          	blt	a5,a4,1160c <_malloc_r+0x348>
   1153c:	01912223          	sw	s9,4(sp)
   11540:	01512a23          	sw	s5,20(sp)
   11544:	d401a703          	lw	a4,-704(gp) # 14bc8 <__malloc_sbrk_base>
   11548:	d5c1aa83          	lw	s5,-676(gp) # 14be4 <__malloc_top_pad>
   1154c:	01412c23          	sw	s4,24(sp)
   11550:	01712623          	sw	s7,12(sp)
   11554:	fff00793          	li	a5,-1
   11558:	01640a33          	add	s4,s0,s6
   1155c:	01548ab3          	add	s5,s1,s5
   11560:	3cf70663          	beq	a4,a5,1192c <_malloc_r+0x668>
   11564:	000017b7          	lui	a5,0x1
   11568:	00f78793          	addi	a5,a5,15 # 100f <exit-0xf085>
   1156c:	00fa8ab3          	add	s5,s5,a5
   11570:	fffff7b7          	lui	a5,0xfffff
   11574:	00fafab3          	and	s5,s5,a5
   11578:	000a8593          	mv	a1,s5
   1157c:	00098513          	mv	a0,s3
   11580:	064010ef          	jal	125e4 <_sbrk_r>
   11584:	fff00793          	li	a5,-1
   11588:	00050b93          	mv	s7,a0
   1158c:	44f50a63          	beq	a0,a5,119e0 <_malloc_r+0x71c>
   11590:	01812423          	sw	s8,8(sp)
   11594:	23456e63          	bltu	a0,s4,117d0 <_malloc_r+0x50c>
   11598:	eb818c13          	addi	s8,gp,-328 # 14d40 <__malloc_current_mallinfo>
   1159c:	000c2583          	lw	a1,0(s8)
   115a0:	00ba85b3          	add	a1,s5,a1
   115a4:	00bc2023          	sw	a1,0(s8)
   115a8:	00058713          	mv	a4,a1
   115ac:	2aaa1663          	bne	s4,a0,11858 <_malloc_r+0x594>
   115b0:	01451793          	slli	a5,a0,0x14
   115b4:	2a079263          	bnez	a5,11858 <_malloc_r+0x594>
   115b8:	00892b83          	lw	s7,8(s2)
   115bc:	015b07b3          	add	a5,s6,s5
   115c0:	0017e793          	ori	a5,a5,1
   115c4:	00fba223          	sw	a5,4(s7)
   115c8:	d581a683          	lw	a3,-680(gp) # 14be0 <__malloc_max_sbrked_mem>
   115cc:	00b6f463          	bgeu	a3,a1,115d4 <_malloc_r+0x310>
   115d0:	d4b1ac23          	sw	a1,-680(gp) # 14be0 <__malloc_max_sbrked_mem>
   115d4:	d541a683          	lw	a3,-684(gp) # 14bdc <__malloc_max_total_mem>
   115d8:	00b6f463          	bgeu	a3,a1,115e0 <_malloc_r+0x31c>
   115dc:	d4b1aa23          	sw	a1,-684(gp) # 14bdc <__malloc_max_total_mem>
   115e0:	00812c03          	lw	s8,8(sp)
   115e4:	000b8413          	mv	s0,s7
   115e8:	ffc7f793          	andi	a5,a5,-4
   115ec:	40978733          	sub	a4,a5,s1
   115f0:	3897ea63          	bltu	a5,s1,11984 <_malloc_r+0x6c0>
   115f4:	00f00793          	li	a5,15
   115f8:	38e7d663          	bge	a5,a4,11984 <_malloc_r+0x6c0>
   115fc:	01812a03          	lw	s4,24(sp)
   11600:	01412a83          	lw	s5,20(sp)
   11604:	00c12b83          	lw	s7,12(sp)
   11608:	00412c83          	lw	s9,4(sp)
   1160c:	0014e793          	ori	a5,s1,1
   11610:	00f42223          	sw	a5,4(s0)
   11614:	009404b3          	add	s1,s0,s1
   11618:	00992423          	sw	s1,8(s2)
   1161c:	00176713          	ori	a4,a4,1
   11620:	00098513          	mv	a0,s3
   11624:	00e4a223          	sw	a4,4(s1)
   11628:	45c000ef          	jal	11a84 <__malloc_unlock>
   1162c:	02c12083          	lw	ra,44(sp)
   11630:	00840513          	addi	a0,s0,8
   11634:	02812403          	lw	s0,40(sp)
   11638:	01012b03          	lw	s6,16(sp)
   1163c:	02412483          	lw	s1,36(sp)
   11640:	02012903          	lw	s2,32(sp)
   11644:	01c12983          	lw	s3,28(sp)
   11648:	03010113          	addi	sp,sp,48
   1164c:	00008067          	ret
   11650:	00492503          	lw	a0,4(s2)
   11654:	e09ff06f          	j	1145c <_malloc_r+0x198>
   11658:	00842603          	lw	a2,8(s0)
   1165c:	cd1ff06f          	j	1132c <_malloc_r+0x68>
   11660:	00c7a403          	lw	s0,12(a5) # fffff00c <__BSS_END__+0xfffea114>
   11664:	00258593          	addi	a1,a1,2
   11668:	d88780e3          	beq	a5,s0,113e8 <_malloc_r+0x124>
   1166c:	cb1ff06f          	j	1131c <_malloc_r+0x58>
   11670:	0097d713          	srli	a4,a5,0x9
   11674:	00400693          	li	a3,4
   11678:	14e6f263          	bgeu	a3,a4,117bc <_malloc_r+0x4f8>
   1167c:	01400693          	li	a3,20
   11680:	32e6e463          	bltu	a3,a4,119a8 <_malloc_r+0x6e4>
   11684:	05c70613          	addi	a2,a4,92
   11688:	05b70693          	addi	a3,a4,91
   1168c:	00361613          	slli	a2,a2,0x3
   11690:	00c90633          	add	a2,s2,a2
   11694:	00062703          	lw	a4,0(a2)
   11698:	ff860613          	addi	a2,a2,-8
   1169c:	00e61863          	bne	a2,a4,116ac <_malloc_r+0x3e8>
   116a0:	2940006f          	j	11934 <_malloc_r+0x670>
   116a4:	00872703          	lw	a4,8(a4)
   116a8:	00e60863          	beq	a2,a4,116b8 <_malloc_r+0x3f4>
   116ac:	00472683          	lw	a3,4(a4)
   116b0:	ffc6f693          	andi	a3,a3,-4
   116b4:	fed7e8e3          	bltu	a5,a3,116a4 <_malloc_r+0x3e0>
   116b8:	00c72603          	lw	a2,12(a4)
   116bc:	00c42623          	sw	a2,12(s0)
   116c0:	00e42423          	sw	a4,8(s0)
   116c4:	00862423          	sw	s0,8(a2)
   116c8:	00872623          	sw	s0,12(a4)
   116cc:	d91ff06f          	j	1145c <_malloc_r+0x198>
   116d0:	01400713          	li	a4,20
   116d4:	10f77863          	bgeu	a4,a5,117e4 <_malloc_r+0x520>
   116d8:	05400713          	li	a4,84
   116dc:	2ef76463          	bltu	a4,a5,119c4 <_malloc_r+0x700>
   116e0:	00c4d793          	srli	a5,s1,0xc
   116e4:	06f78593          	addi	a1,a5,111
   116e8:	06e78813          	addi	a6,a5,110
   116ec:	00359613          	slli	a2,a1,0x3
   116f0:	cb5ff06f          	j	113a4 <_malloc_r+0xe0>
   116f4:	001e0e13          	addi	t3,t3,1
   116f8:	003e7793          	andi	a5,t3,3
   116fc:	00850513          	addi	a0,a0,8
   11700:	10078063          	beqz	a5,11800 <_malloc_r+0x53c>
   11704:	00c52783          	lw	a5,12(a0)
   11708:	da9ff06f          	j	114b0 <_malloc_r+0x1ec>
   1170c:	00842603          	lw	a2,8(s0)
   11710:	0014e593          	ori	a1,s1,1
   11714:	00b42223          	sw	a1,4(s0)
   11718:	00f62623          	sw	a5,12(a2)
   1171c:	00c7a423          	sw	a2,8(a5)
   11720:	009404b3          	add	s1,s0,s1
   11724:	00992a23          	sw	s1,20(s2)
   11728:	00992823          	sw	s1,16(s2)
   1172c:	0016e793          	ori	a5,a3,1
   11730:	0104a623          	sw	a6,12(s1)
   11734:	0104a423          	sw	a6,8(s1)
   11738:	00f4a223          	sw	a5,4(s1)
   1173c:	00e40733          	add	a4,s0,a4
   11740:	00098513          	mv	a0,s3
   11744:	00d72023          	sw	a3,0(a4)
   11748:	33c000ef          	jal	11a84 <__malloc_unlock>
   1174c:	00840513          	addi	a0,s0,8
   11750:	c01ff06f          	j	11350 <_malloc_r+0x8c>
   11754:	00f407b3          	add	a5,s0,a5
   11758:	0047a703          	lw	a4,4(a5)
   1175c:	00098513          	mv	a0,s3
   11760:	00176713          	ori	a4,a4,1
   11764:	00e7a223          	sw	a4,4(a5)
   11768:	31c000ef          	jal	11a84 <__malloc_unlock>
   1176c:	00840513          	addi	a0,s0,8
   11770:	be1ff06f          	j	11350 <_malloc_r+0x8c>
   11774:	0034d593          	srli	a1,s1,0x3
   11778:	00848793          	addi	a5,s1,8
   1177c:	b89ff06f          	j	11304 <_malloc_r+0x40>
   11780:	0014e693          	ori	a3,s1,1
   11784:	00d42223          	sw	a3,4(s0)
   11788:	009404b3          	add	s1,s0,s1
   1178c:	00992a23          	sw	s1,20(s2)
   11790:	00992823          	sw	s1,16(s2)
   11794:	00176693          	ori	a3,a4,1
   11798:	0104a623          	sw	a6,12(s1)
   1179c:	0104a423          	sw	a6,8(s1)
   117a0:	00d4a223          	sw	a3,4(s1)
   117a4:	00f407b3          	add	a5,s0,a5
   117a8:	00098513          	mv	a0,s3
   117ac:	00e7a023          	sw	a4,0(a5)
   117b0:	2d4000ef          	jal	11a84 <__malloc_unlock>
   117b4:	00840513          	addi	a0,s0,8
   117b8:	b99ff06f          	j	11350 <_malloc_r+0x8c>
   117bc:	0067d713          	srli	a4,a5,0x6
   117c0:	03970613          	addi	a2,a4,57
   117c4:	03870693          	addi	a3,a4,56
   117c8:	00361613          	slli	a2,a2,0x3
   117cc:	ec5ff06f          	j	11690 <_malloc_r+0x3cc>
   117d0:	07240c63          	beq	s0,s2,11848 <_malloc_r+0x584>
   117d4:	00892403          	lw	s0,8(s2)
   117d8:	00812c03          	lw	s8,8(sp)
   117dc:	00442783          	lw	a5,4(s0)
   117e0:	e09ff06f          	j	115e8 <_malloc_r+0x324>
   117e4:	05c78593          	addi	a1,a5,92
   117e8:	05b78813          	addi	a6,a5,91
   117ec:	00359613          	slli	a2,a1,0x3
   117f0:	bb5ff06f          	j	113a4 <_malloc_r+0xe0>
   117f4:	00832783          	lw	a5,8(t1)
   117f8:	fff58593          	addi	a1,a1,-1
   117fc:	26679e63          	bne	a5,t1,11a78 <_malloc_r+0x7b4>
   11800:	0035f793          	andi	a5,a1,3
   11804:	ff830313          	addi	t1,t1,-8
   11808:	fe0796e3          	bnez	a5,117f4 <_malloc_r+0x530>
   1180c:	00492703          	lw	a4,4(s2)
   11810:	fff64793          	not	a5,a2
   11814:	00e7f7b3          	and	a5,a5,a4
   11818:	00f92223          	sw	a5,4(s2)
   1181c:	00161613          	slli	a2,a2,0x1
   11820:	cec7eee3          	bltu	a5,a2,1151c <_malloc_r+0x258>
   11824:	ce060ce3          	beqz	a2,1151c <_malloc_r+0x258>
   11828:	00f67733          	and	a4,a2,a5
   1182c:	00071a63          	bnez	a4,11840 <_malloc_r+0x57c>
   11830:	00161613          	slli	a2,a2,0x1
   11834:	00f67733          	and	a4,a2,a5
   11838:	004e0e13          	addi	t3,t3,4
   1183c:	fe070ae3          	beqz	a4,11830 <_malloc_r+0x56c>
   11840:	000e0593          	mv	a1,t3
   11844:	c59ff06f          	j	1149c <_malloc_r+0x1d8>
   11848:	eb818c13          	addi	s8,gp,-328 # 14d40 <__malloc_current_mallinfo>
   1184c:	000c2703          	lw	a4,0(s8)
   11850:	00ea8733          	add	a4,s5,a4
   11854:	00ec2023          	sw	a4,0(s8)
   11858:	d401a683          	lw	a3,-704(gp) # 14bc8 <__malloc_sbrk_base>
   1185c:	fff00793          	li	a5,-1
   11860:	18f68663          	beq	a3,a5,119ec <_malloc_r+0x728>
   11864:	414b87b3          	sub	a5,s7,s4
   11868:	00e787b3          	add	a5,a5,a4
   1186c:	00fc2023          	sw	a5,0(s8)
   11870:	007bfc93          	andi	s9,s7,7
   11874:	0c0c8c63          	beqz	s9,1194c <_malloc_r+0x688>
   11878:	419b8bb3          	sub	s7,s7,s9
   1187c:	000017b7          	lui	a5,0x1
   11880:	00878793          	addi	a5,a5,8 # 1008 <exit-0xf08c>
   11884:	008b8b93          	addi	s7,s7,8
   11888:	419785b3          	sub	a1,a5,s9
   1188c:	015b8ab3          	add	s5,s7,s5
   11890:	415585b3          	sub	a1,a1,s5
   11894:	01459593          	slli	a1,a1,0x14
   11898:	0145da13          	srli	s4,a1,0x14
   1189c:	000a0593          	mv	a1,s4
   118a0:	00098513          	mv	a0,s3
   118a4:	541000ef          	jal	125e4 <_sbrk_r>
   118a8:	fff00793          	li	a5,-1
   118ac:	18f50063          	beq	a0,a5,11a2c <_malloc_r+0x768>
   118b0:	41750533          	sub	a0,a0,s7
   118b4:	01450ab3          	add	s5,a0,s4
   118b8:	000c2703          	lw	a4,0(s8)
   118bc:	01792423          	sw	s7,8(s2)
   118c0:	001ae793          	ori	a5,s5,1
   118c4:	00ea05b3          	add	a1,s4,a4
   118c8:	00bc2023          	sw	a1,0(s8)
   118cc:	00fba223          	sw	a5,4(s7)
   118d0:	cf240ce3          	beq	s0,s2,115c8 <_malloc_r+0x304>
   118d4:	00f00693          	li	a3,15
   118d8:	0b66f063          	bgeu	a3,s6,11978 <_malloc_r+0x6b4>
   118dc:	00442703          	lw	a4,4(s0)
   118e0:	ff4b0793          	addi	a5,s6,-12
   118e4:	ff87f793          	andi	a5,a5,-8
   118e8:	00177713          	andi	a4,a4,1
   118ec:	00f76733          	or	a4,a4,a5
   118f0:	00e42223          	sw	a4,4(s0)
   118f4:	00500613          	li	a2,5
   118f8:	00f40733          	add	a4,s0,a5
   118fc:	00c72223          	sw	a2,4(a4)
   11900:	00c72423          	sw	a2,8(a4)
   11904:	00f6e663          	bltu	a3,a5,11910 <_malloc_r+0x64c>
   11908:	004ba783          	lw	a5,4(s7)
   1190c:	cbdff06f          	j	115c8 <_malloc_r+0x304>
   11910:	00840593          	addi	a1,s0,8
   11914:	00098513          	mv	a0,s3
   11918:	ea8ff0ef          	jal	10fc0 <_free_r>
   1191c:	00892b83          	lw	s7,8(s2)
   11920:	000c2583          	lw	a1,0(s8)
   11924:	004ba783          	lw	a5,4(s7)
   11928:	ca1ff06f          	j	115c8 <_malloc_r+0x304>
   1192c:	010a8a93          	addi	s5,s5,16
   11930:	c49ff06f          	j	11578 <_malloc_r+0x2b4>
   11934:	4026d693          	srai	a3,a3,0x2
   11938:	00100793          	li	a5,1
   1193c:	00d797b3          	sll	a5,a5,a3
   11940:	00f56533          	or	a0,a0,a5
   11944:	00a92223          	sw	a0,4(s2)
   11948:	d75ff06f          	j	116bc <_malloc_r+0x3f8>
   1194c:	015b85b3          	add	a1,s7,s5
   11950:	40b005b3          	neg	a1,a1
   11954:	01459593          	slli	a1,a1,0x14
   11958:	0145da13          	srli	s4,a1,0x14
   1195c:	000a0593          	mv	a1,s4
   11960:	00098513          	mv	a0,s3
   11964:	481000ef          	jal	125e4 <_sbrk_r>
   11968:	fff00793          	li	a5,-1
   1196c:	f4f512e3          	bne	a0,a5,118b0 <_malloc_r+0x5ec>
   11970:	00000a13          	li	s4,0
   11974:	f45ff06f          	j	118b8 <_malloc_r+0x5f4>
   11978:	00812c03          	lw	s8,8(sp)
   1197c:	00100793          	li	a5,1
   11980:	00fba223          	sw	a5,4(s7)
   11984:	00098513          	mv	a0,s3
   11988:	0fc000ef          	jal	11a84 <__malloc_unlock>
   1198c:	00000513          	li	a0,0
   11990:	01812a03          	lw	s4,24(sp)
   11994:	01412a83          	lw	s5,20(sp)
   11998:	01012b03          	lw	s6,16(sp)
   1199c:	00c12b83          	lw	s7,12(sp)
   119a0:	00412c83          	lw	s9,4(sp)
   119a4:	9adff06f          	j	11350 <_malloc_r+0x8c>
   119a8:	05400693          	li	a3,84
   119ac:	04e6e463          	bltu	a3,a4,119f4 <_malloc_r+0x730>
   119b0:	00c7d713          	srli	a4,a5,0xc
   119b4:	06f70613          	addi	a2,a4,111
   119b8:	06e70693          	addi	a3,a4,110
   119bc:	00361613          	slli	a2,a2,0x3
   119c0:	cd1ff06f          	j	11690 <_malloc_r+0x3cc>
   119c4:	15400713          	li	a4,340
   119c8:	04f76463          	bltu	a4,a5,11a10 <_malloc_r+0x74c>
   119cc:	00f4d793          	srli	a5,s1,0xf
   119d0:	07878593          	addi	a1,a5,120
   119d4:	07778813          	addi	a6,a5,119
   119d8:	00359613          	slli	a2,a1,0x3
   119dc:	9c9ff06f          	j	113a4 <_malloc_r+0xe0>
   119e0:	00892403          	lw	s0,8(s2)
   119e4:	00442783          	lw	a5,4(s0)
   119e8:	c01ff06f          	j	115e8 <_malloc_r+0x324>
   119ec:	d571a023          	sw	s7,-704(gp) # 14bc8 <__malloc_sbrk_base>
   119f0:	e81ff06f          	j	11870 <_malloc_r+0x5ac>
   119f4:	15400693          	li	a3,340
   119f8:	04e6e463          	bltu	a3,a4,11a40 <_malloc_r+0x77c>
   119fc:	00f7d713          	srli	a4,a5,0xf
   11a00:	07870613          	addi	a2,a4,120
   11a04:	07770693          	addi	a3,a4,119
   11a08:	00361613          	slli	a2,a2,0x3
   11a0c:	c85ff06f          	j	11690 <_malloc_r+0x3cc>
   11a10:	55400713          	li	a4,1364
   11a14:	04f76463          	bltu	a4,a5,11a5c <_malloc_r+0x798>
   11a18:	0124d793          	srli	a5,s1,0x12
   11a1c:	07d78593          	addi	a1,a5,125
   11a20:	07c78813          	addi	a6,a5,124
   11a24:	00359613          	slli	a2,a1,0x3
   11a28:	97dff06f          	j	113a4 <_malloc_r+0xe0>
   11a2c:	ff8c8c93          	addi	s9,s9,-8
   11a30:	019a8ab3          	add	s5,s5,s9
   11a34:	417a8ab3          	sub	s5,s5,s7
   11a38:	00000a13          	li	s4,0
   11a3c:	e7dff06f          	j	118b8 <_malloc_r+0x5f4>
   11a40:	55400693          	li	a3,1364
   11a44:	02e6e463          	bltu	a3,a4,11a6c <_malloc_r+0x7a8>
   11a48:	0127d713          	srli	a4,a5,0x12
   11a4c:	07d70613          	addi	a2,a4,125
   11a50:	07c70693          	addi	a3,a4,124
   11a54:	00361613          	slli	a2,a2,0x3
   11a58:	c39ff06f          	j	11690 <_malloc_r+0x3cc>
   11a5c:	3f800613          	li	a2,1016
   11a60:	07f00593          	li	a1,127
   11a64:	07e00813          	li	a6,126
   11a68:	93dff06f          	j	113a4 <_malloc_r+0xe0>
   11a6c:	3f800613          	li	a2,1016
   11a70:	07e00693          	li	a3,126
   11a74:	c1dff06f          	j	11690 <_malloc_r+0x3cc>
   11a78:	00492783          	lw	a5,4(s2)
   11a7c:	da1ff06f          	j	1181c <_malloc_r+0x558>

00011a80 <__malloc_lock>:
   11a80:	00008067          	ret

00011a84 <__malloc_unlock>:
   11a84:	00008067          	ret

00011a88 <_fclose_r>:
   11a88:	ff010113          	addi	sp,sp,-16
   11a8c:	00112623          	sw	ra,12(sp)
   11a90:	01212023          	sw	s2,0(sp)
   11a94:	02058863          	beqz	a1,11ac4 <_fclose_r+0x3c>
   11a98:	00812423          	sw	s0,8(sp)
   11a9c:	00912223          	sw	s1,4(sp)
   11aa0:	00058413          	mv	s0,a1
   11aa4:	00050493          	mv	s1,a0
   11aa8:	00050663          	beqz	a0,11ab4 <_fclose_r+0x2c>
   11aac:	03452783          	lw	a5,52(a0)
   11ab0:	0c078c63          	beqz	a5,11b88 <_fclose_r+0x100>
   11ab4:	00c41783          	lh	a5,12(s0)
   11ab8:	02079263          	bnez	a5,11adc <_fclose_r+0x54>
   11abc:	00812403          	lw	s0,8(sp)
   11ac0:	00412483          	lw	s1,4(sp)
   11ac4:	00c12083          	lw	ra,12(sp)
   11ac8:	00000913          	li	s2,0
   11acc:	00090513          	mv	a0,s2
   11ad0:	00012903          	lw	s2,0(sp)
   11ad4:	01010113          	addi	sp,sp,16
   11ad8:	00008067          	ret
   11adc:	00040593          	mv	a1,s0
   11ae0:	00048513          	mv	a0,s1
   11ae4:	0b8000ef          	jal	11b9c <__sflush_r>
   11ae8:	02c42783          	lw	a5,44(s0)
   11aec:	00050913          	mv	s2,a0
   11af0:	00078a63          	beqz	a5,11b04 <_fclose_r+0x7c>
   11af4:	01c42583          	lw	a1,28(s0)
   11af8:	00048513          	mv	a0,s1
   11afc:	000780e7          	jalr	a5
   11b00:	06054463          	bltz	a0,11b68 <_fclose_r+0xe0>
   11b04:	00c45783          	lhu	a5,12(s0)
   11b08:	0807f793          	andi	a5,a5,128
   11b0c:	06079663          	bnez	a5,11b78 <_fclose_r+0xf0>
   11b10:	03042583          	lw	a1,48(s0)
   11b14:	00058c63          	beqz	a1,11b2c <_fclose_r+0xa4>
   11b18:	04040793          	addi	a5,s0,64
   11b1c:	00f58663          	beq	a1,a5,11b28 <_fclose_r+0xa0>
   11b20:	00048513          	mv	a0,s1
   11b24:	c9cff0ef          	jal	10fc0 <_free_r>
   11b28:	02042823          	sw	zero,48(s0)
   11b2c:	04442583          	lw	a1,68(s0)
   11b30:	00058863          	beqz	a1,11b40 <_fclose_r+0xb8>
   11b34:	00048513          	mv	a0,s1
   11b38:	c88ff0ef          	jal	10fc0 <_free_r>
   11b3c:	04042223          	sw	zero,68(s0)
   11b40:	a49fe0ef          	jal	10588 <__sfp_lock_acquire>
   11b44:	00041623          	sh	zero,12(s0)
   11b48:	a45fe0ef          	jal	1058c <__sfp_lock_release>
   11b4c:	00c12083          	lw	ra,12(sp)
   11b50:	00812403          	lw	s0,8(sp)
   11b54:	00412483          	lw	s1,4(sp)
   11b58:	00090513          	mv	a0,s2
   11b5c:	00012903          	lw	s2,0(sp)
   11b60:	01010113          	addi	sp,sp,16
   11b64:	00008067          	ret
   11b68:	00c45783          	lhu	a5,12(s0)
   11b6c:	fff00913          	li	s2,-1
   11b70:	0807f793          	andi	a5,a5,128
   11b74:	f8078ee3          	beqz	a5,11b10 <_fclose_r+0x88>
   11b78:	01042583          	lw	a1,16(s0)
   11b7c:	00048513          	mv	a0,s1
   11b80:	c40ff0ef          	jal	10fc0 <_free_r>
   11b84:	f8dff06f          	j	11b10 <_fclose_r+0x88>
   11b88:	9ddfe0ef          	jal	10564 <__sinit>
   11b8c:	f29ff06f          	j	11ab4 <_fclose_r+0x2c>

00011b90 <fclose>:
   11b90:	00050593          	mv	a1,a0
   11b94:	d3c1a503          	lw	a0,-708(gp) # 14bc4 <_impure_ptr>
   11b98:	ef1ff06f          	j	11a88 <_fclose_r>

00011b9c <__sflush_r>:
   11b9c:	00c59703          	lh	a4,12(a1)
   11ba0:	fe010113          	addi	sp,sp,-32
   11ba4:	00812c23          	sw	s0,24(sp)
   11ba8:	01312623          	sw	s3,12(sp)
   11bac:	00112e23          	sw	ra,28(sp)
   11bb0:	00877793          	andi	a5,a4,8
   11bb4:	00058413          	mv	s0,a1
   11bb8:	00050993          	mv	s3,a0
   11bbc:	12079063          	bnez	a5,11cdc <__sflush_r+0x140>
   11bc0:	000017b7          	lui	a5,0x1
   11bc4:	80078793          	addi	a5,a5,-2048 # 800 <exit-0xf894>
   11bc8:	0045a683          	lw	a3,4(a1)
   11bcc:	00f767b3          	or	a5,a4,a5
   11bd0:	00f59623          	sh	a5,12(a1)
   11bd4:	18d05263          	blez	a3,11d58 <__sflush_r+0x1bc>
   11bd8:	02842803          	lw	a6,40(s0)
   11bdc:	0e080463          	beqz	a6,11cc4 <__sflush_r+0x128>
   11be0:	00912a23          	sw	s1,20(sp)
   11be4:	01371693          	slli	a3,a4,0x13
   11be8:	0009a483          	lw	s1,0(s3)
   11bec:	0009a023          	sw	zero,0(s3)
   11bf0:	01c42583          	lw	a1,28(s0)
   11bf4:	1606ce63          	bltz	a3,11d70 <__sflush_r+0x1d4>
   11bf8:	00000613          	li	a2,0
   11bfc:	00100693          	li	a3,1
   11c00:	00098513          	mv	a0,s3
   11c04:	000800e7          	jalr	a6
   11c08:	fff00793          	li	a5,-1
   11c0c:	00050613          	mv	a2,a0
   11c10:	1af50463          	beq	a0,a5,11db8 <__sflush_r+0x21c>
   11c14:	00c41783          	lh	a5,12(s0)
   11c18:	02842803          	lw	a6,40(s0)
   11c1c:	01c42583          	lw	a1,28(s0)
   11c20:	0047f793          	andi	a5,a5,4
   11c24:	00078e63          	beqz	a5,11c40 <__sflush_r+0xa4>
   11c28:	00442703          	lw	a4,4(s0)
   11c2c:	03042783          	lw	a5,48(s0)
   11c30:	40e60633          	sub	a2,a2,a4
   11c34:	00078663          	beqz	a5,11c40 <__sflush_r+0xa4>
   11c38:	03c42783          	lw	a5,60(s0)
   11c3c:	40f60633          	sub	a2,a2,a5
   11c40:	00000693          	li	a3,0
   11c44:	00098513          	mv	a0,s3
   11c48:	000800e7          	jalr	a6
   11c4c:	fff00793          	li	a5,-1
   11c50:	12f51463          	bne	a0,a5,11d78 <__sflush_r+0x1dc>
   11c54:	0009a683          	lw	a3,0(s3)
   11c58:	01d00793          	li	a5,29
   11c5c:	00c41703          	lh	a4,12(s0)
   11c60:	16d7ea63          	bltu	a5,a3,11dd4 <__sflush_r+0x238>
   11c64:	204007b7          	lui	a5,0x20400
   11c68:	00178793          	addi	a5,a5,1 # 20400001 <__BSS_END__+0x203eb109>
   11c6c:	00d7d7b3          	srl	a5,a5,a3
   11c70:	0017f793          	andi	a5,a5,1
   11c74:	16078063          	beqz	a5,11dd4 <__sflush_r+0x238>
   11c78:	01042603          	lw	a2,16(s0)
   11c7c:	fffff7b7          	lui	a5,0xfffff
   11c80:	7ff78793          	addi	a5,a5,2047 # fffff7ff <__BSS_END__+0xfffea907>
   11c84:	00f777b3          	and	a5,a4,a5
   11c88:	00f41623          	sh	a5,12(s0)
   11c8c:	00042223          	sw	zero,4(s0)
   11c90:	00c42023          	sw	a2,0(s0)
   11c94:	01371793          	slli	a5,a4,0x13
   11c98:	0007d463          	bgez	a5,11ca0 <__sflush_r+0x104>
   11c9c:	10068263          	beqz	a3,11da0 <__sflush_r+0x204>
   11ca0:	03042583          	lw	a1,48(s0)
   11ca4:	0099a023          	sw	s1,0(s3)
   11ca8:	10058463          	beqz	a1,11db0 <__sflush_r+0x214>
   11cac:	04040793          	addi	a5,s0,64
   11cb0:	00f58663          	beq	a1,a5,11cbc <__sflush_r+0x120>
   11cb4:	00098513          	mv	a0,s3
   11cb8:	b08ff0ef          	jal	10fc0 <_free_r>
   11cbc:	01412483          	lw	s1,20(sp)
   11cc0:	02042823          	sw	zero,48(s0)
   11cc4:	00000513          	li	a0,0
   11cc8:	01c12083          	lw	ra,28(sp)
   11ccc:	01812403          	lw	s0,24(sp)
   11cd0:	00c12983          	lw	s3,12(sp)
   11cd4:	02010113          	addi	sp,sp,32
   11cd8:	00008067          	ret
   11cdc:	01212823          	sw	s2,16(sp)
   11ce0:	0105a903          	lw	s2,16(a1)
   11ce4:	08090263          	beqz	s2,11d68 <__sflush_r+0x1cc>
   11ce8:	00912a23          	sw	s1,20(sp)
   11cec:	0005a483          	lw	s1,0(a1)
   11cf0:	00377713          	andi	a4,a4,3
   11cf4:	0125a023          	sw	s2,0(a1)
   11cf8:	412484b3          	sub	s1,s1,s2
   11cfc:	00000793          	li	a5,0
   11d00:	00071463          	bnez	a4,11d08 <__sflush_r+0x16c>
   11d04:	0145a783          	lw	a5,20(a1)
   11d08:	00f42423          	sw	a5,8(s0)
   11d0c:	00904863          	bgtz	s1,11d1c <__sflush_r+0x180>
   11d10:	0540006f          	j	11d64 <__sflush_r+0x1c8>
   11d14:	00a90933          	add	s2,s2,a0
   11d18:	04905663          	blez	s1,11d64 <__sflush_r+0x1c8>
   11d1c:	02442783          	lw	a5,36(s0)
   11d20:	01c42583          	lw	a1,28(s0)
   11d24:	00048693          	mv	a3,s1
   11d28:	00090613          	mv	a2,s2
   11d2c:	00098513          	mv	a0,s3
   11d30:	000780e7          	jalr	a5
   11d34:	40a484b3          	sub	s1,s1,a0
   11d38:	fca04ee3          	bgtz	a0,11d14 <__sflush_r+0x178>
   11d3c:	00c41703          	lh	a4,12(s0)
   11d40:	01012903          	lw	s2,16(sp)
   11d44:	04076713          	ori	a4,a4,64
   11d48:	01412483          	lw	s1,20(sp)
   11d4c:	00e41623          	sh	a4,12(s0)
   11d50:	fff00513          	li	a0,-1
   11d54:	f75ff06f          	j	11cc8 <__sflush_r+0x12c>
   11d58:	03c5a683          	lw	a3,60(a1)
   11d5c:	e6d04ee3          	bgtz	a3,11bd8 <__sflush_r+0x3c>
   11d60:	f65ff06f          	j	11cc4 <__sflush_r+0x128>
   11d64:	01412483          	lw	s1,20(sp)
   11d68:	01012903          	lw	s2,16(sp)
   11d6c:	f59ff06f          	j	11cc4 <__sflush_r+0x128>
   11d70:	05042603          	lw	a2,80(s0)
   11d74:	eadff06f          	j	11c20 <__sflush_r+0x84>
   11d78:	00c41703          	lh	a4,12(s0)
   11d7c:	01042683          	lw	a3,16(s0)
   11d80:	fffff7b7          	lui	a5,0xfffff
   11d84:	7ff78793          	addi	a5,a5,2047 # fffff7ff <__BSS_END__+0xfffea907>
   11d88:	00f777b3          	and	a5,a4,a5
   11d8c:	00f41623          	sh	a5,12(s0)
   11d90:	00042223          	sw	zero,4(s0)
   11d94:	00d42023          	sw	a3,0(s0)
   11d98:	01371793          	slli	a5,a4,0x13
   11d9c:	f007d2e3          	bgez	a5,11ca0 <__sflush_r+0x104>
   11da0:	03042583          	lw	a1,48(s0)
   11da4:	04a42823          	sw	a0,80(s0)
   11da8:	0099a023          	sw	s1,0(s3)
   11dac:	f00590e3          	bnez	a1,11cac <__sflush_r+0x110>
   11db0:	01412483          	lw	s1,20(sp)
   11db4:	f11ff06f          	j	11cc4 <__sflush_r+0x128>
   11db8:	0009a783          	lw	a5,0(s3)
   11dbc:	e4078ce3          	beqz	a5,11c14 <__sflush_r+0x78>
   11dc0:	01d00713          	li	a4,29
   11dc4:	00e78c63          	beq	a5,a4,11ddc <__sflush_r+0x240>
   11dc8:	01600713          	li	a4,22
   11dcc:	00e78863          	beq	a5,a4,11ddc <__sflush_r+0x240>
   11dd0:	00c41703          	lh	a4,12(s0)
   11dd4:	04076713          	ori	a4,a4,64
   11dd8:	f71ff06f          	j	11d48 <__sflush_r+0x1ac>
   11ddc:	0099a023          	sw	s1,0(s3)
   11de0:	01412483          	lw	s1,20(sp)
   11de4:	ee1ff06f          	j	11cc4 <__sflush_r+0x128>

00011de8 <_fflush_r>:
   11de8:	fe010113          	addi	sp,sp,-32
   11dec:	00812c23          	sw	s0,24(sp)
   11df0:	00112e23          	sw	ra,28(sp)
   11df4:	00050413          	mv	s0,a0
   11df8:	00050663          	beqz	a0,11e04 <_fflush_r+0x1c>
   11dfc:	03452783          	lw	a5,52(a0)
   11e00:	02078a63          	beqz	a5,11e34 <_fflush_r+0x4c>
   11e04:	00c59783          	lh	a5,12(a1)
   11e08:	00079c63          	bnez	a5,11e20 <_fflush_r+0x38>
   11e0c:	01c12083          	lw	ra,28(sp)
   11e10:	01812403          	lw	s0,24(sp)
   11e14:	00000513          	li	a0,0
   11e18:	02010113          	addi	sp,sp,32
   11e1c:	00008067          	ret
   11e20:	00040513          	mv	a0,s0
   11e24:	01812403          	lw	s0,24(sp)
   11e28:	01c12083          	lw	ra,28(sp)
   11e2c:	02010113          	addi	sp,sp,32
   11e30:	d6dff06f          	j	11b9c <__sflush_r>
   11e34:	00b12623          	sw	a1,12(sp)
   11e38:	f2cfe0ef          	jal	10564 <__sinit>
   11e3c:	00c12583          	lw	a1,12(sp)
   11e40:	fc5ff06f          	j	11e04 <_fflush_r+0x1c>

00011e44 <fflush>:
   11e44:	06050063          	beqz	a0,11ea4 <fflush+0x60>
   11e48:	00050593          	mv	a1,a0
   11e4c:	d3c1a503          	lw	a0,-708(gp) # 14bc4 <_impure_ptr>
   11e50:	00050663          	beqz	a0,11e5c <fflush+0x18>
   11e54:	03452783          	lw	a5,52(a0)
   11e58:	00078c63          	beqz	a5,11e70 <fflush+0x2c>
   11e5c:	00c59783          	lh	a5,12(a1)
   11e60:	00079663          	bnez	a5,11e6c <fflush+0x28>
   11e64:	00000513          	li	a0,0
   11e68:	00008067          	ret
   11e6c:	d31ff06f          	j	11b9c <__sflush_r>
   11e70:	fe010113          	addi	sp,sp,-32
   11e74:	00b12623          	sw	a1,12(sp)
   11e78:	00a12423          	sw	a0,8(sp)
   11e7c:	00112e23          	sw	ra,28(sp)
   11e80:	ee4fe0ef          	jal	10564 <__sinit>
   11e84:	00c12583          	lw	a1,12(sp)
   11e88:	00812503          	lw	a0,8(sp)
   11e8c:	00c59783          	lh	a5,12(a1)
   11e90:	02079863          	bnez	a5,11ec0 <fflush+0x7c>
   11e94:	01c12083          	lw	ra,28(sp)
   11e98:	00000513          	li	a0,0
   11e9c:	02010113          	addi	sp,sp,32
   11ea0:	00008067          	ret
   11ea4:	00014637          	lui	a2,0x14
   11ea8:	000125b7          	lui	a1,0x12
   11eac:	00014537          	lui	a0,0x14
   11eb0:	68860613          	addi	a2,a2,1672 # 14688 <__sglue>
   11eb4:	de858593          	addi	a1,a1,-536 # 11de8 <_fflush_r>
   11eb8:	69850513          	addi	a0,a0,1688 # 14698 <_impure_data>
   11ebc:	f04fe06f          	j	105c0 <_fwalk_sglue>
   11ec0:	01c12083          	lw	ra,28(sp)
   11ec4:	02010113          	addi	sp,sp,32
   11ec8:	cd5ff06f          	j	11b9c <__sflush_r>

00011ecc <__sfvwrite_r>:
   11ecc:	00862783          	lw	a5,8(a2)
   11ed0:	2c078463          	beqz	a5,12198 <__sfvwrite_r+0x2cc>
   11ed4:	00c59683          	lh	a3,12(a1)
   11ed8:	fd010113          	addi	sp,sp,-48
   11edc:	02812423          	sw	s0,40(sp)
   11ee0:	01412c23          	sw	s4,24(sp)
   11ee4:	01612823          	sw	s6,16(sp)
   11ee8:	02112623          	sw	ra,44(sp)
   11eec:	0086f793          	andi	a5,a3,8
   11ef0:	00060b13          	mv	s6,a2
   11ef4:	00050a13          	mv	s4,a0
   11ef8:	00058413          	mv	s0,a1
   11efc:	08078e63          	beqz	a5,11f98 <__sfvwrite_r+0xcc>
   11f00:	0105a783          	lw	a5,16(a1)
   11f04:	08078a63          	beqz	a5,11f98 <__sfvwrite_r+0xcc>
   11f08:	02912223          	sw	s1,36(sp)
   11f0c:	03212023          	sw	s2,32(sp)
   11f10:	01312e23          	sw	s3,28(sp)
   11f14:	01512a23          	sw	s5,20(sp)
   11f18:	0026f793          	andi	a5,a3,2
   11f1c:	000b2483          	lw	s1,0(s6)
   11f20:	0a078463          	beqz	a5,11fc8 <__sfvwrite_r+0xfc>
   11f24:	02442783          	lw	a5,36(s0)
   11f28:	01c42583          	lw	a1,28(s0)
   11f2c:	80000ab7          	lui	s5,0x80000
   11f30:	00000993          	li	s3,0
   11f34:	00000913          	li	s2,0
   11f38:	c00a8a93          	addi	s5,s5,-1024 # 7ffffc00 <__BSS_END__+0x7ffead08>
   11f3c:	00098613          	mv	a2,s3
   11f40:	000a0513          	mv	a0,s4
   11f44:	04090263          	beqz	s2,11f88 <__sfvwrite_r+0xbc>
   11f48:	00090693          	mv	a3,s2
   11f4c:	012af463          	bgeu	s5,s2,11f54 <__sfvwrite_r+0x88>
   11f50:	000a8693          	mv	a3,s5
   11f54:	000780e7          	jalr	a5
   11f58:	46a05263          	blez	a0,123bc <__sfvwrite_r+0x4f0>
   11f5c:	008b2783          	lw	a5,8(s6)
   11f60:	00a989b3          	add	s3,s3,a0
   11f64:	40a90933          	sub	s2,s2,a0
   11f68:	40a787b3          	sub	a5,a5,a0
   11f6c:	00fb2423          	sw	a5,8(s6)
   11f70:	1a078663          	beqz	a5,1211c <__sfvwrite_r+0x250>
   11f74:	02442783          	lw	a5,36(s0)
   11f78:	01c42583          	lw	a1,28(s0)
   11f7c:	00098613          	mv	a2,s3
   11f80:	000a0513          	mv	a0,s4
   11f84:	fc0912e3          	bnez	s2,11f48 <__sfvwrite_r+0x7c>
   11f88:	0004a983          	lw	s3,0(s1)
   11f8c:	0044a903          	lw	s2,4(s1)
   11f90:	00848493          	addi	s1,s1,8
   11f94:	fa9ff06f          	j	11f3c <__sfvwrite_r+0x70>
   11f98:	00040593          	mv	a1,s0
   11f9c:	000a0513          	mv	a0,s4
   11fa0:	440000ef          	jal	123e0 <__swsetup_r>
   11fa4:	1c051c63          	bnez	a0,1217c <__sfvwrite_r+0x2b0>
   11fa8:	00c41683          	lh	a3,12(s0)
   11fac:	02912223          	sw	s1,36(sp)
   11fb0:	03212023          	sw	s2,32(sp)
   11fb4:	01312e23          	sw	s3,28(sp)
   11fb8:	01512a23          	sw	s5,20(sp)
   11fbc:	0026f793          	andi	a5,a3,2
   11fc0:	000b2483          	lw	s1,0(s6)
   11fc4:	f60790e3          	bnez	a5,11f24 <__sfvwrite_r+0x58>
   11fc8:	01712623          	sw	s7,12(sp)
   11fcc:	01812423          	sw	s8,8(sp)
   11fd0:	0016f793          	andi	a5,a3,1
   11fd4:	1c079663          	bnez	a5,121a0 <__sfvwrite_r+0x2d4>
   11fd8:	00042783          	lw	a5,0(s0)
   11fdc:	00842703          	lw	a4,8(s0)
   11fe0:	80000ab7          	lui	s5,0x80000
   11fe4:	01912223          	sw	s9,4(sp)
   11fe8:	00000b93          	li	s7,0
   11fec:	00000993          	li	s3,0
   11ff0:	fffa8a93          	addi	s5,s5,-1 # 7fffffff <__BSS_END__+0x7ffeb107>
   11ff4:	00078513          	mv	a0,a5
   11ff8:	00070c13          	mv	s8,a4
   11ffc:	10098263          	beqz	s3,12100 <__sfvwrite_r+0x234>
   12000:	2006f613          	andi	a2,a3,512
   12004:	28060863          	beqz	a2,12294 <__sfvwrite_r+0x3c8>
   12008:	00070c93          	mv	s9,a4
   1200c:	32e9e863          	bltu	s3,a4,1233c <__sfvwrite_r+0x470>
   12010:	4806f713          	andi	a4,a3,1152
   12014:	08070a63          	beqz	a4,120a8 <__sfvwrite_r+0x1dc>
   12018:	01442603          	lw	a2,20(s0)
   1201c:	01042583          	lw	a1,16(s0)
   12020:	00161713          	slli	a4,a2,0x1
   12024:	00c70733          	add	a4,a4,a2
   12028:	40b78933          	sub	s2,a5,a1
   1202c:	01f75c13          	srli	s8,a4,0x1f
   12030:	00ec0c33          	add	s8,s8,a4
   12034:	00190793          	addi	a5,s2,1
   12038:	401c5c13          	srai	s8,s8,0x1
   1203c:	013787b3          	add	a5,a5,s3
   12040:	000c0613          	mv	a2,s8
   12044:	00fc7663          	bgeu	s8,a5,12050 <__sfvwrite_r+0x184>
   12048:	00078c13          	mv	s8,a5
   1204c:	00078613          	mv	a2,a5
   12050:	4006f693          	andi	a3,a3,1024
   12054:	32068063          	beqz	a3,12374 <__sfvwrite_r+0x4a8>
   12058:	00060593          	mv	a1,a2
   1205c:	000a0513          	mv	a0,s4
   12060:	a64ff0ef          	jal	112c4 <_malloc_r>
   12064:	00050c93          	mv	s9,a0
   12068:	34050e63          	beqz	a0,123c4 <__sfvwrite_r+0x4f8>
   1206c:	01042583          	lw	a1,16(s0)
   12070:	00090613          	mv	a2,s2
   12074:	734000ef          	jal	127a8 <memcpy>
   12078:	00c45783          	lhu	a5,12(s0)
   1207c:	b7f7f793          	andi	a5,a5,-1153
   12080:	0807e793          	ori	a5,a5,128
   12084:	00f41623          	sh	a5,12(s0)
   12088:	012c8533          	add	a0,s9,s2
   1208c:	412c07b3          	sub	a5,s8,s2
   12090:	01942823          	sw	s9,16(s0)
   12094:	01842a23          	sw	s8,20(s0)
   12098:	00a42023          	sw	a0,0(s0)
   1209c:	00098c13          	mv	s8,s3
   120a0:	00f42423          	sw	a5,8(s0)
   120a4:	00098c93          	mv	s9,s3
   120a8:	000c8613          	mv	a2,s9
   120ac:	000b8593          	mv	a1,s7
   120b0:	5ec000ef          	jal	1269c <memmove>
   120b4:	00842703          	lw	a4,8(s0)
   120b8:	00042783          	lw	a5,0(s0)
   120bc:	00098913          	mv	s2,s3
   120c0:	41870733          	sub	a4,a4,s8
   120c4:	019787b3          	add	a5,a5,s9
   120c8:	00e42423          	sw	a4,8(s0)
   120cc:	00f42023          	sw	a5,0(s0)
   120d0:	00000993          	li	s3,0
   120d4:	008b2783          	lw	a5,8(s6)
   120d8:	012b8bb3          	add	s7,s7,s2
   120dc:	412787b3          	sub	a5,a5,s2
   120e0:	00fb2423          	sw	a5,8(s6)
   120e4:	02078663          	beqz	a5,12110 <__sfvwrite_r+0x244>
   120e8:	00042783          	lw	a5,0(s0)
   120ec:	00842703          	lw	a4,8(s0)
   120f0:	00c41683          	lh	a3,12(s0)
   120f4:	00078513          	mv	a0,a5
   120f8:	00070c13          	mv	s8,a4
   120fc:	f00992e3          	bnez	s3,12000 <__sfvwrite_r+0x134>
   12100:	0004ab83          	lw	s7,0(s1)
   12104:	0044a983          	lw	s3,4(s1)
   12108:	00848493          	addi	s1,s1,8
   1210c:	ee9ff06f          	j	11ff4 <__sfvwrite_r+0x128>
   12110:	00c12b83          	lw	s7,12(sp)
   12114:	00812c03          	lw	s8,8(sp)
   12118:	00412c83          	lw	s9,4(sp)
   1211c:	02c12083          	lw	ra,44(sp)
   12120:	02812403          	lw	s0,40(sp)
   12124:	02412483          	lw	s1,36(sp)
   12128:	02012903          	lw	s2,32(sp)
   1212c:	01c12983          	lw	s3,28(sp)
   12130:	01412a83          	lw	s5,20(sp)
   12134:	01812a03          	lw	s4,24(sp)
   12138:	01012b03          	lw	s6,16(sp)
   1213c:	00000513          	li	a0,0
   12140:	03010113          	addi	sp,sp,48
   12144:	00008067          	ret
   12148:	00040593          	mv	a1,s0
   1214c:	000a0513          	mv	a0,s4
   12150:	c99ff0ef          	jal	11de8 <_fflush_r>
   12154:	0a050e63          	beqz	a0,12210 <__sfvwrite_r+0x344>
   12158:	00c41783          	lh	a5,12(s0)
   1215c:	00c12b83          	lw	s7,12(sp)
   12160:	00812c03          	lw	s8,8(sp)
   12164:	02412483          	lw	s1,36(sp)
   12168:	02012903          	lw	s2,32(sp)
   1216c:	01c12983          	lw	s3,28(sp)
   12170:	01412a83          	lw	s5,20(sp)
   12174:	0407e793          	ori	a5,a5,64
   12178:	00f41623          	sh	a5,12(s0)
   1217c:	02c12083          	lw	ra,44(sp)
   12180:	02812403          	lw	s0,40(sp)
   12184:	01812a03          	lw	s4,24(sp)
   12188:	01012b03          	lw	s6,16(sp)
   1218c:	fff00513          	li	a0,-1
   12190:	03010113          	addi	sp,sp,48
   12194:	00008067          	ret
   12198:	00000513          	li	a0,0
   1219c:	00008067          	ret
   121a0:	00000a93          	li	s5,0
   121a4:	00000513          	li	a0,0
   121a8:	00000c13          	li	s8,0
   121ac:	00000993          	li	s3,0
   121b0:	08098263          	beqz	s3,12234 <__sfvwrite_r+0x368>
   121b4:	08050a63          	beqz	a0,12248 <__sfvwrite_r+0x37c>
   121b8:	000a8793          	mv	a5,s5
   121bc:	00098b93          	mv	s7,s3
   121c0:	0137f463          	bgeu	a5,s3,121c8 <__sfvwrite_r+0x2fc>
   121c4:	00078b93          	mv	s7,a5
   121c8:	00042503          	lw	a0,0(s0)
   121cc:	01042783          	lw	a5,16(s0)
   121d0:	00842903          	lw	s2,8(s0)
   121d4:	01442683          	lw	a3,20(s0)
   121d8:	00a7f663          	bgeu	a5,a0,121e4 <__sfvwrite_r+0x318>
   121dc:	00d90933          	add	s2,s2,a3
   121e0:	09794463          	blt	s2,s7,12268 <__sfvwrite_r+0x39c>
   121e4:	16dbc263          	blt	s7,a3,12348 <__sfvwrite_r+0x47c>
   121e8:	02442783          	lw	a5,36(s0)
   121ec:	01c42583          	lw	a1,28(s0)
   121f0:	000c0613          	mv	a2,s8
   121f4:	000a0513          	mv	a0,s4
   121f8:	000780e7          	jalr	a5
   121fc:	00050913          	mv	s2,a0
   12200:	f4a05ce3          	blez	a0,12158 <__sfvwrite_r+0x28c>
   12204:	412a8ab3          	sub	s5,s5,s2
   12208:	00100513          	li	a0,1
   1220c:	f20a8ee3          	beqz	s5,12148 <__sfvwrite_r+0x27c>
   12210:	008b2783          	lw	a5,8(s6)
   12214:	012c0c33          	add	s8,s8,s2
   12218:	412989b3          	sub	s3,s3,s2
   1221c:	412787b3          	sub	a5,a5,s2
   12220:	00fb2423          	sw	a5,8(s6)
   12224:	f80796e3          	bnez	a5,121b0 <__sfvwrite_r+0x2e4>
   12228:	00c12b83          	lw	s7,12(sp)
   1222c:	00812c03          	lw	s8,8(sp)
   12230:	eedff06f          	j	1211c <__sfvwrite_r+0x250>
   12234:	0044a983          	lw	s3,4(s1)
   12238:	00048793          	mv	a5,s1
   1223c:	00848493          	addi	s1,s1,8
   12240:	fe098ae3          	beqz	s3,12234 <__sfvwrite_r+0x368>
   12244:	0007ac03          	lw	s8,0(a5)
   12248:	00098613          	mv	a2,s3
   1224c:	00a00593          	li	a1,10
   12250:	000c0513          	mv	a0,s8
   12254:	2cc000ef          	jal	12520 <memchr>
   12258:	14050c63          	beqz	a0,123b0 <__sfvwrite_r+0x4e4>
   1225c:	00150513          	addi	a0,a0,1
   12260:	41850ab3          	sub	s5,a0,s8
   12264:	f55ff06f          	j	121b8 <__sfvwrite_r+0x2ec>
   12268:	000c0593          	mv	a1,s8
   1226c:	00090613          	mv	a2,s2
   12270:	42c000ef          	jal	1269c <memmove>
   12274:	00042783          	lw	a5,0(s0)
   12278:	00040593          	mv	a1,s0
   1227c:	000a0513          	mv	a0,s4
   12280:	012787b3          	add	a5,a5,s2
   12284:	00f42023          	sw	a5,0(s0)
   12288:	b61ff0ef          	jal	11de8 <_fflush_r>
   1228c:	f6050ce3          	beqz	a0,12204 <__sfvwrite_r+0x338>
   12290:	ec9ff06f          	j	12158 <__sfvwrite_r+0x28c>
   12294:	01042683          	lw	a3,16(s0)
   12298:	04f6e463          	bltu	a3,a5,122e0 <__sfvwrite_r+0x414>
   1229c:	01442583          	lw	a1,20(s0)
   122a0:	04b9e063          	bltu	s3,a1,122e0 <__sfvwrite_r+0x414>
   122a4:	00098913          	mv	s2,s3
   122a8:	013af463          	bgeu	s5,s3,122b0 <__sfvwrite_r+0x3e4>
   122ac:	000a8913          	mv	s2,s5
   122b0:	00090513          	mv	a0,s2
   122b4:	380010ef          	jal	13634 <__modsi3>
   122b8:	02442783          	lw	a5,36(s0)
   122bc:	01c42583          	lw	a1,28(s0)
   122c0:	40a906b3          	sub	a3,s2,a0
   122c4:	000b8613          	mv	a2,s7
   122c8:	000a0513          	mv	a0,s4
   122cc:	000780e7          	jalr	a5
   122d0:	00050913          	mv	s2,a0
   122d4:	04a05a63          	blez	a0,12328 <__sfvwrite_r+0x45c>
   122d8:	412989b3          	sub	s3,s3,s2
   122dc:	df9ff06f          	j	120d4 <__sfvwrite_r+0x208>
   122e0:	00070913          	mv	s2,a4
   122e4:	00e9f463          	bgeu	s3,a4,122ec <__sfvwrite_r+0x420>
   122e8:	00098913          	mv	s2,s3
   122ec:	00078513          	mv	a0,a5
   122f0:	00090613          	mv	a2,s2
   122f4:	000b8593          	mv	a1,s7
   122f8:	3a4000ef          	jal	1269c <memmove>
   122fc:	00842703          	lw	a4,8(s0)
   12300:	00042783          	lw	a5,0(s0)
   12304:	41270733          	sub	a4,a4,s2
   12308:	012787b3          	add	a5,a5,s2
   1230c:	00e42423          	sw	a4,8(s0)
   12310:	00f42023          	sw	a5,0(s0)
   12314:	fc0712e3          	bnez	a4,122d8 <__sfvwrite_r+0x40c>
   12318:	00040593          	mv	a1,s0
   1231c:	000a0513          	mv	a0,s4
   12320:	ac9ff0ef          	jal	11de8 <_fflush_r>
   12324:	fa050ae3          	beqz	a0,122d8 <__sfvwrite_r+0x40c>
   12328:	00c41783          	lh	a5,12(s0)
   1232c:	00c12b83          	lw	s7,12(sp)
   12330:	00812c03          	lw	s8,8(sp)
   12334:	00412c83          	lw	s9,4(sp)
   12338:	e2dff06f          	j	12164 <__sfvwrite_r+0x298>
   1233c:	00098c13          	mv	s8,s3
   12340:	00098c93          	mv	s9,s3
   12344:	d65ff06f          	j	120a8 <__sfvwrite_r+0x1dc>
   12348:	000b8613          	mv	a2,s7
   1234c:	000c0593          	mv	a1,s8
   12350:	34c000ef          	jal	1269c <memmove>
   12354:	00842703          	lw	a4,8(s0)
   12358:	00042783          	lw	a5,0(s0)
   1235c:	000b8913          	mv	s2,s7
   12360:	41770733          	sub	a4,a4,s7
   12364:	017787b3          	add	a5,a5,s7
   12368:	00e42423          	sw	a4,8(s0)
   1236c:	00f42023          	sw	a5,0(s0)
   12370:	e95ff06f          	j	12204 <__sfvwrite_r+0x338>
   12374:	000a0513          	mv	a0,s4
   12378:	66c000ef          	jal	129e4 <_realloc_r>
   1237c:	00050c93          	mv	s9,a0
   12380:	d00514e3          	bnez	a0,12088 <__sfvwrite_r+0x1bc>
   12384:	01042583          	lw	a1,16(s0)
   12388:	000a0513          	mv	a0,s4
   1238c:	c35fe0ef          	jal	10fc0 <_free_r>
   12390:	00c41783          	lh	a5,12(s0)
   12394:	00c00713          	li	a4,12
   12398:	00c12b83          	lw	s7,12(sp)
   1239c:	00812c03          	lw	s8,8(sp)
   123a0:	00412c83          	lw	s9,4(sp)
   123a4:	00ea2023          	sw	a4,0(s4)
   123a8:	f7f7f793          	andi	a5,a5,-129
   123ac:	db9ff06f          	j	12164 <__sfvwrite_r+0x298>
   123b0:	00198793          	addi	a5,s3,1
   123b4:	00078a93          	mv	s5,a5
   123b8:	e05ff06f          	j	121bc <__sfvwrite_r+0x2f0>
   123bc:	00c41783          	lh	a5,12(s0)
   123c0:	da5ff06f          	j	12164 <__sfvwrite_r+0x298>
   123c4:	00c00713          	li	a4,12
   123c8:	00c41783          	lh	a5,12(s0)
   123cc:	00c12b83          	lw	s7,12(sp)
   123d0:	00812c03          	lw	s8,8(sp)
   123d4:	00412c83          	lw	s9,4(sp)
   123d8:	00ea2023          	sw	a4,0(s4)
   123dc:	d89ff06f          	j	12164 <__sfvwrite_r+0x298>

000123e0 <__swsetup_r>:
   123e0:	d3c1a783          	lw	a5,-708(gp) # 14bc4 <_impure_ptr>
   123e4:	ff010113          	addi	sp,sp,-16
   123e8:	00812423          	sw	s0,8(sp)
   123ec:	00912223          	sw	s1,4(sp)
   123f0:	00112623          	sw	ra,12(sp)
   123f4:	00050493          	mv	s1,a0
   123f8:	00058413          	mv	s0,a1
   123fc:	00078663          	beqz	a5,12408 <__swsetup_r+0x28>
   12400:	0347a703          	lw	a4,52(a5)
   12404:	0e070c63          	beqz	a4,124fc <__swsetup_r+0x11c>
   12408:	00c41783          	lh	a5,12(s0)
   1240c:	0087f713          	andi	a4,a5,8
   12410:	06070a63          	beqz	a4,12484 <__swsetup_r+0xa4>
   12414:	01042703          	lw	a4,16(s0)
   12418:	08070663          	beqz	a4,124a4 <__swsetup_r+0xc4>
   1241c:	0017f693          	andi	a3,a5,1
   12420:	02068863          	beqz	a3,12450 <__swsetup_r+0x70>
   12424:	01442683          	lw	a3,20(s0)
   12428:	00042423          	sw	zero,8(s0)
   1242c:	00000513          	li	a0,0
   12430:	40d006b3          	neg	a3,a3
   12434:	00d42c23          	sw	a3,24(s0)
   12438:	02070a63          	beqz	a4,1246c <__swsetup_r+0x8c>
   1243c:	00c12083          	lw	ra,12(sp)
   12440:	00812403          	lw	s0,8(sp)
   12444:	00412483          	lw	s1,4(sp)
   12448:	01010113          	addi	sp,sp,16
   1244c:	00008067          	ret
   12450:	0027f693          	andi	a3,a5,2
   12454:	00000613          	li	a2,0
   12458:	00069463          	bnez	a3,12460 <__swsetup_r+0x80>
   1245c:	01442603          	lw	a2,20(s0)
   12460:	00c42423          	sw	a2,8(s0)
   12464:	00000513          	li	a0,0
   12468:	fc071ae3          	bnez	a4,1243c <__swsetup_r+0x5c>
   1246c:	0807f713          	andi	a4,a5,128
   12470:	fc0706e3          	beqz	a4,1243c <__swsetup_r+0x5c>
   12474:	0407e793          	ori	a5,a5,64
   12478:	00f41623          	sh	a5,12(s0)
   1247c:	fff00513          	li	a0,-1
   12480:	fbdff06f          	j	1243c <__swsetup_r+0x5c>
   12484:	0107f713          	andi	a4,a5,16
   12488:	08070063          	beqz	a4,12508 <__swsetup_r+0x128>
   1248c:	0047f713          	andi	a4,a5,4
   12490:	02071c63          	bnez	a4,124c8 <__swsetup_r+0xe8>
   12494:	01042703          	lw	a4,16(s0)
   12498:	0087e793          	ori	a5,a5,8
   1249c:	00f41623          	sh	a5,12(s0)
   124a0:	f6071ee3          	bnez	a4,1241c <__swsetup_r+0x3c>
   124a4:	2807f693          	andi	a3,a5,640
   124a8:	20000613          	li	a2,512
   124ac:	f6c688e3          	beq	a3,a2,1241c <__swsetup_r+0x3c>
   124b0:	00040593          	mv	a1,s0
   124b4:	00048513          	mv	a0,s1
   124b8:	29d000ef          	jal	12f54 <__smakebuf_r>
   124bc:	00c41783          	lh	a5,12(s0)
   124c0:	01042703          	lw	a4,16(s0)
   124c4:	f59ff06f          	j	1241c <__swsetup_r+0x3c>
   124c8:	03042583          	lw	a1,48(s0)
   124cc:	00058e63          	beqz	a1,124e8 <__swsetup_r+0x108>
   124d0:	04040713          	addi	a4,s0,64
   124d4:	00e58863          	beq	a1,a4,124e4 <__swsetup_r+0x104>
   124d8:	00048513          	mv	a0,s1
   124dc:	ae5fe0ef          	jal	10fc0 <_free_r>
   124e0:	00c41783          	lh	a5,12(s0)
   124e4:	02042823          	sw	zero,48(s0)
   124e8:	01042703          	lw	a4,16(s0)
   124ec:	fdb7f793          	andi	a5,a5,-37
   124f0:	00042223          	sw	zero,4(s0)
   124f4:	00e42023          	sw	a4,0(s0)
   124f8:	fa1ff06f          	j	12498 <__swsetup_r+0xb8>
   124fc:	00078513          	mv	a0,a5
   12500:	864fe0ef          	jal	10564 <__sinit>
   12504:	f05ff06f          	j	12408 <__swsetup_r+0x28>
   12508:	00900713          	li	a4,9
   1250c:	00e4a023          	sw	a4,0(s1)
   12510:	0407e793          	ori	a5,a5,64
   12514:	00f41623          	sh	a5,12(s0)
   12518:	fff00513          	li	a0,-1
   1251c:	f21ff06f          	j	1243c <__swsetup_r+0x5c>

00012520 <memchr>:
   12520:	00357793          	andi	a5,a0,3
   12524:	0ff5f693          	zext.b	a3,a1
   12528:	02078a63          	beqz	a5,1255c <memchr+0x3c>
   1252c:	fff60793          	addi	a5,a2,-1
   12530:	02060e63          	beqz	a2,1256c <memchr+0x4c>
   12534:	fff00613          	li	a2,-1
   12538:	0180006f          	j	12550 <memchr+0x30>
   1253c:	00150513          	addi	a0,a0,1
   12540:	00357713          	andi	a4,a0,3
   12544:	00070e63          	beqz	a4,12560 <memchr+0x40>
   12548:	fff78793          	addi	a5,a5,-1
   1254c:	02c78063          	beq	a5,a2,1256c <memchr+0x4c>
   12550:	00054703          	lbu	a4,0(a0)
   12554:	fed714e3          	bne	a4,a3,1253c <memchr+0x1c>
   12558:	00008067          	ret
   1255c:	00060793          	mv	a5,a2
   12560:	00300713          	li	a4,3
   12564:	00f76863          	bltu	a4,a5,12574 <memchr+0x54>
   12568:	06079063          	bnez	a5,125c8 <memchr+0xa8>
   1256c:	00000513          	li	a0,0
   12570:	00008067          	ret
   12574:	0ff5f593          	zext.b	a1,a1
   12578:	00859713          	slli	a4,a1,0x8
   1257c:	00b705b3          	add	a1,a4,a1
   12580:	01059713          	slli	a4,a1,0x10
   12584:	feff08b7          	lui	a7,0xfeff0
   12588:	80808837          	lui	a6,0x80808
   1258c:	00e585b3          	add	a1,a1,a4
   12590:	eff88893          	addi	a7,a7,-257 # fefefeff <__BSS_END__+0xfefdb007>
   12594:	08080813          	addi	a6,a6,128 # 80808080 <__BSS_END__+0x807f3188>
   12598:	00300313          	li	t1,3
   1259c:	0100006f          	j	125ac <memchr+0x8c>
   125a0:	ffc78793          	addi	a5,a5,-4
   125a4:	00450513          	addi	a0,a0,4
   125a8:	fcf370e3          	bgeu	t1,a5,12568 <memchr+0x48>
   125ac:	00052703          	lw	a4,0(a0)
   125b0:	00e5c733          	xor	a4,a1,a4
   125b4:	01170633          	add	a2,a4,a7
   125b8:	fff74713          	not	a4,a4
   125bc:	00e67733          	and	a4,a2,a4
   125c0:	01077733          	and	a4,a4,a6
   125c4:	fc070ee3          	beqz	a4,125a0 <memchr+0x80>
   125c8:	00f507b3          	add	a5,a0,a5
   125cc:	00c0006f          	j	125d8 <memchr+0xb8>
   125d0:	00150513          	addi	a0,a0,1
   125d4:	f8f50ce3          	beq	a0,a5,1256c <memchr+0x4c>
   125d8:	00054703          	lbu	a4,0(a0)
   125dc:	fed71ae3          	bne	a4,a3,125d0 <memchr+0xb0>
   125e0:	00008067          	ret

000125e4 <_sbrk_r>:
   125e4:	ff010113          	addi	sp,sp,-16
   125e8:	00812423          	sw	s0,8(sp)
   125ec:	00912223          	sw	s1,4(sp)
   125f0:	00050413          	mv	s0,a0
   125f4:	00058513          	mv	a0,a1
   125f8:	00112623          	sw	ra,12(sp)
   125fc:	d401a623          	sw	zero,-692(gp) # 14bd4 <errno>
   12600:	621000ef          	jal	13420 <_sbrk>
   12604:	fff00793          	li	a5,-1
   12608:	00f50c63          	beq	a0,a5,12620 <_sbrk_r+0x3c>
   1260c:	00c12083          	lw	ra,12(sp)
   12610:	00812403          	lw	s0,8(sp)
   12614:	00412483          	lw	s1,4(sp)
   12618:	01010113          	addi	sp,sp,16
   1261c:	00008067          	ret
   12620:	d4c1a783          	lw	a5,-692(gp) # 14bd4 <errno>
   12624:	fe0784e3          	beqz	a5,1260c <_sbrk_r+0x28>
   12628:	00c12083          	lw	ra,12(sp)
   1262c:	00f42023          	sw	a5,0(s0)
   12630:	00812403          	lw	s0,8(sp)
   12634:	00412483          	lw	s1,4(sp)
   12638:	01010113          	addi	sp,sp,16
   1263c:	00008067          	ret

00012640 <__libc_fini_array>:
   12640:	ff010113          	addi	sp,sp,-16
   12644:	00812423          	sw	s0,8(sp)
   12648:	000147b7          	lui	a5,0x14
   1264c:	00014437          	lui	s0,0x14
   12650:	68078793          	addi	a5,a5,1664 # 14680 <__do_global_dtors_aux_fini_array_entry>
   12654:	68440413          	addi	s0,s0,1668 # 14684 <__fini_array_end>
   12658:	40f40433          	sub	s0,s0,a5
   1265c:	00912223          	sw	s1,4(sp)
   12660:	00112623          	sw	ra,12(sp)
   12664:	40245493          	srai	s1,s0,0x2
   12668:	02048063          	beqz	s1,12688 <__libc_fini_array+0x48>
   1266c:	ffc40413          	addi	s0,s0,-4
   12670:	00f40433          	add	s0,s0,a5
   12674:	00042783          	lw	a5,0(s0)
   12678:	fff48493          	addi	s1,s1,-1
   1267c:	ffc40413          	addi	s0,s0,-4
   12680:	000780e7          	jalr	a5
   12684:	fe0498e3          	bnez	s1,12674 <__libc_fini_array+0x34>
   12688:	00c12083          	lw	ra,12(sp)
   1268c:	00812403          	lw	s0,8(sp)
   12690:	00412483          	lw	s1,4(sp)
   12694:	01010113          	addi	sp,sp,16
   12698:	00008067          	ret

0001269c <memmove>:
   1269c:	02a5f663          	bgeu	a1,a0,126c8 <memmove+0x2c>
   126a0:	00c58733          	add	a4,a1,a2
   126a4:	02e57263          	bgeu	a0,a4,126c8 <memmove+0x2c>
   126a8:	00c507b3          	add	a5,a0,a2
   126ac:	04060663          	beqz	a2,126f8 <memmove+0x5c>
   126b0:	fff74683          	lbu	a3,-1(a4)
   126b4:	fff78793          	addi	a5,a5,-1
   126b8:	fff70713          	addi	a4,a4,-1
   126bc:	00d78023          	sb	a3,0(a5)
   126c0:	fef518e3          	bne	a0,a5,126b0 <memmove+0x14>
   126c4:	00008067          	ret
   126c8:	00f00793          	li	a5,15
   126cc:	02c7e863          	bltu	a5,a2,126fc <memmove+0x60>
   126d0:	00050793          	mv	a5,a0
   126d4:	fff60693          	addi	a3,a2,-1
   126d8:	0c060263          	beqz	a2,1279c <memmove+0x100>
   126dc:	00168693          	addi	a3,a3,1
   126e0:	00d786b3          	add	a3,a5,a3
   126e4:	0005c703          	lbu	a4,0(a1)
   126e8:	00178793          	addi	a5,a5,1
   126ec:	00158593          	addi	a1,a1,1
   126f0:	fee78fa3          	sb	a4,-1(a5)
   126f4:	fed798e3          	bne	a5,a3,126e4 <memmove+0x48>
   126f8:	00008067          	ret
   126fc:	00b567b3          	or	a5,a0,a1
   12700:	0037f793          	andi	a5,a5,3
   12704:	08079663          	bnez	a5,12790 <memmove+0xf4>
   12708:	ff060893          	addi	a7,a2,-16
   1270c:	ff08f893          	andi	a7,a7,-16
   12710:	01088893          	addi	a7,a7,16
   12714:	011506b3          	add	a3,a0,a7
   12718:	00058713          	mv	a4,a1
   1271c:	00050793          	mv	a5,a0
   12720:	00072803          	lw	a6,0(a4)
   12724:	01070713          	addi	a4,a4,16
   12728:	01078793          	addi	a5,a5,16
   1272c:	ff07a823          	sw	a6,-16(a5)
   12730:	ff472803          	lw	a6,-12(a4)
   12734:	ff07aa23          	sw	a6,-12(a5)
   12738:	ff872803          	lw	a6,-8(a4)
   1273c:	ff07ac23          	sw	a6,-8(a5)
   12740:	ffc72803          	lw	a6,-4(a4)
   12744:	ff07ae23          	sw	a6,-4(a5)
   12748:	fcd79ce3          	bne	a5,a3,12720 <memmove+0x84>
   1274c:	00c67813          	andi	a6,a2,12
   12750:	011585b3          	add	a1,a1,a7
   12754:	00f67713          	andi	a4,a2,15
   12758:	04080463          	beqz	a6,127a0 <memmove+0x104>
   1275c:	ffc70813          	addi	a6,a4,-4
   12760:	ffc87813          	andi	a6,a6,-4
   12764:	00480813          	addi	a6,a6,4
   12768:	010687b3          	add	a5,a3,a6
   1276c:	00058713          	mv	a4,a1
   12770:	00072883          	lw	a7,0(a4)
   12774:	00468693          	addi	a3,a3,4
   12778:	00470713          	addi	a4,a4,4
   1277c:	ff16ae23          	sw	a7,-4(a3)
   12780:	fef698e3          	bne	a3,a5,12770 <memmove+0xd4>
   12784:	00367613          	andi	a2,a2,3
   12788:	010585b3          	add	a1,a1,a6
   1278c:	f49ff06f          	j	126d4 <memmove+0x38>
   12790:	fff60693          	addi	a3,a2,-1
   12794:	00050793          	mv	a5,a0
   12798:	f45ff06f          	j	126dc <memmove+0x40>
   1279c:	00008067          	ret
   127a0:	00070613          	mv	a2,a4
   127a4:	f31ff06f          	j	126d4 <memmove+0x38>

000127a8 <memcpy>:
   127a8:	00a5c7b3          	xor	a5,a1,a0
   127ac:	0037f793          	andi	a5,a5,3
   127b0:	00c508b3          	add	a7,a0,a2
   127b4:	06079463          	bnez	a5,1281c <memcpy+0x74>
   127b8:	00300793          	li	a5,3
   127bc:	06c7f063          	bgeu	a5,a2,1281c <memcpy+0x74>
   127c0:	00357793          	andi	a5,a0,3
   127c4:	00050713          	mv	a4,a0
   127c8:	06079a63          	bnez	a5,1283c <memcpy+0x94>
   127cc:	ffc8f613          	andi	a2,a7,-4
   127d0:	40e606b3          	sub	a3,a2,a4
   127d4:	02000793          	li	a5,32
   127d8:	08d7ce63          	blt	a5,a3,12874 <memcpy+0xcc>
   127dc:	00058693          	mv	a3,a1
   127e0:	00070793          	mv	a5,a4
   127e4:	02c77863          	bgeu	a4,a2,12814 <memcpy+0x6c>
   127e8:	0006a803          	lw	a6,0(a3)
   127ec:	00478793          	addi	a5,a5,4
   127f0:	00468693          	addi	a3,a3,4
   127f4:	ff07ae23          	sw	a6,-4(a5)
   127f8:	fec7e8e3          	bltu	a5,a2,127e8 <memcpy+0x40>
   127fc:	fff60793          	addi	a5,a2,-1
   12800:	40e787b3          	sub	a5,a5,a4
   12804:	ffc7f793          	andi	a5,a5,-4
   12808:	00478793          	addi	a5,a5,4
   1280c:	00f70733          	add	a4,a4,a5
   12810:	00f585b3          	add	a1,a1,a5
   12814:	01176863          	bltu	a4,a7,12824 <memcpy+0x7c>
   12818:	00008067          	ret
   1281c:	00050713          	mv	a4,a0
   12820:	05157863          	bgeu	a0,a7,12870 <memcpy+0xc8>
   12824:	0005c783          	lbu	a5,0(a1)
   12828:	00170713          	addi	a4,a4,1
   1282c:	00158593          	addi	a1,a1,1
   12830:	fef70fa3          	sb	a5,-1(a4)
   12834:	fee898e3          	bne	a7,a4,12824 <memcpy+0x7c>
   12838:	00008067          	ret
   1283c:	0005c683          	lbu	a3,0(a1)
   12840:	00170713          	addi	a4,a4,1
   12844:	00377793          	andi	a5,a4,3
   12848:	fed70fa3          	sb	a3,-1(a4)
   1284c:	00158593          	addi	a1,a1,1
   12850:	f6078ee3          	beqz	a5,127cc <memcpy+0x24>
   12854:	0005c683          	lbu	a3,0(a1)
   12858:	00170713          	addi	a4,a4,1
   1285c:	00377793          	andi	a5,a4,3
   12860:	fed70fa3          	sb	a3,-1(a4)
   12864:	00158593          	addi	a1,a1,1
   12868:	fc079ae3          	bnez	a5,1283c <memcpy+0x94>
   1286c:	f61ff06f          	j	127cc <memcpy+0x24>
   12870:	00008067          	ret
   12874:	ff010113          	addi	sp,sp,-16
   12878:	00812623          	sw	s0,12(sp)
   1287c:	02000413          	li	s0,32
   12880:	0005a383          	lw	t2,0(a1)
   12884:	0045a283          	lw	t0,4(a1)
   12888:	0085af83          	lw	t6,8(a1)
   1288c:	00c5af03          	lw	t5,12(a1)
   12890:	0105ae83          	lw	t4,16(a1)
   12894:	0145ae03          	lw	t3,20(a1)
   12898:	0185a303          	lw	t1,24(a1)
   1289c:	01c5a803          	lw	a6,28(a1)
   128a0:	0205a683          	lw	a3,32(a1)
   128a4:	02470713          	addi	a4,a4,36
   128a8:	40e607b3          	sub	a5,a2,a4
   128ac:	fc772e23          	sw	t2,-36(a4)
   128b0:	fe572023          	sw	t0,-32(a4)
   128b4:	fff72223          	sw	t6,-28(a4)
   128b8:	ffe72423          	sw	t5,-24(a4)
   128bc:	ffd72623          	sw	t4,-20(a4)
   128c0:	ffc72823          	sw	t3,-16(a4)
   128c4:	fe672a23          	sw	t1,-12(a4)
   128c8:	ff072c23          	sw	a6,-8(a4)
   128cc:	fed72e23          	sw	a3,-4(a4)
   128d0:	02458593          	addi	a1,a1,36
   128d4:	faf446e3          	blt	s0,a5,12880 <memcpy+0xd8>
   128d8:	00058693          	mv	a3,a1
   128dc:	00070793          	mv	a5,a4
   128e0:	02c77863          	bgeu	a4,a2,12910 <memcpy+0x168>
   128e4:	0006a803          	lw	a6,0(a3)
   128e8:	00478793          	addi	a5,a5,4
   128ec:	00468693          	addi	a3,a3,4
   128f0:	ff07ae23          	sw	a6,-4(a5)
   128f4:	fec7e8e3          	bltu	a5,a2,128e4 <memcpy+0x13c>
   128f8:	fff60793          	addi	a5,a2,-1
   128fc:	40e787b3          	sub	a5,a5,a4
   12900:	ffc7f793          	andi	a5,a5,-4
   12904:	00478793          	addi	a5,a5,4
   12908:	00f70733          	add	a4,a4,a5
   1290c:	00f585b3          	add	a1,a1,a5
   12910:	01176863          	bltu	a4,a7,12920 <memcpy+0x178>
   12914:	00c12403          	lw	s0,12(sp)
   12918:	01010113          	addi	sp,sp,16
   1291c:	00008067          	ret
   12920:	0005c783          	lbu	a5,0(a1)
   12924:	00170713          	addi	a4,a4,1
   12928:	00158593          	addi	a1,a1,1
   1292c:	fef70fa3          	sb	a5,-1(a4)
   12930:	fee882e3          	beq	a7,a4,12914 <memcpy+0x16c>
   12934:	0005c783          	lbu	a5,0(a1)
   12938:	00170713          	addi	a4,a4,1
   1293c:	00158593          	addi	a1,a1,1
   12940:	fef70fa3          	sb	a5,-1(a4)
   12944:	fce89ee3          	bne	a7,a4,12920 <memcpy+0x178>
   12948:	fcdff06f          	j	12914 <memcpy+0x16c>

0001294c <__register_exitproc>:
   1294c:	d501a783          	lw	a5,-688(gp) # 14bd8 <__atexit>
   12950:	04078c63          	beqz	a5,129a8 <__register_exitproc+0x5c>
   12954:	0047a703          	lw	a4,4(a5)
   12958:	01f00813          	li	a6,31
   1295c:	08e84063          	blt	a6,a4,129dc <__register_exitproc+0x90>
   12960:	00271813          	slli	a6,a4,0x2
   12964:	02050663          	beqz	a0,12990 <__register_exitproc+0x44>
   12968:	01078333          	add	t1,a5,a6
   1296c:	08c32423          	sw	a2,136(t1)
   12970:	1887a883          	lw	a7,392(a5)
   12974:	00100613          	li	a2,1
   12978:	00e61633          	sll	a2,a2,a4
   1297c:	00c8e8b3          	or	a7,a7,a2
   12980:	1917a423          	sw	a7,392(a5)
   12984:	10d32423          	sw	a3,264(t1)
   12988:	00200693          	li	a3,2
   1298c:	02d50663          	beq	a0,a3,129b8 <__register_exitproc+0x6c>
   12990:	00170713          	addi	a4,a4,1
   12994:	00e7a223          	sw	a4,4(a5)
   12998:	010787b3          	add	a5,a5,a6
   1299c:	00b7a423          	sw	a1,8(a5)
   129a0:	00000513          	li	a0,0
   129a4:	00008067          	ret
   129a8:	ee018813          	addi	a6,gp,-288 # 14d68 <__atexit0>
   129ac:	d501a823          	sw	a6,-688(gp) # 14bd8 <__atexit>
   129b0:	ee018793          	addi	a5,gp,-288 # 14d68 <__atexit0>
   129b4:	fa1ff06f          	j	12954 <__register_exitproc+0x8>
   129b8:	18c7a683          	lw	a3,396(a5)
   129bc:	00170713          	addi	a4,a4,1
   129c0:	00e7a223          	sw	a4,4(a5)
   129c4:	00c6e6b3          	or	a3,a3,a2
   129c8:	18d7a623          	sw	a3,396(a5)
   129cc:	010787b3          	add	a5,a5,a6
   129d0:	00b7a423          	sw	a1,8(a5)
   129d4:	00000513          	li	a0,0
   129d8:	00008067          	ret
   129dc:	fff00513          	li	a0,-1
   129e0:	00008067          	ret

000129e4 <_realloc_r>:
   129e4:	fd010113          	addi	sp,sp,-48
   129e8:	02912223          	sw	s1,36(sp)
   129ec:	02112623          	sw	ra,44(sp)
   129f0:	00060493          	mv	s1,a2
   129f4:	1e058863          	beqz	a1,12be4 <_realloc_r+0x200>
   129f8:	02812423          	sw	s0,40(sp)
   129fc:	03212023          	sw	s2,32(sp)
   12a00:	00058413          	mv	s0,a1
   12a04:	01312e23          	sw	s3,28(sp)
   12a08:	01512a23          	sw	s5,20(sp)
   12a0c:	01412c23          	sw	s4,24(sp)
   12a10:	00050913          	mv	s2,a0
   12a14:	86cff0ef          	jal	11a80 <__malloc_lock>
   12a18:	ffc42703          	lw	a4,-4(s0)
   12a1c:	00b48793          	addi	a5,s1,11
   12a20:	01600693          	li	a3,22
   12a24:	ff840a93          	addi	s5,s0,-8
   12a28:	ffc77993          	andi	s3,a4,-4
   12a2c:	10f6f263          	bgeu	a3,a5,12b30 <_realloc_r+0x14c>
   12a30:	ff87fa13          	andi	s4,a5,-8
   12a34:	1007c263          	bltz	a5,12b38 <_realloc_r+0x154>
   12a38:	109a6063          	bltu	s4,s1,12b38 <_realloc_r+0x154>
   12a3c:	1349d263          	bge	s3,s4,12b60 <_realloc_r+0x17c>
   12a40:	000147b7          	lui	a5,0x14
   12a44:	01812423          	sw	s8,8(sp)
   12a48:	7b878c13          	addi	s8,a5,1976 # 147b8 <__malloc_av_>
   12a4c:	008c2603          	lw	a2,8(s8)
   12a50:	013a86b3          	add	a3,s5,s3
   12a54:	0046a783          	lw	a5,4(a3)
   12a58:	1cd60863          	beq	a2,a3,12c28 <_realloc_r+0x244>
   12a5c:	ffe7f613          	andi	a2,a5,-2
   12a60:	00c68633          	add	a2,a3,a2
   12a64:	00462603          	lw	a2,4(a2)
   12a68:	00167613          	andi	a2,a2,1
   12a6c:	14061a63          	bnez	a2,12bc0 <_realloc_r+0x1dc>
   12a70:	ffc7f793          	andi	a5,a5,-4
   12a74:	00f98633          	add	a2,s3,a5
   12a78:	0d465863          	bge	a2,s4,12b48 <_realloc_r+0x164>
   12a7c:	00177713          	andi	a4,a4,1
   12a80:	02071c63          	bnez	a4,12ab8 <_realloc_r+0xd4>
   12a84:	01712623          	sw	s7,12(sp)
   12a88:	ff842b83          	lw	s7,-8(s0)
   12a8c:	01612823          	sw	s6,16(sp)
   12a90:	417a8bb3          	sub	s7,s5,s7
   12a94:	004ba703          	lw	a4,4(s7)
   12a98:	ffc77713          	andi	a4,a4,-4
   12a9c:	00e787b3          	add	a5,a5,a4
   12aa0:	01378b33          	add	s6,a5,s3
   12aa4:	334b5c63          	bge	s6,s4,12ddc <_realloc_r+0x3f8>
   12aa8:	00e98b33          	add	s6,s3,a4
   12aac:	294b5863          	bge	s6,s4,12d3c <_realloc_r+0x358>
   12ab0:	01012b03          	lw	s6,16(sp)
   12ab4:	00c12b83          	lw	s7,12(sp)
   12ab8:	00048593          	mv	a1,s1
   12abc:	00090513          	mv	a0,s2
   12ac0:	805fe0ef          	jal	112c4 <_malloc_r>
   12ac4:	00050493          	mv	s1,a0
   12ac8:	40050863          	beqz	a0,12ed8 <_realloc_r+0x4f4>
   12acc:	ffc42783          	lw	a5,-4(s0)
   12ad0:	ff850713          	addi	a4,a0,-8
   12ad4:	ffe7f793          	andi	a5,a5,-2
   12ad8:	00fa87b3          	add	a5,s5,a5
   12adc:	24e78663          	beq	a5,a4,12d28 <_realloc_r+0x344>
   12ae0:	ffc98613          	addi	a2,s3,-4
   12ae4:	02400793          	li	a5,36
   12ae8:	2ec7e463          	bltu	a5,a2,12dd0 <_realloc_r+0x3ec>
   12aec:	01300713          	li	a4,19
   12af0:	20c76a63          	bltu	a4,a2,12d04 <_realloc_r+0x320>
   12af4:	00050793          	mv	a5,a0
   12af8:	00040713          	mv	a4,s0
   12afc:	00072683          	lw	a3,0(a4)
   12b00:	00d7a023          	sw	a3,0(a5)
   12b04:	00472683          	lw	a3,4(a4)
   12b08:	00d7a223          	sw	a3,4(a5)
   12b0c:	00872703          	lw	a4,8(a4)
   12b10:	00e7a423          	sw	a4,8(a5)
   12b14:	00040593          	mv	a1,s0
   12b18:	00090513          	mv	a0,s2
   12b1c:	ca4fe0ef          	jal	10fc0 <_free_r>
   12b20:	00090513          	mv	a0,s2
   12b24:	f61fe0ef          	jal	11a84 <__malloc_unlock>
   12b28:	00812c03          	lw	s8,8(sp)
   12b2c:	06c0006f          	j	12b98 <_realloc_r+0x1b4>
   12b30:	01000a13          	li	s4,16
   12b34:	f09a74e3          	bgeu	s4,s1,12a3c <_realloc_r+0x58>
   12b38:	00c00793          	li	a5,12
   12b3c:	00f92023          	sw	a5,0(s2)
   12b40:	00000493          	li	s1,0
   12b44:	0540006f          	j	12b98 <_realloc_r+0x1b4>
   12b48:	00c6a783          	lw	a5,12(a3)
   12b4c:	0086a703          	lw	a4,8(a3)
   12b50:	00812c03          	lw	s8,8(sp)
   12b54:	00060993          	mv	s3,a2
   12b58:	00f72623          	sw	a5,12(a4)
   12b5c:	00e7a423          	sw	a4,8(a5)
   12b60:	004aa783          	lw	a5,4(s5)
   12b64:	414986b3          	sub	a3,s3,s4
   12b68:	00f00613          	li	a2,15
   12b6c:	0017f793          	andi	a5,a5,1
   12b70:	013a8733          	add	a4,s5,s3
   12b74:	08d66263          	bltu	a2,a3,12bf8 <_realloc_r+0x214>
   12b78:	0137e7b3          	or	a5,a5,s3
   12b7c:	00faa223          	sw	a5,4(s5)
   12b80:	00472783          	lw	a5,4(a4)
   12b84:	0017e793          	ori	a5,a5,1
   12b88:	00f72223          	sw	a5,4(a4)
   12b8c:	00090513          	mv	a0,s2
   12b90:	ef5fe0ef          	jal	11a84 <__malloc_unlock>
   12b94:	00040493          	mv	s1,s0
   12b98:	02812403          	lw	s0,40(sp)
   12b9c:	02c12083          	lw	ra,44(sp)
   12ba0:	02012903          	lw	s2,32(sp)
   12ba4:	01c12983          	lw	s3,28(sp)
   12ba8:	01812a03          	lw	s4,24(sp)
   12bac:	01412a83          	lw	s5,20(sp)
   12bb0:	00048513          	mv	a0,s1
   12bb4:	02412483          	lw	s1,36(sp)
   12bb8:	03010113          	addi	sp,sp,48
   12bbc:	00008067          	ret
   12bc0:	00177713          	andi	a4,a4,1
   12bc4:	ee071ae3          	bnez	a4,12ab8 <_realloc_r+0xd4>
   12bc8:	01712623          	sw	s7,12(sp)
   12bcc:	ff842b83          	lw	s7,-8(s0)
   12bd0:	01612823          	sw	s6,16(sp)
   12bd4:	417a8bb3          	sub	s7,s5,s7
   12bd8:	004ba703          	lw	a4,4(s7)
   12bdc:	ffc77713          	andi	a4,a4,-4
   12be0:	ec9ff06f          	j	12aa8 <_realloc_r+0xc4>
   12be4:	02c12083          	lw	ra,44(sp)
   12be8:	02412483          	lw	s1,36(sp)
   12bec:	00060593          	mv	a1,a2
   12bf0:	03010113          	addi	sp,sp,48
   12bf4:	ed0fe06f          	j	112c4 <_malloc_r>
   12bf8:	0147e7b3          	or	a5,a5,s4
   12bfc:	00faa223          	sw	a5,4(s5)
   12c00:	014a85b3          	add	a1,s5,s4
   12c04:	0016e693          	ori	a3,a3,1
   12c08:	00d5a223          	sw	a3,4(a1)
   12c0c:	00472783          	lw	a5,4(a4)
   12c10:	00858593          	addi	a1,a1,8
   12c14:	00090513          	mv	a0,s2
   12c18:	0017e793          	ori	a5,a5,1
   12c1c:	00f72223          	sw	a5,4(a4)
   12c20:	ba0fe0ef          	jal	10fc0 <_free_r>
   12c24:	f69ff06f          	j	12b8c <_realloc_r+0x1a8>
   12c28:	ffc7f793          	andi	a5,a5,-4
   12c2c:	013786b3          	add	a3,a5,s3
   12c30:	010a0613          	addi	a2,s4,16
   12c34:	26c6d063          	bge	a3,a2,12e94 <_realloc_r+0x4b0>
   12c38:	00177713          	andi	a4,a4,1
   12c3c:	e6071ee3          	bnez	a4,12ab8 <_realloc_r+0xd4>
   12c40:	01712623          	sw	s7,12(sp)
   12c44:	ff842b83          	lw	s7,-8(s0)
   12c48:	01612823          	sw	s6,16(sp)
   12c4c:	417a8bb3          	sub	s7,s5,s7
   12c50:	004ba703          	lw	a4,4(s7)
   12c54:	ffc77713          	andi	a4,a4,-4
   12c58:	00e787b3          	add	a5,a5,a4
   12c5c:	01378b33          	add	s6,a5,s3
   12c60:	e4cb44e3          	blt	s6,a2,12aa8 <_realloc_r+0xc4>
   12c64:	00cba783          	lw	a5,12(s7)
   12c68:	008ba703          	lw	a4,8(s7)
   12c6c:	ffc98613          	addi	a2,s3,-4
   12c70:	02400693          	li	a3,36
   12c74:	00f72623          	sw	a5,12(a4)
   12c78:	00e7a423          	sw	a4,8(a5)
   12c7c:	008b8493          	addi	s1,s7,8
   12c80:	28c6e463          	bltu	a3,a2,12f08 <_realloc_r+0x524>
   12c84:	01300713          	li	a4,19
   12c88:	00048793          	mv	a5,s1
   12c8c:	02c77263          	bgeu	a4,a2,12cb0 <_realloc_r+0x2cc>
   12c90:	00042703          	lw	a4,0(s0)
   12c94:	01b00793          	li	a5,27
   12c98:	00eba423          	sw	a4,8(s7)
   12c9c:	00442703          	lw	a4,4(s0)
   12ca0:	00eba623          	sw	a4,12(s7)
   12ca4:	26c7ea63          	bltu	a5,a2,12f18 <_realloc_r+0x534>
   12ca8:	00840413          	addi	s0,s0,8
   12cac:	010b8793          	addi	a5,s7,16
   12cb0:	00042703          	lw	a4,0(s0)
   12cb4:	00e7a023          	sw	a4,0(a5)
   12cb8:	00442703          	lw	a4,4(s0)
   12cbc:	00e7a223          	sw	a4,4(a5)
   12cc0:	00842703          	lw	a4,8(s0)
   12cc4:	00e7a423          	sw	a4,8(a5)
   12cc8:	014b8733          	add	a4,s7,s4
   12ccc:	414b0b33          	sub	s6,s6,s4
   12cd0:	00ec2423          	sw	a4,8(s8)
   12cd4:	001b6793          	ori	a5,s6,1
   12cd8:	00f72223          	sw	a5,4(a4)
   12cdc:	004ba783          	lw	a5,4(s7)
   12ce0:	00090513          	mv	a0,s2
   12ce4:	0017f793          	andi	a5,a5,1
   12ce8:	0147e7b3          	or	a5,a5,s4
   12cec:	00fba223          	sw	a5,4(s7)
   12cf0:	d95fe0ef          	jal	11a84 <__malloc_unlock>
   12cf4:	01012b03          	lw	s6,16(sp)
   12cf8:	00c12b83          	lw	s7,12(sp)
   12cfc:	00812c03          	lw	s8,8(sp)
   12d00:	e99ff06f          	j	12b98 <_realloc_r+0x1b4>
   12d04:	00042683          	lw	a3,0(s0)
   12d08:	01b00713          	li	a4,27
   12d0c:	00d52023          	sw	a3,0(a0)
   12d10:	00442683          	lw	a3,4(s0)
   12d14:	00d52223          	sw	a3,4(a0)
   12d18:	14c76e63          	bltu	a4,a2,12e74 <_realloc_r+0x490>
   12d1c:	00840713          	addi	a4,s0,8
   12d20:	00850793          	addi	a5,a0,8
   12d24:	dd9ff06f          	j	12afc <_realloc_r+0x118>
   12d28:	ffc52783          	lw	a5,-4(a0)
   12d2c:	00812c03          	lw	s8,8(sp)
   12d30:	ffc7f793          	andi	a5,a5,-4
   12d34:	00f989b3          	add	s3,s3,a5
   12d38:	e29ff06f          	j	12b60 <_realloc_r+0x17c>
   12d3c:	00cba783          	lw	a5,12(s7)
   12d40:	008ba703          	lw	a4,8(s7)
   12d44:	ffc98613          	addi	a2,s3,-4
   12d48:	02400693          	li	a3,36
   12d4c:	00f72623          	sw	a5,12(a4)
   12d50:	00e7a423          	sw	a4,8(a5)
   12d54:	008b8493          	addi	s1,s7,8
   12d58:	10c6e663          	bltu	a3,a2,12e64 <_realloc_r+0x480>
   12d5c:	01300713          	li	a4,19
   12d60:	00048793          	mv	a5,s1
   12d64:	02c77c63          	bgeu	a4,a2,12d9c <_realloc_r+0x3b8>
   12d68:	00042703          	lw	a4,0(s0)
   12d6c:	01b00793          	li	a5,27
   12d70:	00eba423          	sw	a4,8(s7)
   12d74:	00442703          	lw	a4,4(s0)
   12d78:	00eba623          	sw	a4,12(s7)
   12d7c:	14c7f863          	bgeu	a5,a2,12ecc <_realloc_r+0x4e8>
   12d80:	00842783          	lw	a5,8(s0)
   12d84:	00fba823          	sw	a5,16(s7)
   12d88:	00c42783          	lw	a5,12(s0)
   12d8c:	00fbaa23          	sw	a5,20(s7)
   12d90:	0ad60c63          	beq	a2,a3,12e48 <_realloc_r+0x464>
   12d94:	01040413          	addi	s0,s0,16
   12d98:	018b8793          	addi	a5,s7,24
   12d9c:	00042703          	lw	a4,0(s0)
   12da0:	00e7a023          	sw	a4,0(a5)
   12da4:	00442703          	lw	a4,4(s0)
   12da8:	00e7a223          	sw	a4,4(a5)
   12dac:	00842703          	lw	a4,8(s0)
   12db0:	00e7a423          	sw	a4,8(a5)
   12db4:	000b0993          	mv	s3,s6
   12db8:	000b8a93          	mv	s5,s7
   12dbc:	01012b03          	lw	s6,16(sp)
   12dc0:	00c12b83          	lw	s7,12(sp)
   12dc4:	00812c03          	lw	s8,8(sp)
   12dc8:	00048413          	mv	s0,s1
   12dcc:	d95ff06f          	j	12b60 <_realloc_r+0x17c>
   12dd0:	00040593          	mv	a1,s0
   12dd4:	8c9ff0ef          	jal	1269c <memmove>
   12dd8:	d3dff06f          	j	12b14 <_realloc_r+0x130>
   12ddc:	00c6a783          	lw	a5,12(a3)
   12de0:	0086a703          	lw	a4,8(a3)
   12de4:	ffc98613          	addi	a2,s3,-4
   12de8:	02400693          	li	a3,36
   12dec:	00f72623          	sw	a5,12(a4)
   12df0:	00e7a423          	sw	a4,8(a5)
   12df4:	008ba703          	lw	a4,8(s7)
   12df8:	00cba783          	lw	a5,12(s7)
   12dfc:	008b8493          	addi	s1,s7,8
   12e00:	00f72623          	sw	a5,12(a4)
   12e04:	00e7a423          	sw	a4,8(a5)
   12e08:	04c6ee63          	bltu	a3,a2,12e64 <_realloc_r+0x480>
   12e0c:	01300713          	li	a4,19
   12e10:	00048793          	mv	a5,s1
   12e14:	f8c774e3          	bgeu	a4,a2,12d9c <_realloc_r+0x3b8>
   12e18:	00042703          	lw	a4,0(s0)
   12e1c:	01b00793          	li	a5,27
   12e20:	00eba423          	sw	a4,8(s7)
   12e24:	00442703          	lw	a4,4(s0)
   12e28:	00eba623          	sw	a4,12(s7)
   12e2c:	0ac7f063          	bgeu	a5,a2,12ecc <_realloc_r+0x4e8>
   12e30:	00842703          	lw	a4,8(s0)
   12e34:	02400793          	li	a5,36
   12e38:	00eba823          	sw	a4,16(s7)
   12e3c:	00c42703          	lw	a4,12(s0)
   12e40:	00ebaa23          	sw	a4,20(s7)
   12e44:	f4f618e3          	bne	a2,a5,12d94 <_realloc_r+0x3b0>
   12e48:	01042703          	lw	a4,16(s0)
   12e4c:	020b8793          	addi	a5,s7,32
   12e50:	01840413          	addi	s0,s0,24
   12e54:	00ebac23          	sw	a4,24(s7)
   12e58:	ffc42703          	lw	a4,-4(s0)
   12e5c:	00ebae23          	sw	a4,28(s7)
   12e60:	f3dff06f          	j	12d9c <_realloc_r+0x3b8>
   12e64:	00040593          	mv	a1,s0
   12e68:	00048513          	mv	a0,s1
   12e6c:	831ff0ef          	jal	1269c <memmove>
   12e70:	f45ff06f          	j	12db4 <_realloc_r+0x3d0>
   12e74:	00842703          	lw	a4,8(s0)
   12e78:	00e52423          	sw	a4,8(a0)
   12e7c:	00c42703          	lw	a4,12(s0)
   12e80:	00e52623          	sw	a4,12(a0)
   12e84:	06f60463          	beq	a2,a5,12eec <_realloc_r+0x508>
   12e88:	01040713          	addi	a4,s0,16
   12e8c:	01050793          	addi	a5,a0,16
   12e90:	c6dff06f          	j	12afc <_realloc_r+0x118>
   12e94:	014a8ab3          	add	s5,s5,s4
   12e98:	414686b3          	sub	a3,a3,s4
   12e9c:	015c2423          	sw	s5,8(s8)
   12ea0:	0016e793          	ori	a5,a3,1
   12ea4:	00faa223          	sw	a5,4(s5)
   12ea8:	ffc42783          	lw	a5,-4(s0)
   12eac:	00090513          	mv	a0,s2
   12eb0:	00040493          	mv	s1,s0
   12eb4:	0017f793          	andi	a5,a5,1
   12eb8:	0147e7b3          	or	a5,a5,s4
   12ebc:	fef42e23          	sw	a5,-4(s0)
   12ec0:	bc5fe0ef          	jal	11a84 <__malloc_unlock>
   12ec4:	00812c03          	lw	s8,8(sp)
   12ec8:	cd1ff06f          	j	12b98 <_realloc_r+0x1b4>
   12ecc:	00840413          	addi	s0,s0,8
   12ed0:	010b8793          	addi	a5,s7,16
   12ed4:	ec9ff06f          	j	12d9c <_realloc_r+0x3b8>
   12ed8:	00090513          	mv	a0,s2
   12edc:	ba9fe0ef          	jal	11a84 <__malloc_unlock>
   12ee0:	00000493          	li	s1,0
   12ee4:	00812c03          	lw	s8,8(sp)
   12ee8:	cb1ff06f          	j	12b98 <_realloc_r+0x1b4>
   12eec:	01042683          	lw	a3,16(s0)
   12ef0:	01840713          	addi	a4,s0,24
   12ef4:	01850793          	addi	a5,a0,24
   12ef8:	00d52823          	sw	a3,16(a0)
   12efc:	01442683          	lw	a3,20(s0)
   12f00:	00d52a23          	sw	a3,20(a0)
   12f04:	bf9ff06f          	j	12afc <_realloc_r+0x118>
   12f08:	00040593          	mv	a1,s0
   12f0c:	00048513          	mv	a0,s1
   12f10:	f8cff0ef          	jal	1269c <memmove>
   12f14:	db5ff06f          	j	12cc8 <_realloc_r+0x2e4>
   12f18:	00842783          	lw	a5,8(s0)
   12f1c:	00fba823          	sw	a5,16(s7)
   12f20:	00c42783          	lw	a5,12(s0)
   12f24:	00fbaa23          	sw	a5,20(s7)
   12f28:	00d60863          	beq	a2,a3,12f38 <_realloc_r+0x554>
   12f2c:	01040413          	addi	s0,s0,16
   12f30:	018b8793          	addi	a5,s7,24
   12f34:	d7dff06f          	j	12cb0 <_realloc_r+0x2cc>
   12f38:	01042703          	lw	a4,16(s0)
   12f3c:	020b8793          	addi	a5,s7,32
   12f40:	01840413          	addi	s0,s0,24
   12f44:	00ebac23          	sw	a4,24(s7)
   12f48:	ffc42703          	lw	a4,-4(s0)
   12f4c:	00ebae23          	sw	a4,28(s7)
   12f50:	d61ff06f          	j	12cb0 <_realloc_r+0x2cc>

00012f54 <__smakebuf_r>:
   12f54:	00c59783          	lh	a5,12(a1)
   12f58:	f8010113          	addi	sp,sp,-128
   12f5c:	06812c23          	sw	s0,120(sp)
   12f60:	06112e23          	sw	ra,124(sp)
   12f64:	0027f713          	andi	a4,a5,2
   12f68:	00058413          	mv	s0,a1
   12f6c:	02070463          	beqz	a4,12f94 <__smakebuf_r+0x40>
   12f70:	04358793          	addi	a5,a1,67
   12f74:	00f5a023          	sw	a5,0(a1)
   12f78:	00f5a823          	sw	a5,16(a1)
   12f7c:	00100793          	li	a5,1
   12f80:	00f5aa23          	sw	a5,20(a1)
   12f84:	07c12083          	lw	ra,124(sp)
   12f88:	07812403          	lw	s0,120(sp)
   12f8c:	08010113          	addi	sp,sp,128
   12f90:	00008067          	ret
   12f94:	00e59583          	lh	a1,14(a1)
   12f98:	06912a23          	sw	s1,116(sp)
   12f9c:	07212823          	sw	s2,112(sp)
   12fa0:	07312623          	sw	s3,108(sp)
   12fa4:	07412423          	sw	s4,104(sp)
   12fa8:	00050493          	mv	s1,a0
   12fac:	0805c663          	bltz	a1,13038 <__smakebuf_r+0xe4>
   12fb0:	00810613          	addi	a2,sp,8
   12fb4:	210000ef          	jal	131c4 <_fstat_r>
   12fb8:	06054e63          	bltz	a0,13034 <__smakebuf_r+0xe0>
   12fbc:	00c12783          	lw	a5,12(sp)
   12fc0:	0000f937          	lui	s2,0xf
   12fc4:	000019b7          	lui	s3,0x1
   12fc8:	00f97933          	and	s2,s2,a5
   12fcc:	ffffe7b7          	lui	a5,0xffffe
   12fd0:	00f90933          	add	s2,s2,a5
   12fd4:	00193913          	seqz	s2,s2
   12fd8:	40000a13          	li	s4,1024
   12fdc:	80098993          	addi	s3,s3,-2048 # 800 <exit-0xf894>
   12fe0:	000a0593          	mv	a1,s4
   12fe4:	00048513          	mv	a0,s1
   12fe8:	adcfe0ef          	jal	112c4 <_malloc_r>
   12fec:	00c41783          	lh	a5,12(s0)
   12ff0:	06050863          	beqz	a0,13060 <__smakebuf_r+0x10c>
   12ff4:	0807e793          	ori	a5,a5,128
   12ff8:	00a42023          	sw	a0,0(s0)
   12ffc:	00a42823          	sw	a0,16(s0)
   13000:	00f41623          	sh	a5,12(s0)
   13004:	01442a23          	sw	s4,20(s0)
   13008:	0a091063          	bnez	s2,130a8 <__smakebuf_r+0x154>
   1300c:	0137e7b3          	or	a5,a5,s3
   13010:	07c12083          	lw	ra,124(sp)
   13014:	00f41623          	sh	a5,12(s0)
   13018:	07812403          	lw	s0,120(sp)
   1301c:	07412483          	lw	s1,116(sp)
   13020:	07012903          	lw	s2,112(sp)
   13024:	06c12983          	lw	s3,108(sp)
   13028:	06812a03          	lw	s4,104(sp)
   1302c:	08010113          	addi	sp,sp,128
   13030:	00008067          	ret
   13034:	00c41783          	lh	a5,12(s0)
   13038:	0807f793          	andi	a5,a5,128
   1303c:	00000913          	li	s2,0
   13040:	04078e63          	beqz	a5,1309c <__smakebuf_r+0x148>
   13044:	04000a13          	li	s4,64
   13048:	000a0593          	mv	a1,s4
   1304c:	00048513          	mv	a0,s1
   13050:	a74fe0ef          	jal	112c4 <_malloc_r>
   13054:	00c41783          	lh	a5,12(s0)
   13058:	00000993          	li	s3,0
   1305c:	f8051ce3          	bnez	a0,12ff4 <__smakebuf_r+0xa0>
   13060:	2007f713          	andi	a4,a5,512
   13064:	04071e63          	bnez	a4,130c0 <__smakebuf_r+0x16c>
   13068:	ffc7f793          	andi	a5,a5,-4
   1306c:	0027e793          	ori	a5,a5,2
   13070:	04340713          	addi	a4,s0,67
   13074:	00f41623          	sh	a5,12(s0)
   13078:	00100793          	li	a5,1
   1307c:	07412483          	lw	s1,116(sp)
   13080:	07012903          	lw	s2,112(sp)
   13084:	06c12983          	lw	s3,108(sp)
   13088:	06812a03          	lw	s4,104(sp)
   1308c:	00e42023          	sw	a4,0(s0)
   13090:	00e42823          	sw	a4,16(s0)
   13094:	00f42a23          	sw	a5,20(s0)
   13098:	eedff06f          	j	12f84 <__smakebuf_r+0x30>
   1309c:	40000a13          	li	s4,1024
   130a0:	00000993          	li	s3,0
   130a4:	f3dff06f          	j	12fe0 <__smakebuf_r+0x8c>
   130a8:	00e41583          	lh	a1,14(s0)
   130ac:	00048513          	mv	a0,s1
   130b0:	178000ef          	jal	13228 <_isatty_r>
   130b4:	02051063          	bnez	a0,130d4 <__smakebuf_r+0x180>
   130b8:	00c41783          	lh	a5,12(s0)
   130bc:	f51ff06f          	j	1300c <__smakebuf_r+0xb8>
   130c0:	07412483          	lw	s1,116(sp)
   130c4:	07012903          	lw	s2,112(sp)
   130c8:	06c12983          	lw	s3,108(sp)
   130cc:	06812a03          	lw	s4,104(sp)
   130d0:	eb5ff06f          	j	12f84 <__smakebuf_r+0x30>
   130d4:	00c45783          	lhu	a5,12(s0)
   130d8:	ffc7f793          	andi	a5,a5,-4
   130dc:	0017e793          	ori	a5,a5,1
   130e0:	01079793          	slli	a5,a5,0x10
   130e4:	4107d793          	srai	a5,a5,0x10
   130e8:	f25ff06f          	j	1300c <__smakebuf_r+0xb8>

000130ec <__swhatbuf_r>:
   130ec:	f9010113          	addi	sp,sp,-112
   130f0:	06812423          	sw	s0,104(sp)
   130f4:	00058413          	mv	s0,a1
   130f8:	00e59583          	lh	a1,14(a1)
   130fc:	06912223          	sw	s1,100(sp)
   13100:	07212023          	sw	s2,96(sp)
   13104:	06112623          	sw	ra,108(sp)
   13108:	00060493          	mv	s1,a2
   1310c:	00068913          	mv	s2,a3
   13110:	0405ca63          	bltz	a1,13164 <__swhatbuf_r+0x78>
   13114:	00810613          	addi	a2,sp,8
   13118:	0ac000ef          	jal	131c4 <_fstat_r>
   1311c:	04054463          	bltz	a0,13164 <__swhatbuf_r+0x78>
   13120:	00c12703          	lw	a4,12(sp)
   13124:	0000f7b7          	lui	a5,0xf
   13128:	06c12083          	lw	ra,108(sp)
   1312c:	00e7f7b3          	and	a5,a5,a4
   13130:	ffffe737          	lui	a4,0xffffe
   13134:	00e787b3          	add	a5,a5,a4
   13138:	06812403          	lw	s0,104(sp)
   1313c:	0017b793          	seqz	a5,a5
   13140:	00f92023          	sw	a5,0(s2) # f000 <exit-0x1094>
   13144:	40000713          	li	a4,1024
   13148:	00e4a023          	sw	a4,0(s1)
   1314c:	00001537          	lui	a0,0x1
   13150:	06412483          	lw	s1,100(sp)
   13154:	06012903          	lw	s2,96(sp)
   13158:	80050513          	addi	a0,a0,-2048 # 800 <exit-0xf894>
   1315c:	07010113          	addi	sp,sp,112
   13160:	00008067          	ret
   13164:	00c45783          	lhu	a5,12(s0)
   13168:	0807f793          	andi	a5,a5,128
   1316c:	02078863          	beqz	a5,1319c <__swhatbuf_r+0xb0>
   13170:	06c12083          	lw	ra,108(sp)
   13174:	06812403          	lw	s0,104(sp)
   13178:	00000793          	li	a5,0
   1317c:	00f92023          	sw	a5,0(s2)
   13180:	04000713          	li	a4,64
   13184:	00e4a023          	sw	a4,0(s1)
   13188:	06012903          	lw	s2,96(sp)
   1318c:	06412483          	lw	s1,100(sp)
   13190:	00000513          	li	a0,0
   13194:	07010113          	addi	sp,sp,112
   13198:	00008067          	ret
   1319c:	06c12083          	lw	ra,108(sp)
   131a0:	06812403          	lw	s0,104(sp)
   131a4:	00f92023          	sw	a5,0(s2)
   131a8:	40000713          	li	a4,1024
   131ac:	00e4a023          	sw	a4,0(s1)
   131b0:	06012903          	lw	s2,96(sp)
   131b4:	06412483          	lw	s1,100(sp)
   131b8:	00000513          	li	a0,0
   131bc:	07010113          	addi	sp,sp,112
   131c0:	00008067          	ret

000131c4 <_fstat_r>:
   131c4:	ff010113          	addi	sp,sp,-16
   131c8:	00058713          	mv	a4,a1
   131cc:	00812423          	sw	s0,8(sp)
   131d0:	00912223          	sw	s1,4(sp)
   131d4:	00050413          	mv	s0,a0
   131d8:	00060593          	mv	a1,a2
   131dc:	00070513          	mv	a0,a4
   131e0:	00112623          	sw	ra,12(sp)
   131e4:	d401a623          	sw	zero,-692(gp) # 14bd4 <errno>
   131e8:	110000ef          	jal	132f8 <_fstat>
   131ec:	fff00793          	li	a5,-1
   131f0:	00f50c63          	beq	a0,a5,13208 <_fstat_r+0x44>
   131f4:	00c12083          	lw	ra,12(sp)
   131f8:	00812403          	lw	s0,8(sp)
   131fc:	00412483          	lw	s1,4(sp)
   13200:	01010113          	addi	sp,sp,16
   13204:	00008067          	ret
   13208:	d4c1a783          	lw	a5,-692(gp) # 14bd4 <errno>
   1320c:	fe0784e3          	beqz	a5,131f4 <_fstat_r+0x30>
   13210:	00c12083          	lw	ra,12(sp)
   13214:	00f42023          	sw	a5,0(s0)
   13218:	00812403          	lw	s0,8(sp)
   1321c:	00412483          	lw	s1,4(sp)
   13220:	01010113          	addi	sp,sp,16
   13224:	00008067          	ret

00013228 <_isatty_r>:
   13228:	ff010113          	addi	sp,sp,-16
   1322c:	00812423          	sw	s0,8(sp)
   13230:	00912223          	sw	s1,4(sp)
   13234:	00050413          	mv	s0,a0
   13238:	00058513          	mv	a0,a1
   1323c:	00112623          	sw	ra,12(sp)
   13240:	d401a623          	sw	zero,-692(gp) # 14bd4 <errno>
   13244:	114000ef          	jal	13358 <_isatty>
   13248:	fff00793          	li	a5,-1
   1324c:	00f50c63          	beq	a0,a5,13264 <_isatty_r+0x3c>
   13250:	00c12083          	lw	ra,12(sp)
   13254:	00812403          	lw	s0,8(sp)
   13258:	00412483          	lw	s1,4(sp)
   1325c:	01010113          	addi	sp,sp,16
   13260:	00008067          	ret
   13264:	d4c1a783          	lw	a5,-692(gp) # 14bd4 <errno>
   13268:	fe0784e3          	beqz	a5,13250 <_isatty_r+0x28>
   1326c:	00c12083          	lw	ra,12(sp)
   13270:	00f42023          	sw	a5,0(s0)
   13274:	00812403          	lw	s0,8(sp)
   13278:	00412483          	lw	s1,4(sp)
   1327c:	01010113          	addi	sp,sp,16
   13280:	00008067          	ret

00013284 <_close>:
   13284:	ff010113          	addi	sp,sp,-16
   13288:	00112623          	sw	ra,12(sp)
   1328c:	00812423          	sw	s0,8(sp)
   13290:	03900893          	li	a7,57
   13294:	00000073          	ecall
   13298:	00050413          	mv	s0,a0
   1329c:	00054c63          	bltz	a0,132b4 <_close+0x30>
   132a0:	00c12083          	lw	ra,12(sp)
   132a4:	00040513          	mv	a0,s0
   132a8:	00812403          	lw	s0,8(sp)
   132ac:	01010113          	addi	sp,sp,16
   132b0:	00008067          	ret
   132b4:	40800433          	neg	s0,s0
   132b8:	2cc000ef          	jal	13584 <__errno>
   132bc:	00852023          	sw	s0,0(a0)
   132c0:	fff00413          	li	s0,-1
   132c4:	fddff06f          	j	132a0 <_close+0x1c>

000132c8 <_exit>:
   132c8:	05d00893          	li	a7,93
   132cc:	00000073          	ecall
   132d0:	00054463          	bltz	a0,132d8 <_exit+0x10>
   132d4:	0000006f          	j	132d4 <_exit+0xc>
   132d8:	ff010113          	addi	sp,sp,-16
   132dc:	00812423          	sw	s0,8(sp)
   132e0:	00050413          	mv	s0,a0
   132e4:	00112623          	sw	ra,12(sp)
   132e8:	40800433          	neg	s0,s0
   132ec:	298000ef          	jal	13584 <__errno>
   132f0:	00852023          	sw	s0,0(a0)
   132f4:	0000006f          	j	132f4 <_exit+0x2c>

000132f8 <_fstat>:
   132f8:	f7010113          	addi	sp,sp,-144
   132fc:	08912223          	sw	s1,132(sp)
   13300:	08112623          	sw	ra,140(sp)
   13304:	00058493          	mv	s1,a1
   13308:	08812423          	sw	s0,136(sp)
   1330c:	05000893          	li	a7,80
   13310:	00010593          	mv	a1,sp
   13314:	00000073          	ecall
   13318:	00050413          	mv	s0,a0
   1331c:	02054463          	bltz	a0,13344 <_fstat+0x4c>
   13320:	00048513          	mv	a0,s1
   13324:	00010593          	mv	a1,sp
   13328:	1b4000ef          	jal	134dc <_conv_stat>
   1332c:	08c12083          	lw	ra,140(sp)
   13330:	00040513          	mv	a0,s0
   13334:	08812403          	lw	s0,136(sp)
   13338:	08412483          	lw	s1,132(sp)
   1333c:	09010113          	addi	sp,sp,144
   13340:	00008067          	ret
   13344:	40800433          	neg	s0,s0
   13348:	23c000ef          	jal	13584 <__errno>
   1334c:	00852023          	sw	s0,0(a0)
   13350:	fff00413          	li	s0,-1
   13354:	fcdff06f          	j	13320 <_fstat+0x28>

00013358 <_isatty>:
   13358:	f9010113          	addi	sp,sp,-112
   1335c:	00810593          	addi	a1,sp,8
   13360:	06112623          	sw	ra,108(sp)
   13364:	f95ff0ef          	jal	132f8 <_fstat>
   13368:	fff00793          	li	a5,-1
   1336c:	00f50e63          	beq	a0,a5,13388 <_isatty+0x30>
   13370:	00c12503          	lw	a0,12(sp)
   13374:	06c12083          	lw	ra,108(sp)
   13378:	00d55513          	srli	a0,a0,0xd
   1337c:	00157513          	andi	a0,a0,1
   13380:	07010113          	addi	sp,sp,112
   13384:	00008067          	ret
   13388:	06c12083          	lw	ra,108(sp)
   1338c:	00000513          	li	a0,0
   13390:	07010113          	addi	sp,sp,112
   13394:	00008067          	ret

00013398 <_lseek>:
   13398:	ff010113          	addi	sp,sp,-16
   1339c:	00112623          	sw	ra,12(sp)
   133a0:	00812423          	sw	s0,8(sp)
   133a4:	03e00893          	li	a7,62
   133a8:	00000073          	ecall
   133ac:	00050413          	mv	s0,a0
   133b0:	00054c63          	bltz	a0,133c8 <_lseek+0x30>
   133b4:	00c12083          	lw	ra,12(sp)
   133b8:	00040513          	mv	a0,s0
   133bc:	00812403          	lw	s0,8(sp)
   133c0:	01010113          	addi	sp,sp,16
   133c4:	00008067          	ret
   133c8:	40800433          	neg	s0,s0
   133cc:	1b8000ef          	jal	13584 <__errno>
   133d0:	00852023          	sw	s0,0(a0)
   133d4:	fff00413          	li	s0,-1
   133d8:	fddff06f          	j	133b4 <_lseek+0x1c>

000133dc <_read>:
   133dc:	ff010113          	addi	sp,sp,-16
   133e0:	00112623          	sw	ra,12(sp)
   133e4:	00812423          	sw	s0,8(sp)
   133e8:	03f00893          	li	a7,63
   133ec:	00000073          	ecall
   133f0:	00050413          	mv	s0,a0
   133f4:	00054c63          	bltz	a0,1340c <_read+0x30>
   133f8:	00c12083          	lw	ra,12(sp)
   133fc:	00040513          	mv	a0,s0
   13400:	00812403          	lw	s0,8(sp)
   13404:	01010113          	addi	sp,sp,16
   13408:	00008067          	ret
   1340c:	40800433          	neg	s0,s0
   13410:	174000ef          	jal	13584 <__errno>
   13414:	00852023          	sw	s0,0(a0)
   13418:	fff00413          	li	s0,-1
   1341c:	fddff06f          	j	133f8 <_read+0x1c>

00013420 <_sbrk>:
   13420:	d601a703          	lw	a4,-672(gp) # 14be8 <heap_end.0>
   13424:	ff010113          	addi	sp,sp,-16
   13428:	00112623          	sw	ra,12(sp)
   1342c:	00050793          	mv	a5,a0
   13430:	02071063          	bnez	a4,13450 <_sbrk+0x30>
   13434:	0d600893          	li	a7,214
   13438:	00000513          	li	a0,0
   1343c:	00000073          	ecall
   13440:	fff00613          	li	a2,-1
   13444:	00050713          	mv	a4,a0
   13448:	02c50a63          	beq	a0,a2,1347c <_sbrk+0x5c>
   1344c:	d6a1a023          	sw	a0,-672(gp) # 14be8 <heap_end.0>
   13450:	0d600893          	li	a7,214
   13454:	00e78533          	add	a0,a5,a4
   13458:	00000073          	ecall
   1345c:	d601a703          	lw	a4,-672(gp) # 14be8 <heap_end.0>
   13460:	00e787b3          	add	a5,a5,a4
   13464:	00f51c63          	bne	a0,a5,1347c <_sbrk+0x5c>
   13468:	00c12083          	lw	ra,12(sp)
   1346c:	d6a1a023          	sw	a0,-672(gp) # 14be8 <heap_end.0>
   13470:	00070513          	mv	a0,a4
   13474:	01010113          	addi	sp,sp,16
   13478:	00008067          	ret
   1347c:	108000ef          	jal	13584 <__errno>
   13480:	00c12083          	lw	ra,12(sp)
   13484:	00c00793          	li	a5,12
   13488:	00f52023          	sw	a5,0(a0)
   1348c:	fff00513          	li	a0,-1
   13490:	01010113          	addi	sp,sp,16
   13494:	00008067          	ret

00013498 <_write>:
   13498:	ff010113          	addi	sp,sp,-16
   1349c:	00112623          	sw	ra,12(sp)
   134a0:	00812423          	sw	s0,8(sp)
   134a4:	04000893          	li	a7,64
   134a8:	00000073          	ecall
   134ac:	00050413          	mv	s0,a0
   134b0:	00054c63          	bltz	a0,134c8 <_write+0x30>
   134b4:	00c12083          	lw	ra,12(sp)
   134b8:	00040513          	mv	a0,s0
   134bc:	00812403          	lw	s0,8(sp)
   134c0:	01010113          	addi	sp,sp,16
   134c4:	00008067          	ret
   134c8:	40800433          	neg	s0,s0
   134cc:	0b8000ef          	jal	13584 <__errno>
   134d0:	00852023          	sw	s0,0(a0)
   134d4:	fff00413          	li	s0,-1
   134d8:	fddff06f          	j	134b4 <_write+0x1c>

000134dc <_conv_stat>:
   134dc:	0185d703          	lhu	a4,24(a1)
   134e0:	0145d783          	lhu	a5,20(a1)
   134e4:	ff010113          	addi	sp,sp,-16
   134e8:	01c5a283          	lw	t0,28(a1)
   134ec:	0205af83          	lw	t6,32(a1)
   134f0:	0305af03          	lw	t5,48(a1)
   134f4:	0405ae83          	lw	t4,64(a1)
   134f8:	0385ae03          	lw	t3,56(a1)
   134fc:	0485a303          	lw	t1,72(a1)
   13500:	04c5a383          	lw	t2,76(a1)
   13504:	0585a803          	lw	a6,88(a1)
   13508:	05c5a883          	lw	a7,92(a1)
   1350c:	00812623          	sw	s0,12(sp)
   13510:	00912423          	sw	s1,8(sp)
   13514:	0105a403          	lw	s0,16(a1)
   13518:	0085a483          	lw	s1,8(a1)
   1351c:	01212223          	sw	s2,4(sp)
   13520:	0005a903          	lw	s2,0(a1)
   13524:	0685a603          	lw	a2,104(a1)
   13528:	01071713          	slli	a4,a4,0x10
   1352c:	00e7e7b3          	or	a5,a5,a4
   13530:	06c5a683          	lw	a3,108(a1)
   13534:	01251023          	sh	s2,0(a0)
   13538:	00951123          	sh	s1,2(a0)
   1353c:	00852223          	sw	s0,4(a0)
   13540:	00f52423          	sw	a5,8(a0)
   13544:	00551623          	sh	t0,12(a0)
   13548:	01f51723          	sh	t6,14(a0)
   1354c:	01e52823          	sw	t5,16(a0)
   13550:	05d52623          	sw	t4,76(a0)
   13554:	05c52423          	sw	t3,72(a0)
   13558:	00652c23          	sw	t1,24(a0)
   1355c:	00752e23          	sw	t2,28(a0)
   13560:	03052423          	sw	a6,40(a0)
   13564:	03152623          	sw	a7,44(a0)
   13568:	02c52c23          	sw	a2,56(a0)
   1356c:	00c12403          	lw	s0,12(sp)
   13570:	02d52e23          	sw	a3,60(a0)
   13574:	00812483          	lw	s1,8(sp)
   13578:	00412903          	lw	s2,4(sp)
   1357c:	01010113          	addi	sp,sp,16
   13580:	00008067          	ret

00013584 <__errno>:
   13584:	d3c1a503          	lw	a0,-708(gp) # 14bc4 <_impure_ptr>
   13588:	00008067          	ret

0001358c <__mulsi3>:
   1358c:	00050613          	mv	a2,a0
   13590:	00000513          	li	a0,0
   13594:	0015f693          	andi	a3,a1,1
   13598:	00068463          	beqz	a3,135a0 <__mulsi3+0x14>
   1359c:	00c50533          	add	a0,a0,a2
   135a0:	0015d593          	srli	a1,a1,0x1
   135a4:	00161613          	slli	a2,a2,0x1
   135a8:	fe0596e3          	bnez	a1,13594 <__mulsi3+0x8>
   135ac:	00008067          	ret

000135b0 <__divsi3>:
   135b0:	06054063          	bltz	a0,13610 <__umodsi3+0x10>
   135b4:	0605c663          	bltz	a1,13620 <__umodsi3+0x20>

000135b8 <__hidden___udivsi3>:
   135b8:	00058613          	mv	a2,a1
   135bc:	00050593          	mv	a1,a0
   135c0:	fff00513          	li	a0,-1
   135c4:	02060c63          	beqz	a2,135fc <__hidden___udivsi3+0x44>
   135c8:	00100693          	li	a3,1
   135cc:	00b67a63          	bgeu	a2,a1,135e0 <__hidden___udivsi3+0x28>
   135d0:	00c05863          	blez	a2,135e0 <__hidden___udivsi3+0x28>
   135d4:	00161613          	slli	a2,a2,0x1
   135d8:	00169693          	slli	a3,a3,0x1
   135dc:	feb66ae3          	bltu	a2,a1,135d0 <__hidden___udivsi3+0x18>
   135e0:	00000513          	li	a0,0
   135e4:	00c5e663          	bltu	a1,a2,135f0 <__hidden___udivsi3+0x38>
   135e8:	40c585b3          	sub	a1,a1,a2
   135ec:	00d56533          	or	a0,a0,a3
   135f0:	0016d693          	srli	a3,a3,0x1
   135f4:	00165613          	srli	a2,a2,0x1
   135f8:	fe0696e3          	bnez	a3,135e4 <__hidden___udivsi3+0x2c>
   135fc:	00008067          	ret

00013600 <__umodsi3>:
   13600:	00008293          	mv	t0,ra
   13604:	fb5ff0ef          	jal	135b8 <__hidden___udivsi3>
   13608:	00058513          	mv	a0,a1
   1360c:	00028067          	jr	t0 # 10c8c <memset+0xb4>
   13610:	40a00533          	neg	a0,a0
   13614:	00b04863          	bgtz	a1,13624 <__umodsi3+0x24>
   13618:	40b005b3          	neg	a1,a1
   1361c:	f9dff06f          	j	135b8 <__hidden___udivsi3>
   13620:	40b005b3          	neg	a1,a1
   13624:	00008293          	mv	t0,ra
   13628:	f91ff0ef          	jal	135b8 <__hidden___udivsi3>
   1362c:	40a00533          	neg	a0,a0
   13630:	00028067          	jr	t0

00013634 <__modsi3>:
   13634:	00008293          	mv	t0,ra
   13638:	0005ca63          	bltz	a1,1364c <__modsi3+0x18>
   1363c:	00054c63          	bltz	a0,13654 <__modsi3+0x20>
   13640:	f79ff0ef          	jal	135b8 <__hidden___udivsi3>
   13644:	00058513          	mv	a0,a1
   13648:	00028067          	jr	t0
   1364c:	40b005b3          	neg	a1,a1
   13650:	fe0558e3          	bgez	a0,13640 <__modsi3+0xc>
   13654:	40a00533          	neg	a0,a0
   13658:	f61ff0ef          	jal	135b8 <__hidden___udivsi3>
   1365c:	40b00533          	neg	a0,a1
   13660:	00028067          	jr	t0
