
test7.o:     file format elf32-littleriscv


Disassembly of section .text:

00010094 <exit>:
   10094:	ff010113          	addi	sp,sp,-16
   10098:	00000593          	li	a1,0
   1009c:	00812423          	sw	s0,8(sp)
   100a0:	00112623          	sw	ra,12(sp)
   100a4:	00050413          	mv	s0,a0
   100a8:	364010ef          	jal	1140c <__call_exitprocs>
   100ac:	f241a783          	lw	a5,-220(gp) # 227e4 <__stdio_exit_handler>
   100b0:	00078463          	beqz	a5,100b8 <exit+0x24>
   100b4:	000780e7          	jalr	a5
   100b8:	00040513          	mv	a0,s0
   100bc:	20c0b0ef          	jal	1b2c8 <_exit>

000100c0 <register_fini>:
   100c0:	00000793          	li	a5,0
   100c4:	00078863          	beqz	a5,100d4 <register_fini+0x14>
   100c8:	00015537          	lui	a0,0x15
   100cc:	f7050513          	addi	a0,a0,-144 # 14f70 <__libc_fini_array>
   100d0:	4700106f          	j	11540 <atexit>
   100d4:	00008067          	ret

000100d8 <_start>:
   100d8:	00012197          	auipc	gp,0x12
   100dc:	7e818193          	addi	gp,gp,2024 # 228c0 <__global_pointer$>
   100e0:	f1818513          	addi	a0,gp,-232 # 227d8 <__malloc_max_total_mem>
   100e4:	24418613          	addi	a2,gp,580 # 22b04 <__BSS_END__>
   100e8:	40a60633          	sub	a2,a2,a0
   100ec:	00000593          	li	a1,0
   100f0:	240010ef          	jal	11330 <memset>
   100f4:	00001517          	auipc	a0,0x1
   100f8:	44c50513          	addi	a0,a0,1100 # 11540 <atexit>
   100fc:	00050863          	beqz	a0,1010c <_start+0x34>
   10100:	00005517          	auipc	a0,0x5
   10104:	e7050513          	addi	a0,a0,-400 # 14f70 <__libc_fini_array>
   10108:	438010ef          	jal	11540 <atexit>
   1010c:	188010ef          	jal	11294 <__libc_init_array>
   10110:	00012503          	lw	a0,0(sp)
   10114:	00410593          	addi	a1,sp,4
   10118:	00000613          	li	a2,0
   1011c:	06c000ef          	jal	10188 <main>
   10120:	f75ff06f          	j	10094 <exit>

00010124 <__do_global_dtors_aux>:
   10124:	ff010113          	addi	sp,sp,-16
   10128:	00812423          	sw	s0,8(sp)
   1012c:	f381c783          	lbu	a5,-200(gp) # 227f8 <completed.1>
   10130:	00112623          	sw	ra,12(sp)
   10134:	02079263          	bnez	a5,10158 <__do_global_dtors_aux+0x34>
   10138:	00000793          	li	a5,0
   1013c:	00078a63          	beqz	a5,10150 <__do_global_dtors_aux+0x2c>
   10140:	00022537          	lui	a0,0x22
   10144:	00050513          	mv	a0,a0
   10148:	00000097          	auipc	ra,0x0
   1014c:	000000e7          	jalr	zero # 0 <exit-0x10094>
   10150:	00100793          	li	a5,1
   10154:	f2f18c23          	sb	a5,-200(gp) # 227f8 <completed.1>
   10158:	00c12083          	lw	ra,12(sp)
   1015c:	00812403          	lw	s0,8(sp)
   10160:	01010113          	addi	sp,sp,16
   10164:	00008067          	ret

00010168 <frame_dummy>:
   10168:	00000793          	li	a5,0
   1016c:	00078c63          	beqz	a5,10184 <frame_dummy+0x1c>
   10170:	00022537          	lui	a0,0x22
   10174:	f3c18593          	addi	a1,gp,-196 # 227fc <object.0>
   10178:	00050513          	mv	a0,a0
   1017c:	00000317          	auipc	t1,0x0
   10180:	00000067          	jr	zero # 0 <exit-0x10094>
   10184:	00008067          	ret

00010188 <main>:
   10188:	fe010113          	addi	sp,sp,-32
   1018c:	00112e23          	sw	ra,28(sp)
   10190:	00812c23          	sw	s0,24(sp)
   10194:	02010413          	addi	s0,sp,32
   10198:	00a00513          	li	a0,10
   1019c:	048000ef          	jal	101e4 <malloc>
   101a0:	00050793          	mv	a5,a0
   101a4:	fef42623          	sw	a5,-20(s0)
   101a8:	fec42783          	lw	a5,-20(s0)
   101ac:	06100713          	li	a4,97
   101b0:	00e78023          	sb	a4,0(a5)
   101b4:	fec42783          	lw	a5,-20(s0)
   101b8:	0007c783          	lbu	a5,0(a5)
   101bc:	00078593          	mv	a1,a5
   101c0:	000217b7          	lui	a5,0x21
   101c4:	34078513          	addi	a0,a5,832 # 21340 <__clzsi2+0x4c>
   101c8:	441000ef          	jal	10e08 <printf>
   101cc:	00000793          	li	a5,0
   101d0:	00078513          	mv	a0,a5
   101d4:	01c12083          	lw	ra,28(sp)
   101d8:	01812403          	lw	s0,24(sp)
   101dc:	02010113          	addi	sp,sp,32
   101e0:	00008067          	ret

000101e4 <malloc>:
   101e4:	00050593          	mv	a1,a0
   101e8:	f141a503          	lw	a0,-236(gp) # 227d4 <_impure_ptr>
   101ec:	0100006f          	j	101fc <_malloc_r>

000101f0 <free>:
   101f0:	00050593          	mv	a1,a0
   101f4:	f141a503          	lw	a0,-236(gp) # 227d4 <_impure_ptr>
   101f8:	4940106f          	j	1168c <_free_r>

000101fc <_malloc_r>:
   101fc:	fd010113          	addi	sp,sp,-48
   10200:	01312e23          	sw	s3,28(sp)
   10204:	02112623          	sw	ra,44(sp)
   10208:	02812423          	sw	s0,40(sp)
   1020c:	02912223          	sw	s1,36(sp)
   10210:	03212023          	sw	s2,32(sp)
   10214:	00b58793          	addi	a5,a1,11
   10218:	01600713          	li	a4,22
   1021c:	00050993          	mv	s3,a0
   10220:	08f76263          	bltu	a4,a5,102a4 <_malloc_r+0xa8>
   10224:	01000793          	li	a5,16
   10228:	20b7e663          	bltu	a5,a1,10434 <_malloc_r+0x238>
   1022c:	78c000ef          	jal	109b8 <__malloc_lock>
   10230:	01800793          	li	a5,24
   10234:	00200593          	li	a1,2
   10238:	01000493          	li	s1,16
   1023c:	00022937          	lui	s2,0x22
   10240:	0c090913          	addi	s2,s2,192 # 220c0 <__malloc_av_>
   10244:	00f907b3          	add	a5,s2,a5
   10248:	0047a403          	lw	s0,4(a5)
   1024c:	ff878713          	addi	a4,a5,-8
   10250:	34e40463          	beq	s0,a4,10598 <_malloc_r+0x39c>
   10254:	00442783          	lw	a5,4(s0)
   10258:	00c42683          	lw	a3,12(s0)
   1025c:	00842603          	lw	a2,8(s0)
   10260:	ffc7f793          	andi	a5,a5,-4
   10264:	00f407b3          	add	a5,s0,a5
   10268:	0047a703          	lw	a4,4(a5)
   1026c:	00d62623          	sw	a3,12(a2)
   10270:	00c6a423          	sw	a2,8(a3)
   10274:	00176713          	ori	a4,a4,1
   10278:	00098513          	mv	a0,s3
   1027c:	00e7a223          	sw	a4,4(a5)
   10280:	73c000ef          	jal	109bc <__malloc_unlock>
   10284:	00840513          	addi	a0,s0,8
   10288:	02c12083          	lw	ra,44(sp)
   1028c:	02812403          	lw	s0,40(sp)
   10290:	02412483          	lw	s1,36(sp)
   10294:	02012903          	lw	s2,32(sp)
   10298:	01c12983          	lw	s3,28(sp)
   1029c:	03010113          	addi	sp,sp,48
   102a0:	00008067          	ret
   102a4:	ff87f493          	andi	s1,a5,-8
   102a8:	1807c663          	bltz	a5,10434 <_malloc_r+0x238>
   102ac:	18b4e463          	bltu	s1,a1,10434 <_malloc_r+0x238>
   102b0:	708000ef          	jal	109b8 <__malloc_lock>
   102b4:	1f700793          	li	a5,503
   102b8:	3e97fa63          	bgeu	a5,s1,106ac <_malloc_r+0x4b0>
   102bc:	0094d793          	srli	a5,s1,0x9
   102c0:	18078263          	beqz	a5,10444 <_malloc_r+0x248>
   102c4:	00400713          	li	a4,4
   102c8:	34f76063          	bltu	a4,a5,10608 <_malloc_r+0x40c>
   102cc:	0064d793          	srli	a5,s1,0x6
   102d0:	03978593          	addi	a1,a5,57
   102d4:	03878813          	addi	a6,a5,56
   102d8:	00359613          	slli	a2,a1,0x3
   102dc:	00022937          	lui	s2,0x22
   102e0:	0c090913          	addi	s2,s2,192 # 220c0 <__malloc_av_>
   102e4:	00c90633          	add	a2,s2,a2
   102e8:	00462403          	lw	s0,4(a2)
   102ec:	ff860613          	addi	a2,a2,-8
   102f0:	02860863          	beq	a2,s0,10320 <_malloc_r+0x124>
   102f4:	00f00513          	li	a0,15
   102f8:	0140006f          	j	1030c <_malloc_r+0x110>
   102fc:	00c42683          	lw	a3,12(s0)
   10300:	28075863          	bgez	a4,10590 <_malloc_r+0x394>
   10304:	00d60e63          	beq	a2,a3,10320 <_malloc_r+0x124>
   10308:	00068413          	mv	s0,a3
   1030c:	00442783          	lw	a5,4(s0)
   10310:	ffc7f793          	andi	a5,a5,-4
   10314:	40978733          	sub	a4,a5,s1
   10318:	fee552e3          	bge	a0,a4,102fc <_malloc_r+0x100>
   1031c:	00080593          	mv	a1,a6
   10320:	01092403          	lw	s0,16(s2)
   10324:	00022837          	lui	a6,0x22
   10328:	0c880813          	addi	a6,a6,200 # 220c8 <__malloc_av_+0x8>
   1032c:	25040e63          	beq	s0,a6,10588 <_malloc_r+0x38c>
   10330:	00442783          	lw	a5,4(s0)
   10334:	00f00693          	li	a3,15
   10338:	ffc7f793          	andi	a5,a5,-4
   1033c:	40978733          	sub	a4,a5,s1
   10340:	36e6cc63          	blt	a3,a4,106b8 <_malloc_r+0x4bc>
   10344:	01092a23          	sw	a6,20(s2)
   10348:	01092823          	sw	a6,16(s2)
   1034c:	34075063          	bgez	a4,1068c <_malloc_r+0x490>
   10350:	1ff00713          	li	a4,511
   10354:	00492503          	lw	a0,4(s2)
   10358:	24f76863          	bltu	a4,a5,105a8 <_malloc_r+0x3ac>
   1035c:	ff87f713          	andi	a4,a5,-8
   10360:	00870713          	addi	a4,a4,8
   10364:	00e90733          	add	a4,s2,a4
   10368:	00072683          	lw	a3,0(a4)
   1036c:	0057d613          	srli	a2,a5,0x5
   10370:	00100793          	li	a5,1
   10374:	00c797b3          	sll	a5,a5,a2
   10378:	00f56533          	or	a0,a0,a5
   1037c:	ff870793          	addi	a5,a4,-8
   10380:	00f42623          	sw	a5,12(s0)
   10384:	00d42423          	sw	a3,8(s0)
   10388:	00a92223          	sw	a0,4(s2)
   1038c:	00872023          	sw	s0,0(a4)
   10390:	0086a623          	sw	s0,12(a3)
   10394:	4025d793          	srai	a5,a1,0x2
   10398:	00100613          	li	a2,1
   1039c:	00f61633          	sll	a2,a2,a5
   103a0:	0ac56a63          	bltu	a0,a2,10454 <_malloc_r+0x258>
   103a4:	00a677b3          	and	a5,a2,a0
   103a8:	02079463          	bnez	a5,103d0 <_malloc_r+0x1d4>
   103ac:	00161613          	slli	a2,a2,0x1
   103b0:	ffc5f593          	andi	a1,a1,-4
   103b4:	00a677b3          	and	a5,a2,a0
   103b8:	00458593          	addi	a1,a1,4
   103bc:	00079a63          	bnez	a5,103d0 <_malloc_r+0x1d4>
   103c0:	00161613          	slli	a2,a2,0x1
   103c4:	00a677b3          	and	a5,a2,a0
   103c8:	00458593          	addi	a1,a1,4
   103cc:	fe078ae3          	beqz	a5,103c0 <_malloc_r+0x1c4>
   103d0:	00f00893          	li	a7,15
   103d4:	00359313          	slli	t1,a1,0x3
   103d8:	00690333          	add	t1,s2,t1
   103dc:	00030513          	mv	a0,t1
   103e0:	00c52783          	lw	a5,12(a0) # 2200c <__EH_FRAME_BEGIN__+0xc>
   103e4:	00058e13          	mv	t3,a1
   103e8:	24f50263          	beq	a0,a5,1062c <_malloc_r+0x430>
   103ec:	0047a703          	lw	a4,4(a5)
   103f0:	00078413          	mv	s0,a5
   103f4:	00c7a783          	lw	a5,12(a5)
   103f8:	ffc77713          	andi	a4,a4,-4
   103fc:	409706b3          	sub	a3,a4,s1
   10400:	24d8c263          	blt	a7,a3,10644 <_malloc_r+0x448>
   10404:	fe06c2e3          	bltz	a3,103e8 <_malloc_r+0x1ec>
   10408:	00e40733          	add	a4,s0,a4
   1040c:	00472683          	lw	a3,4(a4)
   10410:	00842603          	lw	a2,8(s0)
   10414:	00098513          	mv	a0,s3
   10418:	0016e693          	ori	a3,a3,1
   1041c:	00d72223          	sw	a3,4(a4)
   10420:	00f62623          	sw	a5,12(a2)
   10424:	00c7a423          	sw	a2,8(a5)
   10428:	594000ef          	jal	109bc <__malloc_unlock>
   1042c:	00840513          	addi	a0,s0,8
   10430:	e59ff06f          	j	10288 <_malloc_r+0x8c>
   10434:	00c00793          	li	a5,12
   10438:	00f9a023          	sw	a5,0(s3)
   1043c:	00000513          	li	a0,0
   10440:	e49ff06f          	j	10288 <_malloc_r+0x8c>
   10444:	20000613          	li	a2,512
   10448:	04000593          	li	a1,64
   1044c:	03f00813          	li	a6,63
   10450:	e8dff06f          	j	102dc <_malloc_r+0xe0>
   10454:	00892403          	lw	s0,8(s2)
   10458:	01612823          	sw	s6,16(sp)
   1045c:	00442783          	lw	a5,4(s0)
   10460:	ffc7fb13          	andi	s6,a5,-4
   10464:	009b6863          	bltu	s6,s1,10474 <_malloc_r+0x278>
   10468:	409b0733          	sub	a4,s6,s1
   1046c:	00f00793          	li	a5,15
   10470:	0ce7ca63          	blt	a5,a4,10544 <_malloc_r+0x348>
   10474:	01912223          	sw	s9,4(sp)
   10478:	01512a23          	sw	s5,20(sp)
   1047c:	f0c1a703          	lw	a4,-244(gp) # 227cc <__malloc_sbrk_base>
   10480:	f201aa83          	lw	s5,-224(gp) # 227e0 <__malloc_top_pad>
   10484:	01412c23          	sw	s4,24(sp)
   10488:	01712623          	sw	s7,12(sp)
   1048c:	fff00793          	li	a5,-1
   10490:	01640a33          	add	s4,s0,s6
   10494:	01548ab3          	add	s5,s1,s5
   10498:	3cf70663          	beq	a4,a5,10864 <_malloc_r+0x668>
   1049c:	000017b7          	lui	a5,0x1
   104a0:	00f78793          	addi	a5,a5,15 # 100f <exit-0xf085>
   104a4:	00fa8ab3          	add	s5,s5,a5
   104a8:	fffff7b7          	lui	a5,0xfffff
   104ac:	00fafab3          	and	s5,s5,a5
   104b0:	000a8593          	mv	a1,s5
   104b4:	00098513          	mv	a0,s3
   104b8:	519000ef          	jal	111d0 <_sbrk_r>
   104bc:	fff00793          	li	a5,-1
   104c0:	00050b93          	mv	s7,a0
   104c4:	44f50a63          	beq	a0,a5,10918 <_malloc_r+0x71c>
   104c8:	01812423          	sw	s8,8(sp)
   104cc:	23456e63          	bltu	a0,s4,10708 <_malloc_r+0x50c>
   104d0:	f5418c13          	addi	s8,gp,-172 # 22814 <__malloc_current_mallinfo>
   104d4:	000c2583          	lw	a1,0(s8)
   104d8:	00ba85b3          	add	a1,s5,a1
   104dc:	00bc2023          	sw	a1,0(s8)
   104e0:	00058713          	mv	a4,a1
   104e4:	2aaa1663          	bne	s4,a0,10790 <_malloc_r+0x594>
   104e8:	01451793          	slli	a5,a0,0x14
   104ec:	2a079263          	bnez	a5,10790 <_malloc_r+0x594>
   104f0:	00892b83          	lw	s7,8(s2)
   104f4:	015b07b3          	add	a5,s6,s5
   104f8:	0017e793          	ori	a5,a5,1
   104fc:	00fba223          	sw	a5,4(s7)
   10500:	f1c1a683          	lw	a3,-228(gp) # 227dc <__malloc_max_sbrked_mem>
   10504:	00b6f463          	bgeu	a3,a1,1050c <_malloc_r+0x310>
   10508:	f0b1ae23          	sw	a1,-228(gp) # 227dc <__malloc_max_sbrked_mem>
   1050c:	f181a683          	lw	a3,-232(gp) # 227d8 <__malloc_max_total_mem>
   10510:	00b6f463          	bgeu	a3,a1,10518 <_malloc_r+0x31c>
   10514:	f0b1ac23          	sw	a1,-232(gp) # 227d8 <__malloc_max_total_mem>
   10518:	00812c03          	lw	s8,8(sp)
   1051c:	000b8413          	mv	s0,s7
   10520:	ffc7f793          	andi	a5,a5,-4
   10524:	40978733          	sub	a4,a5,s1
   10528:	3897ea63          	bltu	a5,s1,108bc <_malloc_r+0x6c0>
   1052c:	00f00793          	li	a5,15
   10530:	38e7d663          	bge	a5,a4,108bc <_malloc_r+0x6c0>
   10534:	01812a03          	lw	s4,24(sp)
   10538:	01412a83          	lw	s5,20(sp)
   1053c:	00c12b83          	lw	s7,12(sp)
   10540:	00412c83          	lw	s9,4(sp)
   10544:	0014e793          	ori	a5,s1,1
   10548:	00f42223          	sw	a5,4(s0)
   1054c:	009404b3          	add	s1,s0,s1
   10550:	00992423          	sw	s1,8(s2)
   10554:	00176713          	ori	a4,a4,1
   10558:	00098513          	mv	a0,s3
   1055c:	00e4a223          	sw	a4,4(s1)
   10560:	45c000ef          	jal	109bc <__malloc_unlock>
   10564:	02c12083          	lw	ra,44(sp)
   10568:	00840513          	addi	a0,s0,8
   1056c:	02812403          	lw	s0,40(sp)
   10570:	01012b03          	lw	s6,16(sp)
   10574:	02412483          	lw	s1,36(sp)
   10578:	02012903          	lw	s2,32(sp)
   1057c:	01c12983          	lw	s3,28(sp)
   10580:	03010113          	addi	sp,sp,48
   10584:	00008067          	ret
   10588:	00492503          	lw	a0,4(s2)
   1058c:	e09ff06f          	j	10394 <_malloc_r+0x198>
   10590:	00842603          	lw	a2,8(s0)
   10594:	cd1ff06f          	j	10264 <_malloc_r+0x68>
   10598:	00c7a403          	lw	s0,12(a5) # fffff00c <__BSS_END__+0xfffdc508>
   1059c:	00258593          	addi	a1,a1,2
   105a0:	d88780e3          	beq	a5,s0,10320 <_malloc_r+0x124>
   105a4:	cb1ff06f          	j	10254 <_malloc_r+0x58>
   105a8:	0097d713          	srli	a4,a5,0x9
   105ac:	00400693          	li	a3,4
   105b0:	14e6f263          	bgeu	a3,a4,106f4 <_malloc_r+0x4f8>
   105b4:	01400693          	li	a3,20
   105b8:	32e6e463          	bltu	a3,a4,108e0 <_malloc_r+0x6e4>
   105bc:	05c70613          	addi	a2,a4,92
   105c0:	05b70693          	addi	a3,a4,91
   105c4:	00361613          	slli	a2,a2,0x3
   105c8:	00c90633          	add	a2,s2,a2
   105cc:	00062703          	lw	a4,0(a2)
   105d0:	ff860613          	addi	a2,a2,-8
   105d4:	00e61863          	bne	a2,a4,105e4 <_malloc_r+0x3e8>
   105d8:	2940006f          	j	1086c <_malloc_r+0x670>
   105dc:	00872703          	lw	a4,8(a4)
   105e0:	00e60863          	beq	a2,a4,105f0 <_malloc_r+0x3f4>
   105e4:	00472683          	lw	a3,4(a4)
   105e8:	ffc6f693          	andi	a3,a3,-4
   105ec:	fed7e8e3          	bltu	a5,a3,105dc <_malloc_r+0x3e0>
   105f0:	00c72603          	lw	a2,12(a4)
   105f4:	00c42623          	sw	a2,12(s0)
   105f8:	00e42423          	sw	a4,8(s0)
   105fc:	00862423          	sw	s0,8(a2)
   10600:	00872623          	sw	s0,12(a4)
   10604:	d91ff06f          	j	10394 <_malloc_r+0x198>
   10608:	01400713          	li	a4,20
   1060c:	10f77863          	bgeu	a4,a5,1071c <_malloc_r+0x520>
   10610:	05400713          	li	a4,84
   10614:	2ef76463          	bltu	a4,a5,108fc <_malloc_r+0x700>
   10618:	00c4d793          	srli	a5,s1,0xc
   1061c:	06f78593          	addi	a1,a5,111
   10620:	06e78813          	addi	a6,a5,110
   10624:	00359613          	slli	a2,a1,0x3
   10628:	cb5ff06f          	j	102dc <_malloc_r+0xe0>
   1062c:	001e0e13          	addi	t3,t3,1
   10630:	003e7793          	andi	a5,t3,3
   10634:	00850513          	addi	a0,a0,8
   10638:	10078063          	beqz	a5,10738 <_malloc_r+0x53c>
   1063c:	00c52783          	lw	a5,12(a0)
   10640:	da9ff06f          	j	103e8 <_malloc_r+0x1ec>
   10644:	00842603          	lw	a2,8(s0)
   10648:	0014e593          	ori	a1,s1,1
   1064c:	00b42223          	sw	a1,4(s0)
   10650:	00f62623          	sw	a5,12(a2)
   10654:	00c7a423          	sw	a2,8(a5)
   10658:	009404b3          	add	s1,s0,s1
   1065c:	00992a23          	sw	s1,20(s2)
   10660:	00992823          	sw	s1,16(s2)
   10664:	0016e793          	ori	a5,a3,1
   10668:	0104a623          	sw	a6,12(s1)
   1066c:	0104a423          	sw	a6,8(s1)
   10670:	00f4a223          	sw	a5,4(s1)
   10674:	00e40733          	add	a4,s0,a4
   10678:	00098513          	mv	a0,s3
   1067c:	00d72023          	sw	a3,0(a4)
   10680:	33c000ef          	jal	109bc <__malloc_unlock>
   10684:	00840513          	addi	a0,s0,8
   10688:	c01ff06f          	j	10288 <_malloc_r+0x8c>
   1068c:	00f407b3          	add	a5,s0,a5
   10690:	0047a703          	lw	a4,4(a5)
   10694:	00098513          	mv	a0,s3
   10698:	00176713          	ori	a4,a4,1
   1069c:	00e7a223          	sw	a4,4(a5)
   106a0:	31c000ef          	jal	109bc <__malloc_unlock>
   106a4:	00840513          	addi	a0,s0,8
   106a8:	be1ff06f          	j	10288 <_malloc_r+0x8c>
   106ac:	0034d593          	srli	a1,s1,0x3
   106b0:	00848793          	addi	a5,s1,8
   106b4:	b89ff06f          	j	1023c <_malloc_r+0x40>
   106b8:	0014e693          	ori	a3,s1,1
   106bc:	00d42223          	sw	a3,4(s0)
   106c0:	009404b3          	add	s1,s0,s1
   106c4:	00992a23          	sw	s1,20(s2)
   106c8:	00992823          	sw	s1,16(s2)
   106cc:	00176693          	ori	a3,a4,1
   106d0:	0104a623          	sw	a6,12(s1)
   106d4:	0104a423          	sw	a6,8(s1)
   106d8:	00d4a223          	sw	a3,4(s1)
   106dc:	00f407b3          	add	a5,s0,a5
   106e0:	00098513          	mv	a0,s3
   106e4:	00e7a023          	sw	a4,0(a5)
   106e8:	2d4000ef          	jal	109bc <__malloc_unlock>
   106ec:	00840513          	addi	a0,s0,8
   106f0:	b99ff06f          	j	10288 <_malloc_r+0x8c>
   106f4:	0067d713          	srli	a4,a5,0x6
   106f8:	03970613          	addi	a2,a4,57
   106fc:	03870693          	addi	a3,a4,56
   10700:	00361613          	slli	a2,a2,0x3
   10704:	ec5ff06f          	j	105c8 <_malloc_r+0x3cc>
   10708:	07240c63          	beq	s0,s2,10780 <_malloc_r+0x584>
   1070c:	00892403          	lw	s0,8(s2)
   10710:	00812c03          	lw	s8,8(sp)
   10714:	00442783          	lw	a5,4(s0)
   10718:	e09ff06f          	j	10520 <_malloc_r+0x324>
   1071c:	05c78593          	addi	a1,a5,92
   10720:	05b78813          	addi	a6,a5,91
   10724:	00359613          	slli	a2,a1,0x3
   10728:	bb5ff06f          	j	102dc <_malloc_r+0xe0>
   1072c:	00832783          	lw	a5,8(t1) # 10184 <frame_dummy+0x1c>
   10730:	fff58593          	addi	a1,a1,-1
   10734:	26679e63          	bne	a5,t1,109b0 <_malloc_r+0x7b4>
   10738:	0035f793          	andi	a5,a1,3
   1073c:	ff830313          	addi	t1,t1,-8
   10740:	fe0796e3          	bnez	a5,1072c <_malloc_r+0x530>
   10744:	00492703          	lw	a4,4(s2)
   10748:	fff64793          	not	a5,a2
   1074c:	00e7f7b3          	and	a5,a5,a4
   10750:	00f92223          	sw	a5,4(s2)
   10754:	00161613          	slli	a2,a2,0x1
   10758:	cec7eee3          	bltu	a5,a2,10454 <_malloc_r+0x258>
   1075c:	ce060ce3          	beqz	a2,10454 <_malloc_r+0x258>
   10760:	00f67733          	and	a4,a2,a5
   10764:	00071a63          	bnez	a4,10778 <_malloc_r+0x57c>
   10768:	00161613          	slli	a2,a2,0x1
   1076c:	00f67733          	and	a4,a2,a5
   10770:	004e0e13          	addi	t3,t3,4
   10774:	fe070ae3          	beqz	a4,10768 <_malloc_r+0x56c>
   10778:	000e0593          	mv	a1,t3
   1077c:	c59ff06f          	j	103d4 <_malloc_r+0x1d8>
   10780:	f5418c13          	addi	s8,gp,-172 # 22814 <__malloc_current_mallinfo>
   10784:	000c2703          	lw	a4,0(s8)
   10788:	00ea8733          	add	a4,s5,a4
   1078c:	00ec2023          	sw	a4,0(s8)
   10790:	f0c1a683          	lw	a3,-244(gp) # 227cc <__malloc_sbrk_base>
   10794:	fff00793          	li	a5,-1
   10798:	18f68663          	beq	a3,a5,10924 <_malloc_r+0x728>
   1079c:	414b87b3          	sub	a5,s7,s4
   107a0:	00e787b3          	add	a5,a5,a4
   107a4:	00fc2023          	sw	a5,0(s8)
   107a8:	007bfc93          	andi	s9,s7,7
   107ac:	0c0c8c63          	beqz	s9,10884 <_malloc_r+0x688>
   107b0:	419b8bb3          	sub	s7,s7,s9
   107b4:	000017b7          	lui	a5,0x1
   107b8:	00878793          	addi	a5,a5,8 # 1008 <exit-0xf08c>
   107bc:	008b8b93          	addi	s7,s7,8
   107c0:	419785b3          	sub	a1,a5,s9
   107c4:	015b8ab3          	add	s5,s7,s5
   107c8:	415585b3          	sub	a1,a1,s5
   107cc:	01459593          	slli	a1,a1,0x14
   107d0:	0145da13          	srli	s4,a1,0x14
   107d4:	000a0593          	mv	a1,s4
   107d8:	00098513          	mv	a0,s3
   107dc:	1f5000ef          	jal	111d0 <_sbrk_r>
   107e0:	fff00793          	li	a5,-1
   107e4:	18f50063          	beq	a0,a5,10964 <_malloc_r+0x768>
   107e8:	41750533          	sub	a0,a0,s7
   107ec:	01450ab3          	add	s5,a0,s4
   107f0:	000c2703          	lw	a4,0(s8)
   107f4:	01792423          	sw	s7,8(s2)
   107f8:	001ae793          	ori	a5,s5,1
   107fc:	00ea05b3          	add	a1,s4,a4
   10800:	00bc2023          	sw	a1,0(s8)
   10804:	00fba223          	sw	a5,4(s7)
   10808:	cf240ce3          	beq	s0,s2,10500 <_malloc_r+0x304>
   1080c:	00f00693          	li	a3,15
   10810:	0b66f063          	bgeu	a3,s6,108b0 <_malloc_r+0x6b4>
   10814:	00442703          	lw	a4,4(s0)
   10818:	ff4b0793          	addi	a5,s6,-12
   1081c:	ff87f793          	andi	a5,a5,-8
   10820:	00177713          	andi	a4,a4,1
   10824:	00f76733          	or	a4,a4,a5
   10828:	00e42223          	sw	a4,4(s0)
   1082c:	00500613          	li	a2,5
   10830:	00f40733          	add	a4,s0,a5
   10834:	00c72223          	sw	a2,4(a4)
   10838:	00c72423          	sw	a2,8(a4)
   1083c:	00f6e663          	bltu	a3,a5,10848 <_malloc_r+0x64c>
   10840:	004ba783          	lw	a5,4(s7)
   10844:	cbdff06f          	j	10500 <_malloc_r+0x304>
   10848:	00840593          	addi	a1,s0,8
   1084c:	00098513          	mv	a0,s3
   10850:	63d000ef          	jal	1168c <_free_r>
   10854:	00892b83          	lw	s7,8(s2)
   10858:	000c2583          	lw	a1,0(s8)
   1085c:	004ba783          	lw	a5,4(s7)
   10860:	ca1ff06f          	j	10500 <_malloc_r+0x304>
   10864:	010a8a93          	addi	s5,s5,16
   10868:	c49ff06f          	j	104b0 <_malloc_r+0x2b4>
   1086c:	4026d693          	srai	a3,a3,0x2
   10870:	00100793          	li	a5,1
   10874:	00d797b3          	sll	a5,a5,a3
   10878:	00f56533          	or	a0,a0,a5
   1087c:	00a92223          	sw	a0,4(s2)
   10880:	d75ff06f          	j	105f4 <_malloc_r+0x3f8>
   10884:	015b85b3          	add	a1,s7,s5
   10888:	40b005b3          	neg	a1,a1
   1088c:	01459593          	slli	a1,a1,0x14
   10890:	0145da13          	srli	s4,a1,0x14
   10894:	000a0593          	mv	a1,s4
   10898:	00098513          	mv	a0,s3
   1089c:	135000ef          	jal	111d0 <_sbrk_r>
   108a0:	fff00793          	li	a5,-1
   108a4:	f4f512e3          	bne	a0,a5,107e8 <_malloc_r+0x5ec>
   108a8:	00000a13          	li	s4,0
   108ac:	f45ff06f          	j	107f0 <_malloc_r+0x5f4>
   108b0:	00812c03          	lw	s8,8(sp)
   108b4:	00100793          	li	a5,1
   108b8:	00fba223          	sw	a5,4(s7)
   108bc:	00098513          	mv	a0,s3
   108c0:	0fc000ef          	jal	109bc <__malloc_unlock>
   108c4:	00000513          	li	a0,0
   108c8:	01812a03          	lw	s4,24(sp)
   108cc:	01412a83          	lw	s5,20(sp)
   108d0:	01012b03          	lw	s6,16(sp)
   108d4:	00c12b83          	lw	s7,12(sp)
   108d8:	00412c83          	lw	s9,4(sp)
   108dc:	9adff06f          	j	10288 <_malloc_r+0x8c>
   108e0:	05400693          	li	a3,84
   108e4:	04e6e463          	bltu	a3,a4,1092c <_malloc_r+0x730>
   108e8:	00c7d713          	srli	a4,a5,0xc
   108ec:	06f70613          	addi	a2,a4,111
   108f0:	06e70693          	addi	a3,a4,110
   108f4:	00361613          	slli	a2,a2,0x3
   108f8:	cd1ff06f          	j	105c8 <_malloc_r+0x3cc>
   108fc:	15400713          	li	a4,340
   10900:	04f76463          	bltu	a4,a5,10948 <_malloc_r+0x74c>
   10904:	00f4d793          	srli	a5,s1,0xf
   10908:	07878593          	addi	a1,a5,120
   1090c:	07778813          	addi	a6,a5,119
   10910:	00359613          	slli	a2,a1,0x3
   10914:	9c9ff06f          	j	102dc <_malloc_r+0xe0>
   10918:	00892403          	lw	s0,8(s2)
   1091c:	00442783          	lw	a5,4(s0)
   10920:	c01ff06f          	j	10520 <_malloc_r+0x324>
   10924:	f171a623          	sw	s7,-244(gp) # 227cc <__malloc_sbrk_base>
   10928:	e81ff06f          	j	107a8 <_malloc_r+0x5ac>
   1092c:	15400693          	li	a3,340
   10930:	04e6e463          	bltu	a3,a4,10978 <_malloc_r+0x77c>
   10934:	00f7d713          	srli	a4,a5,0xf
   10938:	07870613          	addi	a2,a4,120
   1093c:	07770693          	addi	a3,a4,119
   10940:	00361613          	slli	a2,a2,0x3
   10944:	c85ff06f          	j	105c8 <_malloc_r+0x3cc>
   10948:	55400713          	li	a4,1364
   1094c:	04f76463          	bltu	a4,a5,10994 <_malloc_r+0x798>
   10950:	0124d793          	srli	a5,s1,0x12
   10954:	07d78593          	addi	a1,a5,125
   10958:	07c78813          	addi	a6,a5,124
   1095c:	00359613          	slli	a2,a1,0x3
   10960:	97dff06f          	j	102dc <_malloc_r+0xe0>
   10964:	ff8c8c93          	addi	s9,s9,-8
   10968:	019a8ab3          	add	s5,s5,s9
   1096c:	417a8ab3          	sub	s5,s5,s7
   10970:	00000a13          	li	s4,0
   10974:	e7dff06f          	j	107f0 <_malloc_r+0x5f4>
   10978:	55400693          	li	a3,1364
   1097c:	02e6e463          	bltu	a3,a4,109a4 <_malloc_r+0x7a8>
   10980:	0127d713          	srli	a4,a5,0x12
   10984:	07d70613          	addi	a2,a4,125
   10988:	07c70693          	addi	a3,a4,124
   1098c:	00361613          	slli	a2,a2,0x3
   10990:	c39ff06f          	j	105c8 <_malloc_r+0x3cc>
   10994:	3f800613          	li	a2,1016
   10998:	07f00593          	li	a1,127
   1099c:	07e00813          	li	a6,126
   109a0:	93dff06f          	j	102dc <_malloc_r+0xe0>
   109a4:	3f800613          	li	a2,1016
   109a8:	07e00693          	li	a3,126
   109ac:	c1dff06f          	j	105c8 <_malloc_r+0x3cc>
   109b0:	00492783          	lw	a5,4(s2)
   109b4:	da1ff06f          	j	10754 <_malloc_r+0x558>

000109b8 <__malloc_lock>:
   109b8:	00008067          	ret

000109bc <__malloc_unlock>:
   109bc:	00008067          	ret

000109c0 <__fp_lock>:
   109c0:	00000513          	li	a0,0
   109c4:	00008067          	ret

000109c8 <stdio_exit_handler>:
   109c8:	000145b7          	lui	a1,0x14
   109cc:	c0818613          	addi	a2,gp,-1016 # 224c8 <__sglue>
   109d0:	35858593          	addi	a1,a1,856 # 14358 <_fclose_r>
   109d4:	c1818513          	addi	a0,gp,-1000 # 224d8 <_impure_data>
   109d8:	33c0006f          	j	10d14 <_fwalk_sglue>

000109dc <cleanup_stdio>:
   109dc:	00452583          	lw	a1,4(a0)
   109e0:	ff010113          	addi	sp,sp,-16
   109e4:	00812423          	sw	s0,8(sp)
   109e8:	00112623          	sw	ra,12(sp)
   109ec:	f7c18793          	addi	a5,gp,-132 # 2283c <__sf>
   109f0:	00050413          	mv	s0,a0
   109f4:	00f58463          	beq	a1,a5,109fc <cleanup_stdio+0x20>
   109f8:	161030ef          	jal	14358 <_fclose_r>
   109fc:	00842583          	lw	a1,8(s0)
   10a00:	fe418793          	addi	a5,gp,-28 # 228a4 <__sf+0x68>
   10a04:	00f58663          	beq	a1,a5,10a10 <cleanup_stdio+0x34>
   10a08:	00040513          	mv	a0,s0
   10a0c:	14d030ef          	jal	14358 <_fclose_r>
   10a10:	00c42583          	lw	a1,12(s0)
   10a14:	04c18793          	addi	a5,gp,76 # 2290c <__global_pointer$+0x4c>
   10a18:	00f58c63          	beq	a1,a5,10a30 <cleanup_stdio+0x54>
   10a1c:	00040513          	mv	a0,s0
   10a20:	00812403          	lw	s0,8(sp)
   10a24:	00c12083          	lw	ra,12(sp)
   10a28:	01010113          	addi	sp,sp,16
   10a2c:	12d0306f          	j	14358 <_fclose_r>
   10a30:	00c12083          	lw	ra,12(sp)
   10a34:	00812403          	lw	s0,8(sp)
   10a38:	01010113          	addi	sp,sp,16
   10a3c:	00008067          	ret

00010a40 <__fp_unlock>:
   10a40:	00000513          	li	a0,0
   10a44:	00008067          	ret

00010a48 <global_stdio_init.part.0>:
   10a48:	fe010113          	addi	sp,sp,-32
   10a4c:	000117b7          	lui	a5,0x11
   10a50:	00812c23          	sw	s0,24(sp)
   10a54:	9c878793          	addi	a5,a5,-1592 # 109c8 <stdio_exit_handler>
   10a58:	f7c18413          	addi	s0,gp,-132 # 2283c <__sf>
   10a5c:	00112e23          	sw	ra,28(sp)
   10a60:	00912a23          	sw	s1,20(sp)
   10a64:	01212823          	sw	s2,16(sp)
   10a68:	01312623          	sw	s3,12(sp)
   10a6c:	01412423          	sw	s4,8(sp)
   10a70:	f2f1a223          	sw	a5,-220(gp) # 227e4 <__stdio_exit_handler>
   10a74:	00800613          	li	a2,8
   10a78:	00400793          	li	a5,4
   10a7c:	00000593          	li	a1,0
   10a80:	fd818513          	addi	a0,gp,-40 # 22898 <__sf+0x5c>
   10a84:	00f42623          	sw	a5,12(s0)
   10a88:	00042023          	sw	zero,0(s0)
   10a8c:	00042223          	sw	zero,4(s0)
   10a90:	00042423          	sw	zero,8(s0)
   10a94:	06042223          	sw	zero,100(s0)
   10a98:	00042823          	sw	zero,16(s0)
   10a9c:	00042a23          	sw	zero,20(s0)
   10aa0:	00042c23          	sw	zero,24(s0)
   10aa4:	08d000ef          	jal	11330 <memset>
   10aa8:	000107b7          	lui	a5,0x10
   10aac:	00011a37          	lui	s4,0x11
   10ab0:	000119b7          	lui	s3,0x11
   10ab4:	00011937          	lui	s2,0x11
   10ab8:	000114b7          	lui	s1,0x11
   10abc:	e54a0a13          	addi	s4,s4,-428 # 10e54 <__sread>
   10ac0:	eb898993          	addi	s3,s3,-328 # 10eb8 <__swrite>
   10ac4:	f4090913          	addi	s2,s2,-192 # 10f40 <__sseek>
   10ac8:	fb848493          	addi	s1,s1,-72 # 10fb8 <__sclose>
   10acc:	00978793          	addi	a5,a5,9 # 10009 <exit-0x8b>
   10ad0:	00800613          	li	a2,8
   10ad4:	00000593          	li	a1,0
   10ad8:	04018513          	addi	a0,gp,64 # 22900 <__global_pointer$+0x40>
   10adc:	03442023          	sw	s4,32(s0)
   10ae0:	03342223          	sw	s3,36(s0)
   10ae4:	03242423          	sw	s2,40(s0)
   10ae8:	02942623          	sw	s1,44(s0)
   10aec:	06f42a23          	sw	a5,116(s0)
   10af0:	00842e23          	sw	s0,28(s0)
   10af4:	06042423          	sw	zero,104(s0)
   10af8:	06042623          	sw	zero,108(s0)
   10afc:	06042823          	sw	zero,112(s0)
   10b00:	0c042623          	sw	zero,204(s0)
   10b04:	06042c23          	sw	zero,120(s0)
   10b08:	06042e23          	sw	zero,124(s0)
   10b0c:	08042023          	sw	zero,128(s0)
   10b10:	021000ef          	jal	11330 <memset>
   10b14:	000207b7          	lui	a5,0x20
   10b18:	01278793          	addi	a5,a5,18 # 20012 <__subtf3+0x7b6>
   10b1c:	fe418713          	addi	a4,gp,-28 # 228a4 <__sf+0x68>
   10b20:	00800613          	li	a2,8
   10b24:	00000593          	li	a1,0
   10b28:	0a818513          	addi	a0,gp,168 # 22968 <__global_pointer$+0xa8>
   10b2c:	09442423          	sw	s4,136(s0)
   10b30:	09342623          	sw	s3,140(s0)
   10b34:	09242823          	sw	s2,144(s0)
   10b38:	08942a23          	sw	s1,148(s0)
   10b3c:	0cf42e23          	sw	a5,220(s0)
   10b40:	08e42223          	sw	a4,132(s0)
   10b44:	0c042823          	sw	zero,208(s0)
   10b48:	0c042a23          	sw	zero,212(s0)
   10b4c:	0c042c23          	sw	zero,216(s0)
   10b50:	12042a23          	sw	zero,308(s0)
   10b54:	0e042023          	sw	zero,224(s0)
   10b58:	0e042223          	sw	zero,228(s0)
   10b5c:	0e042423          	sw	zero,232(s0)
   10b60:	7d0000ef          	jal	11330 <memset>
   10b64:	04c18793          	addi	a5,gp,76 # 2290c <__global_pointer$+0x4c>
   10b68:	0f442823          	sw	s4,240(s0)
   10b6c:	0f342a23          	sw	s3,244(s0)
   10b70:	0f242c23          	sw	s2,248(s0)
   10b74:	0e942e23          	sw	s1,252(s0)
   10b78:	01c12083          	lw	ra,28(sp)
   10b7c:	0ef42623          	sw	a5,236(s0)
   10b80:	01812403          	lw	s0,24(sp)
   10b84:	01412483          	lw	s1,20(sp)
   10b88:	01012903          	lw	s2,16(sp)
   10b8c:	00c12983          	lw	s3,12(sp)
   10b90:	00812a03          	lw	s4,8(sp)
   10b94:	02010113          	addi	sp,sp,32
   10b98:	00008067          	ret

00010b9c <__sfp>:
   10b9c:	f241a783          	lw	a5,-220(gp) # 227e4 <__stdio_exit_handler>
   10ba0:	fe010113          	addi	sp,sp,-32
   10ba4:	01312623          	sw	s3,12(sp)
   10ba8:	00112e23          	sw	ra,28(sp)
   10bac:	00812c23          	sw	s0,24(sp)
   10bb0:	00912a23          	sw	s1,20(sp)
   10bb4:	01212823          	sw	s2,16(sp)
   10bb8:	00050993          	mv	s3,a0
   10bbc:	0e078663          	beqz	a5,10ca8 <__sfp+0x10c>
   10bc0:	c0818913          	addi	s2,gp,-1016 # 224c8 <__sglue>
   10bc4:	fff00493          	li	s1,-1
   10bc8:	00492783          	lw	a5,4(s2)
   10bcc:	00892403          	lw	s0,8(s2)
   10bd0:	fff78793          	addi	a5,a5,-1
   10bd4:	0007d863          	bgez	a5,10be4 <__sfp+0x48>
   10bd8:	0800006f          	j	10c58 <__sfp+0xbc>
   10bdc:	06840413          	addi	s0,s0,104
   10be0:	06978c63          	beq	a5,s1,10c58 <__sfp+0xbc>
   10be4:	00c41703          	lh	a4,12(s0)
   10be8:	fff78793          	addi	a5,a5,-1
   10bec:	fe0718e3          	bnez	a4,10bdc <__sfp+0x40>
   10bf0:	ffff07b7          	lui	a5,0xffff0
   10bf4:	00178793          	addi	a5,a5,1 # ffff0001 <__BSS_END__+0xfffcd4fd>
   10bf8:	00f42623          	sw	a5,12(s0)
   10bfc:	06042223          	sw	zero,100(s0)
   10c00:	00042023          	sw	zero,0(s0)
   10c04:	00042423          	sw	zero,8(s0)
   10c08:	00042223          	sw	zero,4(s0)
   10c0c:	00042823          	sw	zero,16(s0)
   10c10:	00042a23          	sw	zero,20(s0)
   10c14:	00042c23          	sw	zero,24(s0)
   10c18:	00800613          	li	a2,8
   10c1c:	00000593          	li	a1,0
   10c20:	05c40513          	addi	a0,s0,92
   10c24:	70c000ef          	jal	11330 <memset>
   10c28:	02042823          	sw	zero,48(s0)
   10c2c:	02042a23          	sw	zero,52(s0)
   10c30:	04042223          	sw	zero,68(s0)
   10c34:	04042423          	sw	zero,72(s0)
   10c38:	01c12083          	lw	ra,28(sp)
   10c3c:	00040513          	mv	a0,s0
   10c40:	01812403          	lw	s0,24(sp)
   10c44:	01412483          	lw	s1,20(sp)
   10c48:	01012903          	lw	s2,16(sp)
   10c4c:	00c12983          	lw	s3,12(sp)
   10c50:	02010113          	addi	sp,sp,32
   10c54:	00008067          	ret
   10c58:	00092403          	lw	s0,0(s2)
   10c5c:	00040663          	beqz	s0,10c68 <__sfp+0xcc>
   10c60:	00040913          	mv	s2,s0
   10c64:	f65ff06f          	j	10bc8 <__sfp+0x2c>
   10c68:	1ac00593          	li	a1,428
   10c6c:	00098513          	mv	a0,s3
   10c70:	d8cff0ef          	jal	101fc <_malloc_r>
   10c74:	00050413          	mv	s0,a0
   10c78:	02050c63          	beqz	a0,10cb0 <__sfp+0x114>
   10c7c:	00c50513          	addi	a0,a0,12
   10c80:	00400793          	li	a5,4
   10c84:	00042023          	sw	zero,0(s0)
   10c88:	00f42223          	sw	a5,4(s0)
   10c8c:	00a42423          	sw	a0,8(s0)
   10c90:	1a000613          	li	a2,416
   10c94:	00000593          	li	a1,0
   10c98:	698000ef          	jal	11330 <memset>
   10c9c:	00892023          	sw	s0,0(s2)
   10ca0:	00040913          	mv	s2,s0
   10ca4:	f25ff06f          	j	10bc8 <__sfp+0x2c>
   10ca8:	da1ff0ef          	jal	10a48 <global_stdio_init.part.0>
   10cac:	f15ff06f          	j	10bc0 <__sfp+0x24>
   10cb0:	00092023          	sw	zero,0(s2)
   10cb4:	00c00793          	li	a5,12
   10cb8:	00f9a023          	sw	a5,0(s3)
   10cbc:	f7dff06f          	j	10c38 <__sfp+0x9c>

00010cc0 <__sinit>:
   10cc0:	03452783          	lw	a5,52(a0)
   10cc4:	00078463          	beqz	a5,10ccc <__sinit+0xc>
   10cc8:	00008067          	ret
   10ccc:	f241a703          	lw	a4,-220(gp) # 227e4 <__stdio_exit_handler>
   10cd0:	000117b7          	lui	a5,0x11
   10cd4:	9dc78793          	addi	a5,a5,-1572 # 109dc <cleanup_stdio>
   10cd8:	02f52a23          	sw	a5,52(a0)
   10cdc:	fe0716e3          	bnez	a4,10cc8 <__sinit+0x8>
   10ce0:	d69ff06f          	j	10a48 <global_stdio_init.part.0>

00010ce4 <__sfp_lock_acquire>:
   10ce4:	00008067          	ret

00010ce8 <__sfp_lock_release>:
   10ce8:	00008067          	ret

00010cec <__fp_lock_all>:
   10cec:	000115b7          	lui	a1,0x11
   10cf0:	c0818613          	addi	a2,gp,-1016 # 224c8 <__sglue>
   10cf4:	9c058593          	addi	a1,a1,-1600 # 109c0 <__fp_lock>
   10cf8:	00000513          	li	a0,0
   10cfc:	0180006f          	j	10d14 <_fwalk_sglue>

00010d00 <__fp_unlock_all>:
   10d00:	000115b7          	lui	a1,0x11
   10d04:	c0818613          	addi	a2,gp,-1016 # 224c8 <__sglue>
   10d08:	a4058593          	addi	a1,a1,-1472 # 10a40 <__fp_unlock>
   10d0c:	00000513          	li	a0,0
   10d10:	0040006f          	j	10d14 <_fwalk_sglue>

00010d14 <_fwalk_sglue>:
   10d14:	fd010113          	addi	sp,sp,-48
   10d18:	03212023          	sw	s2,32(sp)
   10d1c:	01312e23          	sw	s3,28(sp)
   10d20:	01412c23          	sw	s4,24(sp)
   10d24:	01512a23          	sw	s5,20(sp)
   10d28:	01612823          	sw	s6,16(sp)
   10d2c:	01712623          	sw	s7,12(sp)
   10d30:	02112623          	sw	ra,44(sp)
   10d34:	02812423          	sw	s0,40(sp)
   10d38:	02912223          	sw	s1,36(sp)
   10d3c:	00050b13          	mv	s6,a0
   10d40:	00058b93          	mv	s7,a1
   10d44:	00060a93          	mv	s5,a2
   10d48:	00000a13          	li	s4,0
   10d4c:	00100993          	li	s3,1
   10d50:	fff00913          	li	s2,-1
   10d54:	004aa483          	lw	s1,4(s5)
   10d58:	008aa403          	lw	s0,8(s5)
   10d5c:	fff48493          	addi	s1,s1,-1
   10d60:	0204c863          	bltz	s1,10d90 <_fwalk_sglue+0x7c>
   10d64:	00c45783          	lhu	a5,12(s0)
   10d68:	00f9fe63          	bgeu	s3,a5,10d84 <_fwalk_sglue+0x70>
   10d6c:	00e41783          	lh	a5,14(s0)
   10d70:	00040593          	mv	a1,s0
   10d74:	000b0513          	mv	a0,s6
   10d78:	01278663          	beq	a5,s2,10d84 <_fwalk_sglue+0x70>
   10d7c:	000b80e7          	jalr	s7
   10d80:	00aa6a33          	or	s4,s4,a0
   10d84:	fff48493          	addi	s1,s1,-1
   10d88:	06840413          	addi	s0,s0,104
   10d8c:	fd249ce3          	bne	s1,s2,10d64 <_fwalk_sglue+0x50>
   10d90:	000aaa83          	lw	s5,0(s5)
   10d94:	fc0a90e3          	bnez	s5,10d54 <_fwalk_sglue+0x40>
   10d98:	02c12083          	lw	ra,44(sp)
   10d9c:	02812403          	lw	s0,40(sp)
   10da0:	02412483          	lw	s1,36(sp)
   10da4:	02012903          	lw	s2,32(sp)
   10da8:	01c12983          	lw	s3,28(sp)
   10dac:	01412a83          	lw	s5,20(sp)
   10db0:	01012b03          	lw	s6,16(sp)
   10db4:	00c12b83          	lw	s7,12(sp)
   10db8:	000a0513          	mv	a0,s4
   10dbc:	01812a03          	lw	s4,24(sp)
   10dc0:	03010113          	addi	sp,sp,48
   10dc4:	00008067          	ret

00010dc8 <_printf_r>:
   10dc8:	fc010113          	addi	sp,sp,-64
   10dcc:	02c12423          	sw	a2,40(sp)
   10dd0:	02d12623          	sw	a3,44(sp)
   10dd4:	02e12823          	sw	a4,48(sp)
   10dd8:	02f12a23          	sw	a5,52(sp)
   10ddc:	03012c23          	sw	a6,56(sp)
   10de0:	03112e23          	sw	a7,60(sp)
   10de4:	00058613          	mv	a2,a1
   10de8:	00852583          	lw	a1,8(a0)
   10dec:	02810693          	addi	a3,sp,40
   10df0:	00112e23          	sw	ra,28(sp)
   10df4:	00d12623          	sw	a3,12(sp)
   10df8:	399000ef          	jal	11990 <_vfprintf_r>
   10dfc:	01c12083          	lw	ra,28(sp)
   10e00:	04010113          	addi	sp,sp,64
   10e04:	00008067          	ret

00010e08 <printf>:
   10e08:	f141a303          	lw	t1,-236(gp) # 227d4 <_impure_ptr>
   10e0c:	fc010113          	addi	sp,sp,-64
   10e10:	02c12423          	sw	a2,40(sp)
   10e14:	02d12623          	sw	a3,44(sp)
   10e18:	02b12223          	sw	a1,36(sp)
   10e1c:	02e12823          	sw	a4,48(sp)
   10e20:	02f12a23          	sw	a5,52(sp)
   10e24:	03012c23          	sw	a6,56(sp)
   10e28:	03112e23          	sw	a7,60(sp)
   10e2c:	00832583          	lw	a1,8(t1)
   10e30:	02410693          	addi	a3,sp,36
   10e34:	00050613          	mv	a2,a0
   10e38:	00030513          	mv	a0,t1
   10e3c:	00112e23          	sw	ra,28(sp)
   10e40:	00d12623          	sw	a3,12(sp)
   10e44:	34d000ef          	jal	11990 <_vfprintf_r>
   10e48:	01c12083          	lw	ra,28(sp)
   10e4c:	04010113          	addi	sp,sp,64
   10e50:	00008067          	ret

00010e54 <__sread>:
   10e54:	ff010113          	addi	sp,sp,-16
   10e58:	00812423          	sw	s0,8(sp)
   10e5c:	00058413          	mv	s0,a1
   10e60:	00e59583          	lh	a1,14(a1)
   10e64:	00112623          	sw	ra,12(sp)
   10e68:	300000ef          	jal	11168 <_read_r>
   10e6c:	02054063          	bltz	a0,10e8c <__sread+0x38>
   10e70:	05042783          	lw	a5,80(s0)
   10e74:	00c12083          	lw	ra,12(sp)
   10e78:	00a787b3          	add	a5,a5,a0
   10e7c:	04f42823          	sw	a5,80(s0)
   10e80:	00812403          	lw	s0,8(sp)
   10e84:	01010113          	addi	sp,sp,16
   10e88:	00008067          	ret
   10e8c:	00c45783          	lhu	a5,12(s0)
   10e90:	fffff737          	lui	a4,0xfffff
   10e94:	fff70713          	addi	a4,a4,-1 # ffffefff <__BSS_END__+0xfffdc4fb>
   10e98:	00e7f7b3          	and	a5,a5,a4
   10e9c:	00c12083          	lw	ra,12(sp)
   10ea0:	00f41623          	sh	a5,12(s0)
   10ea4:	00812403          	lw	s0,8(sp)
   10ea8:	01010113          	addi	sp,sp,16
   10eac:	00008067          	ret

00010eb0 <__seofread>:
   10eb0:	00000513          	li	a0,0
   10eb4:	00008067          	ret

00010eb8 <__swrite>:
   10eb8:	00c59783          	lh	a5,12(a1)
   10ebc:	fe010113          	addi	sp,sp,-32
   10ec0:	00812c23          	sw	s0,24(sp)
   10ec4:	00912a23          	sw	s1,20(sp)
   10ec8:	01212823          	sw	s2,16(sp)
   10ecc:	01312623          	sw	s3,12(sp)
   10ed0:	00112e23          	sw	ra,28(sp)
   10ed4:	1007f713          	andi	a4,a5,256
   10ed8:	00058413          	mv	s0,a1
   10edc:	00050493          	mv	s1,a0
   10ee0:	00060913          	mv	s2,a2
   10ee4:	00068993          	mv	s3,a3
   10ee8:	04071063          	bnez	a4,10f28 <__swrite+0x70>
   10eec:	fffff737          	lui	a4,0xfffff
   10ef0:	fff70713          	addi	a4,a4,-1 # ffffefff <__BSS_END__+0xfffdc4fb>
   10ef4:	00e7f7b3          	and	a5,a5,a4
   10ef8:	00e41583          	lh	a1,14(s0)
   10efc:	00f41623          	sh	a5,12(s0)
   10f00:	01812403          	lw	s0,24(sp)
   10f04:	01c12083          	lw	ra,28(sp)
   10f08:	00098693          	mv	a3,s3
   10f0c:	00090613          	mv	a2,s2
   10f10:	00c12983          	lw	s3,12(sp)
   10f14:	01012903          	lw	s2,16(sp)
   10f18:	00048513          	mv	a0,s1
   10f1c:	01412483          	lw	s1,20(sp)
   10f20:	02010113          	addi	sp,sp,32
   10f24:	3080006f          	j	1122c <_write_r>
   10f28:	00e59583          	lh	a1,14(a1)
   10f2c:	00200693          	li	a3,2
   10f30:	00000613          	li	a2,0
   10f34:	1cc000ef          	jal	11100 <_lseek_r>
   10f38:	00c41783          	lh	a5,12(s0)
   10f3c:	fb1ff06f          	j	10eec <__swrite+0x34>

00010f40 <__sseek>:
   10f40:	ff010113          	addi	sp,sp,-16
   10f44:	00812423          	sw	s0,8(sp)
   10f48:	00058413          	mv	s0,a1
   10f4c:	00e59583          	lh	a1,14(a1)
   10f50:	00112623          	sw	ra,12(sp)
   10f54:	1ac000ef          	jal	11100 <_lseek_r>
   10f58:	fff00793          	li	a5,-1
   10f5c:	02f50863          	beq	a0,a5,10f8c <__sseek+0x4c>
   10f60:	00c45783          	lhu	a5,12(s0)
   10f64:	00001737          	lui	a4,0x1
   10f68:	00c12083          	lw	ra,12(sp)
   10f6c:	00e7e7b3          	or	a5,a5,a4
   10f70:	01079793          	slli	a5,a5,0x10
   10f74:	4107d793          	srai	a5,a5,0x10
   10f78:	04a42823          	sw	a0,80(s0)
   10f7c:	00f41623          	sh	a5,12(s0)
   10f80:	00812403          	lw	s0,8(sp)
   10f84:	01010113          	addi	sp,sp,16
   10f88:	00008067          	ret
   10f8c:	00c45783          	lhu	a5,12(s0)
   10f90:	fffff737          	lui	a4,0xfffff
   10f94:	fff70713          	addi	a4,a4,-1 # ffffefff <__BSS_END__+0xfffdc4fb>
   10f98:	00e7f7b3          	and	a5,a5,a4
   10f9c:	01079793          	slli	a5,a5,0x10
   10fa0:	4107d793          	srai	a5,a5,0x10
   10fa4:	00c12083          	lw	ra,12(sp)
   10fa8:	00f41623          	sh	a5,12(s0)
   10fac:	00812403          	lw	s0,8(sp)
   10fb0:	01010113          	addi	sp,sp,16
   10fb4:	00008067          	ret

00010fb8 <__sclose>:
   10fb8:	00e59583          	lh	a1,14(a1)
   10fbc:	0040006f          	j	10fc0 <_close_r>

00010fc0 <_close_r>:
   10fc0:	ff010113          	addi	sp,sp,-16
   10fc4:	00812423          	sw	s0,8(sp)
   10fc8:	00912223          	sw	s1,4(sp)
   10fcc:	00050413          	mv	s0,a0
   10fd0:	00058513          	mv	a0,a1
   10fd4:	00112623          	sw	ra,12(sp)
   10fd8:	f201a423          	sw	zero,-216(gp) # 227e8 <errno>
   10fdc:	2a80a0ef          	jal	1b284 <_close>
   10fe0:	fff00793          	li	a5,-1
   10fe4:	00f50c63          	beq	a0,a5,10ffc <_close_r+0x3c>
   10fe8:	00c12083          	lw	ra,12(sp)
   10fec:	00812403          	lw	s0,8(sp)
   10ff0:	00412483          	lw	s1,4(sp)
   10ff4:	01010113          	addi	sp,sp,16
   10ff8:	00008067          	ret
   10ffc:	f281a783          	lw	a5,-216(gp) # 227e8 <errno>
   11000:	fe0784e3          	beqz	a5,10fe8 <_close_r+0x28>
   11004:	00c12083          	lw	ra,12(sp)
   11008:	00f42023          	sw	a5,0(s0)
   1100c:	00812403          	lw	s0,8(sp)
   11010:	00412483          	lw	s1,4(sp)
   11014:	01010113          	addi	sp,sp,16
   11018:	00008067          	ret

0001101c <_reclaim_reent>:
   1101c:	f141a783          	lw	a5,-236(gp) # 227d4 <_impure_ptr>
   11020:	0ca78e63          	beq	a5,a0,110fc <_reclaim_reent+0xe0>
   11024:	04452583          	lw	a1,68(a0)
   11028:	fe010113          	addi	sp,sp,-32
   1102c:	00912a23          	sw	s1,20(sp)
   11030:	00112e23          	sw	ra,28(sp)
   11034:	00812c23          	sw	s0,24(sp)
   11038:	00050493          	mv	s1,a0
   1103c:	04058863          	beqz	a1,1108c <_reclaim_reent+0x70>
   11040:	01212823          	sw	s2,16(sp)
   11044:	01312623          	sw	s3,12(sp)
   11048:	00000913          	li	s2,0
   1104c:	08000993          	li	s3,128
   11050:	012587b3          	add	a5,a1,s2
   11054:	0007a403          	lw	s0,0(a5)
   11058:	00040e63          	beqz	s0,11074 <_reclaim_reent+0x58>
   1105c:	00040593          	mv	a1,s0
   11060:	00042403          	lw	s0,0(s0)
   11064:	00048513          	mv	a0,s1
   11068:	624000ef          	jal	1168c <_free_r>
   1106c:	fe0418e3          	bnez	s0,1105c <_reclaim_reent+0x40>
   11070:	0444a583          	lw	a1,68(s1)
   11074:	00490913          	addi	s2,s2,4
   11078:	fd391ce3          	bne	s2,s3,11050 <_reclaim_reent+0x34>
   1107c:	00048513          	mv	a0,s1
   11080:	60c000ef          	jal	1168c <_free_r>
   11084:	01012903          	lw	s2,16(sp)
   11088:	00c12983          	lw	s3,12(sp)
   1108c:	0384a583          	lw	a1,56(s1)
   11090:	00058663          	beqz	a1,1109c <_reclaim_reent+0x80>
   11094:	00048513          	mv	a0,s1
   11098:	5f4000ef          	jal	1168c <_free_r>
   1109c:	0404a403          	lw	s0,64(s1)
   110a0:	00040c63          	beqz	s0,110b8 <_reclaim_reent+0x9c>
   110a4:	00040593          	mv	a1,s0
   110a8:	00042403          	lw	s0,0(s0)
   110ac:	00048513          	mv	a0,s1
   110b0:	5dc000ef          	jal	1168c <_free_r>
   110b4:	fe0418e3          	bnez	s0,110a4 <_reclaim_reent+0x88>
   110b8:	04c4a583          	lw	a1,76(s1)
   110bc:	00058663          	beqz	a1,110c8 <_reclaim_reent+0xac>
   110c0:	00048513          	mv	a0,s1
   110c4:	5c8000ef          	jal	1168c <_free_r>
   110c8:	0344a783          	lw	a5,52(s1)
   110cc:	00078e63          	beqz	a5,110e8 <_reclaim_reent+0xcc>
   110d0:	01812403          	lw	s0,24(sp)
   110d4:	01c12083          	lw	ra,28(sp)
   110d8:	00048513          	mv	a0,s1
   110dc:	01412483          	lw	s1,20(sp)
   110e0:	02010113          	addi	sp,sp,32
   110e4:	00078067          	jr	a5
   110e8:	01c12083          	lw	ra,28(sp)
   110ec:	01812403          	lw	s0,24(sp)
   110f0:	01412483          	lw	s1,20(sp)
   110f4:	02010113          	addi	sp,sp,32
   110f8:	00008067          	ret
   110fc:	00008067          	ret

00011100 <_lseek_r>:
   11100:	ff010113          	addi	sp,sp,-16
   11104:	00058713          	mv	a4,a1
   11108:	00812423          	sw	s0,8(sp)
   1110c:	00912223          	sw	s1,4(sp)
   11110:	00060593          	mv	a1,a2
   11114:	00050413          	mv	s0,a0
   11118:	00068613          	mv	a2,a3
   1111c:	00070513          	mv	a0,a4
   11120:	00112623          	sw	ra,12(sp)
   11124:	f201a423          	sw	zero,-216(gp) # 227e8 <errno>
   11128:	29c0a0ef          	jal	1b3c4 <_lseek>
   1112c:	fff00793          	li	a5,-1
   11130:	00f50c63          	beq	a0,a5,11148 <_lseek_r+0x48>
   11134:	00c12083          	lw	ra,12(sp)
   11138:	00812403          	lw	s0,8(sp)
   1113c:	00412483          	lw	s1,4(sp)
   11140:	01010113          	addi	sp,sp,16
   11144:	00008067          	ret
   11148:	f281a783          	lw	a5,-216(gp) # 227e8 <errno>
   1114c:	fe0784e3          	beqz	a5,11134 <_lseek_r+0x34>
   11150:	00c12083          	lw	ra,12(sp)
   11154:	00f42023          	sw	a5,0(s0)
   11158:	00812403          	lw	s0,8(sp)
   1115c:	00412483          	lw	s1,4(sp)
   11160:	01010113          	addi	sp,sp,16
   11164:	00008067          	ret

00011168 <_read_r>:
   11168:	ff010113          	addi	sp,sp,-16
   1116c:	00058713          	mv	a4,a1
   11170:	00812423          	sw	s0,8(sp)
   11174:	00912223          	sw	s1,4(sp)
   11178:	00060593          	mv	a1,a2
   1117c:	00050413          	mv	s0,a0
   11180:	00068613          	mv	a2,a3
   11184:	00070513          	mv	a0,a4
   11188:	00112623          	sw	ra,12(sp)
   1118c:	f201a423          	sw	zero,-216(gp) # 227e8 <errno>
   11190:	2780a0ef          	jal	1b408 <_read>
   11194:	fff00793          	li	a5,-1
   11198:	00f50c63          	beq	a0,a5,111b0 <_read_r+0x48>
   1119c:	00c12083          	lw	ra,12(sp)
   111a0:	00812403          	lw	s0,8(sp)
   111a4:	00412483          	lw	s1,4(sp)
   111a8:	01010113          	addi	sp,sp,16
   111ac:	00008067          	ret
   111b0:	f281a783          	lw	a5,-216(gp) # 227e8 <errno>
   111b4:	fe0784e3          	beqz	a5,1119c <_read_r+0x34>
   111b8:	00c12083          	lw	ra,12(sp)
   111bc:	00f42023          	sw	a5,0(s0)
   111c0:	00812403          	lw	s0,8(sp)
   111c4:	00412483          	lw	s1,4(sp)
   111c8:	01010113          	addi	sp,sp,16
   111cc:	00008067          	ret

000111d0 <_sbrk_r>:
   111d0:	ff010113          	addi	sp,sp,-16
   111d4:	00812423          	sw	s0,8(sp)
   111d8:	00912223          	sw	s1,4(sp)
   111dc:	00050413          	mv	s0,a0
   111e0:	00058513          	mv	a0,a1
   111e4:	00112623          	sw	ra,12(sp)
   111e8:	f201a423          	sw	zero,-216(gp) # 227e8 <errno>
   111ec:	2600a0ef          	jal	1b44c <_sbrk>
   111f0:	fff00793          	li	a5,-1
   111f4:	00f50c63          	beq	a0,a5,1120c <_sbrk_r+0x3c>
   111f8:	00c12083          	lw	ra,12(sp)
   111fc:	00812403          	lw	s0,8(sp)
   11200:	00412483          	lw	s1,4(sp)
   11204:	01010113          	addi	sp,sp,16
   11208:	00008067          	ret
   1120c:	f281a783          	lw	a5,-216(gp) # 227e8 <errno>
   11210:	fe0784e3          	beqz	a5,111f8 <_sbrk_r+0x28>
   11214:	00c12083          	lw	ra,12(sp)
   11218:	00f42023          	sw	a5,0(s0)
   1121c:	00812403          	lw	s0,8(sp)
   11220:	00412483          	lw	s1,4(sp)
   11224:	01010113          	addi	sp,sp,16
   11228:	00008067          	ret

0001122c <_write_r>:
   1122c:	ff010113          	addi	sp,sp,-16
   11230:	00058713          	mv	a4,a1
   11234:	00812423          	sw	s0,8(sp)
   11238:	00912223          	sw	s1,4(sp)
   1123c:	00060593          	mv	a1,a2
   11240:	00050413          	mv	s0,a0
   11244:	00068613          	mv	a2,a3
   11248:	00070513          	mv	a0,a4
   1124c:	00112623          	sw	ra,12(sp)
   11250:	f201a423          	sw	zero,-216(gp) # 227e8 <errno>
   11254:	2700a0ef          	jal	1b4c4 <_write>
   11258:	fff00793          	li	a5,-1
   1125c:	00f50c63          	beq	a0,a5,11274 <_write_r+0x48>
   11260:	00c12083          	lw	ra,12(sp)
   11264:	00812403          	lw	s0,8(sp)
   11268:	00412483          	lw	s1,4(sp)
   1126c:	01010113          	addi	sp,sp,16
   11270:	00008067          	ret
   11274:	f281a783          	lw	a5,-216(gp) # 227e8 <errno>
   11278:	fe0784e3          	beqz	a5,11260 <_write_r+0x34>
   1127c:	00c12083          	lw	ra,12(sp)
   11280:	00f42023          	sw	a5,0(s0)
   11284:	00812403          	lw	s0,8(sp)
   11288:	00412483          	lw	s1,4(sp)
   1128c:	01010113          	addi	sp,sp,16
   11290:	00008067          	ret

00011294 <__libc_init_array>:
   11294:	ff010113          	addi	sp,sp,-16
   11298:	00812423          	sw	s0,8(sp)
   1129c:	000227b7          	lui	a5,0x22
   112a0:	00022437          	lui	s0,0x22
   112a4:	01212023          	sw	s2,0(sp)
   112a8:	0b478793          	addi	a5,a5,180 # 220b4 <__init_array_start>
   112ac:	0b440713          	addi	a4,s0,180 # 220b4 <__init_array_start>
   112b0:	00112623          	sw	ra,12(sp)
   112b4:	00912223          	sw	s1,4(sp)
   112b8:	40e78933          	sub	s2,a5,a4
   112bc:	02e78263          	beq	a5,a4,112e0 <__libc_init_array+0x4c>
   112c0:	40295913          	srai	s2,s2,0x2
   112c4:	0b440413          	addi	s0,s0,180
   112c8:	00000493          	li	s1,0
   112cc:	00042783          	lw	a5,0(s0)
   112d0:	00148493          	addi	s1,s1,1
   112d4:	00440413          	addi	s0,s0,4
   112d8:	000780e7          	jalr	a5
   112dc:	ff24e8e3          	bltu	s1,s2,112cc <__libc_init_array+0x38>
   112e0:	00022437          	lui	s0,0x22
   112e4:	000227b7          	lui	a5,0x22
   112e8:	0bc78793          	addi	a5,a5,188 # 220bc <__do_global_dtors_aux_fini_array_entry>
   112ec:	0b440713          	addi	a4,s0,180 # 220b4 <__init_array_start>
   112f0:	40e78933          	sub	s2,a5,a4
   112f4:	40295913          	srai	s2,s2,0x2
   112f8:	02e78063          	beq	a5,a4,11318 <__libc_init_array+0x84>
   112fc:	0b440413          	addi	s0,s0,180
   11300:	00000493          	li	s1,0
   11304:	00042783          	lw	a5,0(s0)
   11308:	00148493          	addi	s1,s1,1
   1130c:	00440413          	addi	s0,s0,4
   11310:	000780e7          	jalr	a5
   11314:	ff24e8e3          	bltu	s1,s2,11304 <__libc_init_array+0x70>
   11318:	00c12083          	lw	ra,12(sp)
   1131c:	00812403          	lw	s0,8(sp)
   11320:	00412483          	lw	s1,4(sp)
   11324:	00012903          	lw	s2,0(sp)
   11328:	01010113          	addi	sp,sp,16
   1132c:	00008067          	ret

00011330 <memset>:
   11330:	00f00313          	li	t1,15
   11334:	00050713          	mv	a4,a0
   11338:	02c37e63          	bgeu	t1,a2,11374 <memset+0x44>
   1133c:	00f77793          	andi	a5,a4,15
   11340:	0a079063          	bnez	a5,113e0 <memset+0xb0>
   11344:	08059263          	bnez	a1,113c8 <memset+0x98>
   11348:	ff067693          	andi	a3,a2,-16
   1134c:	00f67613          	andi	a2,a2,15
   11350:	00e686b3          	add	a3,a3,a4
   11354:	00b72023          	sw	a1,0(a4)
   11358:	00b72223          	sw	a1,4(a4)
   1135c:	00b72423          	sw	a1,8(a4)
   11360:	00b72623          	sw	a1,12(a4)
   11364:	01070713          	addi	a4,a4,16
   11368:	fed766e3          	bltu	a4,a3,11354 <memset+0x24>
   1136c:	00061463          	bnez	a2,11374 <memset+0x44>
   11370:	00008067          	ret
   11374:	40c306b3          	sub	a3,t1,a2
   11378:	00269693          	slli	a3,a3,0x2
   1137c:	00000297          	auipc	t0,0x0
   11380:	005686b3          	add	a3,a3,t0
   11384:	00c68067          	jr	12(a3)
   11388:	00b70723          	sb	a1,14(a4)
   1138c:	00b706a3          	sb	a1,13(a4)
   11390:	00b70623          	sb	a1,12(a4)
   11394:	00b705a3          	sb	a1,11(a4)
   11398:	00b70523          	sb	a1,10(a4)
   1139c:	00b704a3          	sb	a1,9(a4)
   113a0:	00b70423          	sb	a1,8(a4)
   113a4:	00b703a3          	sb	a1,7(a4)
   113a8:	00b70323          	sb	a1,6(a4)
   113ac:	00b702a3          	sb	a1,5(a4)
   113b0:	00b70223          	sb	a1,4(a4)
   113b4:	00b701a3          	sb	a1,3(a4)
   113b8:	00b70123          	sb	a1,2(a4)
   113bc:	00b700a3          	sb	a1,1(a4)
   113c0:	00b70023          	sb	a1,0(a4)
   113c4:	00008067          	ret
   113c8:	0ff5f593          	zext.b	a1,a1
   113cc:	00859693          	slli	a3,a1,0x8
   113d0:	00d5e5b3          	or	a1,a1,a3
   113d4:	01059693          	slli	a3,a1,0x10
   113d8:	00d5e5b3          	or	a1,a1,a3
   113dc:	f6dff06f          	j	11348 <memset+0x18>
   113e0:	00279693          	slli	a3,a5,0x2
   113e4:	00000297          	auipc	t0,0x0
   113e8:	005686b3          	add	a3,a3,t0
   113ec:	00008293          	mv	t0,ra
   113f0:	fa0680e7          	jalr	-96(a3)
   113f4:	00028093          	mv	ra,t0
   113f8:	ff078793          	addi	a5,a5,-16
   113fc:	40f70733          	sub	a4,a4,a5
   11400:	00f60633          	add	a2,a2,a5
   11404:	f6c378e3          	bgeu	t1,a2,11374 <memset+0x44>
   11408:	f3dff06f          	j	11344 <memset+0x14>

0001140c <__call_exitprocs>:
   1140c:	fd010113          	addi	sp,sp,-48
   11410:	01412c23          	sw	s4,24(sp)
   11414:	03212023          	sw	s2,32(sp)
   11418:	f2c1a903          	lw	s2,-212(gp) # 227ec <__atexit>
   1141c:	02112623          	sw	ra,44(sp)
   11420:	0a090863          	beqz	s2,114d0 <__call_exitprocs+0xc4>
   11424:	01312e23          	sw	s3,28(sp)
   11428:	01512a23          	sw	s5,20(sp)
   1142c:	01612823          	sw	s6,16(sp)
   11430:	01712623          	sw	s7,12(sp)
   11434:	02812423          	sw	s0,40(sp)
   11438:	02912223          	sw	s1,36(sp)
   1143c:	01812423          	sw	s8,8(sp)
   11440:	00050b13          	mv	s6,a0
   11444:	00058b93          	mv	s7,a1
   11448:	fff00993          	li	s3,-1
   1144c:	00100a93          	li	s5,1
   11450:	00492483          	lw	s1,4(s2)
   11454:	fff48413          	addi	s0,s1,-1
   11458:	04044e63          	bltz	s0,114b4 <__call_exitprocs+0xa8>
   1145c:	00249493          	slli	s1,s1,0x2
   11460:	009904b3          	add	s1,s2,s1
   11464:	080b9063          	bnez	s7,114e4 <__call_exitprocs+0xd8>
   11468:	00492783          	lw	a5,4(s2)
   1146c:	0044a683          	lw	a3,4(s1)
   11470:	fff78793          	addi	a5,a5,-1
   11474:	0a878c63          	beq	a5,s0,1152c <__call_exitprocs+0x120>
   11478:	0004a223          	sw	zero,4(s1)
   1147c:	02068663          	beqz	a3,114a8 <__call_exitprocs+0x9c>
   11480:	18892783          	lw	a5,392(s2)
   11484:	008a9733          	sll	a4,s5,s0
   11488:	00492c03          	lw	s8,4(s2)
   1148c:	00f777b3          	and	a5,a4,a5
   11490:	06079663          	bnez	a5,114fc <__call_exitprocs+0xf0>
   11494:	000680e7          	jalr	a3
   11498:	00492703          	lw	a4,4(s2)
   1149c:	f2c1a783          	lw	a5,-212(gp) # 227ec <__atexit>
   114a0:	09871063          	bne	a4,s8,11520 <__call_exitprocs+0x114>
   114a4:	07279e63          	bne	a5,s2,11520 <__call_exitprocs+0x114>
   114a8:	fff40413          	addi	s0,s0,-1
   114ac:	ffc48493          	addi	s1,s1,-4
   114b0:	fb341ae3          	bne	s0,s3,11464 <__call_exitprocs+0x58>
   114b4:	02812403          	lw	s0,40(sp)
   114b8:	02412483          	lw	s1,36(sp)
   114bc:	01c12983          	lw	s3,28(sp)
   114c0:	01412a83          	lw	s5,20(sp)
   114c4:	01012b03          	lw	s6,16(sp)
   114c8:	00c12b83          	lw	s7,12(sp)
   114cc:	00812c03          	lw	s8,8(sp)
   114d0:	02c12083          	lw	ra,44(sp)
   114d4:	02012903          	lw	s2,32(sp)
   114d8:	01812a03          	lw	s4,24(sp)
   114dc:	03010113          	addi	sp,sp,48
   114e0:	00008067          	ret
   114e4:	1044a783          	lw	a5,260(s1)
   114e8:	f97780e3          	beq	a5,s7,11468 <__call_exitprocs+0x5c>
   114ec:	fff40413          	addi	s0,s0,-1
   114f0:	ffc48493          	addi	s1,s1,-4
   114f4:	ff3418e3          	bne	s0,s3,114e4 <__call_exitprocs+0xd8>
   114f8:	fbdff06f          	j	114b4 <__call_exitprocs+0xa8>
   114fc:	18c92783          	lw	a5,396(s2)
   11500:	0844a583          	lw	a1,132(s1)
   11504:	00f77733          	and	a4,a4,a5
   11508:	02071663          	bnez	a4,11534 <__call_exitprocs+0x128>
   1150c:	000b0513          	mv	a0,s6
   11510:	000680e7          	jalr	a3
   11514:	00492703          	lw	a4,4(s2)
   11518:	f2c1a783          	lw	a5,-212(gp) # 227ec <__atexit>
   1151c:	f98704e3          	beq	a4,s8,114a4 <__call_exitprocs+0x98>
   11520:	f8078ae3          	beqz	a5,114b4 <__call_exitprocs+0xa8>
   11524:	00078913          	mv	s2,a5
   11528:	f29ff06f          	j	11450 <__call_exitprocs+0x44>
   1152c:	00892223          	sw	s0,4(s2)
   11530:	f4dff06f          	j	1147c <__call_exitprocs+0x70>
   11534:	00058513          	mv	a0,a1
   11538:	000680e7          	jalr	a3
   1153c:	f5dff06f          	j	11498 <__call_exitprocs+0x8c>

00011540 <atexit>:
   11540:	00050593          	mv	a1,a0
   11544:	00000693          	li	a3,0
   11548:	00000613          	li	a2,0
   1154c:	00000513          	li	a0,0
   11550:	73d0306f          	j	1548c <__register_exitproc>

00011554 <_malloc_trim_r>:
   11554:	fe010113          	addi	sp,sp,-32
   11558:	01312623          	sw	s3,12(sp)
   1155c:	000229b7          	lui	s3,0x22
   11560:	00812c23          	sw	s0,24(sp)
   11564:	00912a23          	sw	s1,20(sp)
   11568:	01212823          	sw	s2,16(sp)
   1156c:	01412423          	sw	s4,8(sp)
   11570:	00112e23          	sw	ra,28(sp)
   11574:	00058a13          	mv	s4,a1
   11578:	00050913          	mv	s2,a0
   1157c:	0c098993          	addi	s3,s3,192 # 220c0 <__malloc_av_>
   11580:	c38ff0ef          	jal	109b8 <__malloc_lock>
   11584:	0089a703          	lw	a4,8(s3)
   11588:	000017b7          	lui	a5,0x1
   1158c:	fef78793          	addi	a5,a5,-17 # fef <exit-0xf0a5>
   11590:	00472483          	lw	s1,4(a4)
   11594:	00001737          	lui	a4,0x1
   11598:	ffc4f493          	andi	s1,s1,-4
   1159c:	00f48433          	add	s0,s1,a5
   115a0:	41440433          	sub	s0,s0,s4
   115a4:	00c45413          	srli	s0,s0,0xc
   115a8:	fff40413          	addi	s0,s0,-1
   115ac:	00c41413          	slli	s0,s0,0xc
   115b0:	00e44e63          	blt	s0,a4,115cc <_malloc_trim_r+0x78>
   115b4:	00000593          	li	a1,0
   115b8:	00090513          	mv	a0,s2
   115bc:	c15ff0ef          	jal	111d0 <_sbrk_r>
   115c0:	0089a783          	lw	a5,8(s3)
   115c4:	009787b3          	add	a5,a5,s1
   115c8:	02f50863          	beq	a0,a5,115f8 <_malloc_trim_r+0xa4>
   115cc:	00090513          	mv	a0,s2
   115d0:	becff0ef          	jal	109bc <__malloc_unlock>
   115d4:	01c12083          	lw	ra,28(sp)
   115d8:	01812403          	lw	s0,24(sp)
   115dc:	01412483          	lw	s1,20(sp)
   115e0:	01012903          	lw	s2,16(sp)
   115e4:	00c12983          	lw	s3,12(sp)
   115e8:	00812a03          	lw	s4,8(sp)
   115ec:	00000513          	li	a0,0
   115f0:	02010113          	addi	sp,sp,32
   115f4:	00008067          	ret
   115f8:	408005b3          	neg	a1,s0
   115fc:	00090513          	mv	a0,s2
   11600:	bd1ff0ef          	jal	111d0 <_sbrk_r>
   11604:	fff00793          	li	a5,-1
   11608:	04f50863          	beq	a0,a5,11658 <_malloc_trim_r+0x104>
   1160c:	f5418793          	addi	a5,gp,-172 # 22814 <__malloc_current_mallinfo>
   11610:	0007a703          	lw	a4,0(a5)
   11614:	0089a683          	lw	a3,8(s3)
   11618:	408484b3          	sub	s1,s1,s0
   1161c:	0014e493          	ori	s1,s1,1
   11620:	40870733          	sub	a4,a4,s0
   11624:	00090513          	mv	a0,s2
   11628:	0096a223          	sw	s1,4(a3)
   1162c:	00e7a023          	sw	a4,0(a5)
   11630:	b8cff0ef          	jal	109bc <__malloc_unlock>
   11634:	01c12083          	lw	ra,28(sp)
   11638:	01812403          	lw	s0,24(sp)
   1163c:	01412483          	lw	s1,20(sp)
   11640:	01012903          	lw	s2,16(sp)
   11644:	00c12983          	lw	s3,12(sp)
   11648:	00812a03          	lw	s4,8(sp)
   1164c:	00100513          	li	a0,1
   11650:	02010113          	addi	sp,sp,32
   11654:	00008067          	ret
   11658:	00000593          	li	a1,0
   1165c:	00090513          	mv	a0,s2
   11660:	b71ff0ef          	jal	111d0 <_sbrk_r>
   11664:	0089a703          	lw	a4,8(s3)
   11668:	00f00693          	li	a3,15
   1166c:	40e507b3          	sub	a5,a0,a4
   11670:	f4f6dee3          	bge	a3,a5,115cc <_malloc_trim_r+0x78>
   11674:	f0c1a683          	lw	a3,-244(gp) # 227cc <__malloc_sbrk_base>
   11678:	0017e793          	ori	a5,a5,1
   1167c:	00f72223          	sw	a5,4(a4) # 1004 <exit-0xf090>
   11680:	40d50533          	sub	a0,a0,a3
   11684:	f4a1aa23          	sw	a0,-172(gp) # 22814 <__malloc_current_mallinfo>
   11688:	f45ff06f          	j	115cc <_malloc_trim_r+0x78>

0001168c <_free_r>:
   1168c:	18058263          	beqz	a1,11810 <_free_r+0x184>
   11690:	ff010113          	addi	sp,sp,-16
   11694:	00812423          	sw	s0,8(sp)
   11698:	00912223          	sw	s1,4(sp)
   1169c:	00058413          	mv	s0,a1
   116a0:	00050493          	mv	s1,a0
   116a4:	00112623          	sw	ra,12(sp)
   116a8:	b10ff0ef          	jal	109b8 <__malloc_lock>
   116ac:	ffc42503          	lw	a0,-4(s0)
   116b0:	ff840713          	addi	a4,s0,-8
   116b4:	000225b7          	lui	a1,0x22
   116b8:	ffe57793          	andi	a5,a0,-2
   116bc:	00f70633          	add	a2,a4,a5
   116c0:	0c058593          	addi	a1,a1,192 # 220c0 <__malloc_av_>
   116c4:	00462683          	lw	a3,4(a2)
   116c8:	0085a803          	lw	a6,8(a1)
   116cc:	ffc6f693          	andi	a3,a3,-4
   116d0:	1ac80263          	beq	a6,a2,11874 <_free_r+0x1e8>
   116d4:	00d62223          	sw	a3,4(a2)
   116d8:	00157513          	andi	a0,a0,1
   116dc:	00d60833          	add	a6,a2,a3
   116e0:	0a051063          	bnez	a0,11780 <_free_r+0xf4>
   116e4:	ff842303          	lw	t1,-8(s0)
   116e8:	00482803          	lw	a6,4(a6)
   116ec:	00022537          	lui	a0,0x22
   116f0:	40670733          	sub	a4,a4,t1
   116f4:	00872883          	lw	a7,8(a4)
   116f8:	0c850513          	addi	a0,a0,200 # 220c8 <__malloc_av_+0x8>
   116fc:	006787b3          	add	a5,a5,t1
   11700:	00187813          	andi	a6,a6,1
   11704:	14a88263          	beq	a7,a0,11848 <_free_r+0x1bc>
   11708:	00c72303          	lw	t1,12(a4)
   1170c:	0068a623          	sw	t1,12(a7)
   11710:	01132423          	sw	a7,8(t1)
   11714:	1a080663          	beqz	a6,118c0 <_free_r+0x234>
   11718:	0017e693          	ori	a3,a5,1
   1171c:	00d72223          	sw	a3,4(a4)
   11720:	00f62023          	sw	a5,0(a2)
   11724:	1ff00693          	li	a3,511
   11728:	06f6ec63          	bltu	a3,a5,117a0 <_free_r+0x114>
   1172c:	ff87f693          	andi	a3,a5,-8
   11730:	00868693          	addi	a3,a3,8
   11734:	0045a503          	lw	a0,4(a1)
   11738:	00d586b3          	add	a3,a1,a3
   1173c:	0006a603          	lw	a2,0(a3)
   11740:	0057d813          	srli	a6,a5,0x5
   11744:	00100793          	li	a5,1
   11748:	010797b3          	sll	a5,a5,a6
   1174c:	00a7e7b3          	or	a5,a5,a0
   11750:	ff868513          	addi	a0,a3,-8
   11754:	00a72623          	sw	a0,12(a4)
   11758:	00c72423          	sw	a2,8(a4)
   1175c:	00f5a223          	sw	a5,4(a1)
   11760:	00e6a023          	sw	a4,0(a3)
   11764:	00e62623          	sw	a4,12(a2)
   11768:	00812403          	lw	s0,8(sp)
   1176c:	00c12083          	lw	ra,12(sp)
   11770:	00048513          	mv	a0,s1
   11774:	00412483          	lw	s1,4(sp)
   11778:	01010113          	addi	sp,sp,16
   1177c:	a40ff06f          	j	109bc <__malloc_unlock>
   11780:	00482503          	lw	a0,4(a6)
   11784:	00157513          	andi	a0,a0,1
   11788:	08050663          	beqz	a0,11814 <_free_r+0x188>
   1178c:	0017e693          	ori	a3,a5,1
   11790:	fed42e23          	sw	a3,-4(s0)
   11794:	00f62023          	sw	a5,0(a2)
   11798:	1ff00693          	li	a3,511
   1179c:	f8f6f8e3          	bgeu	a3,a5,1172c <_free_r+0xa0>
   117a0:	0097d693          	srli	a3,a5,0x9
   117a4:	00400613          	li	a2,4
   117a8:	12d66063          	bltu	a2,a3,118c8 <_free_r+0x23c>
   117ac:	0067d693          	srli	a3,a5,0x6
   117b0:	03968513          	addi	a0,a3,57
   117b4:	03868613          	addi	a2,a3,56
   117b8:	00351513          	slli	a0,a0,0x3
   117bc:	00a58533          	add	a0,a1,a0
   117c0:	00052683          	lw	a3,0(a0)
   117c4:	ff850513          	addi	a0,a0,-8
   117c8:	00d51863          	bne	a0,a3,117d8 <_free_r+0x14c>
   117cc:	1540006f          	j	11920 <_free_r+0x294>
   117d0:	0086a683          	lw	a3,8(a3)
   117d4:	00d50863          	beq	a0,a3,117e4 <_free_r+0x158>
   117d8:	0046a603          	lw	a2,4(a3)
   117dc:	ffc67613          	andi	a2,a2,-4
   117e0:	fec7e8e3          	bltu	a5,a2,117d0 <_free_r+0x144>
   117e4:	00c6a503          	lw	a0,12(a3)
   117e8:	00a72623          	sw	a0,12(a4)
   117ec:	00d72423          	sw	a3,8(a4)
   117f0:	00812403          	lw	s0,8(sp)
   117f4:	00e52423          	sw	a4,8(a0)
   117f8:	00c12083          	lw	ra,12(sp)
   117fc:	00048513          	mv	a0,s1
   11800:	00412483          	lw	s1,4(sp)
   11804:	00e6a623          	sw	a4,12(a3)
   11808:	01010113          	addi	sp,sp,16
   1180c:	9b0ff06f          	j	109bc <__malloc_unlock>
   11810:	00008067          	ret
   11814:	00022537          	lui	a0,0x22
   11818:	00d787b3          	add	a5,a5,a3
   1181c:	0c850513          	addi	a0,a0,200 # 220c8 <__malloc_av_+0x8>
   11820:	00862683          	lw	a3,8(a2)
   11824:	0ca68c63          	beq	a3,a0,118fc <_free_r+0x270>
   11828:	00c62803          	lw	a6,12(a2)
   1182c:	0017e513          	ori	a0,a5,1
   11830:	00f70633          	add	a2,a4,a5
   11834:	0106a623          	sw	a6,12(a3)
   11838:	00d82423          	sw	a3,8(a6)
   1183c:	00a72223          	sw	a0,4(a4)
   11840:	00f62023          	sw	a5,0(a2)
   11844:	ee1ff06f          	j	11724 <_free_r+0x98>
   11848:	12081c63          	bnez	a6,11980 <_free_r+0x2f4>
   1184c:	00862583          	lw	a1,8(a2)
   11850:	00c62603          	lw	a2,12(a2)
   11854:	00f686b3          	add	a3,a3,a5
   11858:	0016e793          	ori	a5,a3,1
   1185c:	00c5a623          	sw	a2,12(a1)
   11860:	00b62423          	sw	a1,8(a2)
   11864:	00f72223          	sw	a5,4(a4)
   11868:	00d70733          	add	a4,a4,a3
   1186c:	00d72023          	sw	a3,0(a4)
   11870:	ef9ff06f          	j	11768 <_free_r+0xdc>
   11874:	00157513          	andi	a0,a0,1
   11878:	00d786b3          	add	a3,a5,a3
   1187c:	02051063          	bnez	a0,1189c <_free_r+0x210>
   11880:	ff842503          	lw	a0,-8(s0)
   11884:	40a70733          	sub	a4,a4,a0
   11888:	00c72783          	lw	a5,12(a4)
   1188c:	00872603          	lw	a2,8(a4)
   11890:	00a686b3          	add	a3,a3,a0
   11894:	00f62623          	sw	a5,12(a2)
   11898:	00c7a423          	sw	a2,8(a5)
   1189c:	0016e613          	ori	a2,a3,1
   118a0:	f101a783          	lw	a5,-240(gp) # 227d0 <__malloc_trim_threshold>
   118a4:	00c72223          	sw	a2,4(a4)
   118a8:	00e5a423          	sw	a4,8(a1)
   118ac:	eaf6eee3          	bltu	a3,a5,11768 <_free_r+0xdc>
   118b0:	f201a583          	lw	a1,-224(gp) # 227e0 <__malloc_top_pad>
   118b4:	00048513          	mv	a0,s1
   118b8:	c9dff0ef          	jal	11554 <_malloc_trim_r>
   118bc:	eadff06f          	j	11768 <_free_r+0xdc>
   118c0:	00d787b3          	add	a5,a5,a3
   118c4:	f5dff06f          	j	11820 <_free_r+0x194>
   118c8:	01400613          	li	a2,20
   118cc:	02d67063          	bgeu	a2,a3,118ec <_free_r+0x260>
   118d0:	05400613          	li	a2,84
   118d4:	06d66463          	bltu	a2,a3,1193c <_free_r+0x2b0>
   118d8:	00c7d693          	srli	a3,a5,0xc
   118dc:	06f68513          	addi	a0,a3,111
   118e0:	06e68613          	addi	a2,a3,110
   118e4:	00351513          	slli	a0,a0,0x3
   118e8:	ed5ff06f          	j	117bc <_free_r+0x130>
   118ec:	05c68513          	addi	a0,a3,92
   118f0:	05b68613          	addi	a2,a3,91
   118f4:	00351513          	slli	a0,a0,0x3
   118f8:	ec5ff06f          	j	117bc <_free_r+0x130>
   118fc:	00e5aa23          	sw	a4,20(a1)
   11900:	00e5a823          	sw	a4,16(a1)
   11904:	0017e693          	ori	a3,a5,1
   11908:	00a72623          	sw	a0,12(a4)
   1190c:	00a72423          	sw	a0,8(a4)
   11910:	00d72223          	sw	a3,4(a4)
   11914:	00f70733          	add	a4,a4,a5
   11918:	00f72023          	sw	a5,0(a4)
   1191c:	e4dff06f          	j	11768 <_free_r+0xdc>
   11920:	0045a803          	lw	a6,4(a1)
   11924:	40265613          	srai	a2,a2,0x2
   11928:	00100793          	li	a5,1
   1192c:	00c797b3          	sll	a5,a5,a2
   11930:	0107e7b3          	or	a5,a5,a6
   11934:	00f5a223          	sw	a5,4(a1)
   11938:	eb1ff06f          	j	117e8 <_free_r+0x15c>
   1193c:	15400613          	li	a2,340
   11940:	00d66c63          	bltu	a2,a3,11958 <_free_r+0x2cc>
   11944:	00f7d693          	srli	a3,a5,0xf
   11948:	07868513          	addi	a0,a3,120
   1194c:	07768613          	addi	a2,a3,119
   11950:	00351513          	slli	a0,a0,0x3
   11954:	e69ff06f          	j	117bc <_free_r+0x130>
   11958:	55400613          	li	a2,1364
   1195c:	00d66c63          	bltu	a2,a3,11974 <_free_r+0x2e8>
   11960:	0127d693          	srli	a3,a5,0x12
   11964:	07d68513          	addi	a0,a3,125
   11968:	07c68613          	addi	a2,a3,124
   1196c:	00351513          	slli	a0,a0,0x3
   11970:	e4dff06f          	j	117bc <_free_r+0x130>
   11974:	3f800513          	li	a0,1016
   11978:	07e00613          	li	a2,126
   1197c:	e41ff06f          	j	117bc <_free_r+0x130>
   11980:	0017e693          	ori	a3,a5,1
   11984:	00d72223          	sw	a3,4(a4)
   11988:	00f62023          	sw	a5,0(a2)
   1198c:	dddff06f          	j	11768 <_free_r+0xdc>

00011990 <_vfprintf_r>:
   11990:	e3010113          	addi	sp,sp,-464
   11994:	1c112623          	sw	ra,460(sp)
   11998:	1c812423          	sw	s0,456(sp)
   1199c:	1c912223          	sw	s1,452(sp)
   119a0:	1b612823          	sw	s6,432(sp)
   119a4:	00058493          	mv	s1,a1
   119a8:	00060b13          	mv	s6,a2
   119ac:	00d12623          	sw	a3,12(sp)
   119b0:	00050413          	mv	s0,a0
   119b4:	02a12223          	sw	a0,36(sp)
   119b8:	5a8030ef          	jal	14f60 <_localeconv_r>
   119bc:	00052703          	lw	a4,0(a0)
   119c0:	00070513          	mv	a0,a4
   119c4:	02e12623          	sw	a4,44(sp)
   119c8:	0b5030ef          	jal	1527c <strlen>
   119cc:	02a12423          	sw	a0,40(sp)
   119d0:	0c012823          	sw	zero,208(sp)
   119d4:	0c012a23          	sw	zero,212(sp)
   119d8:	0c012c23          	sw	zero,216(sp)
   119dc:	0c012e23          	sw	zero,220(sp)
   119e0:	00040863          	beqz	s0,119f0 <_vfprintf_r+0x60>
   119e4:	03442703          	lw	a4,52(s0)
   119e8:	00071463          	bnez	a4,119f0 <_vfprintf_r+0x60>
   119ec:	11d0106f          	j	13308 <_vfprintf_r+0x1978>
   119f0:	00c49683          	lh	a3,12(s1)
   119f4:	0644a703          	lw	a4,100(s1)
   119f8:	01269613          	slli	a2,a3,0x12
   119fc:	02064063          	bltz	a2,11a1c <_vfprintf_r+0x8c>
   11a00:	ffffe637          	lui	a2,0xffffe
   11a04:	fff60613          	addi	a2,a2,-1 # ffffdfff <__BSS_END__+0xfffdb4fb>
   11a08:	000025b7          	lui	a1,0x2
   11a0c:	00b6e6b3          	or	a3,a3,a1
   11a10:	00c77733          	and	a4,a4,a2
   11a14:	00d49623          	sh	a3,12(s1)
   11a18:	06e4a223          	sw	a4,100(s1)
   11a1c:	01271693          	slli	a3,a4,0x12
   11a20:	0006d463          	bgez	a3,11a28 <_vfprintf_r+0x98>
   11a24:	3d80206f          	j	13dfc <_vfprintf_r+0x246c>
   11a28:	00c49703          	lh	a4,12(s1)
   11a2c:	00877693          	andi	a3,a4,8
   11a30:	30068463          	beqz	a3,11d38 <_vfprintf_r+0x3a8>
   11a34:	0104a683          	lw	a3,16(s1)
   11a38:	30068063          	beqz	a3,11d38 <_vfprintf_r+0x3a8>
   11a3c:	01a77713          	andi	a4,a4,26
   11a40:	00a00693          	li	a3,10
   11a44:	30d70c63          	beq	a4,a3,11d5c <_vfprintf_r+0x3cc>
   11a48:	1b312e23          	sw	s3,444(sp)
   11a4c:	1b512a23          	sw	s5,436(sp)
   11a50:	1b712623          	sw	s7,428(sp)
   11a54:	1ba12023          	sw	s10,416(sp)
   11a58:	00021737          	lui	a4,0x21
   11a5c:	1d212023          	sw	s2,448(sp)
   11a60:	1b412c23          	sw	s4,440(sp)
   11a64:	1b812423          	sw	s8,424(sp)
   11a68:	1b912223          	sw	s9,420(sp)
   11a6c:	19b12e23          	sw	s11,412(sp)
   11a70:	000b0d13          	mv	s10,s6
   11a74:	48c70793          	addi	a5,a4,1164 # 2148c <__clzsi2+0x198>
   11a78:	000d4703          	lbu	a4,0(s10)
   11a7c:	0ec10993          	addi	s3,sp,236
   11a80:	00021ab7          	lui	s5,0x21
   11a84:	0d312223          	sw	s3,196(sp)
   11a88:	0c012623          	sw	zero,204(sp)
   11a8c:	0c012423          	sw	zero,200(sp)
   11a90:	00012c23          	sw	zero,24(sp)
   11a94:	02012823          	sw	zero,48(sp)
   11a98:	02012e23          	sw	zero,60(sp)
   11a9c:	02012c23          	sw	zero,56(sp)
   11aa0:	04012023          	sw	zero,64(sp)
   11aa4:	04012223          	sw	zero,68(sp)
   11aa8:	00012223          	sw	zero,4(sp)
   11aac:	00f12823          	sw	a5,16(sp)
   11ab0:	02412b83          	lw	s7,36(sp)
   11ab4:	00098413          	mv	s0,s3
   11ab8:	690a8a93          	addi	s5,s5,1680 # 21690 <zeroes.0>
   11abc:	22070063          	beqz	a4,11cdc <_vfprintf_r+0x34c>
   11ac0:	000d0913          	mv	s2,s10
   11ac4:	02500693          	li	a3,37
   11ac8:	3ed70863          	beq	a4,a3,11eb8 <_vfprintf_r+0x528>
   11acc:	00194703          	lbu	a4,1(s2)
   11ad0:	00190913          	addi	s2,s2,1
   11ad4:	fe071ae3          	bnez	a4,11ac8 <_vfprintf_r+0x138>
   11ad8:	41a90a33          	sub	s4,s2,s10
   11adc:	21a90063          	beq	s2,s10,11cdc <_vfprintf_r+0x34c>
   11ae0:	0cc12683          	lw	a3,204(sp)
   11ae4:	0c812703          	lw	a4,200(sp)
   11ae8:	01a42023          	sw	s10,0(s0)
   11aec:	014686b3          	add	a3,a3,s4
   11af0:	00170713          	addi	a4,a4,1
   11af4:	01442223          	sw	s4,4(s0)
   11af8:	0cd12623          	sw	a3,204(sp)
   11afc:	0ce12423          	sw	a4,200(sp)
   11b00:	00700693          	li	a3,7
   11b04:	00840413          	addi	s0,s0,8
   11b08:	3ce6c063          	blt	a3,a4,11ec8 <_vfprintf_r+0x538>
   11b0c:	00412783          	lw	a5,4(sp)
   11b10:	00094703          	lbu	a4,0(s2)
   11b14:	014787b3          	add	a5,a5,s4
   11b18:	00f12223          	sw	a5,4(sp)
   11b1c:	1c070063          	beqz	a4,11cdc <_vfprintf_r+0x34c>
   11b20:	00194883          	lbu	a7,1(s2)
   11b24:	0a0103a3          	sb	zero,167(sp)
   11b28:	00190913          	addi	s2,s2,1
   11b2c:	fff00a13          	li	s4,-1
   11b30:	00000c93          	li	s9,0
   11b34:	00000d93          	li	s11,0
   11b38:	05a00b13          	li	s6,90
   11b3c:	00190913          	addi	s2,s2,1
   11b40:	fe088793          	addi	a5,a7,-32
   11b44:	04fb6663          	bltu	s6,a5,11b90 <_vfprintf_r+0x200>
   11b48:	01012703          	lw	a4,16(sp)
   11b4c:	00279793          	slli	a5,a5,0x2
   11b50:	00e787b3          	add	a5,a5,a4
   11b54:	0007a783          	lw	a5,0(a5)
   11b58:	00078067          	jr	a5
   11b5c:	00000c93          	li	s9,0
   11b60:	fd088793          	addi	a5,a7,-48
   11b64:	00900693          	li	a3,9
   11b68:	00094883          	lbu	a7,0(s2)
   11b6c:	002c9713          	slli	a4,s9,0x2
   11b70:	01970cb3          	add	s9,a4,s9
   11b74:	001c9c93          	slli	s9,s9,0x1
   11b78:	01978cb3          	add	s9,a5,s9
   11b7c:	fd088793          	addi	a5,a7,-48
   11b80:	00190913          	addi	s2,s2,1
   11b84:	fef6f2e3          	bgeu	a3,a5,11b68 <_vfprintf_r+0x1d8>
   11b88:	fe088793          	addi	a5,a7,-32
   11b8c:	fafb7ee3          	bgeu	s6,a5,11b48 <_vfprintf_r+0x1b8>
   11b90:	14088663          	beqz	a7,11cdc <_vfprintf_r+0x34c>
   11b94:	13110623          	sb	a7,300(sp)
   11b98:	0a0103a3          	sb	zero,167(sp)
   11b9c:	00100c13          	li	s8,1
   11ba0:	00100b13          	li	s6,1
   11ba4:	12c10d13          	addi	s10,sp,300
   11ba8:	00012423          	sw	zero,8(sp)
   11bac:	00000a13          	li	s4,0
   11bb0:	02012023          	sw	zero,32(sp)
   11bb4:	00012e23          	sw	zero,28(sp)
   11bb8:	00012a23          	sw	zero,20(sp)
   11bbc:	002df293          	andi	t0,s11,2
   11bc0:	00028463          	beqz	t0,11bc8 <_vfprintf_r+0x238>
   11bc4:	002c0c13          	addi	s8,s8,2
   11bc8:	084dff93          	andi	t6,s11,132
   11bcc:	0cc12603          	lw	a2,204(sp)
   11bd0:	000f9663          	bnez	t6,11bdc <_vfprintf_r+0x24c>
   11bd4:	418c8733          	sub	a4,s9,s8
   11bd8:	46e04ce3          	bgtz	a4,12850 <_vfprintf_r+0xec0>
   11bdc:	0a714703          	lbu	a4,167(sp)
   11be0:	02070a63          	beqz	a4,11c14 <_vfprintf_r+0x284>
   11be4:	0c812703          	lw	a4,200(sp)
   11be8:	0a710593          	addi	a1,sp,167
   11bec:	00b42023          	sw	a1,0(s0)
   11bf0:	00160613          	addi	a2,a2,1
   11bf4:	00100593          	li	a1,1
   11bf8:	00170713          	addi	a4,a4,1
   11bfc:	00b42223          	sw	a1,4(s0)
   11c00:	0cc12623          	sw	a2,204(sp)
   11c04:	0ce12423          	sw	a4,200(sp)
   11c08:	00700593          	li	a1,7
   11c0c:	00840413          	addi	s0,s0,8
   11c10:	3ee5c463          	blt	a1,a4,11ff8 <_vfprintf_r+0x668>
   11c14:	02028a63          	beqz	t0,11c48 <_vfprintf_r+0x2b8>
   11c18:	0c812703          	lw	a4,200(sp)
   11c1c:	00200593          	li	a1,2
   11c20:	00260613          	addi	a2,a2,2
   11c24:	00170713          	addi	a4,a4,1
   11c28:	0a810793          	addi	a5,sp,168
   11c2c:	00b42223          	sw	a1,4(s0)
   11c30:	00f42023          	sw	a5,0(s0)
   11c34:	0cc12623          	sw	a2,204(sp)
   11c38:	0ce12423          	sw	a4,200(sp)
   11c3c:	00700593          	li	a1,7
   11c40:	00840413          	addi	s0,s0,8
   11c44:	50e5cce3          	blt	a1,a4,1295c <_vfprintf_r+0xfcc>
   11c48:	08000713          	li	a4,128
   11c4c:	1eef8ee3          	beq	t6,a4,12648 <_vfprintf_r+0xcb8>
   11c50:	416a0a33          	sub	s4,s4,s6
   11c54:	2f4044e3          	bgtz	s4,1273c <_vfprintf_r+0xdac>
   11c58:	100df713          	andi	a4,s11,256
   11c5c:	040718e3          	bnez	a4,124ac <_vfprintf_r+0xb1c>
   11c60:	0c812783          	lw	a5,200(sp)
   11c64:	01660633          	add	a2,a2,s6
   11c68:	01a42023          	sw	s10,0(s0)
   11c6c:	00178793          	addi	a5,a5,1
   11c70:	01642223          	sw	s6,4(s0)
   11c74:	0cc12623          	sw	a2,204(sp)
   11c78:	0cf12423          	sw	a5,200(sp)
   11c7c:	00700713          	li	a4,7
   11c80:	4cf74063          	blt	a4,a5,12140 <_vfprintf_r+0x7b0>
   11c84:	00840413          	addi	s0,s0,8
   11c88:	004dfe13          	andi	t3,s11,4
   11c8c:	000e0663          	beqz	t3,11c98 <_vfprintf_r+0x308>
   11c90:	418c8a33          	sub	s4,s9,s8
   11c94:	4f404ce3          	bgtz	s4,1298c <_vfprintf_r+0xffc>
   11c98:	000c8313          	mv	t1,s9
   11c9c:	018cd463          	bge	s9,s8,11ca4 <_vfprintf_r+0x314>
   11ca0:	000c0313          	mv	t1,s8
   11ca4:	00412783          	lw	a5,4(sp)
   11ca8:	006787b3          	add	a5,a5,t1
   11cac:	00f12223          	sw	a5,4(sp)
   11cb0:	360618e3          	bnez	a2,12820 <_vfprintf_r+0xe90>
   11cb4:	00812783          	lw	a5,8(sp)
   11cb8:	0c012423          	sw	zero,200(sp)
   11cbc:	00078863          	beqz	a5,11ccc <_vfprintf_r+0x33c>
   11cc0:	00812583          	lw	a1,8(sp)
   11cc4:	000b8513          	mv	a0,s7
   11cc8:	9c5ff0ef          	jal	1168c <_free_r>
   11ccc:	00098413          	mv	s0,s3
   11cd0:	00090d13          	mv	s10,s2
   11cd4:	000d4703          	lbu	a4,0(s10)
   11cd8:	de0714e3          	bnez	a4,11ac0 <_vfprintf_r+0x130>
   11cdc:	0cc12783          	lw	a5,204(sp)
   11ce0:	00078463          	beqz	a5,11ce8 <_vfprintf_r+0x358>
   11ce4:	3890106f          	j	1386c <_vfprintf_r+0x1edc>
   11ce8:	00c4d783          	lhu	a5,12(s1)
   11cec:	1c012903          	lw	s2,448(sp)
   11cf0:	1bc12983          	lw	s3,444(sp)
   11cf4:	0407f793          	andi	a5,a5,64
   11cf8:	1b812a03          	lw	s4,440(sp)
   11cfc:	1b412a83          	lw	s5,436(sp)
   11d00:	1ac12b83          	lw	s7,428(sp)
   11d04:	1a812c03          	lw	s8,424(sp)
   11d08:	1a412c83          	lw	s9,420(sp)
   11d0c:	1a012d03          	lw	s10,416(sp)
   11d10:	19c12d83          	lw	s11,412(sp)
   11d14:	00078463          	beqz	a5,11d1c <_vfprintf_r+0x38c>
   11d18:	0e40206f          	j	13dfc <_vfprintf_r+0x246c>
   11d1c:	1cc12083          	lw	ra,460(sp)
   11d20:	1c812403          	lw	s0,456(sp)
   11d24:	00412503          	lw	a0,4(sp)
   11d28:	1c412483          	lw	s1,452(sp)
   11d2c:	1b012b03          	lw	s6,432(sp)
   11d30:	1d010113          	addi	sp,sp,464
   11d34:	00008067          	ret
   11d38:	02412503          	lw	a0,36(sp)
   11d3c:	00048593          	mv	a1,s1
   11d40:	769020ef          	jal	14ca8 <__swsetup_r>
   11d44:	00050463          	beqz	a0,11d4c <_vfprintf_r+0x3bc>
   11d48:	0b40206f          	j	13dfc <_vfprintf_r+0x246c>
   11d4c:	00c49703          	lh	a4,12(s1)
   11d50:	00a00693          	li	a3,10
   11d54:	01a77713          	andi	a4,a4,26
   11d58:	ced718e3          	bne	a4,a3,11a48 <_vfprintf_r+0xb8>
   11d5c:	00e49703          	lh	a4,14(s1)
   11d60:	ce0744e3          	bltz	a4,11a48 <_vfprintf_r+0xb8>
   11d64:	00c12683          	lw	a3,12(sp)
   11d68:	02412503          	lw	a0,36(sp)
   11d6c:	000b0613          	mv	a2,s6
   11d70:	00048593          	mv	a1,s1
   11d74:	4cc020ef          	jal	14240 <__sbprintf>
   11d78:	00a12223          	sw	a0,4(sp)
   11d7c:	fa1ff06f          	j	11d1c <_vfprintf_r+0x38c>
   11d80:	000b8513          	mv	a0,s7
   11d84:	1dc030ef          	jal	14f60 <_localeconv_r>
   11d88:	00452783          	lw	a5,4(a0)
   11d8c:	00078513          	mv	a0,a5
   11d90:	04f12223          	sw	a5,68(sp)
   11d94:	4e8030ef          	jal	1527c <strlen>
   11d98:	00050793          	mv	a5,a0
   11d9c:	000b8513          	mv	a0,s7
   11da0:	00078c13          	mv	s8,a5
   11da4:	04f12023          	sw	a5,64(sp)
   11da8:	1b8030ef          	jal	14f60 <_localeconv_r>
   11dac:	00852703          	lw	a4,8(a0)
   11db0:	02e12c23          	sw	a4,56(sp)
   11db4:	720c1ee3          	bnez	s8,12cf0 <_vfprintf_r+0x1360>
   11db8:	00094883          	lbu	a7,0(s2)
   11dbc:	d81ff06f          	j	11b3c <_vfprintf_r+0x1ac>
   11dc0:	00094883          	lbu	a7,0(s2)
   11dc4:	020ded93          	ori	s11,s11,32
   11dc8:	d75ff06f          	j	11b3c <_vfprintf_r+0x1ac>
   11dcc:	010ded93          	ori	s11,s11,16
   11dd0:	020df793          	andi	a5,s11,32
   11dd4:	38078663          	beqz	a5,12160 <_vfprintf_r+0x7d0>
   11dd8:	00c12783          	lw	a5,12(sp)
   11ddc:	00778c13          	addi	s8,a5,7
   11de0:	ff8c7c13          	andi	s8,s8,-8
   11de4:	004c2783          	lw	a5,4(s8)
   11de8:	000c2b03          	lw	s6,0(s8)
   11dec:	008c0713          	addi	a4,s8,8
   11df0:	00e12623          	sw	a4,12(sp)
   11df4:	00078813          	mv	a6,a5
   11df8:	3807ce63          	bltz	a5,12194 <_vfprintf_r+0x804>
   11dfc:	000d8613          	mv	a2,s11
   11e00:	4e0a4e63          	bltz	s4,122fc <_vfprintf_r+0x96c>
   11e04:	010b67b3          	or	a5,s6,a6
   11e08:	f7fdf613          	andi	a2,s11,-129
   11e0c:	4e079863          	bnez	a5,122fc <_vfprintf_r+0x96c>
   11e10:	4e0a1c63          	bnez	s4,12308 <_vfprintf_r+0x978>
   11e14:	00000b13          	li	s6,0
   11e18:	00060d93          	mv	s11,a2
   11e1c:	19010d13          	addi	s10,sp,400
   11e20:	0a714703          	lbu	a4,167(sp)
   11e24:	000a0c13          	mv	s8,s4
   11e28:	016a5463          	bge	s4,s6,11e30 <_vfprintf_r+0x4a0>
   11e2c:	000b0c13          	mv	s8,s6
   11e30:	00012423          	sw	zero,8(sp)
   11e34:	02012023          	sw	zero,32(sp)
   11e38:	00012e23          	sw	zero,28(sp)
   11e3c:	00012a23          	sw	zero,20(sp)
   11e40:	d6070ee3          	beqz	a4,11bbc <_vfprintf_r+0x22c>
   11e44:	001c0c13          	addi	s8,s8,1
   11e48:	d75ff06f          	j	11bbc <_vfprintf_r+0x22c>
   11e4c:	010ded93          	ori	s11,s11,16
   11e50:	020df793          	andi	a5,s11,32
   11e54:	3c078863          	beqz	a5,12224 <_vfprintf_r+0x894>
   11e58:	00c12783          	lw	a5,12(sp)
   11e5c:	00778c13          	addi	s8,a5,7
   11e60:	ff8c7c13          	andi	s8,s8,-8
   11e64:	000c2b03          	lw	s6,0(s8)
   11e68:	004c2803          	lw	a6,4(s8)
   11e6c:	008c0793          	addi	a5,s8,8
   11e70:	00f12623          	sw	a5,12(sp)
   11e74:	bffdf613          	andi	a2,s11,-1025
   11e78:	00000793          	li	a5,0
   11e7c:	00000693          	li	a3,0
   11e80:	0ad103a3          	sb	a3,167(sp)
   11e84:	320a4a63          	bltz	s4,121b8 <_vfprintf_r+0x828>
   11e88:	010b66b3          	or	a3,s6,a6
   11e8c:	f7f67d93          	andi	s11,a2,-129
   11e90:	1a069ce3          	bnez	a3,12848 <_vfprintf_r+0xeb8>
   11e94:	740a1c63          	bnez	s4,125ec <_vfprintf_r+0xc5c>
   11e98:	5e0796e3          	bnez	a5,12c84 <_vfprintf_r+0x12f4>
   11e9c:	00167b13          	andi	s6,a2,1
   11ea0:	19010d13          	addi	s10,sp,400
   11ea4:	f60b0ee3          	beqz	s6,11e20 <_vfprintf_r+0x490>
   11ea8:	03000793          	li	a5,48
   11eac:	18f107a3          	sb	a5,399(sp)
   11eb0:	18f10d13          	addi	s10,sp,399
   11eb4:	f6dff06f          	j	11e20 <_vfprintf_r+0x490>
   11eb8:	41a90a33          	sub	s4,s2,s10
   11ebc:	c3a912e3          	bne	s2,s10,11ae0 <_vfprintf_r+0x150>
   11ec0:	00094703          	lbu	a4,0(s2)
   11ec4:	c59ff06f          	j	11b1c <_vfprintf_r+0x18c>
   11ec8:	0c410613          	addi	a2,sp,196
   11ecc:	00048593          	mv	a1,s1
   11ed0:	000b8513          	mv	a0,s7
   11ed4:	438020ef          	jal	1430c <__sprint_r>
   11ed8:	e00518e3          	bnez	a0,11ce8 <_vfprintf_r+0x358>
   11edc:	00098413          	mv	s0,s3
   11ee0:	c2dff06f          	j	11b0c <_vfprintf_r+0x17c>
   11ee4:	008df713          	andi	a4,s11,8
   11ee8:	64071ce3          	bnez	a4,12d40 <_vfprintf_r+0x13b0>
   11eec:	00c12783          	lw	a5,12(sp)
   11ef0:	09010513          	addi	a0,sp,144
   11ef4:	01112423          	sw	a7,8(sp)
   11ef8:	00778c13          	addi	s8,a5,7
   11efc:	ff8c7c13          	andi	s8,s8,-8
   11f00:	000c2583          	lw	a1,0(s8)
   11f04:	004c2603          	lw	a2,4(s8)
   11f08:	008c0793          	addi	a5,s8,8
   11f0c:	00f12623          	sw	a5,12(sp)
   11f10:	1040f0ef          	jal	21014 <__extenddftf2>
   11f14:	09012583          	lw	a1,144(sp)
   11f18:	09412603          	lw	a2,148(sp)
   11f1c:	09812683          	lw	a3,152(sp)
   11f20:	09c12703          	lw	a4,156(sp)
   11f24:	00812883          	lw	a7,8(sp)
   11f28:	0d010513          	addi	a0,sp,208
   11f2c:	01112423          	sw	a7,8(sp)
   11f30:	0ce12e23          	sw	a4,220(sp)
   11f34:	0cb12823          	sw	a1,208(sp)
   11f38:	0cc12a23          	sw	a2,212(sp)
   11f3c:	0cd12c23          	sw	a3,216(sp)
   11f40:	089030ef          	jal	157c8 <_ldcheck>
   11f44:	0aa12623          	sw	a0,172(sp)
   11f48:	00200713          	li	a4,2
   11f4c:	00812883          	lw	a7,8(sp)
   11f50:	00e51463          	bne	a0,a4,11f58 <_vfprintf_r+0x5c8>
   11f54:	4100106f          	j	13364 <_vfprintf_r+0x19d4>
   11f58:	00100713          	li	a4,1
   11f5c:	00e51463          	bne	a0,a4,11f64 <_vfprintf_r+0x5d4>
   11f60:	5640106f          	j	134c4 <_vfprintf_r+0x1b34>
   11f64:	06100713          	li	a4,97
   11f68:	00e89463          	bne	a7,a4,11f70 <_vfprintf_r+0x5e0>
   11f6c:	7b10006f          	j	12f1c <_vfprintf_r+0x158c>
   11f70:	04100713          	li	a4,65
   11f74:	05800793          	li	a5,88
   11f78:	00e89463          	bne	a7,a4,11f80 <_vfprintf_r+0x5f0>
   11f7c:	7a50006f          	j	12f20 <_vfprintf_r+0x1590>
   11f80:	fff00713          	li	a4,-1
   11f84:	00ea1463          	bne	s4,a4,11f8c <_vfprintf_r+0x5fc>
   11f88:	0f40206f          	j	1407c <_vfprintf_r+0x26ec>
   11f8c:	fdf8f713          	andi	a4,a7,-33
   11f90:	04700693          	li	a3,71
   11f94:	00012423          	sw	zero,8(sp)
   11f98:	00d71663          	bne	a4,a3,11fa4 <_vfprintf_r+0x614>
   11f9c:	000a1463          	bnez	s4,11fa4 <_vfprintf_r+0x614>
   11fa0:	00100a13          	li	s4,1
   11fa4:	0dc12c03          	lw	s8,220(sp)
   11fa8:	100de793          	ori	a5,s11,256
   11fac:	04f12423          	sw	a5,72(sp)
   11fb0:	02012a23          	sw	zero,52(sp)
   11fb4:	0d012f83          	lw	t6,208(sp)
   11fb8:	0d412f03          	lw	t5,212(sp)
   11fbc:	0d812e83          	lw	t4,216(sp)
   11fc0:	000c5a63          	bgez	s8,11fd4 <_vfprintf_r+0x644>
   11fc4:	80000737          	lui	a4,0x80000
   11fc8:	02d00793          	li	a5,45
   11fcc:	01874c33          	xor	s8,a4,s8
   11fd0:	02f12a23          	sw	a5,52(sp)
   11fd4:	fbf88713          	addi	a4,a7,-65
   11fd8:	02500693          	li	a3,37
   11fdc:	78e6e6e3          	bltu	a3,a4,12f68 <_vfprintf_r+0x15d8>
   11fe0:	000216b7          	lui	a3,0x21
   11fe4:	00271713          	slli	a4,a4,0x2
   11fe8:	5f868693          	addi	a3,a3,1528 # 215f8 <__clzsi2+0x304>
   11fec:	00d70733          	add	a4,a4,a3
   11ff0:	00072703          	lw	a4,0(a4) # 80000000 <__BSS_END__+0x7ffdd4fc>
   11ff4:	00070067          	jr	a4
   11ff8:	0c410613          	addi	a2,sp,196
   11ffc:	00048593          	mv	a1,s1
   12000:	000b8513          	mv	a0,s7
   12004:	05112623          	sw	a7,76(sp)
   12008:	05f12423          	sw	t6,72(sp)
   1200c:	02512a23          	sw	t0,52(sp)
   12010:	2fc020ef          	jal	1430c <__sprint_r>
   12014:	020510e3          	bnez	a0,12834 <_vfprintf_r+0xea4>
   12018:	0cc12603          	lw	a2,204(sp)
   1201c:	04c12883          	lw	a7,76(sp)
   12020:	04812f83          	lw	t6,72(sp)
   12024:	03412283          	lw	t0,52(sp)
   12028:	00098413          	mv	s0,s3
   1202c:	be9ff06f          	j	11c14 <_vfprintf_r+0x284>
   12030:	0c812a03          	lw	s4,200(sp)
   12034:	01812783          	lw	a5,24(sp)
   12038:	00100713          	li	a4,1
   1203c:	01a42023          	sw	s10,0(s0)
   12040:	00160613          	addi	a2,a2,1
   12044:	001a0a13          	addi	s4,s4,1
   12048:	00840b13          	addi	s6,s0,8
   1204c:	34f752e3          	bge	a4,a5,12b90 <_vfprintf_r+0x1200>
   12050:	00100713          	li	a4,1
   12054:	00e42223          	sw	a4,4(s0)
   12058:	0cc12623          	sw	a2,204(sp)
   1205c:	0d412423          	sw	s4,200(sp)
   12060:	00700713          	li	a4,7
   12064:	01475463          	bge	a4,s4,1206c <_vfprintf_r+0x6dc>
   12068:	0fc0106f          	j	13164 <_vfprintf_r+0x17d4>
   1206c:	02812783          	lw	a5,40(sp)
   12070:	02c12703          	lw	a4,44(sp)
   12074:	001a0a13          	addi	s4,s4,1
   12078:	00f60633          	add	a2,a2,a5
   1207c:	00eb2023          	sw	a4,0(s6)
   12080:	00fb2223          	sw	a5,4(s6)
   12084:	0cc12623          	sw	a2,204(sp)
   12088:	0d412423          	sw	s4,200(sp)
   1208c:	00700713          	li	a4,7
   12090:	008b0b13          	addi	s6,s6,8
   12094:	01475463          	bge	a4,s4,1209c <_vfprintf_r+0x70c>
   12098:	0f00106f          	j	13188 <_vfprintf_r+0x17f8>
   1209c:	0d012703          	lw	a4,208(sp)
   120a0:	01812783          	lw	a5,24(sp)
   120a4:	08010593          	addi	a1,sp,128
   120a8:	08e12823          	sw	a4,144(sp)
   120ac:	0d412703          	lw	a4,212(sp)
   120b0:	09010513          	addi	a0,sp,144
   120b4:	00c12a23          	sw	a2,20(sp)
   120b8:	08e12a23          	sw	a4,148(sp)
   120bc:	0d812703          	lw	a4,216(sp)
   120c0:	08012023          	sw	zero,128(sp)
   120c4:	08012223          	sw	zero,132(sp)
   120c8:	08e12c23          	sw	a4,152(sp)
   120cc:	0dc12703          	lw	a4,220(sp)
   120d0:	08012423          	sw	zero,136(sp)
   120d4:	08012623          	sw	zero,140(sp)
   120d8:	08e12e23          	sw	a4,156(sp)
   120dc:	fff78413          	addi	s0,a5,-1
   120e0:	09c0c0ef          	jal	1e17c <__eqtf2>
   120e4:	01412603          	lw	a2,20(sp)
   120e8:	2e0504e3          	beqz	a0,12bd0 <_vfprintf_r+0x1240>
   120ec:	001d0793          	addi	a5,s10,1
   120f0:	001a0a13          	addi	s4,s4,1
   120f4:	00860633          	add	a2,a2,s0
   120f8:	00fb2023          	sw	a5,0(s6)
   120fc:	008b2223          	sw	s0,4(s6)
   12100:	0cc12623          	sw	a2,204(sp)
   12104:	0d412423          	sw	s4,200(sp)
   12108:	00700793          	li	a5,7
   1210c:	008b0b13          	addi	s6,s6,8
   12110:	2947cee3          	blt	a5,s4,12bac <_vfprintf_r+0x121c>
   12114:	03c12683          	lw	a3,60(sp)
   12118:	0b410713          	addi	a4,sp,180
   1211c:	001a0793          	addi	a5,s4,1
   12120:	00c68633          	add	a2,a3,a2
   12124:	00eb2023          	sw	a4,0(s6)
   12128:	00db2223          	sw	a3,4(s6)
   1212c:	0cc12623          	sw	a2,204(sp)
   12130:	0cf12423          	sw	a5,200(sp)
   12134:	00700713          	li	a4,7
   12138:	008b0413          	addi	s0,s6,8
   1213c:	b4f756e3          	bge	a4,a5,11c88 <_vfprintf_r+0x2f8>
   12140:	0c410613          	addi	a2,sp,196
   12144:	00048593          	mv	a1,s1
   12148:	000b8513          	mv	a0,s7
   1214c:	1c0020ef          	jal	1430c <__sprint_r>
   12150:	6e051263          	bnez	a0,12834 <_vfprintf_r+0xea4>
   12154:	0cc12603          	lw	a2,204(sp)
   12158:	00098413          	mv	s0,s3
   1215c:	b2dff06f          	j	11c88 <_vfprintf_r+0x2f8>
   12160:	00c12683          	lw	a3,12(sp)
   12164:	010df793          	andi	a5,s11,16
   12168:	0006a703          	lw	a4,0(a3)
   1216c:	00468693          	addi	a3,a3,4
   12170:	00d12623          	sw	a3,12(sp)
   12174:	360796e3          	bnez	a5,12ce0 <_vfprintf_r+0x1350>
   12178:	040df793          	andi	a5,s11,64
   1217c:	34078ee3          	beqz	a5,12cd8 <_vfprintf_r+0x1348>
   12180:	01071b13          	slli	s6,a4,0x10
   12184:	410b5b13          	srai	s6,s6,0x10
   12188:	41fb5813          	srai	a6,s6,0x1f
   1218c:	00080793          	mv	a5,a6
   12190:	c607d6e3          	bgez	a5,11dfc <_vfprintf_r+0x46c>
   12194:	02d00693          	li	a3,45
   12198:	016037b3          	snez	a5,s6
   1219c:	41000833          	neg	a6,a6
   121a0:	0ad103a3          	sb	a3,167(sp)
   121a4:	40f80833          	sub	a6,a6,a5
   121a8:	41600b33          	neg	s6,s6
   121ac:	000d8613          	mv	a2,s11
   121b0:	00100793          	li	a5,1
   121b4:	cc0a5ae3          	bgez	s4,11e88 <_vfprintf_r+0x4f8>
   121b8:	00100693          	li	a3,1
   121bc:	14d78063          	beq	a5,a3,122fc <_vfprintf_r+0x96c>
   121c0:	00200693          	li	a3,2
   121c4:	44d78063          	beq	a5,a3,12604 <_vfprintf_r+0xc74>
   121c8:	19010d13          	addi	s10,sp,400
   121cc:	01d81793          	slli	a5,a6,0x1d
   121d0:	007b7693          	andi	a3,s6,7
   121d4:	003b5b13          	srli	s6,s6,0x3
   121d8:	03068693          	addi	a3,a3,48
   121dc:	0167eb33          	or	s6,a5,s6
   121e0:	00385813          	srli	a6,a6,0x3
   121e4:	fedd0fa3          	sb	a3,-1(s10)
   121e8:	010b67b3          	or	a5,s6,a6
   121ec:	000d0513          	mv	a0,s10
   121f0:	fffd0d13          	addi	s10,s10,-1
   121f4:	fc079ce3          	bnez	a5,121cc <_vfprintf_r+0x83c>
   121f8:	00167713          	andi	a4,a2,1
   121fc:	42070e63          	beqz	a4,12638 <_vfprintf_r+0xca8>
   12200:	03000713          	li	a4,48
   12204:	42e68a63          	beq	a3,a4,12638 <_vfprintf_r+0xca8>
   12208:	ffe50513          	addi	a0,a0,-2
   1220c:	19010793          	addi	a5,sp,400
   12210:	feed0fa3          	sb	a4,-1(s10)
   12214:	40a78b33          	sub	s6,a5,a0
   12218:	00060d93          	mv	s11,a2
   1221c:	00050d13          	mv	s10,a0
   12220:	c01ff06f          	j	11e20 <_vfprintf_r+0x490>
   12224:	00c12683          	lw	a3,12(sp)
   12228:	010df793          	andi	a5,s11,16
   1222c:	0006a703          	lw	a4,0(a3)
   12230:	00468693          	addi	a3,a3,4
   12234:	00d12623          	sw	a3,12(sp)
   12238:	28079ae3          	bnez	a5,12ccc <_vfprintf_r+0x133c>
   1223c:	040df793          	andi	a5,s11,64
   12240:	280782e3          	beqz	a5,12cc4 <_vfprintf_r+0x1334>
   12244:	01071b13          	slli	s6,a4,0x10
   12248:	010b5b13          	srli	s6,s6,0x10
   1224c:	00000813          	li	a6,0
   12250:	c25ff06f          	j	11e74 <_vfprintf_r+0x4e4>
   12254:	00c12703          	lw	a4,12(sp)
   12258:	0a0103a3          	sb	zero,167(sp)
   1225c:	00100c13          	li	s8,1
   12260:	00072783          	lw	a5,0(a4)
   12264:	00470713          	addi	a4,a4,4
   12268:	00e12623          	sw	a4,12(sp)
   1226c:	12f10623          	sb	a5,300(sp)
   12270:	00100b13          	li	s6,1
   12274:	12c10d13          	addi	s10,sp,300
   12278:	931ff06f          	j	11ba8 <_vfprintf_r+0x218>
   1227c:	00c12783          	lw	a5,12(sp)
   12280:	0a0103a3          	sb	zero,167(sp)
   12284:	0007ad03          	lw	s10,0(a5)
   12288:	00478813          	addi	a6,a5,4
   1228c:	3a0d02e3          	beqz	s10,12e30 <_vfprintf_r+0x14a0>
   12290:	000a5463          	bgez	s4,12298 <_vfprintf_r+0x908>
   12294:	1c80106f          	j	1345c <_vfprintf_r+0x1acc>
   12298:	000a0613          	mv	a2,s4
   1229c:	00000593          	li	a1,0
   122a0:	000d0513          	mv	a0,s10
   122a4:	01012a23          	sw	a6,20(sp)
   122a8:	01112623          	sw	a7,12(sp)
   122ac:	33d020ef          	jal	14de8 <memchr>
   122b0:	00a12423          	sw	a0,8(sp)
   122b4:	00c12883          	lw	a7,12(sp)
   122b8:	01412803          	lw	a6,20(sp)
   122bc:	00051463          	bnez	a0,122c4 <_vfprintf_r+0x934>
   122c0:	3590106f          	j	13e18 <_vfprintf_r+0x2488>
   122c4:	00812783          	lw	a5,8(sp)
   122c8:	0a714703          	lbu	a4,167(sp)
   122cc:	01012623          	sw	a6,12(sp)
   122d0:	41a78b33          	sub	s6,a5,s10
   122d4:	fffb4693          	not	a3,s6
   122d8:	41f6d693          	srai	a3,a3,0x1f
   122dc:	00012423          	sw	zero,8(sp)
   122e0:	02012023          	sw	zero,32(sp)
   122e4:	00012e23          	sw	zero,28(sp)
   122e8:	00012a23          	sw	zero,20(sp)
   122ec:	00db7c33          	and	s8,s6,a3
   122f0:	00000a13          	li	s4,0
   122f4:	b40718e3          	bnez	a4,11e44 <_vfprintf_r+0x4b4>
   122f8:	8c5ff06f          	j	11bbc <_vfprintf_r+0x22c>
   122fc:	6c0812e3          	bnez	a6,131c0 <_vfprintf_r+0x1830>
   12300:	00900793          	li	a5,9
   12304:	6b67eee3          	bltu	a5,s6,131c0 <_vfprintf_r+0x1830>
   12308:	030b0713          	addi	a4,s6,48
   1230c:	18e107a3          	sb	a4,399(sp)
   12310:	00060d93          	mv	s11,a2
   12314:	00100b13          	li	s6,1
   12318:	18f10d13          	addi	s10,sp,399
   1231c:	b05ff06f          	j	11e20 <_vfprintf_r+0x490>
   12320:	00c12783          	lw	a5,12(sp)
   12324:	0007ac83          	lw	s9,0(a5)
   12328:	00478793          	addi	a5,a5,4
   1232c:	160cdae3          	bgez	s9,12ca0 <_vfprintf_r+0x1310>
   12330:	41900cb3          	neg	s9,s9
   12334:	00f12623          	sw	a5,12(sp)
   12338:	00094883          	lbu	a7,0(s2)
   1233c:	004ded93          	ori	s11,s11,4
   12340:	ffcff06f          	j	11b3c <_vfprintf_r+0x1ac>
   12344:	02b00793          	li	a5,43
   12348:	00094883          	lbu	a7,0(s2)
   1234c:	0af103a3          	sb	a5,167(sp)
   12350:	fecff06f          	j	11b3c <_vfprintf_r+0x1ac>
   12354:	00094883          	lbu	a7,0(s2)
   12358:	080ded93          	ori	s11,s11,128
   1235c:	fe0ff06f          	j	11b3c <_vfprintf_r+0x1ac>
   12360:	00094883          	lbu	a7,0(s2)
   12364:	02a00793          	li	a5,42
   12368:	00190693          	addi	a3,s2,1
   1236c:	00f89463          	bne	a7,a5,12374 <_vfprintf_r+0x9e4>
   12370:	66d0106f          	j	141dc <_vfprintf_r+0x284c>
   12374:	fd088793          	addi	a5,a7,-48
   12378:	00900713          	li	a4,9
   1237c:	00000a13          	li	s4,0
   12380:	00900613          	li	a2,9
   12384:	02f76463          	bltu	a4,a5,123ac <_vfprintf_r+0xa1c>
   12388:	0006c883          	lbu	a7,0(a3)
   1238c:	002a1713          	slli	a4,s4,0x2
   12390:	01470a33          	add	s4,a4,s4
   12394:	001a1a13          	slli	s4,s4,0x1
   12398:	00fa0a33          	add	s4,s4,a5
   1239c:	fd088793          	addi	a5,a7,-48
   123a0:	00168693          	addi	a3,a3,1
   123a4:	fef672e3          	bgeu	a2,a5,12388 <_vfprintf_r+0x9f8>
   123a8:	1c0a44e3          	bltz	s4,12d70 <_vfprintf_r+0x13e0>
   123ac:	00068913          	mv	s2,a3
   123b0:	f90ff06f          	j	11b40 <_vfprintf_r+0x1b0>
   123b4:	00094883          	lbu	a7,0(s2)
   123b8:	001ded93          	ori	s11,s11,1
   123bc:	f80ff06f          	j	11b3c <_vfprintf_r+0x1ac>
   123c0:	0a714783          	lbu	a5,167(sp)
   123c4:	00094883          	lbu	a7,0(s2)
   123c8:	f6079a63          	bnez	a5,11b3c <_vfprintf_r+0x1ac>
   123cc:	02000793          	li	a5,32
   123d0:	0af103a3          	sb	a5,167(sp)
   123d4:	f68ff06f          	j	11b3c <_vfprintf_r+0x1ac>
   123d8:	010de613          	ori	a2,s11,16
   123dc:	02067793          	andi	a5,a2,32
   123e0:	060788e3          	beqz	a5,12c50 <_vfprintf_r+0x12c0>
   123e4:	00c12783          	lw	a5,12(sp)
   123e8:	00778c13          	addi	s8,a5,7
   123ec:	ff8c7c13          	andi	s8,s8,-8
   123f0:	008c0793          	addi	a5,s8,8
   123f4:	00f12623          	sw	a5,12(sp)
   123f8:	000c2b03          	lw	s6,0(s8)
   123fc:	004c2803          	lw	a6,4(s8)
   12400:	00100793          	li	a5,1
   12404:	a79ff06f          	j	11e7c <_vfprintf_r+0x4ec>
   12408:	00094883          	lbu	a7,0(s2)
   1240c:	008ded93          	ori	s11,s11,8
   12410:	f2cff06f          	j	11b3c <_vfprintf_r+0x1ac>
   12414:	00c12703          	lw	a4,12(sp)
   12418:	000087b7          	lui	a5,0x8
   1241c:	83078793          	addi	a5,a5,-2000 # 7830 <exit-0x8864>
   12420:	0af11423          	sh	a5,168(sp)
   12424:	00470793          	addi	a5,a4,4
   12428:	00f12623          	sw	a5,12(sp)
   1242c:	000217b7          	lui	a5,0x21
   12430:	35478793          	addi	a5,a5,852 # 21354 <__clzsi2+0x60>
   12434:	02f12823          	sw	a5,48(sp)
   12438:	00072b03          	lw	s6,0(a4)
   1243c:	00000813          	li	a6,0
   12440:	002de613          	ori	a2,s11,2
   12444:	00200793          	li	a5,2
   12448:	07800893          	li	a7,120
   1244c:	a31ff06f          	j	11e7c <_vfprintf_r+0x4ec>
   12450:	020df793          	andi	a5,s11,32
   12454:	0c0780e3          	beqz	a5,12d14 <_vfprintf_r+0x1384>
   12458:	00c12783          	lw	a5,12(sp)
   1245c:	00412683          	lw	a3,4(sp)
   12460:	0007a783          	lw	a5,0(a5)
   12464:	41f6d713          	srai	a4,a3,0x1f
   12468:	00d7a023          	sw	a3,0(a5)
   1246c:	00e7a223          	sw	a4,4(a5)
   12470:	00c12783          	lw	a5,12(sp)
   12474:	00090d13          	mv	s10,s2
   12478:	00478793          	addi	a5,a5,4
   1247c:	00f12623          	sw	a5,12(sp)
   12480:	855ff06f          	j	11cd4 <_vfprintf_r+0x344>
   12484:	00094883          	lbu	a7,0(s2)
   12488:	06c00793          	li	a5,108
   1248c:	16f88ae3          	beq	a7,a5,12e00 <_vfprintf_r+0x1470>
   12490:	010ded93          	ori	s11,s11,16
   12494:	ea8ff06f          	j	11b3c <_vfprintf_r+0x1ac>
   12498:	00094883          	lbu	a7,0(s2)
   1249c:	06800793          	li	a5,104
   124a0:	14f888e3          	beq	a7,a5,12df0 <_vfprintf_r+0x1460>
   124a4:	040ded93          	ori	s11,s11,64
   124a8:	e94ff06f          	j	11b3c <_vfprintf_r+0x1ac>
   124ac:	06500713          	li	a4,101
   124b0:	b91750e3          	bge	a4,a7,12030 <_vfprintf_r+0x6a0>
   124b4:	0d012703          	lw	a4,208(sp)
   124b8:	08010593          	addi	a1,sp,128
   124bc:	09010513          	addi	a0,sp,144
   124c0:	08e12823          	sw	a4,144(sp)
   124c4:	0d412703          	lw	a4,212(sp)
   124c8:	02c12a23          	sw	a2,52(sp)
   124cc:	08012023          	sw	zero,128(sp)
   124d0:	08e12a23          	sw	a4,148(sp)
   124d4:	0d812703          	lw	a4,216(sp)
   124d8:	08012223          	sw	zero,132(sp)
   124dc:	08012423          	sw	zero,136(sp)
   124e0:	08e12c23          	sw	a4,152(sp)
   124e4:	0dc12703          	lw	a4,220(sp)
   124e8:	08012623          	sw	zero,140(sp)
   124ec:	08e12e23          	sw	a4,156(sp)
   124f0:	48d0b0ef          	jal	1e17c <__eqtf2>
   124f4:	03412603          	lw	a2,52(sp)
   124f8:	54051463          	bnez	a0,12a40 <_vfprintf_r+0x10b0>
   124fc:	0c812783          	lw	a5,200(sp)
   12500:	00021737          	lui	a4,0x21
   12504:	38470713          	addi	a4,a4,900 # 21384 <__clzsi2+0x90>
   12508:	00e42023          	sw	a4,0(s0)
   1250c:	00160613          	addi	a2,a2,1
   12510:	00100713          	li	a4,1
   12514:	00178793          	addi	a5,a5,1
   12518:	00e42223          	sw	a4,4(s0)
   1251c:	0cc12623          	sw	a2,204(sp)
   12520:	0cf12423          	sw	a5,200(sp)
   12524:	00700713          	li	a4,7
   12528:	00840413          	addi	s0,s0,8
   1252c:	5ef744e3          	blt	a4,a5,13314 <_vfprintf_r+0x1984>
   12530:	0ac12783          	lw	a5,172(sp)
   12534:	01812703          	lw	a4,24(sp)
   12538:	74e7dc63          	bge	a5,a4,12c90 <_vfprintf_r+0x1300>
   1253c:	02c12783          	lw	a5,44(sp)
   12540:	02812703          	lw	a4,40(sp)
   12544:	00840413          	addi	s0,s0,8
   12548:	fef42c23          	sw	a5,-8(s0)
   1254c:	0c812783          	lw	a5,200(sp)
   12550:	00e60633          	add	a2,a2,a4
   12554:	fee42e23          	sw	a4,-4(s0)
   12558:	00178793          	addi	a5,a5,1
   1255c:	0cc12623          	sw	a2,204(sp)
   12560:	0cf12423          	sw	a5,200(sp)
   12564:	00700713          	li	a4,7
   12568:	0af744e3          	blt	a4,a5,12e10 <_vfprintf_r+0x1480>
   1256c:	01812783          	lw	a5,24(sp)
   12570:	fff78a13          	addi	s4,a5,-1
   12574:	f1405a63          	blez	s4,11c88 <_vfprintf_r+0x2f8>
   12578:	00021837          	lui	a6,0x21
   1257c:	01000713          	li	a4,16
   12580:	0c812783          	lw	a5,200(sp)
   12584:	69080813          	addi	a6,a6,1680 # 21690 <zeroes.0>
   12588:	5b475ae3          	bge	a4,s4,1333c <_vfprintf_r+0x19ac>
   1258c:	01212a23          	sw	s2,20(sp)
   12590:	01000b13          	li	s6,16
   12594:	00700d13          	li	s10,7
   12598:	00080913          	mv	s2,a6
   1259c:	00c0006f          	j	125a8 <_vfprintf_r+0xc18>
   125a0:	ff0a0a13          	addi	s4,s4,-16
   125a4:	594b58e3          	bge	s6,s4,13334 <_vfprintf_r+0x19a4>
   125a8:	01060613          	addi	a2,a2,16
   125ac:	00178793          	addi	a5,a5,1
   125b0:	01242023          	sw	s2,0(s0)
   125b4:	01642223          	sw	s6,4(s0)
   125b8:	0cc12623          	sw	a2,204(sp)
   125bc:	0cf12423          	sw	a5,200(sp)
   125c0:	00840413          	addi	s0,s0,8
   125c4:	fcfd5ee3          	bge	s10,a5,125a0 <_vfprintf_r+0xc10>
   125c8:	0c410613          	addi	a2,sp,196
   125cc:	00048593          	mv	a1,s1
   125d0:	000b8513          	mv	a0,s7
   125d4:	539010ef          	jal	1430c <__sprint_r>
   125d8:	24051e63          	bnez	a0,12834 <_vfprintf_r+0xea4>
   125dc:	0cc12603          	lw	a2,204(sp)
   125e0:	0c812783          	lw	a5,200(sp)
   125e4:	00098413          	mv	s0,s3
   125e8:	fb9ff06f          	j	125a0 <_vfprintf_r+0xc10>
   125ec:	00100693          	li	a3,1
   125f0:	00d79463          	bne	a5,a3,125f8 <_vfprintf_r+0xc68>
   125f4:	1850106f          	j	13f78 <_vfprintf_r+0x25e8>
   125f8:	00200693          	li	a3,2
   125fc:	000d8613          	mv	a2,s11
   12600:	bcd794e3          	bne	a5,a3,121c8 <_vfprintf_r+0x838>
   12604:	03012683          	lw	a3,48(sp)
   12608:	19010d13          	addi	s10,sp,400
   1260c:	00fb7793          	andi	a5,s6,15
   12610:	00f687b3          	add	a5,a3,a5
   12614:	0007c703          	lbu	a4,0(a5)
   12618:	004b5b13          	srli	s6,s6,0x4
   1261c:	01c81793          	slli	a5,a6,0x1c
   12620:	0167eb33          	or	s6,a5,s6
   12624:	00485813          	srli	a6,a6,0x4
   12628:	feed0fa3          	sb	a4,-1(s10)
   1262c:	010b67b3          	or	a5,s6,a6
   12630:	fffd0d13          	addi	s10,s10,-1
   12634:	fc079ce3          	bnez	a5,1260c <_vfprintf_r+0xc7c>
   12638:	19010793          	addi	a5,sp,400
   1263c:	41a78b33          	sub	s6,a5,s10
   12640:	00060d93          	mv	s11,a2
   12644:	fdcff06f          	j	11e20 <_vfprintf_r+0x490>
   12648:	418c8733          	sub	a4,s9,s8
   1264c:	e0e05263          	blez	a4,11c50 <_vfprintf_r+0x2c0>
   12650:	00021837          	lui	a6,0x21
   12654:	01000513          	li	a0,16
   12658:	0c812583          	lw	a1,200(sp)
   1265c:	69080813          	addi	a6,a6,1680 # 21690 <zeroes.0>
   12660:	08e55863          	bge	a0,a4,126f0 <_vfprintf_r+0xd60>
   12664:	03212a23          	sw	s2,52(sp)
   12668:	00040793          	mv	a5,s0
   1266c:	01000e93          	li	t4,16
   12670:	00700f93          	li	t6,7
   12674:	05112423          	sw	a7,72(sp)
   12678:	00070413          	mv	s0,a4
   1267c:	00080913          	mv	s2,a6
   12680:	00c0006f          	j	1268c <_vfprintf_r+0xcfc>
   12684:	ff040413          	addi	s0,s0,-16
   12688:	048eda63          	bge	t4,s0,126dc <_vfprintf_r+0xd4c>
   1268c:	01060613          	addi	a2,a2,16
   12690:	00158593          	addi	a1,a1,1 # 2001 <exit-0xe093>
   12694:	0127a023          	sw	s2,0(a5)
   12698:	01d7a223          	sw	t4,4(a5)
   1269c:	0cc12623          	sw	a2,204(sp)
   126a0:	0cb12423          	sw	a1,200(sp)
   126a4:	00878793          	addi	a5,a5,8
   126a8:	fcbfdee3          	bge	t6,a1,12684 <_vfprintf_r+0xcf4>
   126ac:	0c410613          	addi	a2,sp,196
   126b0:	00048593          	mv	a1,s1
   126b4:	000b8513          	mv	a0,s7
   126b8:	455010ef          	jal	1430c <__sprint_r>
   126bc:	16051c63          	bnez	a0,12834 <_vfprintf_r+0xea4>
   126c0:	01000e93          	li	t4,16
   126c4:	ff040413          	addi	s0,s0,-16
   126c8:	0cc12603          	lw	a2,204(sp)
   126cc:	0c812583          	lw	a1,200(sp)
   126d0:	00098793          	mv	a5,s3
   126d4:	00700f93          	li	t6,7
   126d8:	fa8ecae3          	blt	t4,s0,1268c <_vfprintf_r+0xcfc>
   126dc:	00090813          	mv	a6,s2
   126e0:	04812883          	lw	a7,72(sp)
   126e4:	03412903          	lw	s2,52(sp)
   126e8:	00040713          	mv	a4,s0
   126ec:	00078413          	mv	s0,a5
   126f0:	00e60633          	add	a2,a2,a4
   126f4:	00158593          	addi	a1,a1,1
   126f8:	00e42223          	sw	a4,4(s0)
   126fc:	01042023          	sw	a6,0(s0)
   12700:	0cc12623          	sw	a2,204(sp)
   12704:	0cb12423          	sw	a1,200(sp)
   12708:	00700713          	li	a4,7
   1270c:	00840413          	addi	s0,s0,8
   12710:	d4b75063          	bge	a4,a1,11c50 <_vfprintf_r+0x2c0>
   12714:	0c410613          	addi	a2,sp,196
   12718:	00048593          	mv	a1,s1
   1271c:	000b8513          	mv	a0,s7
   12720:	03112a23          	sw	a7,52(sp)
   12724:	3e9010ef          	jal	1430c <__sprint_r>
   12728:	10051663          	bnez	a0,12834 <_vfprintf_r+0xea4>
   1272c:	0cc12603          	lw	a2,204(sp)
   12730:	03412883          	lw	a7,52(sp)
   12734:	00098413          	mv	s0,s3
   12738:	d18ff06f          	j	11c50 <_vfprintf_r+0x2c0>
   1273c:	00021837          	lui	a6,0x21
   12740:	01000713          	li	a4,16
   12744:	0c812583          	lw	a1,200(sp)
   12748:	69080813          	addi	a6,a6,1680 # 21690 <zeroes.0>
   1274c:	09475463          	bge	a4,s4,127d4 <_vfprintf_r+0xe44>
   12750:	00040793          	mv	a5,s0
   12754:	01000713          	li	a4,16
   12758:	000a0413          	mv	s0,s4
   1275c:	00700e93          	li	t4,7
   12760:	03112a23          	sw	a7,52(sp)
   12764:	000a8a13          	mv	s4,s5
   12768:	00c0006f          	j	12774 <_vfprintf_r+0xde4>
   1276c:	ff040413          	addi	s0,s0,-16
   12770:	04875a63          	bge	a4,s0,127c4 <_vfprintf_r+0xe34>
   12774:	01060613          	addi	a2,a2,16
   12778:	00158593          	addi	a1,a1,1
   1277c:	0157a023          	sw	s5,0(a5)
   12780:	00e7a223          	sw	a4,4(a5)
   12784:	0cc12623          	sw	a2,204(sp)
   12788:	0cb12423          	sw	a1,200(sp)
   1278c:	00878793          	addi	a5,a5,8
   12790:	fcbedee3          	bge	t4,a1,1276c <_vfprintf_r+0xddc>
   12794:	0c410613          	addi	a2,sp,196
   12798:	00048593          	mv	a1,s1
   1279c:	000b8513          	mv	a0,s7
   127a0:	36d010ef          	jal	1430c <__sprint_r>
   127a4:	08051863          	bnez	a0,12834 <_vfprintf_r+0xea4>
   127a8:	01000713          	li	a4,16
   127ac:	ff040413          	addi	s0,s0,-16
   127b0:	0cc12603          	lw	a2,204(sp)
   127b4:	0c812583          	lw	a1,200(sp)
   127b8:	00098793          	mv	a5,s3
   127bc:	00700e93          	li	t4,7
   127c0:	fa874ae3          	blt	a4,s0,12774 <_vfprintf_r+0xde4>
   127c4:	03412883          	lw	a7,52(sp)
   127c8:	000a0813          	mv	a6,s4
   127cc:	00040a13          	mv	s4,s0
   127d0:	00078413          	mv	s0,a5
   127d4:	01460633          	add	a2,a2,s4
   127d8:	00158593          	addi	a1,a1,1
   127dc:	01042023          	sw	a6,0(s0)
   127e0:	01442223          	sw	s4,4(s0)
   127e4:	0cc12623          	sw	a2,204(sp)
   127e8:	0cb12423          	sw	a1,200(sp)
   127ec:	00700713          	li	a4,7
   127f0:	00840413          	addi	s0,s0,8
   127f4:	c6b75263          	bge	a4,a1,11c58 <_vfprintf_r+0x2c8>
   127f8:	0c410613          	addi	a2,sp,196
   127fc:	00048593          	mv	a1,s1
   12800:	000b8513          	mv	a0,s7
   12804:	03112a23          	sw	a7,52(sp)
   12808:	305010ef          	jal	1430c <__sprint_r>
   1280c:	02051463          	bnez	a0,12834 <_vfprintf_r+0xea4>
   12810:	0cc12603          	lw	a2,204(sp)
   12814:	03412883          	lw	a7,52(sp)
   12818:	00098413          	mv	s0,s3
   1281c:	c3cff06f          	j	11c58 <_vfprintf_r+0x2c8>
   12820:	0c410613          	addi	a2,sp,196
   12824:	00048593          	mv	a1,s1
   12828:	000b8513          	mv	a0,s7
   1282c:	2e1010ef          	jal	1430c <__sprint_r>
   12830:	c8050263          	beqz	a0,11cb4 <_vfprintf_r+0x324>
   12834:	00812583          	lw	a1,8(sp)
   12838:	ca058863          	beqz	a1,11ce8 <_vfprintf_r+0x358>
   1283c:	02412503          	lw	a0,36(sp)
   12840:	e4dfe0ef          	jal	1168c <_free_r>
   12844:	ca4ff06f          	j	11ce8 <_vfprintf_r+0x358>
   12848:	000d8613          	mv	a2,s11
   1284c:	96dff06f          	j	121b8 <_vfprintf_r+0x828>
   12850:	00021837          	lui	a6,0x21
   12854:	01000513          	li	a0,16
   12858:	0c812583          	lw	a1,200(sp)
   1285c:	6a080813          	addi	a6,a6,1696 # 216a0 <blanks.1>
   12860:	0ae55063          	bge	a0,a4,12900 <_vfprintf_r+0xf70>
   12864:	05212623          	sw	s2,76(sp)
   12868:	00040793          	mv	a5,s0
   1286c:	01000e93          	li	t4,16
   12870:	00700393          	li	t2,7
   12874:	02512a23          	sw	t0,52(sp)
   12878:	05f12423          	sw	t6,72(sp)
   1287c:	05112823          	sw	a7,80(sp)
   12880:	00070413          	mv	s0,a4
   12884:	00080913          	mv	s2,a6
   12888:	00c0006f          	j	12894 <_vfprintf_r+0xf04>
   1288c:	ff040413          	addi	s0,s0,-16
   12890:	048eda63          	bge	t4,s0,128e4 <_vfprintf_r+0xf54>
   12894:	01060613          	addi	a2,a2,16
   12898:	00158593          	addi	a1,a1,1
   1289c:	0127a023          	sw	s2,0(a5)
   128a0:	01d7a223          	sw	t4,4(a5)
   128a4:	0cc12623          	sw	a2,204(sp)
   128a8:	0cb12423          	sw	a1,200(sp)
   128ac:	00878793          	addi	a5,a5,8
   128b0:	fcb3dee3          	bge	t2,a1,1288c <_vfprintf_r+0xefc>
   128b4:	0c410613          	addi	a2,sp,196
   128b8:	00048593          	mv	a1,s1
   128bc:	000b8513          	mv	a0,s7
   128c0:	24d010ef          	jal	1430c <__sprint_r>
   128c4:	f60518e3          	bnez	a0,12834 <_vfprintf_r+0xea4>
   128c8:	01000e93          	li	t4,16
   128cc:	ff040413          	addi	s0,s0,-16
   128d0:	0cc12603          	lw	a2,204(sp)
   128d4:	0c812583          	lw	a1,200(sp)
   128d8:	00098793          	mv	a5,s3
   128dc:	00700393          	li	t2,7
   128e0:	fa8ecae3          	blt	t4,s0,12894 <_vfprintf_r+0xf04>
   128e4:	00090813          	mv	a6,s2
   128e8:	03412283          	lw	t0,52(sp)
   128ec:	04812f83          	lw	t6,72(sp)
   128f0:	05012883          	lw	a7,80(sp)
   128f4:	04c12903          	lw	s2,76(sp)
   128f8:	00040713          	mv	a4,s0
   128fc:	00078413          	mv	s0,a5
   12900:	00e60633          	add	a2,a2,a4
   12904:	00158593          	addi	a1,a1,1
   12908:	00e42223          	sw	a4,4(s0)
   1290c:	01042023          	sw	a6,0(s0)
   12910:	0cc12623          	sw	a2,204(sp)
   12914:	0cb12423          	sw	a1,200(sp)
   12918:	00700713          	li	a4,7
   1291c:	00840413          	addi	s0,s0,8
   12920:	aab75e63          	bge	a4,a1,11bdc <_vfprintf_r+0x24c>
   12924:	0c410613          	addi	a2,sp,196
   12928:	00048593          	mv	a1,s1
   1292c:	000b8513          	mv	a0,s7
   12930:	05112623          	sw	a7,76(sp)
   12934:	05f12423          	sw	t6,72(sp)
   12938:	02512a23          	sw	t0,52(sp)
   1293c:	1d1010ef          	jal	1430c <__sprint_r>
   12940:	ee051ae3          	bnez	a0,12834 <_vfprintf_r+0xea4>
   12944:	0cc12603          	lw	a2,204(sp)
   12948:	04c12883          	lw	a7,76(sp)
   1294c:	04812f83          	lw	t6,72(sp)
   12950:	03412283          	lw	t0,52(sp)
   12954:	00098413          	mv	s0,s3
   12958:	a84ff06f          	j	11bdc <_vfprintf_r+0x24c>
   1295c:	0c410613          	addi	a2,sp,196
   12960:	00048593          	mv	a1,s1
   12964:	000b8513          	mv	a0,s7
   12968:	05112423          	sw	a7,72(sp)
   1296c:	03f12a23          	sw	t6,52(sp)
   12970:	19d010ef          	jal	1430c <__sprint_r>
   12974:	ec0510e3          	bnez	a0,12834 <_vfprintf_r+0xea4>
   12978:	0cc12603          	lw	a2,204(sp)
   1297c:	04812883          	lw	a7,72(sp)
   12980:	03412f83          	lw	t6,52(sp)
   12984:	00098413          	mv	s0,s3
   12988:	ac0ff06f          	j	11c48 <_vfprintf_r+0x2b8>
   1298c:	00021837          	lui	a6,0x21
   12990:	6a080813          	addi	a6,a6,1696 # 216a0 <blanks.1>
   12994:	01000713          	li	a4,16
   12998:	0c812783          	lw	a5,200(sp)
   1299c:	01000b13          	li	s6,16
   129a0:	00700d13          	li	s10,7
   129a4:	00080d93          	mv	s11,a6
   129a8:	01474863          	blt	a4,s4,129b8 <_vfprintf_r+0x1028>
   129ac:	0580006f          	j	12a04 <_vfprintf_r+0x1074>
   129b0:	ff0a0a13          	addi	s4,s4,-16
   129b4:	054b5663          	bge	s6,s4,12a00 <_vfprintf_r+0x1070>
   129b8:	01060613          	addi	a2,a2,16
   129bc:	00178793          	addi	a5,a5,1
   129c0:	01b42023          	sw	s11,0(s0)
   129c4:	01642223          	sw	s6,4(s0)
   129c8:	0cc12623          	sw	a2,204(sp)
   129cc:	0cf12423          	sw	a5,200(sp)
   129d0:	00840413          	addi	s0,s0,8
   129d4:	fcfd5ee3          	bge	s10,a5,129b0 <_vfprintf_r+0x1020>
   129d8:	0c410613          	addi	a2,sp,196
   129dc:	00048593          	mv	a1,s1
   129e0:	000b8513          	mv	a0,s7
   129e4:	129010ef          	jal	1430c <__sprint_r>
   129e8:	e40516e3          	bnez	a0,12834 <_vfprintf_r+0xea4>
   129ec:	ff0a0a13          	addi	s4,s4,-16
   129f0:	0cc12603          	lw	a2,204(sp)
   129f4:	0c812783          	lw	a5,200(sp)
   129f8:	00098413          	mv	s0,s3
   129fc:	fb4b4ee3          	blt	s6,s4,129b8 <_vfprintf_r+0x1028>
   12a00:	000d8813          	mv	a6,s11
   12a04:	01460633          	add	a2,a2,s4
   12a08:	00178793          	addi	a5,a5,1
   12a0c:	01042023          	sw	a6,0(s0)
   12a10:	01442223          	sw	s4,4(s0)
   12a14:	0cc12623          	sw	a2,204(sp)
   12a18:	0cf12423          	sw	a5,200(sp)
   12a1c:	00700713          	li	a4,7
   12a20:	a6f75c63          	bge	a4,a5,11c98 <_vfprintf_r+0x308>
   12a24:	0c410613          	addi	a2,sp,196
   12a28:	00048593          	mv	a1,s1
   12a2c:	000b8513          	mv	a0,s7
   12a30:	0dd010ef          	jal	1430c <__sprint_r>
   12a34:	e00510e3          	bnez	a0,12834 <_vfprintf_r+0xea4>
   12a38:	0cc12603          	lw	a2,204(sp)
   12a3c:	a5cff06f          	j	11c98 <_vfprintf_r+0x308>
   12a40:	0ac12503          	lw	a0,172(sp)
   12a44:	04a052e3          	blez	a0,13288 <_vfprintf_r+0x18f8>
   12a48:	01412783          	lw	a5,20(sp)
   12a4c:	01812703          	lw	a4,24(sp)
   12a50:	00078a13          	mv	s4,a5
   12a54:	30f74863          	blt	a4,a5,12d64 <_vfprintf_r+0x13d4>
   12a58:	03405663          	blez	s4,12a84 <_vfprintf_r+0x10f4>
   12a5c:	0c812703          	lw	a4,200(sp)
   12a60:	01460633          	add	a2,a2,s4
   12a64:	01a42023          	sw	s10,0(s0)
   12a68:	00170713          	addi	a4,a4,1
   12a6c:	01442223          	sw	s4,4(s0)
   12a70:	0cc12623          	sw	a2,204(sp)
   12a74:	0ce12423          	sw	a4,200(sp)
   12a78:	00700593          	li	a1,7
   12a7c:	00840413          	addi	s0,s0,8
   12a80:	56e5c0e3          	blt	a1,a4,137e0 <_vfprintf_r+0x1e50>
   12a84:	fffa4713          	not	a4,s4
   12a88:	01412783          	lw	a5,20(sp)
   12a8c:	41f75713          	srai	a4,a4,0x1f
   12a90:	00ea7a33          	and	s4,s4,a4
   12a94:	41478a33          	sub	s4,a5,s4
   12a98:	3b404c63          	bgtz	s4,12e50 <_vfprintf_r+0x14c0>
   12a9c:	01412783          	lw	a5,20(sp)
   12aa0:	400df713          	andi	a4,s11,1024
   12aa4:	00fd0a33          	add	s4,s10,a5
   12aa8:	2c0714e3          	bnez	a4,13570 <_vfprintf_r+0x1be0>
   12aac:	0ac12583          	lw	a1,172(sp)
   12ab0:	01812783          	lw	a5,24(sp)
   12ab4:	40f5ca63          	blt	a1,a5,12ec8 <_vfprintf_r+0x1538>
   12ab8:	001df713          	andi	a4,s11,1
   12abc:	40071663          	bnez	a4,12ec8 <_vfprintf_r+0x1538>
   12ac0:	01812703          	lw	a4,24(sp)
   12ac4:	00ed07b3          	add	a5,s10,a4
   12ac8:	40b705b3          	sub	a1,a4,a1
   12acc:	41478b33          	sub	s6,a5,s4
   12ad0:	0165d463          	bge	a1,s6,12ad8 <_vfprintf_r+0x1148>
   12ad4:	00058b13          	mv	s6,a1
   12ad8:	03605863          	blez	s6,12b08 <_vfprintf_r+0x1178>
   12adc:	0c812703          	lw	a4,200(sp)
   12ae0:	01660633          	add	a2,a2,s6
   12ae4:	01442023          	sw	s4,0(s0)
   12ae8:	00170713          	addi	a4,a4,1
   12aec:	01642223          	sw	s6,4(s0)
   12af0:	0cc12623          	sw	a2,204(sp)
   12af4:	0ce12423          	sw	a4,200(sp)
   12af8:	00700793          	li	a5,7
   12afc:	00840413          	addi	s0,s0,8
   12b00:	00e7d463          	bge	a5,a4,12b08 <_vfprintf_r+0x1178>
   12b04:	3400106f          	j	13e44 <_vfprintf_r+0x24b4>
   12b08:	fffb4713          	not	a4,s6
   12b0c:	41f75713          	srai	a4,a4,0x1f
   12b10:	00eb77b3          	and	a5,s6,a4
   12b14:	40f58a33          	sub	s4,a1,a5
   12b18:	97405863          	blez	s4,11c88 <_vfprintf_r+0x2f8>
   12b1c:	00021837          	lui	a6,0x21
   12b20:	01000713          	li	a4,16
   12b24:	0c812783          	lw	a5,200(sp)
   12b28:	69080813          	addi	a6,a6,1680 # 21690 <zeroes.0>
   12b2c:	014758e3          	bge	a4,s4,1333c <_vfprintf_r+0x19ac>
   12b30:	01212a23          	sw	s2,20(sp)
   12b34:	01000b13          	li	s6,16
   12b38:	00700d13          	li	s10,7
   12b3c:	00080913          	mv	s2,a6
   12b40:	00c0006f          	j	12b4c <_vfprintf_r+0x11bc>
   12b44:	ff0a0a13          	addi	s4,s4,-16
   12b48:	7f4b5663          	bge	s6,s4,13334 <_vfprintf_r+0x19a4>
   12b4c:	01060613          	addi	a2,a2,16
   12b50:	00178793          	addi	a5,a5,1
   12b54:	01242023          	sw	s2,0(s0)
   12b58:	01642223          	sw	s6,4(s0)
   12b5c:	0cc12623          	sw	a2,204(sp)
   12b60:	0cf12423          	sw	a5,200(sp)
   12b64:	00840413          	addi	s0,s0,8
   12b68:	fcfd5ee3          	bge	s10,a5,12b44 <_vfprintf_r+0x11b4>
   12b6c:	0c410613          	addi	a2,sp,196
   12b70:	00048593          	mv	a1,s1
   12b74:	000b8513          	mv	a0,s7
   12b78:	794010ef          	jal	1430c <__sprint_r>
   12b7c:	ca051ce3          	bnez	a0,12834 <_vfprintf_r+0xea4>
   12b80:	0cc12603          	lw	a2,204(sp)
   12b84:	0c812783          	lw	a5,200(sp)
   12b88:	00098413          	mv	s0,s3
   12b8c:	fb9ff06f          	j	12b44 <_vfprintf_r+0x11b4>
   12b90:	001df593          	andi	a1,s11,1
   12b94:	ca059e63          	bnez	a1,12050 <_vfprintf_r+0x6c0>
   12b98:	00e42223          	sw	a4,4(s0)
   12b9c:	0cc12623          	sw	a2,204(sp)
   12ba0:	0d412423          	sw	s4,200(sp)
   12ba4:	00700793          	li	a5,7
   12ba8:	d747d663          	bge	a5,s4,12114 <_vfprintf_r+0x784>
   12bac:	0c410613          	addi	a2,sp,196
   12bb0:	00048593          	mv	a1,s1
   12bb4:	000b8513          	mv	a0,s7
   12bb8:	754010ef          	jal	1430c <__sprint_r>
   12bbc:	c6051ce3          	bnez	a0,12834 <_vfprintf_r+0xea4>
   12bc0:	0cc12603          	lw	a2,204(sp)
   12bc4:	0c812a03          	lw	s4,200(sp)
   12bc8:	00098b13          	mv	s6,s3
   12bcc:	d48ff06f          	j	12114 <_vfprintf_r+0x784>
   12bd0:	01812703          	lw	a4,24(sp)
   12bd4:	00100793          	li	a5,1
   12bd8:	d2e7de63          	bge	a5,a4,12114 <_vfprintf_r+0x784>
   12bdc:	00021837          	lui	a6,0x21
   12be0:	01100793          	li	a5,17
   12be4:	69080813          	addi	a6,a6,1680 # 21690 <zeroes.0>
   12be8:	0ce7d6e3          	bge	a5,a4,134b4 <_vfprintf_r+0x1b24>
   12bec:	01212a23          	sw	s2,20(sp)
   12bf0:	01000793          	li	a5,16
   12bf4:	00700d13          	li	s10,7
   12bf8:	00080913          	mv	s2,a6
   12bfc:	00c0006f          	j	12c08 <_vfprintf_r+0x1278>
   12c00:	ff040413          	addi	s0,s0,-16
   12c04:	0a87d4e3          	bge	a5,s0,134ac <_vfprintf_r+0x1b1c>
   12c08:	01060613          	addi	a2,a2,16
   12c0c:	001a0a13          	addi	s4,s4,1
   12c10:	012b2023          	sw	s2,0(s6)
   12c14:	00fb2223          	sw	a5,4(s6)
   12c18:	0cc12623          	sw	a2,204(sp)
   12c1c:	0d412423          	sw	s4,200(sp)
   12c20:	008b0b13          	addi	s6,s6,8
   12c24:	fd4d5ee3          	bge	s10,s4,12c00 <_vfprintf_r+0x1270>
   12c28:	0c410613          	addi	a2,sp,196
   12c2c:	00048593          	mv	a1,s1
   12c30:	000b8513          	mv	a0,s7
   12c34:	6d8010ef          	jal	1430c <__sprint_r>
   12c38:	be051ee3          	bnez	a0,12834 <_vfprintf_r+0xea4>
   12c3c:	0cc12603          	lw	a2,204(sp)
   12c40:	0c812a03          	lw	s4,200(sp)
   12c44:	00098b13          	mv	s6,s3
   12c48:	01000793          	li	a5,16
   12c4c:	fb5ff06f          	j	12c00 <_vfprintf_r+0x1270>
   12c50:	00c12683          	lw	a3,12(sp)
   12c54:	01067793          	andi	a5,a2,16
   12c58:	0006a703          	lw	a4,0(a3)
   12c5c:	00468693          	addi	a3,a3,4
   12c60:	00d12623          	sw	a3,12(sp)
   12c64:	04079863          	bnez	a5,12cb4 <_vfprintf_r+0x1324>
   12c68:	04067793          	andi	a5,a2,64
   12c6c:	04078063          	beqz	a5,12cac <_vfprintf_r+0x131c>
   12c70:	01071b13          	slli	s6,a4,0x10
   12c74:	010b5b13          	srli	s6,s6,0x10
   12c78:	00000813          	li	a6,0
   12c7c:	00100793          	li	a5,1
   12c80:	9fcff06f          	j	11e7c <_vfprintf_r+0x4ec>
   12c84:	00000b13          	li	s6,0
   12c88:	19010d13          	addi	s10,sp,400
   12c8c:	994ff06f          	j	11e20 <_vfprintf_r+0x490>
   12c90:	001df793          	andi	a5,s11,1
   12c94:	00079463          	bnez	a5,12c9c <_vfprintf_r+0x130c>
   12c98:	ff1fe06f          	j	11c88 <_vfprintf_r+0x2f8>
   12c9c:	8a1ff06f          	j	1253c <_vfprintf_r+0xbac>
   12ca0:	00094883          	lbu	a7,0(s2)
   12ca4:	00f12623          	sw	a5,12(sp)
   12ca8:	e95fe06f          	j	11b3c <_vfprintf_r+0x1ac>
   12cac:	20067793          	andi	a5,a2,512
   12cb0:	38079ee3          	bnez	a5,1384c <_vfprintf_r+0x1ebc>
   12cb4:	00070b13          	mv	s6,a4
   12cb8:	00000813          	li	a6,0
   12cbc:	00100793          	li	a5,1
   12cc0:	9bcff06f          	j	11e7c <_vfprintf_r+0x4ec>
   12cc4:	200df793          	andi	a5,s11,512
   12cc8:	360796e3          	bnez	a5,13834 <_vfprintf_r+0x1ea4>
   12ccc:	00070b13          	mv	s6,a4
   12cd0:	00000813          	li	a6,0
   12cd4:	9a0ff06f          	j	11e74 <_vfprintf_r+0x4e4>
   12cd8:	200df793          	andi	a5,s11,512
   12cdc:	340792e3          	bnez	a5,13820 <_vfprintf_r+0x1e90>
   12ce0:	41f75813          	srai	a6,a4,0x1f
   12ce4:	00070b13          	mv	s6,a4
   12ce8:	00080793          	mv	a5,a6
   12cec:	90cff06f          	j	11df8 <_vfprintf_r+0x468>
   12cf0:	03812783          	lw	a5,56(sp)
   12cf4:	00094883          	lbu	a7,0(s2)
   12cf8:	00079463          	bnez	a5,12d00 <_vfprintf_r+0x1370>
   12cfc:	e41fe06f          	j	11b3c <_vfprintf_r+0x1ac>
   12d00:	0007c783          	lbu	a5,0(a5)
   12d04:	00079463          	bnez	a5,12d0c <_vfprintf_r+0x137c>
   12d08:	e35fe06f          	j	11b3c <_vfprintf_r+0x1ac>
   12d0c:	400ded93          	ori	s11,s11,1024
   12d10:	e2dfe06f          	j	11b3c <_vfprintf_r+0x1ac>
   12d14:	010df793          	andi	a5,s11,16
   12d18:	6c079863          	bnez	a5,133e8 <_vfprintf_r+0x1a58>
   12d1c:	040df793          	andi	a5,s11,64
   12d20:	2e0796e3          	bnez	a5,1380c <_vfprintf_r+0x1e7c>
   12d24:	200dfe13          	andi	t3,s11,512
   12d28:	6c0e0063          	beqz	t3,133e8 <_vfprintf_r+0x1a58>
   12d2c:	00c12783          	lw	a5,12(sp)
   12d30:	00412703          	lw	a4,4(sp)
   12d34:	0007a783          	lw	a5,0(a5)
   12d38:	00e78023          	sb	a4,0(a5)
   12d3c:	f34ff06f          	j	12470 <_vfprintf_r+0xae0>
   12d40:	00c12783          	lw	a5,12(sp)
   12d44:	0007a703          	lw	a4,0(a5)
   12d48:	00478793          	addi	a5,a5,4
   12d4c:	00f12623          	sw	a5,12(sp)
   12d50:	00072583          	lw	a1,0(a4)
   12d54:	00472603          	lw	a2,4(a4)
   12d58:	00872683          	lw	a3,8(a4)
   12d5c:	00c72703          	lw	a4,12(a4)
   12d60:	9c8ff06f          	j	11f28 <_vfprintf_r+0x598>
   12d64:	00070a13          	mv	s4,a4
   12d68:	cf404ae3          	bgtz	s4,12a5c <_vfprintf_r+0x10cc>
   12d6c:	d19ff06f          	j	12a84 <_vfprintf_r+0x10f4>
   12d70:	fff00a13          	li	s4,-1
   12d74:	00068913          	mv	s2,a3
   12d78:	dc9fe06f          	j	11b40 <_vfprintf_r+0x1b0>
   12d7c:	000217b7          	lui	a5,0x21
   12d80:	36878793          	addi	a5,a5,872 # 21368 <__clzsi2+0x74>
   12d84:	02f12823          	sw	a5,48(sp)
   12d88:	020df793          	andi	a5,s11,32
   12d8c:	3a078463          	beqz	a5,13134 <_vfprintf_r+0x17a4>
   12d90:	00c12783          	lw	a5,12(sp)
   12d94:	00778c13          	addi	s8,a5,7
   12d98:	ff8c7c13          	andi	s8,s8,-8
   12d9c:	000c2b03          	lw	s6,0(s8)
   12da0:	004c2803          	lw	a6,4(s8)
   12da4:	008c0793          	addi	a5,s8,8
   12da8:	00f12623          	sw	a5,12(sp)
   12dac:	001df793          	andi	a5,s11,1
   12db0:	00078e63          	beqz	a5,12dcc <_vfprintf_r+0x143c>
   12db4:	010b67b3          	or	a5,s6,a6
   12db8:	00078a63          	beqz	a5,12dcc <_vfprintf_r+0x143c>
   12dbc:	03000793          	li	a5,48
   12dc0:	0af10423          	sb	a5,168(sp)
   12dc4:	0b1104a3          	sb	a7,169(sp)
   12dc8:	002ded93          	ori	s11,s11,2
   12dcc:	bffdf613          	andi	a2,s11,-1025
   12dd0:	00200793          	li	a5,2
   12dd4:	8a8ff06f          	j	11e7c <_vfprintf_r+0x4ec>
   12dd8:	000d8613          	mv	a2,s11
   12ddc:	e00ff06f          	j	123dc <_vfprintf_r+0xa4c>
   12de0:	000217b7          	lui	a5,0x21
   12de4:	35478793          	addi	a5,a5,852 # 21354 <__clzsi2+0x60>
   12de8:	02f12823          	sw	a5,48(sp)
   12dec:	f9dff06f          	j	12d88 <_vfprintf_r+0x13f8>
   12df0:	00194883          	lbu	a7,1(s2)
   12df4:	200ded93          	ori	s11,s11,512
   12df8:	00190913          	addi	s2,s2,1
   12dfc:	d41fe06f          	j	11b3c <_vfprintf_r+0x1ac>
   12e00:	00194883          	lbu	a7,1(s2)
   12e04:	020ded93          	ori	s11,s11,32
   12e08:	00190913          	addi	s2,s2,1
   12e0c:	d31fe06f          	j	11b3c <_vfprintf_r+0x1ac>
   12e10:	0c410613          	addi	a2,sp,196
   12e14:	00048593          	mv	a1,s1
   12e18:	000b8513          	mv	a0,s7
   12e1c:	4f0010ef          	jal	1430c <__sprint_r>
   12e20:	a0051ae3          	bnez	a0,12834 <_vfprintf_r+0xea4>
   12e24:	0cc12603          	lw	a2,204(sp)
   12e28:	00098413          	mv	s0,s3
   12e2c:	f40ff06f          	j	1256c <_vfprintf_r+0xbdc>
   12e30:	00600793          	li	a5,6
   12e34:	000a0b13          	mv	s6,s4
   12e38:	1d47e6e3          	bltu	a5,s4,13804 <_vfprintf_r+0x1e74>
   12e3c:	000217b7          	lui	a5,0x21
   12e40:	000b0c13          	mv	s8,s6
   12e44:	01012623          	sw	a6,12(sp)
   12e48:	37c78d13          	addi	s10,a5,892 # 2137c <__clzsi2+0x88>
   12e4c:	d5dfe06f          	j	11ba8 <_vfprintf_r+0x218>
   12e50:	00021837          	lui	a6,0x21
   12e54:	01000593          	li	a1,16
   12e58:	0c812703          	lw	a4,200(sp)
   12e5c:	69080813          	addi	a6,a6,1680 # 21690 <zeroes.0>
   12e60:	6945d663          	bge	a1,s4,134ec <_vfprintf_r+0x1b5c>
   12e64:	03212a23          	sw	s2,52(sp)
   12e68:	01000893          	li	a7,16
   12e6c:	00700b13          	li	s6,7
   12e70:	00080913          	mv	s2,a6
   12e74:	00c0006f          	j	12e80 <_vfprintf_r+0x14f0>
   12e78:	ff0a0a13          	addi	s4,s4,-16
   12e7c:	6748d463          	bge	a7,s4,134e4 <_vfprintf_r+0x1b54>
   12e80:	01060613          	addi	a2,a2,16
   12e84:	00170713          	addi	a4,a4,1
   12e88:	01242023          	sw	s2,0(s0)
   12e8c:	01142223          	sw	a7,4(s0)
   12e90:	0cc12623          	sw	a2,204(sp)
   12e94:	0ce12423          	sw	a4,200(sp)
   12e98:	00840413          	addi	s0,s0,8
   12e9c:	fceb5ee3          	bge	s6,a4,12e78 <_vfprintf_r+0x14e8>
   12ea0:	0c410613          	addi	a2,sp,196
   12ea4:	00048593          	mv	a1,s1
   12ea8:	000b8513          	mv	a0,s7
   12eac:	460010ef          	jal	1430c <__sprint_r>
   12eb0:	980512e3          	bnez	a0,12834 <_vfprintf_r+0xea4>
   12eb4:	0cc12603          	lw	a2,204(sp)
   12eb8:	0c812703          	lw	a4,200(sp)
   12ebc:	00098413          	mv	s0,s3
   12ec0:	01000893          	li	a7,16
   12ec4:	fb5ff06f          	j	12e78 <_vfprintf_r+0x14e8>
   12ec8:	02c12703          	lw	a4,44(sp)
   12ecc:	02812783          	lw	a5,40(sp)
   12ed0:	00700513          	li	a0,7
   12ed4:	00e42023          	sw	a4,0(s0)
   12ed8:	0c812703          	lw	a4,200(sp)
   12edc:	00f60633          	add	a2,a2,a5
   12ee0:	00f42223          	sw	a5,4(s0)
   12ee4:	00170713          	addi	a4,a4,1
   12ee8:	0cc12623          	sw	a2,204(sp)
   12eec:	0ce12423          	sw	a4,200(sp)
   12ef0:	00840413          	addi	s0,s0,8
   12ef4:	bce556e3          	bge	a0,a4,12ac0 <_vfprintf_r+0x1130>
   12ef8:	0c410613          	addi	a2,sp,196
   12efc:	00048593          	mv	a1,s1
   12f00:	000b8513          	mv	a0,s7
   12f04:	408010ef          	jal	1430c <__sprint_r>
   12f08:	920516e3          	bnez	a0,12834 <_vfprintf_r+0xea4>
   12f0c:	0ac12583          	lw	a1,172(sp)
   12f10:	0cc12603          	lw	a2,204(sp)
   12f14:	00098413          	mv	s0,s3
   12f18:	ba9ff06f          	j	12ac0 <_vfprintf_r+0x1130>
   12f1c:	07800793          	li	a5,120
   12f20:	03000713          	li	a4,48
   12f24:	0ae10423          	sb	a4,168(sp)
   12f28:	0af104a3          	sb	a5,169(sp)
   12f2c:	06300713          	li	a4,99
   12f30:	00012423          	sw	zero,8(sp)
   12f34:	002ded93          	ori	s11,s11,2
   12f38:	12c10d13          	addi	s10,sp,300
   12f3c:	87475463          	bge	a4,s4,11fa4 <_vfprintf_r+0x614>
   12f40:	001a0593          	addi	a1,s4,1
   12f44:	000b8513          	mv	a0,s7
   12f48:	01112423          	sw	a7,8(sp)
   12f4c:	ab0fd0ef          	jal	101fc <_malloc_r>
   12f50:	00812883          	lw	a7,8(sp)
   12f54:	00050d13          	mv	s10,a0
   12f58:	00051463          	bnez	a0,12f60 <_vfprintf_r+0x15d0>
   12f5c:	2bc0106f          	j	14218 <_vfprintf_r+0x2888>
   12f60:	00a12423          	sw	a0,8(sp)
   12f64:	840ff06f          	j	11fa4 <_vfprintf_r+0x614>
   12f68:	09010b13          	addi	s6,sp,144
   12f6c:	0ac10713          	addi	a4,sp,172
   12f70:	0bc10813          	addi	a6,sp,188
   12f74:	0b010793          	addi	a5,sp,176
   12f78:	000a0693          	mv	a3,s4
   12f7c:	00200613          	li	a2,2
   12f80:	000b0593          	mv	a1,s6
   12f84:	000b8513          	mv	a0,s7
   12f88:	03112023          	sw	a7,32(sp)
   12f8c:	09f12823          	sw	t6,144(sp)
   12f90:	01f12e23          	sw	t6,28(sp)
   12f94:	09e12a23          	sw	t5,148(sp)
   12f98:	01e12c23          	sw	t5,24(sp)
   12f9c:	09d12c23          	sw	t4,152(sp)
   12fa0:	01d12a23          	sw	t4,20(sp)
   12fa4:	09812e23          	sw	s8,156(sp)
   12fa8:	57c020ef          	jal	15524 <_ldtoa_r>
   12fac:	001df713          	andi	a4,s11,1
   12fb0:	01412e83          	lw	t4,20(sp)
   12fb4:	01812f03          	lw	t5,24(sp)
   12fb8:	01c12f83          	lw	t6,28(sp)
   12fbc:	02012883          	lw	a7,32(sp)
   12fc0:	00050d13          	mv	s10,a0
   12fc4:	0e0714e3          	bnez	a4,138ac <_vfprintf_r+0x1f1c>
   12fc8:	0ac12783          	lw	a5,172(sp)
   12fcc:	00f12a23          	sw	a5,20(sp)
   12fd0:	0bc12783          	lw	a5,188(sp)
   12fd4:	40a787b3          	sub	a5,a5,a0
   12fd8:	00f12c23          	sw	a5,24(sp)
   12fdc:	01412783          	lw	a5,20(sp)
   12fe0:	ffd00713          	li	a4,-3
   12fe4:	00e7c463          	blt	a5,a4,12fec <_vfprintf_r+0x165c>
   12fe8:	56fa5ee3          	bge	s4,a5,13d64 <_vfprintf_r+0x23d4>
   12fec:	01412783          	lw	a5,20(sp)
   12ff0:	ffe88893          	addi	a7,a7,-2
   12ff4:	fff78a13          	addi	s4,a5,-1
   12ff8:	0b412623          	sw	s4,172(sp)
   12ffc:	0ff8f693          	zext.b	a3,a7
   13000:	00000613          	li	a2,0
   13004:	0ad10a23          	sb	a3,180(sp)
   13008:	02b00693          	li	a3,43
   1300c:	000a5a63          	bgez	s4,13020 <_vfprintf_r+0x1690>
   13010:	01412783          	lw	a5,20(sp)
   13014:	00100713          	li	a4,1
   13018:	02d00693          	li	a3,45
   1301c:	40f70a33          	sub	s4,a4,a5
   13020:	0ad10aa3          	sb	a3,181(sp)
   13024:	00900693          	li	a3,9
   13028:	0146c463          	blt	a3,s4,13030 <_vfprintf_r+0x16a0>
   1302c:	0200106f          	j	1404c <_vfprintf_r+0x26bc>
   13030:	0c310613          	addi	a2,sp,195
   13034:	00812a23          	sw	s0,20(sp)
   13038:	00088b13          	mv	s6,a7
   1303c:	00060413          	mv	s0,a2
   13040:	00912e23          	sw	s1,28(sp)
   13044:	00a00593          	li	a1,10
   13048:	000a0513          	mv	a0,s4
   1304c:	2780e0ef          	jal	212c4 <__modsi3>
   13050:	03050793          	addi	a5,a0,48
   13054:	00040c13          	mv	s8,s0
   13058:	fefc0fa3          	sb	a5,-1(s8)
   1305c:	000a0513          	mv	a0,s4
   13060:	00a00593          	li	a1,10
   13064:	1dc0e0ef          	jal	21240 <__divsi3>
   13068:	000a0493          	mv	s1,s4
   1306c:	06300793          	li	a5,99
   13070:	fff40413          	addi	s0,s0,-1
   13074:	00050a13          	mv	s4,a0
   13078:	fc97c6e3          	blt	a5,s1,13044 <_vfprintf_r+0x16b4>
   1307c:	00040613          	mv	a2,s0
   13080:	03050713          	addi	a4,a0,48
   13084:	ffec0693          	addi	a3,s8,-2
   13088:	fee60fa3          	sb	a4,-1(a2)
   1308c:	0c310793          	addi	a5,sp,195
   13090:	01412403          	lw	s0,20(sp)
   13094:	01c12483          	lw	s1,28(sp)
   13098:	000b0893          	mv	a7,s6
   1309c:	00f6e463          	bltu	a3,a5,130a4 <_vfprintf_r+0x1714>
   130a0:	1300106f          	j	141d0 <_vfprintf_r+0x2840>
   130a4:	0b610613          	addi	a2,sp,182
   130a8:	0006c783          	lbu	a5,0(a3)
   130ac:	00168693          	addi	a3,a3,1
   130b0:	00160613          	addi	a2,a2,1
   130b4:	fef60fa3          	sb	a5,-1(a2)
   130b8:	0c310793          	addi	a5,sp,195
   130bc:	fef696e3          	bne	a3,a5,130a8 <_vfprintf_r+0x1718>
   130c0:	19010793          	addi	a5,sp,400
   130c4:	41878733          	sub	a4,a5,s8
   130c8:	f3770793          	addi	a5,a4,-201
   130cc:	02f12e23          	sw	a5,60(sp)
   130d0:	01812783          	lw	a5,24(sp)
   130d4:	03c12683          	lw	a3,60(sp)
   130d8:	00100713          	li	a4,1
   130dc:	00d78b33          	add	s6,a5,a3
   130e0:	00f74463          	blt	a4,a5,130e8 <_vfprintf_r+0x1758>
   130e4:	7a50006f          	j	14088 <_vfprintf_r+0x26f8>
   130e8:	02812783          	lw	a5,40(sp)
   130ec:	00fb0b33          	add	s6,s6,a5
   130f0:	fffb4693          	not	a3,s6
   130f4:	bffdfe13          	andi	t3,s11,-1025
   130f8:	41f6d693          	srai	a3,a3,0x1f
   130fc:	100e6793          	ori	a5,t3,256
   13100:	04f12423          	sw	a5,72(sp)
   13104:	00db7c33          	and	s8,s6,a3
   13108:	02012023          	sw	zero,32(sp)
   1310c:	00012e23          	sw	zero,28(sp)
   13110:	00012a23          	sw	zero,20(sp)
   13114:	03412783          	lw	a5,52(sp)
   13118:	42078ae3          	beqz	a5,13d4c <_vfprintf_r+0x23bc>
   1311c:	02d00713          	li	a4,45
   13120:	04812d83          	lw	s11,72(sp)
   13124:	0ae103a3          	sb	a4,167(sp)
   13128:	00000a13          	li	s4,0
   1312c:	001c0c13          	addi	s8,s8,1
   13130:	a8dfe06f          	j	11bbc <_vfprintf_r+0x22c>
   13134:	00c12683          	lw	a3,12(sp)
   13138:	010df793          	andi	a5,s11,16
   1313c:	0006a703          	lw	a4,0(a3)
   13140:	00468693          	addi	a3,a3,4
   13144:	00d12623          	sw	a3,12(sp)
   13148:	06079663          	bnez	a5,131b4 <_vfprintf_r+0x1824>
   1314c:	040df793          	andi	a5,s11,64
   13150:	04078e63          	beqz	a5,131ac <_vfprintf_r+0x181c>
   13154:	01071b13          	slli	s6,a4,0x10
   13158:	010b5b13          	srli	s6,s6,0x10
   1315c:	00000813          	li	a6,0
   13160:	c4dff06f          	j	12dac <_vfprintf_r+0x141c>
   13164:	0c410613          	addi	a2,sp,196
   13168:	00048593          	mv	a1,s1
   1316c:	000b8513          	mv	a0,s7
   13170:	19c010ef          	jal	1430c <__sprint_r>
   13174:	ec051063          	bnez	a0,12834 <_vfprintf_r+0xea4>
   13178:	0cc12603          	lw	a2,204(sp)
   1317c:	0c812a03          	lw	s4,200(sp)
   13180:	00098b13          	mv	s6,s3
   13184:	ee9fe06f          	j	1206c <_vfprintf_r+0x6dc>
   13188:	0c410613          	addi	a2,sp,196
   1318c:	00048593          	mv	a1,s1
   13190:	000b8513          	mv	a0,s7
   13194:	178010ef          	jal	1430c <__sprint_r>
   13198:	e8051e63          	bnez	a0,12834 <_vfprintf_r+0xea4>
   1319c:	0cc12603          	lw	a2,204(sp)
   131a0:	0c812a03          	lw	s4,200(sp)
   131a4:	00098b13          	mv	s6,s3
   131a8:	ef5fe06f          	j	1209c <_vfprintf_r+0x70c>
   131ac:	200df793          	andi	a5,s11,512
   131b0:	68079863          	bnez	a5,13840 <_vfprintf_r+0x1eb0>
   131b4:	00070b13          	mv	s6,a4
   131b8:	00000813          	li	a6,0
   131bc:	bf1ff06f          	j	12dac <_vfprintf_r+0x141c>
   131c0:	19010c13          	addi	s8,sp,400
   131c4:	01212423          	sw	s2,8(sp)
   131c8:	02812023          	sw	s0,32(sp)
   131cc:	02912a23          	sw	s1,52(sp)
   131d0:	03812403          	lw	s0,56(sp)
   131d4:	40067d93          	andi	s11,a2,1024
   131d8:	00000d13          	li	s10,0
   131dc:	01112a23          	sw	a7,20(sp)
   131e0:	00c12e23          	sw	a2,28(sp)
   131e4:	000c0493          	mv	s1,s8
   131e8:	00080913          	mv	s2,a6
   131ec:	0280006f          	j	13214 <_vfprintf_r+0x1884>
   131f0:	00a00613          	li	a2,10
   131f4:	00000693          	li	a3,0
   131f8:	000b0513          	mv	a0,s6
   131fc:	00090593          	mv	a1,s2
   13200:	3b0080ef          	jal	1b5b0 <__udivdi3>
   13204:	3e0906e3          	beqz	s2,13df0 <_vfprintf_r+0x2460>
   13208:	00050b13          	mv	s6,a0
   1320c:	00058913          	mv	s2,a1
   13210:	000c0493          	mv	s1,s8
   13214:	00a00613          	li	a2,10
   13218:	00000693          	li	a3,0
   1321c:	000b0513          	mv	a0,s6
   13220:	00090593          	mv	a1,s2
   13224:	151080ef          	jal	1bb74 <__umoddi3>
   13228:	03050513          	addi	a0,a0,48
   1322c:	fea48fa3          	sb	a0,-1(s1)
   13230:	fff48c13          	addi	s8,s1,-1
   13234:	001d0d13          	addi	s10,s10,1
   13238:	fa0d8ce3          	beqz	s11,131f0 <_vfprintf_r+0x1860>
   1323c:	00044783          	lbu	a5,0(s0)
   13240:	fafd18e3          	bne	s10,a5,131f0 <_vfprintf_r+0x1860>
   13244:	0ff00793          	li	a5,255
   13248:	fafd04e3          	beq	s10,a5,131f0 <_vfprintf_r+0x1860>
   1324c:	2e091263          	bnez	s2,13530 <_vfprintf_r+0x1ba0>
   13250:	00900793          	li	a5,9
   13254:	2d67ee63          	bltu	a5,s6,13530 <_vfprintf_r+0x1ba0>
   13258:	01c12603          	lw	a2,28(sp)
   1325c:	01a12c23          	sw	s10,24(sp)
   13260:	19010793          	addi	a5,sp,400
   13264:	000c0d13          	mv	s10,s8
   13268:	02812c23          	sw	s0,56(sp)
   1326c:	00812903          	lw	s2,8(sp)
   13270:	01412883          	lw	a7,20(sp)
   13274:	02012403          	lw	s0,32(sp)
   13278:	03412483          	lw	s1,52(sp)
   1327c:	41a78b33          	sub	s6,a5,s10
   13280:	00060d93          	mv	s11,a2
   13284:	b9dfe06f          	j	11e20 <_vfprintf_r+0x490>
   13288:	0c812703          	lw	a4,200(sp)
   1328c:	000215b7          	lui	a1,0x21
   13290:	38458593          	addi	a1,a1,900 # 21384 <__clzsi2+0x90>
   13294:	00b42023          	sw	a1,0(s0)
   13298:	00160613          	addi	a2,a2,1
   1329c:	00100593          	li	a1,1
   132a0:	00170713          	addi	a4,a4,1
   132a4:	00b42223          	sw	a1,4(s0)
   132a8:	0cc12623          	sw	a2,204(sp)
   132ac:	0ce12423          	sw	a4,200(sp)
   132b0:	00700593          	li	a1,7
   132b4:	00840413          	addi	s0,s0,8
   132b8:	4ee5ca63          	blt	a1,a4,137ac <_vfprintf_r+0x1e1c>
   132bc:	14051063          	bnez	a0,133fc <_vfprintf_r+0x1a6c>
   132c0:	01812783          	lw	a5,24(sp)
   132c4:	001df713          	andi	a4,s11,1
   132c8:	00f76733          	or	a4,a4,a5
   132cc:	00071463          	bnez	a4,132d4 <_vfprintf_r+0x1944>
   132d0:	9b9fe06f          	j	11c88 <_vfprintf_r+0x2f8>
   132d4:	02c12703          	lw	a4,44(sp)
   132d8:	02812783          	lw	a5,40(sp)
   132dc:	00700593          	li	a1,7
   132e0:	00e42023          	sw	a4,0(s0)
   132e4:	0c812703          	lw	a4,200(sp)
   132e8:	00c78633          	add	a2,a5,a2
   132ec:	00f42223          	sw	a5,4(s0)
   132f0:	00170713          	addi	a4,a4,1
   132f4:	0cc12623          	sw	a2,204(sp)
   132f8:	0ce12423          	sw	a4,200(sp)
   132fc:	58e5c263          	blt	a1,a4,13880 <_vfprintf_r+0x1ef0>
   13300:	00840413          	addi	s0,s0,8
   13304:	12c0006f          	j	13430 <_vfprintf_r+0x1aa0>
   13308:	02412503          	lw	a0,36(sp)
   1330c:	9b5fd0ef          	jal	10cc0 <__sinit>
   13310:	ee0fe06f          	j	119f0 <_vfprintf_r+0x60>
   13314:	0c410613          	addi	a2,sp,196
   13318:	00048593          	mv	a1,s1
   1331c:	000b8513          	mv	a0,s7
   13320:	7ed000ef          	jal	1430c <__sprint_r>
   13324:	d0051863          	bnez	a0,12834 <_vfprintf_r+0xea4>
   13328:	0cc12603          	lw	a2,204(sp)
   1332c:	00098413          	mv	s0,s3
   13330:	a00ff06f          	j	12530 <_vfprintf_r+0xba0>
   13334:	00090813          	mv	a6,s2
   13338:	01412903          	lw	s2,20(sp)
   1333c:	01042023          	sw	a6,0(s0)
   13340:	01442223          	sw	s4,4(s0)
   13344:	01460633          	add	a2,a2,s4
   13348:	00178793          	addi	a5,a5,1
   1334c:	0cc12623          	sw	a2,204(sp)
   13350:	0cf12423          	sw	a5,200(sp)
   13354:	00700713          	li	a4,7
   13358:	00f74463          	blt	a4,a5,13360 <_vfprintf_r+0x19d0>
   1335c:	929fe06f          	j	11c84 <_vfprintf_r+0x2f4>
   13360:	de1fe06f          	j	12140 <_vfprintf_r+0x7b0>
   13364:	0d012783          	lw	a5,208(sp)
   13368:	08010593          	addi	a1,sp,128
   1336c:	09010513          	addi	a0,sp,144
   13370:	08f12823          	sw	a5,144(sp)
   13374:	0d412783          	lw	a5,212(sp)
   13378:	08012023          	sw	zero,128(sp)
   1337c:	08012223          	sw	zero,132(sp)
   13380:	08f12a23          	sw	a5,148(sp)
   13384:	0d812783          	lw	a5,216(sp)
   13388:	08012423          	sw	zero,136(sp)
   1338c:	08012623          	sw	zero,140(sp)
   13390:	08f12c23          	sw	a5,152(sp)
   13394:	0dc12783          	lw	a5,220(sp)
   13398:	08f12e23          	sw	a5,156(sp)
   1339c:	7dd0a0ef          	jal	1e378 <__letf2>
   133a0:	00812883          	lw	a7,8(sp)
   133a4:	260542e3          	bltz	a0,13e08 <_vfprintf_r+0x2478>
   133a8:	0a714703          	lbu	a4,167(sp)
   133ac:	04700793          	li	a5,71
   133b0:	4317d263          	bge	a5,a7,137d4 <_vfprintf_r+0x1e44>
   133b4:	000217b7          	lui	a5,0x21
   133b8:	34878d13          	addi	s10,a5,840 # 21348 <__clzsi2+0x54>
   133bc:	00012423          	sw	zero,8(sp)
   133c0:	02012023          	sw	zero,32(sp)
   133c4:	00012e23          	sw	zero,28(sp)
   133c8:	00012a23          	sw	zero,20(sp)
   133cc:	f7fdfd93          	andi	s11,s11,-129
   133d0:	00300c13          	li	s8,3
   133d4:	00300b13          	li	s6,3
   133d8:	00000a13          	li	s4,0
   133dc:	00070463          	beqz	a4,133e4 <_vfprintf_r+0x1a54>
   133e0:	a65fe06f          	j	11e44 <_vfprintf_r+0x4b4>
   133e4:	fd8fe06f          	j	11bbc <_vfprintf_r+0x22c>
   133e8:	00c12783          	lw	a5,12(sp)
   133ec:	00412703          	lw	a4,4(sp)
   133f0:	0007a783          	lw	a5,0(a5)
   133f4:	00e7a023          	sw	a4,0(a5)
   133f8:	878ff06f          	j	12470 <_vfprintf_r+0xae0>
   133fc:	02c12703          	lw	a4,44(sp)
   13400:	02812783          	lw	a5,40(sp)
   13404:	00700593          	li	a1,7
   13408:	00e42023          	sw	a4,0(s0)
   1340c:	0c812703          	lw	a4,200(sp)
   13410:	00c78633          	add	a2,a5,a2
   13414:	00f42223          	sw	a5,4(s0)
   13418:	00170713          	addi	a4,a4,1
   1341c:	0cc12623          	sw	a2,204(sp)
   13420:	0ce12423          	sw	a4,200(sp)
   13424:	00840413          	addi	s0,s0,8
   13428:	44e5cc63          	blt	a1,a4,13880 <_vfprintf_r+0x1ef0>
   1342c:	34054ae3          	bltz	a0,13f80 <_vfprintf_r+0x25f0>
   13430:	01812783          	lw	a5,24(sp)
   13434:	00170713          	addi	a4,a4,1
   13438:	01a42023          	sw	s10,0(s0)
   1343c:	00c78633          	add	a2,a5,a2
   13440:	00f42223          	sw	a5,4(s0)
   13444:	0cc12623          	sw	a2,204(sp)
   13448:	0ce12423          	sw	a4,200(sp)
   1344c:	00700793          	li	a5,7
   13450:	00e7c463          	blt	a5,a4,13458 <_vfprintf_r+0x1ac8>
   13454:	831fe06f          	j	11c84 <_vfprintf_r+0x2f4>
   13458:	ce9fe06f          	j	12140 <_vfprintf_r+0x7b0>
   1345c:	000d0513          	mv	a0,s10
   13460:	01012423          	sw	a6,8(sp)
   13464:	03112a23          	sw	a7,52(sp)
   13468:	615010ef          	jal	1527c <strlen>
   1346c:	00812803          	lw	a6,8(sp)
   13470:	0a714703          	lbu	a4,167(sp)
   13474:	fff54693          	not	a3,a0
   13478:	41f6d693          	srai	a3,a3,0x1f
   1347c:	01012623          	sw	a6,12(sp)
   13480:	00012423          	sw	zero,8(sp)
   13484:	02012023          	sw	zero,32(sp)
   13488:	00012e23          	sw	zero,28(sp)
   1348c:	00012a23          	sw	zero,20(sp)
   13490:	03412883          	lw	a7,52(sp)
   13494:	00050b13          	mv	s6,a0
   13498:	00d57c33          	and	s8,a0,a3
   1349c:	00000a13          	li	s4,0
   134a0:	00070463          	beqz	a4,134a8 <_vfprintf_r+0x1b18>
   134a4:	9a1fe06f          	j	11e44 <_vfprintf_r+0x4b4>
   134a8:	f14fe06f          	j	11bbc <_vfprintf_r+0x22c>
   134ac:	00090813          	mv	a6,s2
   134b0:	01412903          	lw	s2,20(sp)
   134b4:	00860633          	add	a2,a2,s0
   134b8:	001a0a13          	addi	s4,s4,1
   134bc:	010b2023          	sw	a6,0(s6)
   134c0:	c3dfe06f          	j	120fc <_vfprintf_r+0x76c>
   134c4:	0dc12783          	lw	a5,220(sp)
   134c8:	3807ca63          	bltz	a5,1385c <_vfprintf_r+0x1ecc>
   134cc:	0a714703          	lbu	a4,167(sp)
   134d0:	04700793          	li	a5,71
   134d4:	1b17c0e3          	blt	a5,a7,13e74 <_vfprintf_r+0x24e4>
   134d8:	000217b7          	lui	a5,0x21
   134dc:	34c78d13          	addi	s10,a5,844 # 2134c <__clzsi2+0x58>
   134e0:	eddff06f          	j	133bc <_vfprintf_r+0x1a2c>
   134e4:	00090813          	mv	a6,s2
   134e8:	03412903          	lw	s2,52(sp)
   134ec:	01460633          	add	a2,a2,s4
   134f0:	00170713          	addi	a4,a4,1
   134f4:	01042023          	sw	a6,0(s0)
   134f8:	01442223          	sw	s4,4(s0)
   134fc:	0cc12623          	sw	a2,204(sp)
   13500:	0ce12423          	sw	a4,200(sp)
   13504:	00700593          	li	a1,7
   13508:	00840413          	addi	s0,s0,8
   1350c:	d8e5d863          	bge	a1,a4,12a9c <_vfprintf_r+0x110c>
   13510:	0c410613          	addi	a2,sp,196
   13514:	00048593          	mv	a1,s1
   13518:	000b8513          	mv	a0,s7
   1351c:	5f1000ef          	jal	1430c <__sprint_r>
   13520:	b0051a63          	bnez	a0,12834 <_vfprintf_r+0xea4>
   13524:	0cc12603          	lw	a2,204(sp)
   13528:	00098413          	mv	s0,s3
   1352c:	d70ff06f          	j	12a9c <_vfprintf_r+0x110c>
   13530:	04012783          	lw	a5,64(sp)
   13534:	04412583          	lw	a1,68(sp)
   13538:	00000d13          	li	s10,0
   1353c:	40fc0c33          	sub	s8,s8,a5
   13540:	00078613          	mv	a2,a5
   13544:	000c0513          	mv	a0,s8
   13548:	165010ef          	jal	14eac <strncpy>
   1354c:	00144783          	lbu	a5,1(s0)
   13550:	00a00613          	li	a2,10
   13554:	00000693          	li	a3,0
   13558:	00f037b3          	snez	a5,a5
   1355c:	000b0513          	mv	a0,s6
   13560:	00090593          	mv	a1,s2
   13564:	00f40433          	add	s0,s0,a5
   13568:	048080ef          	jal	1b5b0 <__udivdi3>
   1356c:	c9dff06f          	j	13208 <_vfprintf_r+0x1878>
   13570:	01812783          	lw	a5,24(sp)
   13574:	01c12b03          	lw	s6,28(sp)
   13578:	000218b7          	lui	a7,0x21
   1357c:	00fd07b3          	add	a5,s10,a5
   13580:	03212a23          	sw	s2,52(sp)
   13584:	05912623          	sw	s9,76(sp)
   13588:	01812e23          	sw	s8,28(sp)
   1358c:	05a12823          	sw	s10,80(sp)
   13590:	05b12423          	sw	s11,72(sp)
   13594:	000a0c93          	mv	s9,s4
   13598:	00040693          	mv	a3,s0
   1359c:	04012a03          	lw	s4,64(sp)
   135a0:	04412403          	lw	s0,68(sp)
   135a4:	03812c03          	lw	s8,56(sp)
   135a8:	02012d03          	lw	s10,32(sp)
   135ac:	00700813          	li	a6,7
   135b0:	01000713          	li	a4,16
   135b4:	69088893          	addi	a7,a7,1680 # 21690 <zeroes.0>
   135b8:	00078913          	mv	s2,a5
   135bc:	09605463          	blez	s6,13644 <_vfprintf_r+0x1cb4>
   135c0:	17a05e63          	blez	s10,1373c <_vfprintf_r+0x1dac>
   135c4:	fffd0d13          	addi	s10,s10,-1
   135c8:	0c812783          	lw	a5,200(sp)
   135cc:	01460633          	add	a2,a2,s4
   135d0:	0086a023          	sw	s0,0(a3)
   135d4:	00178793          	addi	a5,a5,1
   135d8:	0146a223          	sw	s4,4(a3)
   135dc:	0cc12623          	sw	a2,204(sp)
   135e0:	0cf12423          	sw	a5,200(sp)
   135e4:	00868693          	addi	a3,a3,8
   135e8:	16f84063          	blt	a6,a5,13748 <_vfprintf_r+0x1db8>
   135ec:	000c4583          	lbu	a1,0(s8)
   135f0:	41990db3          	sub	s11,s2,s9
   135f4:	01b5d463          	bge	a1,s11,135fc <_vfprintf_r+0x1c6c>
   135f8:	00058d93          	mv	s11,a1
   135fc:	03b05663          	blez	s11,13628 <_vfprintf_r+0x1c98>
   13600:	0c812583          	lw	a1,200(sp)
   13604:	01b60633          	add	a2,a2,s11
   13608:	0196a023          	sw	s9,0(a3)
   1360c:	00158593          	addi	a1,a1,1
   13610:	01b6a223          	sw	s11,4(a3)
   13614:	0cc12623          	sw	a2,204(sp)
   13618:	0cb12423          	sw	a1,200(sp)
   1361c:	14b84e63          	blt	a6,a1,13778 <_vfprintf_r+0x1de8>
   13620:	000c4583          	lbu	a1,0(s8)
   13624:	00868693          	addi	a3,a3,8
   13628:	fffdc513          	not	a0,s11
   1362c:	41f55513          	srai	a0,a0,0x1f
   13630:	00adf7b3          	and	a5,s11,a0
   13634:	40f58db3          	sub	s11,a1,a5
   13638:	05b04263          	bgtz	s11,1367c <_vfprintf_r+0x1cec>
   1363c:	00bc8cb3          	add	s9,s9,a1
   13640:	f96040e3          	bgtz	s6,135c0 <_vfprintf_r+0x1c30>
   13644:	f9a040e3          	bgtz	s10,135c4 <_vfprintf_r+0x1c34>
   13648:	05012d03          	lw	s10,80(sp)
   1364c:	01812783          	lw	a5,24(sp)
   13650:	03812c23          	sw	s8,56(sp)
   13654:	000c8a13          	mv	s4,s9
   13658:	00fd0733          	add	a4,s10,a5
   1365c:	03412903          	lw	s2,52(sp)
   13660:	04812d83          	lw	s11,72(sp)
   13664:	04c12c83          	lw	s9,76(sp)
   13668:	01c12c03          	lw	s8,28(sp)
   1366c:	00068413          	mv	s0,a3
   13670:	c3477e63          	bgeu	a4,s4,12aac <_vfprintf_r+0x111c>
   13674:	00070a13          	mv	s4,a4
   13678:	c34ff06f          	j	12aac <_vfprintf_r+0x111c>
   1367c:	00021fb7          	lui	t6,0x21
   13680:	0c812583          	lw	a1,200(sp)
   13684:	690f8f93          	addi	t6,t6,1680 # 21690 <zeroes.0>
   13688:	09b75463          	bge	a4,s11,13710 <_vfprintf_r+0x1d80>
   1368c:	00812a23          	sw	s0,20(sp)
   13690:	000d8413          	mv	s0,s11
   13694:	00090d93          	mv	s11,s2
   13698:	00088913          	mv	s2,a7
   1369c:	00c0006f          	j	136a8 <_vfprintf_r+0x1d18>
   136a0:	ff040413          	addi	s0,s0,-16
   136a4:	04875e63          	bge	a4,s0,13700 <_vfprintf_r+0x1d70>
   136a8:	01060613          	addi	a2,a2,16
   136ac:	00158593          	addi	a1,a1,1
   136b0:	0116a023          	sw	a7,0(a3)
   136b4:	00e6a223          	sw	a4,4(a3)
   136b8:	0cc12623          	sw	a2,204(sp)
   136bc:	0cb12423          	sw	a1,200(sp)
   136c0:	00868693          	addi	a3,a3,8
   136c4:	fcb85ee3          	bge	a6,a1,136a0 <_vfprintf_r+0x1d10>
   136c8:	0c410613          	addi	a2,sp,196
   136cc:	00048593          	mv	a1,s1
   136d0:	000b8513          	mv	a0,s7
   136d4:	439000ef          	jal	1430c <__sprint_r>
   136d8:	94051e63          	bnez	a0,12834 <_vfprintf_r+0xea4>
   136dc:	000217b7          	lui	a5,0x21
   136e0:	01000713          	li	a4,16
   136e4:	ff040413          	addi	s0,s0,-16
   136e8:	0cc12603          	lw	a2,204(sp)
   136ec:	0c812583          	lw	a1,200(sp)
   136f0:	00098693          	mv	a3,s3
   136f4:	69078893          	addi	a7,a5,1680 # 21690 <zeroes.0>
   136f8:	00700813          	li	a6,7
   136fc:	fa8746e3          	blt	a4,s0,136a8 <_vfprintf_r+0x1d18>
   13700:	00090f93          	mv	t6,s2
   13704:	000d8913          	mv	s2,s11
   13708:	00040d93          	mv	s11,s0
   1370c:	01412403          	lw	s0,20(sp)
   13710:	01b60633          	add	a2,a2,s11
   13714:	00158593          	addi	a1,a1,1
   13718:	01f6a023          	sw	t6,0(a3)
   1371c:	01b6a223          	sw	s11,4(a3)
   13720:	0cc12623          	sw	a2,204(sp)
   13724:	0cb12423          	sw	a1,200(sp)
   13728:	68b84663          	blt	a6,a1,13db4 <_vfprintf_r+0x2424>
   1372c:	000c4583          	lbu	a1,0(s8)
   13730:	00868693          	addi	a3,a3,8
   13734:	00bc8cb3          	add	s9,s9,a1
   13738:	f09ff06f          	j	13640 <_vfprintf_r+0x1cb0>
   1373c:	fffc0c13          	addi	s8,s8,-1
   13740:	fffb0b13          	addi	s6,s6,-1
   13744:	e85ff06f          	j	135c8 <_vfprintf_r+0x1c38>
   13748:	0c410613          	addi	a2,sp,196
   1374c:	00048593          	mv	a1,s1
   13750:	000b8513          	mv	a0,s7
   13754:	3b9000ef          	jal	1430c <__sprint_r>
   13758:	8c051e63          	bnez	a0,12834 <_vfprintf_r+0xea4>
   1375c:	000217b7          	lui	a5,0x21
   13760:	0cc12603          	lw	a2,204(sp)
   13764:	00098693          	mv	a3,s3
   13768:	69078893          	addi	a7,a5,1680 # 21690 <zeroes.0>
   1376c:	01000713          	li	a4,16
   13770:	00700813          	li	a6,7
   13774:	e79ff06f          	j	135ec <_vfprintf_r+0x1c5c>
   13778:	0c410613          	addi	a2,sp,196
   1377c:	00048593          	mv	a1,s1
   13780:	000b8513          	mv	a0,s7
   13784:	389000ef          	jal	1430c <__sprint_r>
   13788:	8a051663          	bnez	a0,12834 <_vfprintf_r+0xea4>
   1378c:	000217b7          	lui	a5,0x21
   13790:	000c4583          	lbu	a1,0(s8)
   13794:	0cc12603          	lw	a2,204(sp)
   13798:	00098693          	mv	a3,s3
   1379c:	69078893          	addi	a7,a5,1680 # 21690 <zeroes.0>
   137a0:	01000713          	li	a4,16
   137a4:	00700813          	li	a6,7
   137a8:	e81ff06f          	j	13628 <_vfprintf_r+0x1c98>
   137ac:	0c410613          	addi	a2,sp,196
   137b0:	00048593          	mv	a1,s1
   137b4:	000b8513          	mv	a0,s7
   137b8:	355000ef          	jal	1430c <__sprint_r>
   137bc:	00050463          	beqz	a0,137c4 <_vfprintf_r+0x1e34>
   137c0:	874ff06f          	j	12834 <_vfprintf_r+0xea4>
   137c4:	0ac12503          	lw	a0,172(sp)
   137c8:	0cc12603          	lw	a2,204(sp)
   137cc:	00098413          	mv	s0,s3
   137d0:	aedff06f          	j	132bc <_vfprintf_r+0x192c>
   137d4:	000217b7          	lui	a5,0x21
   137d8:	34478d13          	addi	s10,a5,836 # 21344 <__clzsi2+0x50>
   137dc:	be1ff06f          	j	133bc <_vfprintf_r+0x1a2c>
   137e0:	0c410613          	addi	a2,sp,196
   137e4:	00048593          	mv	a1,s1
   137e8:	000b8513          	mv	a0,s7
   137ec:	321000ef          	jal	1430c <__sprint_r>
   137f0:	00050463          	beqz	a0,137f8 <_vfprintf_r+0x1e68>
   137f4:	840ff06f          	j	12834 <_vfprintf_r+0xea4>
   137f8:	0cc12603          	lw	a2,204(sp)
   137fc:	00098413          	mv	s0,s3
   13800:	a84ff06f          	j	12a84 <_vfprintf_r+0x10f4>
   13804:	00600b13          	li	s6,6
   13808:	e34ff06f          	j	12e3c <_vfprintf_r+0x14ac>
   1380c:	00c12783          	lw	a5,12(sp)
   13810:	00412703          	lw	a4,4(sp)
   13814:	0007a783          	lw	a5,0(a5)
   13818:	00e79023          	sh	a4,0(a5)
   1381c:	c55fe06f          	j	12470 <_vfprintf_r+0xae0>
   13820:	01871b13          	slli	s6,a4,0x18
   13824:	418b5b13          	srai	s6,s6,0x18
   13828:	41fb5813          	srai	a6,s6,0x1f
   1382c:	00080793          	mv	a5,a6
   13830:	dc8fe06f          	j	11df8 <_vfprintf_r+0x468>
   13834:	0ff77b13          	zext.b	s6,a4
   13838:	00000813          	li	a6,0
   1383c:	e38fe06f          	j	11e74 <_vfprintf_r+0x4e4>
   13840:	0ff77b13          	zext.b	s6,a4
   13844:	00000813          	li	a6,0
   13848:	d64ff06f          	j	12dac <_vfprintf_r+0x141c>
   1384c:	0ff77b13          	zext.b	s6,a4
   13850:	00000813          	li	a6,0
   13854:	00100793          	li	a5,1
   13858:	e24fe06f          	j	11e7c <_vfprintf_r+0x4ec>
   1385c:	02d00793          	li	a5,45
   13860:	0af103a3          	sb	a5,167(sp)
   13864:	02d00713          	li	a4,45
   13868:	c69ff06f          	j	134d0 <_vfprintf_r+0x1b40>
   1386c:	02412503          	lw	a0,36(sp)
   13870:	0c410613          	addi	a2,sp,196
   13874:	00048593          	mv	a1,s1
   13878:	295000ef          	jal	1430c <__sprint_r>
   1387c:	c6cfe06f          	j	11ce8 <_vfprintf_r+0x358>
   13880:	0c410613          	addi	a2,sp,196
   13884:	00048593          	mv	a1,s1
   13888:	000b8513          	mv	a0,s7
   1388c:	281000ef          	jal	1430c <__sprint_r>
   13890:	00050463          	beqz	a0,13898 <_vfprintf_r+0x1f08>
   13894:	fa1fe06f          	j	12834 <_vfprintf_r+0xea4>
   13898:	0ac12503          	lw	a0,172(sp)
   1389c:	0cc12603          	lw	a2,204(sp)
   138a0:	0c812703          	lw	a4,200(sp)
   138a4:	00098413          	mv	s0,s3
   138a8:	b85ff06f          	j	1342c <_vfprintf_r+0x1a9c>
   138ac:	01450733          	add	a4,a0,s4
   138b0:	04700613          	li	a2,71
   138b4:	08010593          	addi	a1,sp,128
   138b8:	000b0513          	mv	a0,s6
   138bc:	00e12e23          	sw	a4,28(sp)
   138c0:	00c12c23          	sw	a2,24(sp)
   138c4:	01112a23          	sw	a7,20(sp)
   138c8:	09f12823          	sw	t6,144(sp)
   138cc:	09e12a23          	sw	t5,148(sp)
   138d0:	09d12c23          	sw	t4,152(sp)
   138d4:	09812e23          	sw	s8,156(sp)
   138d8:	08012023          	sw	zero,128(sp)
   138dc:	08012223          	sw	zero,132(sp)
   138e0:	08012423          	sw	zero,136(sp)
   138e4:	08012623          	sw	zero,140(sp)
   138e8:	0950a0ef          	jal	1e17c <__eqtf2>
   138ec:	01412883          	lw	a7,20(sp)
   138f0:	01812603          	lw	a2,24(sp)
   138f4:	01c12703          	lw	a4,28(sp)
   138f8:	58050463          	beqz	a0,13e80 <_vfprintf_r+0x24f0>
   138fc:	0bc12783          	lw	a5,188(sp)
   13900:	00e7fe63          	bgeu	a5,a4,1391c <_vfprintf_r+0x1f8c>
   13904:	03000593          	li	a1,48
   13908:	00178693          	addi	a3,a5,1
   1390c:	0ad12e23          	sw	a3,188(sp)
   13910:	00b78023          	sb	a1,0(a5)
   13914:	0bc12783          	lw	a5,188(sp)
   13918:	fee7e8e3          	bltu	a5,a4,13908 <_vfprintf_r+0x1f78>
   1391c:	0ac12703          	lw	a4,172(sp)
   13920:	00e12a23          	sw	a4,20(sp)
   13924:	41a787b3          	sub	a5,a5,s10
   13928:	04700713          	li	a4,71
   1392c:	00f12c23          	sw	a5,24(sp)
   13930:	eae60663          	beq	a2,a4,12fdc <_vfprintf_r+0x164c>
   13934:	04600713          	li	a4,70
   13938:	5ce60e63          	beq	a2,a4,13f14 <_vfprintf_r+0x2584>
   1393c:	01412783          	lw	a5,20(sp)
   13940:	fff78a13          	addi	s4,a5,-1
   13944:	eb4ff06f          	j	12ff8 <_vfprintf_r+0x1668>
   13948:	001a0693          	addi	a3,s4,1
   1394c:	00200613          	li	a2,2
   13950:	09010b13          	addi	s6,sp,144
   13954:	0ac10713          	addi	a4,sp,172
   13958:	000b0593          	mv	a1,s6
   1395c:	0bc10813          	addi	a6,sp,188
   13960:	0b010793          	addi	a5,sp,176
   13964:	000b8513          	mv	a0,s7
   13968:	05112623          	sw	a7,76(sp)
   1396c:	02d12023          	sw	a3,32(sp)
   13970:	09f12823          	sw	t6,144(sp)
   13974:	01f12e23          	sw	t6,28(sp)
   13978:	09e12a23          	sw	t5,148(sp)
   1397c:	01e12c23          	sw	t5,24(sp)
   13980:	09d12c23          	sw	t4,152(sp)
   13984:	01d12a23          	sw	t4,20(sp)
   13988:	09812e23          	sw	s8,156(sp)
   1398c:	399010ef          	jal	15524 <_ldtoa_r>
   13990:	04c12883          	lw	a7,76(sp)
   13994:	02012683          	lw	a3,32(sp)
   13998:	04600593          	li	a1,70
   1399c:	fdf8f613          	andi	a2,a7,-33
   139a0:	01412e83          	lw	t4,20(sp)
   139a4:	01812f03          	lw	t5,24(sp)
   139a8:	01c12f83          	lw	t6,28(sp)
   139ac:	00050d13          	mv	s10,a0
   139b0:	00d50733          	add	a4,a0,a3
   139b4:	04b61ce3          	bne	a2,a1,1420c <_vfprintf_r+0x287c>
   139b8:	000d4503          	lbu	a0,0(s10)
   139bc:	03000593          	li	a1,48
   139c0:	4cb50863          	beq	a0,a1,13e90 <_vfprintf_r+0x2500>
   139c4:	0ac12683          	lw	a3,172(sp)
   139c8:	08010593          	addi	a1,sp,128
   139cc:	00d70733          	add	a4,a4,a3
   139d0:	ee9ff06f          	j	138b8 <_vfprintf_r+0x1f28>
   139d4:	09010b13          	addi	s6,sp,144
   139d8:	08010593          	addi	a1,sp,128
   139dc:	0ac10613          	addi	a2,sp,172
   139e0:	000b0513          	mv	a0,s6
   139e4:	05112423          	sw	a7,72(sp)
   139e8:	09f12023          	sw	t6,128(sp)
   139ec:	09e12223          	sw	t5,132(sp)
   139f0:	09d12423          	sw	t4,136(sp)
   139f4:	00b12a23          	sw	a1,20(sp)
   139f8:	09812623          	sw	s8,140(sp)
   139fc:	10d010ef          	jal	15308 <frexpl>
   13a00:	09012703          	lw	a4,144(sp)
   13a04:	01412583          	lw	a1,20(sp)
   13a08:	07010613          	addi	a2,sp,112
   13a0c:	08e12023          	sw	a4,128(sp)
   13a10:	09412703          	lw	a4,148(sp)
   13a14:	000b0513          	mv	a0,s6
   13a18:	06012823          	sw	zero,112(sp)
   13a1c:	08e12223          	sw	a4,132(sp)
   13a20:	09812703          	lw	a4,152(sp)
   13a24:	06012a23          	sw	zero,116(sp)
   13a28:	06012c23          	sw	zero,120(sp)
   13a2c:	08e12423          	sw	a4,136(sp)
   13a30:	09c12703          	lw	a4,156(sp)
   13a34:	08e12623          	sw	a4,140(sp)
   13a38:	3ffc0737          	lui	a4,0x3ffc0
   13a3c:	06e12e23          	sw	a4,124(sp)
   13a40:	2690a0ef          	jal	1e4a8 <__multf3>
   13a44:	01412583          	lw	a1,20(sp)
   13a48:	09012f03          	lw	t5,144(sp)
   13a4c:	09412e83          	lw	t4,148(sp)
   13a50:	09812803          	lw	a6,152(sp)
   13a54:	09c12603          	lw	a2,156(sp)
   13a58:	000b0513          	mv	a0,s6
   13a5c:	02b12e23          	sw	a1,60(sp)
   13a60:	03e12023          	sw	t5,32(sp)
   13a64:	01d12e23          	sw	t4,28(sp)
   13a68:	01012c23          	sw	a6,24(sp)
   13a6c:	00c12a23          	sw	a2,20(sp)
   13a70:	08012023          	sw	zero,128(sp)
   13a74:	08012223          	sw	zero,132(sp)
   13a78:	08012423          	sw	zero,136(sp)
   13a7c:	08012623          	sw	zero,140(sp)
   13a80:	6fc0a0ef          	jal	1e17c <__eqtf2>
   13a84:	01412603          	lw	a2,20(sp)
   13a88:	01812803          	lw	a6,24(sp)
   13a8c:	01c12e83          	lw	t4,28(sp)
   13a90:	02012f03          	lw	t5,32(sp)
   13a94:	03c12583          	lw	a1,60(sp)
   13a98:	04812883          	lw	a7,72(sp)
   13a9c:	00051663          	bnez	a0,13aa8 <_vfprintf_r+0x2118>
   13aa0:	00100713          	li	a4,1
   13aa4:	0ae12623          	sw	a4,172(sp)
   13aa8:	06100713          	li	a4,97
   13aac:	6ce88663          	beq	a7,a4,14178 <_vfprintf_r+0x27e8>
   13ab0:	00021737          	lui	a4,0x21
   13ab4:	36870793          	addi	a5,a4,872 # 21368 <__clzsi2+0x74>
   13ab8:	00f12a23          	sw	a5,20(sp)
   13abc:	01212c23          	sw	s2,24(sp)
   13ac0:	03912e23          	sw	s9,60(sp)
   13ac4:	04812423          	sw	s0,72(sp)
   13ac8:	000d0913          	mv	s2,s10
   13acc:	05712623          	sw	s7,76(sp)
   13ad0:	04912823          	sw	s1,80(sp)
   13ad4:	05a12a23          	sw	s10,84(sp)
   13ad8:	01412483          	lw	s1,20(sp)
   13adc:	fffa0a13          	addi	s4,s4,-1
   13ae0:	01112e23          	sw	a7,28(sp)
   13ae4:	03b12023          	sw	s11,32(sp)
   13ae8:	000f0b93          	mv	s7,t5
   13aec:	000e8c13          	mv	s8,t4
   13af0:	00080c93          	mv	s9,a6
   13af4:	00060d13          	mv	s10,a2
   13af8:	00058413          	mv	s0,a1
   13afc:	03c0006f          	j	13b38 <_vfprintf_r+0x21a8>
   13b00:	00040593          	mv	a1,s0
   13b04:	000b0513          	mv	a0,s6
   13b08:	09712823          	sw	s7,144(sp)
   13b0c:	09812a23          	sw	s8,148(sp)
   13b10:	09912c23          	sw	s9,152(sp)
   13b14:	09a12e23          	sw	s10,156(sp)
   13b18:	08012023          	sw	zero,128(sp)
   13b1c:	08012223          	sw	zero,132(sp)
   13b20:	08012423          	sw	zero,136(sp)
   13b24:	08012623          	sw	zero,140(sp)
   13b28:	fffa0d93          	addi	s11,s4,-1
   13b2c:	6500a0ef          	jal	1e17c <__eqtf2>
   13b30:	5e050863          	beqz	a0,14120 <_vfprintf_r+0x2790>
   13b34:	000d8a13          	mv	s4,s11
   13b38:	400307b7          	lui	a5,0x40030
   13b3c:	07010613          	addi	a2,sp,112
   13b40:	00040593          	mv	a1,s0
   13b44:	000b0513          	mv	a0,s6
   13b48:	06f12e23          	sw	a5,124(sp)
   13b4c:	09712023          	sw	s7,128(sp)
   13b50:	09812223          	sw	s8,132(sp)
   13b54:	09912423          	sw	s9,136(sp)
   13b58:	09a12623          	sw	s10,140(sp)
   13b5c:	06012823          	sw	zero,112(sp)
   13b60:	06012a23          	sw	zero,116(sp)
   13b64:	06012c23          	sw	zero,120(sp)
   13b68:	1410a0ef          	jal	1e4a8 <__multf3>
   13b6c:	000b0513          	mv	a0,s6
   13b70:	2580d0ef          	jal	20dc8 <__fixtfsi>
   13b74:	00050593          	mv	a1,a0
   13b78:	00050d93          	mv	s11,a0
   13b7c:	000b0513          	mv	a0,s6
   13b80:	09012d03          	lw	s10,144(sp)
   13b84:	09412c83          	lw	s9,148(sp)
   13b88:	09812c03          	lw	s8,152(sp)
   13b8c:	09c12b83          	lw	s7,156(sp)
   13b90:	3300d0ef          	jal	20ec0 <__floatsitf>
   13b94:	09012683          	lw	a3,144(sp)
   13b98:	06010613          	addi	a2,sp,96
   13b9c:	07010593          	addi	a1,sp,112
   13ba0:	06d12023          	sw	a3,96(sp)
   13ba4:	09412683          	lw	a3,148(sp)
   13ba8:	00040513          	mv	a0,s0
   13bac:	07a12823          	sw	s10,112(sp)
   13bb0:	06d12223          	sw	a3,100(sp)
   13bb4:	09812683          	lw	a3,152(sp)
   13bb8:	07912a23          	sw	s9,116(sp)
   13bbc:	07812c23          	sw	s8,120(sp)
   13bc0:	06d12423          	sw	a3,104(sp)
   13bc4:	09c12683          	lw	a3,156(sp)
   13bc8:	07712e23          	sw	s7,124(sp)
   13bcc:	06d12623          	sw	a3,108(sp)
   13bd0:	48d0b0ef          	jal	1f85c <__subtf3>
   13bd4:	01b486b3          	add	a3,s1,s11
   13bd8:	0006c683          	lbu	a3,0(a3)
   13bdc:	00090f93          	mv	t6,s2
   13be0:	00190913          	addi	s2,s2,1
   13be4:	08012b83          	lw	s7,128(sp)
   13be8:	08412c03          	lw	s8,132(sp)
   13bec:	08812c83          	lw	s9,136(sp)
   13bf0:	08c12d03          	lw	s10,140(sp)
   13bf4:	fff00793          	li	a5,-1
   13bf8:	fed90fa3          	sb	a3,-1(s2)
   13bfc:	f0fa12e3          	bne	s4,a5,13b00 <_vfprintf_r+0x2170>
   13c00:	01c12883          	lw	a7,28(sp)
   13c04:	000b8f13          	mv	t5,s7
   13c08:	000c0e93          	mv	t4,s8
   13c0c:	000c8813          	mv	a6,s9
   13c10:	000d0613          	mv	a2,s10
   13c14:	00040593          	mv	a1,s0
   13c18:	3ffe0a37          	lui	s4,0x3ffe0
   13c1c:	000b0513          	mv	a0,s6
   13c20:	05112e23          	sw	a7,92(sp)
   13c24:	01f12e23          	sw	t6,28(sp)
   13c28:	05b12c23          	sw	s11,88(sp)
   13c2c:	05012483          	lw	s1,80(sp)
   13c30:	02012d83          	lw	s11,32(sp)
   13c34:	04c12b83          	lw	s7,76(sp)
   13c38:	03c12c83          	lw	s9,60(sp)
   13c3c:	04812403          	lw	s0,72(sp)
   13c40:	09e12823          	sw	t5,144(sp)
   13c44:	05e12823          	sw	t5,80(sp)
   13c48:	09d12a23          	sw	t4,148(sp)
   13c4c:	05d12623          	sw	t4,76(sp)
   13c50:	09012c23          	sw	a6,152(sp)
   13c54:	05012423          	sw	a6,72(sp)
   13c58:	08c12e23          	sw	a2,156(sp)
   13c5c:	02c12e23          	sw	a2,60(sp)
   13c60:	08012023          	sw	zero,128(sp)
   13c64:	08012223          	sw	zero,132(sp)
   13c68:	08012423          	sw	zero,136(sp)
   13c6c:	09412623          	sw	s4,140(sp)
   13c70:	02b12023          	sw	a1,32(sp)
   13c74:	5d40a0ef          	jal	1e248 <__getf2>
   13c78:	00090c13          	mv	s8,s2
   13c7c:	05412d03          	lw	s10,84(sp)
   13c80:	01812903          	lw	s2,24(sp)
   13c84:	01c12f83          	lw	t6,28(sp)
   13c88:	05c12883          	lw	a7,92(sp)
   13c8c:	02a04663          	bgtz	a0,13cb8 <_vfprintf_r+0x2328>
   13c90:	02012583          	lw	a1,32(sp)
   13c94:	000b0513          	mv	a0,s6
   13c98:	01112c23          	sw	a7,24(sp)
   13c9c:	4e00a0ef          	jal	1e17c <__eqtf2>
   13ca0:	01812883          	lw	a7,24(sp)
   13ca4:	04051e63          	bnez	a0,13d00 <_vfprintf_r+0x2370>
   13ca8:	05812783          	lw	a5,88(sp)
   13cac:	01c12f83          	lw	t6,28(sp)
   13cb0:	0017f693          	andi	a3,a5,1
   13cb4:	04068663          	beqz	a3,13d00 <_vfprintf_r+0x2370>
   13cb8:	01412783          	lw	a5,20(sp)
   13cbc:	0bf12e23          	sw	t6,188(sp)
   13cc0:	fffc4603          	lbu	a2,-1(s8)
   13cc4:	00f7c583          	lbu	a1,15(a5) # 4003000f <__BSS_END__+0x4000d50b>
   13cc8:	000c0693          	mv	a3,s8
   13ccc:	02b61063          	bne	a2,a1,13cec <_vfprintf_r+0x235c>
   13cd0:	03000513          	li	a0,48
   13cd4:	fea68fa3          	sb	a0,-1(a3)
   13cd8:	0bc12683          	lw	a3,188(sp)
   13cdc:	fff68793          	addi	a5,a3,-1
   13ce0:	0af12e23          	sw	a5,188(sp)
   13ce4:	fff6c603          	lbu	a2,-1(a3)
   13ce8:	fec586e3          	beq	a1,a2,13cd4 <_vfprintf_r+0x2344>
   13cec:	00160593          	addi	a1,a2,1
   13cf0:	03900513          	li	a0,57
   13cf4:	0ff5f593          	zext.b	a1,a1
   13cf8:	04a60463          	beq	a2,a0,13d40 <_vfprintf_r+0x23b0>
   13cfc:	feb68fa3          	sb	a1,-1(a3)
   13d00:	0ac12783          	lw	a5,172(sp)
   13d04:	41ac0733          	sub	a4,s8,s10
   13d08:	06100613          	li	a2,97
   13d0c:	fff78a13          	addi	s4,a5,-1
   13d10:	00f12a23          	sw	a5,20(sp)
   13d14:	00e12c23          	sw	a4,24(sp)
   13d18:	0b412623          	sw	s4,172(sp)
   13d1c:	07000693          	li	a3,112
   13d20:	00c88663          	beq	a7,a2,13d2c <_vfprintf_r+0x239c>
   13d24:	05000693          	li	a3,80
   13d28:	04100893          	li	a7,65
   13d2c:	00100613          	li	a2,1
   13d30:	ad4ff06f          	j	13004 <_vfprintf_r+0x1674>
   13d34:	000a0693          	mv	a3,s4
   13d38:	00300613          	li	a2,3
   13d3c:	c15ff06f          	j	13950 <_vfprintf_r+0x1fc0>
   13d40:	01412783          	lw	a5,20(sp)
   13d44:	00a7c583          	lbu	a1,10(a5)
   13d48:	fb5ff06f          	j	13cfc <_vfprintf_r+0x236c>
   13d4c:	0a714703          	lbu	a4,167(sp)
   13d50:	04812d83          	lw	s11,72(sp)
   13d54:	00000a13          	li	s4,0
   13d58:	00070463          	beqz	a4,13d60 <_vfprintf_r+0x23d0>
   13d5c:	8e8fe06f          	j	11e44 <_vfprintf_r+0x4b4>
   13d60:	e5dfd06f          	j	11bbc <_vfprintf_r+0x22c>
   13d64:	01812783          	lw	a5,24(sp)
   13d68:	01412703          	lw	a4,20(sp)
   13d6c:	1cf74e63          	blt	a4,a5,13f48 <_vfprintf_r+0x25b8>
   13d70:	01412783          	lw	a5,20(sp)
   13d74:	001df713          	andi	a4,s11,1
   13d78:	00078b13          	mv	s6,a5
   13d7c:	00070663          	beqz	a4,13d88 <_vfprintf_r+0x23f8>
   13d80:	02812703          	lw	a4,40(sp)
   13d84:	00e78b33          	add	s6,a5,a4
   13d88:	400dfe13          	andi	t3,s11,1024
   13d8c:	000e0663          	beqz	t3,13d98 <_vfprintf_r+0x2408>
   13d90:	01412783          	lw	a5,20(sp)
   13d94:	30f04263          	bgtz	a5,14098 <_vfprintf_r+0x2708>
   13d98:	fffb4693          	not	a3,s6
   13d9c:	41f6d693          	srai	a3,a3,0x1f
   13da0:	00db7c33          	and	s8,s6,a3
   13da4:	06700893          	li	a7,103
   13da8:	02012023          	sw	zero,32(sp)
   13dac:	00012e23          	sw	zero,28(sp)
   13db0:	b64ff06f          	j	13114 <_vfprintf_r+0x1784>
   13db4:	0c410613          	addi	a2,sp,196
   13db8:	00048593          	mv	a1,s1
   13dbc:	000b8513          	mv	a0,s7
   13dc0:	54c000ef          	jal	1430c <__sprint_r>
   13dc4:	00050463          	beqz	a0,13dcc <_vfprintf_r+0x243c>
   13dc8:	a6dfe06f          	j	12834 <_vfprintf_r+0xea4>
   13dcc:	000c4583          	lbu	a1,0(s8)
   13dd0:	000217b7          	lui	a5,0x21
   13dd4:	0cc12603          	lw	a2,204(sp)
   13dd8:	00098693          	mv	a3,s3
   13ddc:	69078893          	addi	a7,a5,1680 # 21690 <zeroes.0>
   13de0:	01000713          	li	a4,16
   13de4:	00700813          	li	a6,7
   13de8:	00bc8cb3          	add	s9,s9,a1
   13dec:	855ff06f          	j	13640 <_vfprintf_r+0x1cb0>
   13df0:	00900793          	li	a5,9
   13df4:	c167ea63          	bltu	a5,s6,13208 <_vfprintf_r+0x1878>
   13df8:	c60ff06f          	j	13258 <_vfprintf_r+0x18c8>
   13dfc:	fff00793          	li	a5,-1
   13e00:	00f12223          	sw	a5,4(sp)
   13e04:	f19fd06f          	j	11d1c <_vfprintf_r+0x38c>
   13e08:	02d00793          	li	a5,45
   13e0c:	0af103a3          	sb	a5,167(sp)
   13e10:	02d00713          	li	a4,45
   13e14:	d98ff06f          	j	133ac <_vfprintf_r+0x1a1c>
   13e18:	0a714703          	lbu	a4,167(sp)
   13e1c:	01012623          	sw	a6,12(sp)
   13e20:	02012023          	sw	zero,32(sp)
   13e24:	00012e23          	sw	zero,28(sp)
   13e28:	00012a23          	sw	zero,20(sp)
   13e2c:	000a0c13          	mv	s8,s4
   13e30:	000a0b13          	mv	s6,s4
   13e34:	00000a13          	li	s4,0
   13e38:	00070463          	beqz	a4,13e40 <_vfprintf_r+0x24b0>
   13e3c:	808fe06f          	j	11e44 <_vfprintf_r+0x4b4>
   13e40:	d7dfd06f          	j	11bbc <_vfprintf_r+0x22c>
   13e44:	0c410613          	addi	a2,sp,196
   13e48:	00048593          	mv	a1,s1
   13e4c:	000b8513          	mv	a0,s7
   13e50:	4bc000ef          	jal	1430c <__sprint_r>
   13e54:	00050463          	beqz	a0,13e5c <_vfprintf_r+0x24cc>
   13e58:	9ddfe06f          	j	12834 <_vfprintf_r+0xea4>
   13e5c:	0ac12583          	lw	a1,172(sp)
   13e60:	01812783          	lw	a5,24(sp)
   13e64:	0cc12603          	lw	a2,204(sp)
   13e68:	00098413          	mv	s0,s3
   13e6c:	40b785b3          	sub	a1,a5,a1
   13e70:	c99fe06f          	j	12b08 <_vfprintf_r+0x1178>
   13e74:	000217b7          	lui	a5,0x21
   13e78:	35078d13          	addi	s10,a5,848 # 21350 <__clzsi2+0x5c>
   13e7c:	d40ff06f          	j	133bc <_vfprintf_r+0x1a2c>
   13e80:	0ac12783          	lw	a5,172(sp)
   13e84:	00f12a23          	sw	a5,20(sp)
   13e88:	00070793          	mv	a5,a4
   13e8c:	a99ff06f          	j	13924 <_vfprintf_r+0x1f94>
   13e90:	08010593          	addi	a1,sp,128
   13e94:	000b0513          	mv	a0,s6
   13e98:	04e12c23          	sw	a4,88(sp)
   13e9c:	04c12a23          	sw	a2,84(sp)
   13ea0:	05112823          	sw	a7,80(sp)
   13ea4:	04d12623          	sw	a3,76(sp)
   13ea8:	09f12823          	sw	t6,144(sp)
   13eac:	03f12023          	sw	t6,32(sp)
   13eb0:	09e12a23          	sw	t5,148(sp)
   13eb4:	01e12e23          	sw	t5,28(sp)
   13eb8:	09d12c23          	sw	t4,152(sp)
   13ebc:	01d12c23          	sw	t4,24(sp)
   13ec0:	00b12a23          	sw	a1,20(sp)
   13ec4:	09812e23          	sw	s8,156(sp)
   13ec8:	08012023          	sw	zero,128(sp)
   13ecc:	08012223          	sw	zero,132(sp)
   13ed0:	08012423          	sw	zero,136(sp)
   13ed4:	08012623          	sw	zero,140(sp)
   13ed8:	2a40a0ef          	jal	1e17c <__eqtf2>
   13edc:	01412583          	lw	a1,20(sp)
   13ee0:	01812e83          	lw	t4,24(sp)
   13ee4:	01c12f03          	lw	t5,28(sp)
   13ee8:	02012f83          	lw	t6,32(sp)
   13eec:	04c12683          	lw	a3,76(sp)
   13ef0:	05012883          	lw	a7,80(sp)
   13ef4:	05412603          	lw	a2,84(sp)
   13ef8:	05812703          	lw	a4,88(sp)
   13efc:	28051663          	bnez	a0,14188 <_vfprintf_r+0x27f8>
   13f00:	0ac12783          	lw	a5,172(sp)
   13f04:	00f70733          	add	a4,a4,a5
   13f08:	00f12a23          	sw	a5,20(sp)
   13f0c:	41a707b3          	sub	a5,a4,s10
   13f10:	00f12c23          	sw	a5,24(sp)
   13f14:	01412783          	lw	a5,20(sp)
   13f18:	001df713          	andi	a4,s11,1
   13f1c:	01476733          	or	a4,a4,s4
   13f20:	26f05e63          	blez	a5,1419c <_vfprintf_r+0x280c>
   13f24:	24071063          	bnez	a4,14164 <_vfprintf_r+0x27d4>
   13f28:	01412b03          	lw	s6,20(sp)
   13f2c:	06600893          	li	a7,102
   13f30:	400dfe13          	andi	t3,s11,1024
   13f34:	160e1463          	bnez	t3,1409c <_vfprintf_r+0x270c>
   13f38:	fffb4693          	not	a3,s6
   13f3c:	41f6d693          	srai	a3,a3,0x1f
   13f40:	00db7c33          	and	s8,s6,a3
   13f44:	e65ff06f          	j	13da8 <_vfprintf_r+0x2418>
   13f48:	01812783          	lw	a5,24(sp)
   13f4c:	02812703          	lw	a4,40(sp)
   13f50:	06700893          	li	a7,103
   13f54:	00e78b33          	add	s6,a5,a4
   13f58:	01412783          	lw	a5,20(sp)
   13f5c:	fcf04ae3          	bgtz	a5,13f30 <_vfprintf_r+0x25a0>
   13f60:	40fb0f33          	sub	t5,s6,a5
   13f64:	001f0b13          	addi	s6,t5,1
   13f68:	fffb4693          	not	a3,s6
   13f6c:	41f6d693          	srai	a3,a3,0x1f
   13f70:	00db7c33          	and	s8,s6,a3
   13f74:	e35ff06f          	j	13da8 <_vfprintf_r+0x2418>
   13f78:	000d8613          	mv	a2,s11
   13f7c:	b8cfe06f          	j	12308 <_vfprintf_r+0x978>
   13f80:	00021837          	lui	a6,0x21
   13f84:	ff000593          	li	a1,-16
   13f88:	40a00a33          	neg	s4,a0
   13f8c:	69080813          	addi	a6,a6,1680 # 21690 <zeroes.0>
   13f90:	06b55a63          	bge	a0,a1,14004 <_vfprintf_r+0x2674>
   13f94:	01212a23          	sw	s2,20(sp)
   13f98:	01000b13          	li	s6,16
   13f9c:	00700893          	li	a7,7
   13fa0:	00080913          	mv	s2,a6
   13fa4:	00c0006f          	j	13fb0 <_vfprintf_r+0x2620>
   13fa8:	ff0a0a13          	addi	s4,s4,-16 # 3ffdfff0 <__BSS_END__+0x3ffbd4ec>
   13fac:	054b5863          	bge	s6,s4,13ffc <_vfprintf_r+0x266c>
   13fb0:	01060613          	addi	a2,a2,16
   13fb4:	00170713          	addi	a4,a4,1
   13fb8:	01242023          	sw	s2,0(s0)
   13fbc:	01642223          	sw	s6,4(s0)
   13fc0:	0cc12623          	sw	a2,204(sp)
   13fc4:	0ce12423          	sw	a4,200(sp)
   13fc8:	00840413          	addi	s0,s0,8
   13fcc:	fce8dee3          	bge	a7,a4,13fa8 <_vfprintf_r+0x2618>
   13fd0:	0c410613          	addi	a2,sp,196
   13fd4:	00048593          	mv	a1,s1
   13fd8:	000b8513          	mv	a0,s7
   13fdc:	330000ef          	jal	1430c <__sprint_r>
   13fe0:	00050463          	beqz	a0,13fe8 <_vfprintf_r+0x2658>
   13fe4:	851fe06f          	j	12834 <_vfprintf_r+0xea4>
   13fe8:	0cc12603          	lw	a2,204(sp)
   13fec:	0c812703          	lw	a4,200(sp)
   13ff0:	00098413          	mv	s0,s3
   13ff4:	00700893          	li	a7,7
   13ff8:	fb1ff06f          	j	13fa8 <_vfprintf_r+0x2618>
   13ffc:	00090813          	mv	a6,s2
   14000:	01412903          	lw	s2,20(sp)
   14004:	01460633          	add	a2,a2,s4
   14008:	00170713          	addi	a4,a4,1
   1400c:	01042023          	sw	a6,0(s0)
   14010:	01442223          	sw	s4,4(s0)
   14014:	0cc12623          	sw	a2,204(sp)
   14018:	0ce12423          	sw	a4,200(sp)
   1401c:	00700593          	li	a1,7
   14020:	aee5d063          	bge	a1,a4,13300 <_vfprintf_r+0x1970>
   14024:	0c410613          	addi	a2,sp,196
   14028:	00048593          	mv	a1,s1
   1402c:	000b8513          	mv	a0,s7
   14030:	2dc000ef          	jal	1430c <__sprint_r>
   14034:	00050463          	beqz	a0,1403c <_vfprintf_r+0x26ac>
   14038:	ffcfe06f          	j	12834 <_vfprintf_r+0xea4>
   1403c:	0cc12603          	lw	a2,204(sp)
   14040:	0c812703          	lw	a4,200(sp)
   14044:	00098413          	mv	s0,s3
   14048:	be8ff06f          	j	13430 <_vfprintf_r+0x1aa0>
   1404c:	0b610693          	addi	a3,sp,182
   14050:	00061863          	bnez	a2,14060 <_vfprintf_r+0x26d0>
   14054:	03000693          	li	a3,48
   14058:	0ad10b23          	sb	a3,182(sp)
   1405c:	0b710693          	addi	a3,sp,183
   14060:	19010793          	addi	a5,sp,400
   14064:	40f68633          	sub	a2,a3,a5
   14068:	030a0713          	addi	a4,s4,48
   1406c:	0dd60793          	addi	a5,a2,221
   14070:	00e68023          	sb	a4,0(a3)
   14074:	02f12e23          	sw	a5,60(sp)
   14078:	858ff06f          	j	130d0 <_vfprintf_r+0x1740>
   1407c:	00012423          	sw	zero,8(sp)
   14080:	00600a13          	li	s4,6
   14084:	f21fd06f          	j	11fa4 <_vfprintf_r+0x614>
   14088:	001df713          	andi	a4,s11,1
   1408c:	00071463          	bnez	a4,14094 <_vfprintf_r+0x2704>
   14090:	860ff06f          	j	130f0 <_vfprintf_r+0x1760>
   14094:	854ff06f          	j	130e8 <_vfprintf_r+0x1758>
   14098:	06700893          	li	a7,103
   1409c:	03812603          	lw	a2,56(sp)
   140a0:	0ff00693          	li	a3,255
   140a4:	00064703          	lbu	a4,0(a2)
   140a8:	14d70c63          	beq	a4,a3,14200 <_vfprintf_r+0x2870>
   140ac:	01412783          	lw	a5,20(sp)
   140b0:	00000513          	li	a0,0
   140b4:	00000593          	li	a1,0
   140b8:	00f75e63          	bge	a4,a5,140d4 <_vfprintf_r+0x2744>
   140bc:	40e787b3          	sub	a5,a5,a4
   140c0:	00164703          	lbu	a4,1(a2)
   140c4:	04070863          	beqz	a4,14114 <_vfprintf_r+0x2784>
   140c8:	00158593          	addi	a1,a1,1
   140cc:	00160613          	addi	a2,a2,1
   140d0:	fed714e3          	bne	a4,a3,140b8 <_vfprintf_r+0x2728>
   140d4:	02c12c23          	sw	a2,56(sp)
   140d8:	00b12e23          	sw	a1,28(sp)
   140dc:	02a12023          	sw	a0,32(sp)
   140e0:	00f12a23          	sw	a5,20(sp)
   140e4:	02012783          	lw	a5,32(sp)
   140e8:	01c12703          	lw	a4,28(sp)
   140ec:	04012583          	lw	a1,64(sp)
   140f0:	05112623          	sw	a7,76(sp)
   140f4:	00e78533          	add	a0,a5,a4
   140f8:	1240d0ef          	jal	2121c <__mulsi3>
   140fc:	01650b33          	add	s6,a0,s6
   14100:	fffb4693          	not	a3,s6
   14104:	41f6d693          	srai	a3,a3,0x1f
   14108:	04c12883          	lw	a7,76(sp)
   1410c:	00db7c33          	and	s8,s6,a3
   14110:	804ff06f          	j	13114 <_vfprintf_r+0x1784>
   14114:	00064703          	lbu	a4,0(a2)
   14118:	00150513          	addi	a0,a0,1
   1411c:	fb5ff06f          	j	140d0 <_vfprintf_r+0x2740>
   14120:	00090c13          	mv	s8,s2
   14124:	001a0693          	addi	a3,s4,1
   14128:	01c12883          	lw	a7,28(sp)
   1412c:	02012d83          	lw	s11,32(sp)
   14130:	03c12c83          	lw	s9,60(sp)
   14134:	04812403          	lw	s0,72(sp)
   14138:	01812903          	lw	s2,24(sp)
   1413c:	04c12b83          	lw	s7,76(sp)
   14140:	05012483          	lw	s1,80(sp)
   14144:	05412d03          	lw	s10,84(sp)
   14148:	00dc06b3          	add	a3,s8,a3
   1414c:	03000613          	li	a2,48
   14150:	ba0a48e3          	bltz	s4,13d00 <_vfprintf_r+0x2370>
   14154:	001c0c13          	addi	s8,s8,1
   14158:	fecc0fa3          	sb	a2,-1(s8)
   1415c:	ff869ce3          	bne	a3,s8,14154 <_vfprintf_r+0x27c4>
   14160:	ba1ff06f          	j	13d00 <_vfprintf_r+0x2370>
   14164:	02812703          	lw	a4,40(sp)
   14168:	06600893          	li	a7,102
   1416c:	00ea0f33          	add	t5,s4,a4
   14170:	00ff0b33          	add	s6,t5,a5
   14174:	dbdff06f          	j	13f30 <_vfprintf_r+0x25a0>
   14178:	00021737          	lui	a4,0x21
   1417c:	35470793          	addi	a5,a4,852 # 21354 <__clzsi2+0x60>
   14180:	00f12a23          	sw	a5,20(sp)
   14184:	939ff06f          	j	13abc <_vfprintf_r+0x212c>
   14188:	00100513          	li	a0,1
   1418c:	40d506b3          	sub	a3,a0,a3
   14190:	0ad12623          	sw	a3,172(sp)
   14194:	00d70733          	add	a4,a4,a3
   14198:	f20ff06f          	j	138b8 <_vfprintf_r+0x1f28>
   1419c:	00071a63          	bnez	a4,141b0 <_vfprintf_r+0x2820>
   141a0:	00100c13          	li	s8,1
   141a4:	06600893          	li	a7,102
   141a8:	00100b13          	li	s6,1
   141ac:	bfdff06f          	j	13da8 <_vfprintf_r+0x2418>
   141b0:	02812783          	lw	a5,40(sp)
   141b4:	06600893          	li	a7,102
   141b8:	00178f13          	addi	t5,a5,1
   141bc:	014f0b33          	add	s6,t5,s4
   141c0:	fffb4693          	not	a3,s6
   141c4:	41f6d693          	srai	a3,a3,0x1f
   141c8:	00db7c33          	and	s8,s6,a3
   141cc:	bddff06f          	j	13da8 <_vfprintf_r+0x2418>
   141d0:	00200793          	li	a5,2
   141d4:	02f12e23          	sw	a5,60(sp)
   141d8:	ef9fe06f          	j	130d0 <_vfprintf_r+0x1740>
   141dc:	00c12783          	lw	a5,12(sp)
   141e0:	0007aa03          	lw	s4,0(a5)
   141e4:	00478793          	addi	a5,a5,4
   141e8:	000a5463          	bgez	s4,141f0 <_vfprintf_r+0x2860>
   141ec:	fff00a13          	li	s4,-1
   141f0:	00194883          	lbu	a7,1(s2)
   141f4:	00f12623          	sw	a5,12(sp)
   141f8:	00068913          	mv	s2,a3
   141fc:	941fd06f          	j	11b3c <_vfprintf_r+0x1ac>
   14200:	02012023          	sw	zero,32(sp)
   14204:	00012e23          	sw	zero,28(sp)
   14208:	eddff06f          	j	140e4 <_vfprintf_r+0x2754>
   1420c:	04500613          	li	a2,69
   14210:	08010593          	addi	a1,sp,128
   14214:	ea4ff06f          	j	138b8 <_vfprintf_r+0x1f28>
   14218:	00c4d783          	lhu	a5,12(s1)
   1421c:	0407e793          	ori	a5,a5,64
   14220:	00f49623          	sh	a5,12(s1)
   14224:	ac5fd06f          	j	11ce8 <_vfprintf_r+0x358>

00014228 <vfprintf>:
   14228:	00050793          	mv	a5,a0
   1422c:	f141a503          	lw	a0,-236(gp) # 227d4 <_impure_ptr>
   14230:	00060693          	mv	a3,a2
   14234:	00058613          	mv	a2,a1
   14238:	00078593          	mv	a1,a5
   1423c:	f54fd06f          	j	11990 <_vfprintf_r>

00014240 <__sbprintf>:
   14240:	b8010113          	addi	sp,sp,-1152
   14244:	00c59783          	lh	a5,12(a1)
   14248:	00e5d703          	lhu	a4,14(a1)
   1424c:	46812c23          	sw	s0,1144(sp)
   14250:	00058413          	mv	s0,a1
   14254:	000105b7          	lui	a1,0x10
   14258:	ffd58593          	addi	a1,a1,-3 # fffd <exit-0x97>
   1425c:	06442e03          	lw	t3,100(s0)
   14260:	01c42303          	lw	t1,28(s0)
   14264:	02442883          	lw	a7,36(s0)
   14268:	01071713          	slli	a4,a4,0x10
   1426c:	00b7f7b3          	and	a5,a5,a1
   14270:	00e7e7b3          	or	a5,a5,a4
   14274:	40000813          	li	a6,1024
   14278:	00f12a23          	sw	a5,20(sp)
   1427c:	00810593          	addi	a1,sp,8
   14280:	07010793          	addi	a5,sp,112
   14284:	46912a23          	sw	s1,1140(sp)
   14288:	47212823          	sw	s2,1136(sp)
   1428c:	46112e23          	sw	ra,1148(sp)
   14290:	00050913          	mv	s2,a0
   14294:	07c12623          	sw	t3,108(sp)
   14298:	02612223          	sw	t1,36(sp)
   1429c:	03112623          	sw	a7,44(sp)
   142a0:	00f12423          	sw	a5,8(sp)
   142a4:	00f12c23          	sw	a5,24(sp)
   142a8:	01012823          	sw	a6,16(sp)
   142ac:	01012e23          	sw	a6,28(sp)
   142b0:	02012023          	sw	zero,32(sp)
   142b4:	edcfd0ef          	jal	11990 <_vfprintf_r>
   142b8:	00050493          	mv	s1,a0
   142bc:	02055c63          	bgez	a0,142f4 <__sbprintf+0xb4>
   142c0:	01415783          	lhu	a5,20(sp)
   142c4:	0407f793          	andi	a5,a5,64
   142c8:	00078863          	beqz	a5,142d8 <__sbprintf+0x98>
   142cc:	00c45783          	lhu	a5,12(s0)
   142d0:	0407e793          	ori	a5,a5,64
   142d4:	00f41623          	sh	a5,12(s0)
   142d8:	47c12083          	lw	ra,1148(sp)
   142dc:	47812403          	lw	s0,1144(sp)
   142e0:	47012903          	lw	s2,1136(sp)
   142e4:	00048513          	mv	a0,s1
   142e8:	47412483          	lw	s1,1140(sp)
   142ec:	48010113          	addi	sp,sp,1152
   142f0:	00008067          	ret
   142f4:	00810593          	addi	a1,sp,8
   142f8:	00090513          	mv	a0,s2
   142fc:	3bc000ef          	jal	146b8 <_fflush_r>
   14300:	fc0500e3          	beqz	a0,142c0 <__sbprintf+0x80>
   14304:	fff00493          	li	s1,-1
   14308:	fb9ff06f          	j	142c0 <__sbprintf+0x80>

0001430c <__sprint_r>:
   1430c:	00862783          	lw	a5,8(a2)
   14310:	ff010113          	addi	sp,sp,-16
   14314:	00812423          	sw	s0,8(sp)
   14318:	00112623          	sw	ra,12(sp)
   1431c:	00060413          	mv	s0,a2
   14320:	00079e63          	bnez	a5,1433c <__sprint_r+0x30>
   14324:	00c12083          	lw	ra,12(sp)
   14328:	00042223          	sw	zero,4(s0)
   1432c:	00812403          	lw	s0,8(sp)
   14330:	00000513          	li	a0,0
   14334:	01010113          	addi	sp,sp,16
   14338:	00008067          	ret
   1433c:	458000ef          	jal	14794 <__sfvwrite_r>
   14340:	00c12083          	lw	ra,12(sp)
   14344:	00042423          	sw	zero,8(s0)
   14348:	00042223          	sw	zero,4(s0)
   1434c:	00812403          	lw	s0,8(sp)
   14350:	01010113          	addi	sp,sp,16
   14354:	00008067          	ret

00014358 <_fclose_r>:
   14358:	ff010113          	addi	sp,sp,-16
   1435c:	00112623          	sw	ra,12(sp)
   14360:	01212023          	sw	s2,0(sp)
   14364:	02058863          	beqz	a1,14394 <_fclose_r+0x3c>
   14368:	00812423          	sw	s0,8(sp)
   1436c:	00912223          	sw	s1,4(sp)
   14370:	00058413          	mv	s0,a1
   14374:	00050493          	mv	s1,a0
   14378:	00050663          	beqz	a0,14384 <_fclose_r+0x2c>
   1437c:	03452783          	lw	a5,52(a0)
   14380:	0c078c63          	beqz	a5,14458 <_fclose_r+0x100>
   14384:	00c41783          	lh	a5,12(s0)
   14388:	02079263          	bnez	a5,143ac <_fclose_r+0x54>
   1438c:	00812403          	lw	s0,8(sp)
   14390:	00412483          	lw	s1,4(sp)
   14394:	00c12083          	lw	ra,12(sp)
   14398:	00000913          	li	s2,0
   1439c:	00090513          	mv	a0,s2
   143a0:	00012903          	lw	s2,0(sp)
   143a4:	01010113          	addi	sp,sp,16
   143a8:	00008067          	ret
   143ac:	00040593          	mv	a1,s0
   143b0:	00048513          	mv	a0,s1
   143b4:	0b8000ef          	jal	1446c <__sflush_r>
   143b8:	02c42783          	lw	a5,44(s0)
   143bc:	00050913          	mv	s2,a0
   143c0:	00078a63          	beqz	a5,143d4 <_fclose_r+0x7c>
   143c4:	01c42583          	lw	a1,28(s0)
   143c8:	00048513          	mv	a0,s1
   143cc:	000780e7          	jalr	a5
   143d0:	06054463          	bltz	a0,14438 <_fclose_r+0xe0>
   143d4:	00c45783          	lhu	a5,12(s0)
   143d8:	0807f793          	andi	a5,a5,128
   143dc:	06079663          	bnez	a5,14448 <_fclose_r+0xf0>
   143e0:	03042583          	lw	a1,48(s0)
   143e4:	00058c63          	beqz	a1,143fc <_fclose_r+0xa4>
   143e8:	04040793          	addi	a5,s0,64
   143ec:	00f58663          	beq	a1,a5,143f8 <_fclose_r+0xa0>
   143f0:	00048513          	mv	a0,s1
   143f4:	a98fd0ef          	jal	1168c <_free_r>
   143f8:	02042823          	sw	zero,48(s0)
   143fc:	04442583          	lw	a1,68(s0)
   14400:	00058863          	beqz	a1,14410 <_fclose_r+0xb8>
   14404:	00048513          	mv	a0,s1
   14408:	a84fd0ef          	jal	1168c <_free_r>
   1440c:	04042223          	sw	zero,68(s0)
   14410:	8d5fc0ef          	jal	10ce4 <__sfp_lock_acquire>
   14414:	00041623          	sh	zero,12(s0)
   14418:	8d1fc0ef          	jal	10ce8 <__sfp_lock_release>
   1441c:	00c12083          	lw	ra,12(sp)
   14420:	00812403          	lw	s0,8(sp)
   14424:	00412483          	lw	s1,4(sp)
   14428:	00090513          	mv	a0,s2
   1442c:	00012903          	lw	s2,0(sp)
   14430:	01010113          	addi	sp,sp,16
   14434:	00008067          	ret
   14438:	00c45783          	lhu	a5,12(s0)
   1443c:	fff00913          	li	s2,-1
   14440:	0807f793          	andi	a5,a5,128
   14444:	f8078ee3          	beqz	a5,143e0 <_fclose_r+0x88>
   14448:	01042583          	lw	a1,16(s0)
   1444c:	00048513          	mv	a0,s1
   14450:	a3cfd0ef          	jal	1168c <_free_r>
   14454:	f8dff06f          	j	143e0 <_fclose_r+0x88>
   14458:	869fc0ef          	jal	10cc0 <__sinit>
   1445c:	f29ff06f          	j	14384 <_fclose_r+0x2c>

00014460 <fclose>:
   14460:	00050593          	mv	a1,a0
   14464:	f141a503          	lw	a0,-236(gp) # 227d4 <_impure_ptr>
   14468:	ef1ff06f          	j	14358 <_fclose_r>

0001446c <__sflush_r>:
   1446c:	00c59703          	lh	a4,12(a1)
   14470:	fe010113          	addi	sp,sp,-32
   14474:	00812c23          	sw	s0,24(sp)
   14478:	01312623          	sw	s3,12(sp)
   1447c:	00112e23          	sw	ra,28(sp)
   14480:	00877793          	andi	a5,a4,8
   14484:	00058413          	mv	s0,a1
   14488:	00050993          	mv	s3,a0
   1448c:	12079063          	bnez	a5,145ac <__sflush_r+0x140>
   14490:	000017b7          	lui	a5,0x1
   14494:	80078793          	addi	a5,a5,-2048 # 800 <exit-0xf894>
   14498:	0045a683          	lw	a3,4(a1)
   1449c:	00f767b3          	or	a5,a4,a5
   144a0:	00f59623          	sh	a5,12(a1)
   144a4:	18d05263          	blez	a3,14628 <__sflush_r+0x1bc>
   144a8:	02842803          	lw	a6,40(s0)
   144ac:	0e080463          	beqz	a6,14594 <__sflush_r+0x128>
   144b0:	00912a23          	sw	s1,20(sp)
   144b4:	01371693          	slli	a3,a4,0x13
   144b8:	0009a483          	lw	s1,0(s3)
   144bc:	0009a023          	sw	zero,0(s3)
   144c0:	01c42583          	lw	a1,28(s0)
   144c4:	1606ce63          	bltz	a3,14640 <__sflush_r+0x1d4>
   144c8:	00000613          	li	a2,0
   144cc:	00100693          	li	a3,1
   144d0:	00098513          	mv	a0,s3
   144d4:	000800e7          	jalr	a6
   144d8:	fff00793          	li	a5,-1
   144dc:	00050613          	mv	a2,a0
   144e0:	1af50463          	beq	a0,a5,14688 <__sflush_r+0x21c>
   144e4:	00c41783          	lh	a5,12(s0)
   144e8:	02842803          	lw	a6,40(s0)
   144ec:	01c42583          	lw	a1,28(s0)
   144f0:	0047f793          	andi	a5,a5,4
   144f4:	00078e63          	beqz	a5,14510 <__sflush_r+0xa4>
   144f8:	00442703          	lw	a4,4(s0)
   144fc:	03042783          	lw	a5,48(s0)
   14500:	40e60633          	sub	a2,a2,a4
   14504:	00078663          	beqz	a5,14510 <__sflush_r+0xa4>
   14508:	03c42783          	lw	a5,60(s0)
   1450c:	40f60633          	sub	a2,a2,a5
   14510:	00000693          	li	a3,0
   14514:	00098513          	mv	a0,s3
   14518:	000800e7          	jalr	a6
   1451c:	fff00793          	li	a5,-1
   14520:	12f51463          	bne	a0,a5,14648 <__sflush_r+0x1dc>
   14524:	0009a683          	lw	a3,0(s3)
   14528:	01d00793          	li	a5,29
   1452c:	00c41703          	lh	a4,12(s0)
   14530:	16d7ea63          	bltu	a5,a3,146a4 <__sflush_r+0x238>
   14534:	204007b7          	lui	a5,0x20400
   14538:	00178793          	addi	a5,a5,1 # 20400001 <__BSS_END__+0x203dd4fd>
   1453c:	00d7d7b3          	srl	a5,a5,a3
   14540:	0017f793          	andi	a5,a5,1
   14544:	16078063          	beqz	a5,146a4 <__sflush_r+0x238>
   14548:	01042603          	lw	a2,16(s0)
   1454c:	fffff7b7          	lui	a5,0xfffff
   14550:	7ff78793          	addi	a5,a5,2047 # fffff7ff <__BSS_END__+0xfffdccfb>
   14554:	00f777b3          	and	a5,a4,a5
   14558:	00f41623          	sh	a5,12(s0)
   1455c:	00042223          	sw	zero,4(s0)
   14560:	00c42023          	sw	a2,0(s0)
   14564:	01371793          	slli	a5,a4,0x13
   14568:	0007d463          	bgez	a5,14570 <__sflush_r+0x104>
   1456c:	10068263          	beqz	a3,14670 <__sflush_r+0x204>
   14570:	03042583          	lw	a1,48(s0)
   14574:	0099a023          	sw	s1,0(s3)
   14578:	10058463          	beqz	a1,14680 <__sflush_r+0x214>
   1457c:	04040793          	addi	a5,s0,64
   14580:	00f58663          	beq	a1,a5,1458c <__sflush_r+0x120>
   14584:	00098513          	mv	a0,s3
   14588:	904fd0ef          	jal	1168c <_free_r>
   1458c:	01412483          	lw	s1,20(sp)
   14590:	02042823          	sw	zero,48(s0)
   14594:	00000513          	li	a0,0
   14598:	01c12083          	lw	ra,28(sp)
   1459c:	01812403          	lw	s0,24(sp)
   145a0:	00c12983          	lw	s3,12(sp)
   145a4:	02010113          	addi	sp,sp,32
   145a8:	00008067          	ret
   145ac:	01212823          	sw	s2,16(sp)
   145b0:	0105a903          	lw	s2,16(a1)
   145b4:	08090263          	beqz	s2,14638 <__sflush_r+0x1cc>
   145b8:	00912a23          	sw	s1,20(sp)
   145bc:	0005a483          	lw	s1,0(a1)
   145c0:	00377713          	andi	a4,a4,3
   145c4:	0125a023          	sw	s2,0(a1)
   145c8:	412484b3          	sub	s1,s1,s2
   145cc:	00000793          	li	a5,0
   145d0:	00071463          	bnez	a4,145d8 <__sflush_r+0x16c>
   145d4:	0145a783          	lw	a5,20(a1)
   145d8:	00f42423          	sw	a5,8(s0)
   145dc:	00904863          	bgtz	s1,145ec <__sflush_r+0x180>
   145e0:	0540006f          	j	14634 <__sflush_r+0x1c8>
   145e4:	00a90933          	add	s2,s2,a0
   145e8:	04905663          	blez	s1,14634 <__sflush_r+0x1c8>
   145ec:	02442783          	lw	a5,36(s0)
   145f0:	01c42583          	lw	a1,28(s0)
   145f4:	00048693          	mv	a3,s1
   145f8:	00090613          	mv	a2,s2
   145fc:	00098513          	mv	a0,s3
   14600:	000780e7          	jalr	a5
   14604:	40a484b3          	sub	s1,s1,a0
   14608:	fca04ee3          	bgtz	a0,145e4 <__sflush_r+0x178>
   1460c:	00c41703          	lh	a4,12(s0)
   14610:	01012903          	lw	s2,16(sp)
   14614:	04076713          	ori	a4,a4,64
   14618:	01412483          	lw	s1,20(sp)
   1461c:	00e41623          	sh	a4,12(s0)
   14620:	fff00513          	li	a0,-1
   14624:	f75ff06f          	j	14598 <__sflush_r+0x12c>
   14628:	03c5a683          	lw	a3,60(a1)
   1462c:	e6d04ee3          	bgtz	a3,144a8 <__sflush_r+0x3c>
   14630:	f65ff06f          	j	14594 <__sflush_r+0x128>
   14634:	01412483          	lw	s1,20(sp)
   14638:	01012903          	lw	s2,16(sp)
   1463c:	f59ff06f          	j	14594 <__sflush_r+0x128>
   14640:	05042603          	lw	a2,80(s0)
   14644:	eadff06f          	j	144f0 <__sflush_r+0x84>
   14648:	00c41703          	lh	a4,12(s0)
   1464c:	01042683          	lw	a3,16(s0)
   14650:	fffff7b7          	lui	a5,0xfffff
   14654:	7ff78793          	addi	a5,a5,2047 # fffff7ff <__BSS_END__+0xfffdccfb>
   14658:	00f777b3          	and	a5,a4,a5
   1465c:	00f41623          	sh	a5,12(s0)
   14660:	00042223          	sw	zero,4(s0)
   14664:	00d42023          	sw	a3,0(s0)
   14668:	01371793          	slli	a5,a4,0x13
   1466c:	f007d2e3          	bgez	a5,14570 <__sflush_r+0x104>
   14670:	03042583          	lw	a1,48(s0)
   14674:	04a42823          	sw	a0,80(s0)
   14678:	0099a023          	sw	s1,0(s3)
   1467c:	f00590e3          	bnez	a1,1457c <__sflush_r+0x110>
   14680:	01412483          	lw	s1,20(sp)
   14684:	f11ff06f          	j	14594 <__sflush_r+0x128>
   14688:	0009a783          	lw	a5,0(s3)
   1468c:	e4078ce3          	beqz	a5,144e4 <__sflush_r+0x78>
   14690:	01d00713          	li	a4,29
   14694:	00e78c63          	beq	a5,a4,146ac <__sflush_r+0x240>
   14698:	01600713          	li	a4,22
   1469c:	00e78863          	beq	a5,a4,146ac <__sflush_r+0x240>
   146a0:	00c41703          	lh	a4,12(s0)
   146a4:	04076713          	ori	a4,a4,64
   146a8:	f71ff06f          	j	14618 <__sflush_r+0x1ac>
   146ac:	0099a023          	sw	s1,0(s3)
   146b0:	01412483          	lw	s1,20(sp)
   146b4:	ee1ff06f          	j	14594 <__sflush_r+0x128>

000146b8 <_fflush_r>:
   146b8:	fe010113          	addi	sp,sp,-32
   146bc:	00812c23          	sw	s0,24(sp)
   146c0:	00112e23          	sw	ra,28(sp)
   146c4:	00050413          	mv	s0,a0
   146c8:	00050663          	beqz	a0,146d4 <_fflush_r+0x1c>
   146cc:	03452783          	lw	a5,52(a0)
   146d0:	02078a63          	beqz	a5,14704 <_fflush_r+0x4c>
   146d4:	00c59783          	lh	a5,12(a1)
   146d8:	00079c63          	bnez	a5,146f0 <_fflush_r+0x38>
   146dc:	01c12083          	lw	ra,28(sp)
   146e0:	01812403          	lw	s0,24(sp)
   146e4:	00000513          	li	a0,0
   146e8:	02010113          	addi	sp,sp,32
   146ec:	00008067          	ret
   146f0:	00040513          	mv	a0,s0
   146f4:	01812403          	lw	s0,24(sp)
   146f8:	01c12083          	lw	ra,28(sp)
   146fc:	02010113          	addi	sp,sp,32
   14700:	d6dff06f          	j	1446c <__sflush_r>
   14704:	00b12623          	sw	a1,12(sp)
   14708:	db8fc0ef          	jal	10cc0 <__sinit>
   1470c:	00c12583          	lw	a1,12(sp)
   14710:	fc5ff06f          	j	146d4 <_fflush_r+0x1c>

00014714 <fflush>:
   14714:	06050063          	beqz	a0,14774 <fflush+0x60>
   14718:	00050593          	mv	a1,a0
   1471c:	f141a503          	lw	a0,-236(gp) # 227d4 <_impure_ptr>
   14720:	00050663          	beqz	a0,1472c <fflush+0x18>
   14724:	03452783          	lw	a5,52(a0)
   14728:	00078c63          	beqz	a5,14740 <fflush+0x2c>
   1472c:	00c59783          	lh	a5,12(a1)
   14730:	00079663          	bnez	a5,1473c <fflush+0x28>
   14734:	00000513          	li	a0,0
   14738:	00008067          	ret
   1473c:	d31ff06f          	j	1446c <__sflush_r>
   14740:	fe010113          	addi	sp,sp,-32
   14744:	00b12623          	sw	a1,12(sp)
   14748:	00a12423          	sw	a0,8(sp)
   1474c:	00112e23          	sw	ra,28(sp)
   14750:	d70fc0ef          	jal	10cc0 <__sinit>
   14754:	00c12583          	lw	a1,12(sp)
   14758:	00812503          	lw	a0,8(sp)
   1475c:	00c59783          	lh	a5,12(a1)
   14760:	02079463          	bnez	a5,14788 <fflush+0x74>
   14764:	01c12083          	lw	ra,28(sp)
   14768:	00000513          	li	a0,0
   1476c:	02010113          	addi	sp,sp,32
   14770:	00008067          	ret
   14774:	000145b7          	lui	a1,0x14
   14778:	c0818613          	addi	a2,gp,-1016 # 224c8 <__sglue>
   1477c:	6b858593          	addi	a1,a1,1720 # 146b8 <_fflush_r>
   14780:	c1818513          	addi	a0,gp,-1000 # 224d8 <_impure_data>
   14784:	d90fc06f          	j	10d14 <_fwalk_sglue>
   14788:	01c12083          	lw	ra,28(sp)
   1478c:	02010113          	addi	sp,sp,32
   14790:	cddff06f          	j	1446c <__sflush_r>

00014794 <__sfvwrite_r>:
   14794:	00862783          	lw	a5,8(a2)
   14798:	2c078463          	beqz	a5,14a60 <__sfvwrite_r+0x2cc>
   1479c:	00c59683          	lh	a3,12(a1)
   147a0:	fd010113          	addi	sp,sp,-48
   147a4:	02812423          	sw	s0,40(sp)
   147a8:	01412c23          	sw	s4,24(sp)
   147ac:	01612823          	sw	s6,16(sp)
   147b0:	02112623          	sw	ra,44(sp)
   147b4:	0086f793          	andi	a5,a3,8
   147b8:	00060b13          	mv	s6,a2
   147bc:	00050a13          	mv	s4,a0
   147c0:	00058413          	mv	s0,a1
   147c4:	08078e63          	beqz	a5,14860 <__sfvwrite_r+0xcc>
   147c8:	0105a783          	lw	a5,16(a1)
   147cc:	08078a63          	beqz	a5,14860 <__sfvwrite_r+0xcc>
   147d0:	02912223          	sw	s1,36(sp)
   147d4:	03212023          	sw	s2,32(sp)
   147d8:	01312e23          	sw	s3,28(sp)
   147dc:	01512a23          	sw	s5,20(sp)
   147e0:	0026f793          	andi	a5,a3,2
   147e4:	000b2483          	lw	s1,0(s6)
   147e8:	0a078463          	beqz	a5,14890 <__sfvwrite_r+0xfc>
   147ec:	02442783          	lw	a5,36(s0)
   147f0:	01c42583          	lw	a1,28(s0)
   147f4:	80000ab7          	lui	s5,0x80000
   147f8:	00000993          	li	s3,0
   147fc:	00000913          	li	s2,0
   14800:	c00a8a93          	addi	s5,s5,-1024 # 7ffffc00 <__BSS_END__+0x7ffdd0fc>
   14804:	00098613          	mv	a2,s3
   14808:	000a0513          	mv	a0,s4
   1480c:	04090263          	beqz	s2,14850 <__sfvwrite_r+0xbc>
   14810:	00090693          	mv	a3,s2
   14814:	012af463          	bgeu	s5,s2,1481c <__sfvwrite_r+0x88>
   14818:	000a8693          	mv	a3,s5
   1481c:	000780e7          	jalr	a5
   14820:	46a05263          	blez	a0,14c84 <__sfvwrite_r+0x4f0>
   14824:	008b2783          	lw	a5,8(s6)
   14828:	00a989b3          	add	s3,s3,a0
   1482c:	40a90933          	sub	s2,s2,a0
   14830:	40a787b3          	sub	a5,a5,a0
   14834:	00fb2423          	sw	a5,8(s6)
   14838:	1a078663          	beqz	a5,149e4 <__sfvwrite_r+0x250>
   1483c:	02442783          	lw	a5,36(s0)
   14840:	01c42583          	lw	a1,28(s0)
   14844:	00098613          	mv	a2,s3
   14848:	000a0513          	mv	a0,s4
   1484c:	fc0912e3          	bnez	s2,14810 <__sfvwrite_r+0x7c>
   14850:	0004a983          	lw	s3,0(s1)
   14854:	0044a903          	lw	s2,4(s1)
   14858:	00848493          	addi	s1,s1,8
   1485c:	fa9ff06f          	j	14804 <__sfvwrite_r+0x70>
   14860:	00040593          	mv	a1,s0
   14864:	000a0513          	mv	a0,s4
   14868:	440000ef          	jal	14ca8 <__swsetup_r>
   1486c:	1c051c63          	bnez	a0,14a44 <__sfvwrite_r+0x2b0>
   14870:	00c41683          	lh	a3,12(s0)
   14874:	02912223          	sw	s1,36(sp)
   14878:	03212023          	sw	s2,32(sp)
   1487c:	01312e23          	sw	s3,28(sp)
   14880:	01512a23          	sw	s5,20(sp)
   14884:	0026f793          	andi	a5,a3,2
   14888:	000b2483          	lw	s1,0(s6)
   1488c:	f60790e3          	bnez	a5,147ec <__sfvwrite_r+0x58>
   14890:	01712623          	sw	s7,12(sp)
   14894:	01812423          	sw	s8,8(sp)
   14898:	0016f793          	andi	a5,a3,1
   1489c:	1c079663          	bnez	a5,14a68 <__sfvwrite_r+0x2d4>
   148a0:	00042783          	lw	a5,0(s0)
   148a4:	00842703          	lw	a4,8(s0)
   148a8:	80000ab7          	lui	s5,0x80000
   148ac:	01912223          	sw	s9,4(sp)
   148b0:	00000b93          	li	s7,0
   148b4:	00000993          	li	s3,0
   148b8:	fffa8a93          	addi	s5,s5,-1 # 7fffffff <__BSS_END__+0x7ffdd4fb>
   148bc:	00078513          	mv	a0,a5
   148c0:	00070c13          	mv	s8,a4
   148c4:	10098263          	beqz	s3,149c8 <__sfvwrite_r+0x234>
   148c8:	2006f613          	andi	a2,a3,512
   148cc:	28060863          	beqz	a2,14b5c <__sfvwrite_r+0x3c8>
   148d0:	00070c93          	mv	s9,a4
   148d4:	32e9e863          	bltu	s3,a4,14c04 <__sfvwrite_r+0x470>
   148d8:	4806f713          	andi	a4,a3,1152
   148dc:	08070a63          	beqz	a4,14970 <__sfvwrite_r+0x1dc>
   148e0:	01442603          	lw	a2,20(s0)
   148e4:	01042583          	lw	a1,16(s0)
   148e8:	00161713          	slli	a4,a2,0x1
   148ec:	00c70733          	add	a4,a4,a2
   148f0:	40b78933          	sub	s2,a5,a1
   148f4:	01f75c13          	srli	s8,a4,0x1f
   148f8:	00ec0c33          	add	s8,s8,a4
   148fc:	00190793          	addi	a5,s2,1
   14900:	401c5c13          	srai	s8,s8,0x1
   14904:	013787b3          	add	a5,a5,s3
   14908:	000c0613          	mv	a2,s8
   1490c:	00fc7663          	bgeu	s8,a5,14918 <__sfvwrite_r+0x184>
   14910:	00078c13          	mv	s8,a5
   14914:	00078613          	mv	a2,a5
   14918:	4006f693          	andi	a3,a3,1024
   1491c:	32068063          	beqz	a3,14c3c <__sfvwrite_r+0x4a8>
   14920:	00060593          	mv	a1,a2
   14924:	000a0513          	mv	a0,s4
   14928:	8d5fb0ef          	jal	101fc <_malloc_r>
   1492c:	00050c93          	mv	s9,a0
   14930:	34050e63          	beqz	a0,14c8c <__sfvwrite_r+0x4f8>
   14934:	01042583          	lw	a1,16(s0)
   14938:	00090613          	mv	a2,s2
   1493c:	79c000ef          	jal	150d8 <memcpy>
   14940:	00c45783          	lhu	a5,12(s0)
   14944:	b7f7f793          	andi	a5,a5,-1153
   14948:	0807e793          	ori	a5,a5,128
   1494c:	00f41623          	sh	a5,12(s0)
   14950:	012c8533          	add	a0,s9,s2
   14954:	412c07b3          	sub	a5,s8,s2
   14958:	01942823          	sw	s9,16(s0)
   1495c:	01842a23          	sw	s8,20(s0)
   14960:	00a42023          	sw	a0,0(s0)
   14964:	00098c13          	mv	s8,s3
   14968:	00f42423          	sw	a5,8(s0)
   1496c:	00098c93          	mv	s9,s3
   14970:	000c8613          	mv	a2,s9
   14974:	000b8593          	mv	a1,s7
   14978:	654000ef          	jal	14fcc <memmove>
   1497c:	00842703          	lw	a4,8(s0)
   14980:	00042783          	lw	a5,0(s0)
   14984:	00098913          	mv	s2,s3
   14988:	41870733          	sub	a4,a4,s8
   1498c:	019787b3          	add	a5,a5,s9
   14990:	00e42423          	sw	a4,8(s0)
   14994:	00f42023          	sw	a5,0(s0)
   14998:	00000993          	li	s3,0
   1499c:	008b2783          	lw	a5,8(s6)
   149a0:	012b8bb3          	add	s7,s7,s2
   149a4:	412787b3          	sub	a5,a5,s2
   149a8:	00fb2423          	sw	a5,8(s6)
   149ac:	02078663          	beqz	a5,149d8 <__sfvwrite_r+0x244>
   149b0:	00042783          	lw	a5,0(s0)
   149b4:	00842703          	lw	a4,8(s0)
   149b8:	00c41683          	lh	a3,12(s0)
   149bc:	00078513          	mv	a0,a5
   149c0:	00070c13          	mv	s8,a4
   149c4:	f00992e3          	bnez	s3,148c8 <__sfvwrite_r+0x134>
   149c8:	0004ab83          	lw	s7,0(s1)
   149cc:	0044a983          	lw	s3,4(s1)
   149d0:	00848493          	addi	s1,s1,8
   149d4:	ee9ff06f          	j	148bc <__sfvwrite_r+0x128>
   149d8:	00c12b83          	lw	s7,12(sp)
   149dc:	00812c03          	lw	s8,8(sp)
   149e0:	00412c83          	lw	s9,4(sp)
   149e4:	02c12083          	lw	ra,44(sp)
   149e8:	02812403          	lw	s0,40(sp)
   149ec:	02412483          	lw	s1,36(sp)
   149f0:	02012903          	lw	s2,32(sp)
   149f4:	01c12983          	lw	s3,28(sp)
   149f8:	01412a83          	lw	s5,20(sp)
   149fc:	01812a03          	lw	s4,24(sp)
   14a00:	01012b03          	lw	s6,16(sp)
   14a04:	00000513          	li	a0,0
   14a08:	03010113          	addi	sp,sp,48
   14a0c:	00008067          	ret
   14a10:	00040593          	mv	a1,s0
   14a14:	000a0513          	mv	a0,s4
   14a18:	ca1ff0ef          	jal	146b8 <_fflush_r>
   14a1c:	0a050e63          	beqz	a0,14ad8 <__sfvwrite_r+0x344>
   14a20:	00c41783          	lh	a5,12(s0)
   14a24:	00c12b83          	lw	s7,12(sp)
   14a28:	00812c03          	lw	s8,8(sp)
   14a2c:	02412483          	lw	s1,36(sp)
   14a30:	02012903          	lw	s2,32(sp)
   14a34:	01c12983          	lw	s3,28(sp)
   14a38:	01412a83          	lw	s5,20(sp)
   14a3c:	0407e793          	ori	a5,a5,64
   14a40:	00f41623          	sh	a5,12(s0)
   14a44:	02c12083          	lw	ra,44(sp)
   14a48:	02812403          	lw	s0,40(sp)
   14a4c:	01812a03          	lw	s4,24(sp)
   14a50:	01012b03          	lw	s6,16(sp)
   14a54:	fff00513          	li	a0,-1
   14a58:	03010113          	addi	sp,sp,48
   14a5c:	00008067          	ret
   14a60:	00000513          	li	a0,0
   14a64:	00008067          	ret
   14a68:	00000a93          	li	s5,0
   14a6c:	00000513          	li	a0,0
   14a70:	00000c13          	li	s8,0
   14a74:	00000993          	li	s3,0
   14a78:	08098263          	beqz	s3,14afc <__sfvwrite_r+0x368>
   14a7c:	08050a63          	beqz	a0,14b10 <__sfvwrite_r+0x37c>
   14a80:	000a8793          	mv	a5,s5
   14a84:	00098b93          	mv	s7,s3
   14a88:	0137f463          	bgeu	a5,s3,14a90 <__sfvwrite_r+0x2fc>
   14a8c:	00078b93          	mv	s7,a5
   14a90:	00042503          	lw	a0,0(s0)
   14a94:	01042783          	lw	a5,16(s0)
   14a98:	00842903          	lw	s2,8(s0)
   14a9c:	01442683          	lw	a3,20(s0)
   14aa0:	00a7f663          	bgeu	a5,a0,14aac <__sfvwrite_r+0x318>
   14aa4:	00d90933          	add	s2,s2,a3
   14aa8:	09794463          	blt	s2,s7,14b30 <__sfvwrite_r+0x39c>
   14aac:	16dbc263          	blt	s7,a3,14c10 <__sfvwrite_r+0x47c>
   14ab0:	02442783          	lw	a5,36(s0)
   14ab4:	01c42583          	lw	a1,28(s0)
   14ab8:	000c0613          	mv	a2,s8
   14abc:	000a0513          	mv	a0,s4
   14ac0:	000780e7          	jalr	a5
   14ac4:	00050913          	mv	s2,a0
   14ac8:	f4a05ce3          	blez	a0,14a20 <__sfvwrite_r+0x28c>
   14acc:	412a8ab3          	sub	s5,s5,s2
   14ad0:	00100513          	li	a0,1
   14ad4:	f20a8ee3          	beqz	s5,14a10 <__sfvwrite_r+0x27c>
   14ad8:	008b2783          	lw	a5,8(s6)
   14adc:	012c0c33          	add	s8,s8,s2
   14ae0:	412989b3          	sub	s3,s3,s2
   14ae4:	412787b3          	sub	a5,a5,s2
   14ae8:	00fb2423          	sw	a5,8(s6)
   14aec:	f80796e3          	bnez	a5,14a78 <__sfvwrite_r+0x2e4>
   14af0:	00c12b83          	lw	s7,12(sp)
   14af4:	00812c03          	lw	s8,8(sp)
   14af8:	eedff06f          	j	149e4 <__sfvwrite_r+0x250>
   14afc:	0044a983          	lw	s3,4(s1)
   14b00:	00048793          	mv	a5,s1
   14b04:	00848493          	addi	s1,s1,8
   14b08:	fe098ae3          	beqz	s3,14afc <__sfvwrite_r+0x368>
   14b0c:	0007ac03          	lw	s8,0(a5)
   14b10:	00098613          	mv	a2,s3
   14b14:	00a00593          	li	a1,10
   14b18:	000c0513          	mv	a0,s8
   14b1c:	2cc000ef          	jal	14de8 <memchr>
   14b20:	14050c63          	beqz	a0,14c78 <__sfvwrite_r+0x4e4>
   14b24:	00150513          	addi	a0,a0,1
   14b28:	41850ab3          	sub	s5,a0,s8
   14b2c:	f55ff06f          	j	14a80 <__sfvwrite_r+0x2ec>
   14b30:	000c0593          	mv	a1,s8
   14b34:	00090613          	mv	a2,s2
   14b38:	494000ef          	jal	14fcc <memmove>
   14b3c:	00042783          	lw	a5,0(s0)
   14b40:	00040593          	mv	a1,s0
   14b44:	000a0513          	mv	a0,s4
   14b48:	012787b3          	add	a5,a5,s2
   14b4c:	00f42023          	sw	a5,0(s0)
   14b50:	b69ff0ef          	jal	146b8 <_fflush_r>
   14b54:	f6050ce3          	beqz	a0,14acc <__sfvwrite_r+0x338>
   14b58:	ec9ff06f          	j	14a20 <__sfvwrite_r+0x28c>
   14b5c:	01042683          	lw	a3,16(s0)
   14b60:	04f6e463          	bltu	a3,a5,14ba8 <__sfvwrite_r+0x414>
   14b64:	01442583          	lw	a1,20(s0)
   14b68:	04b9e063          	bltu	s3,a1,14ba8 <__sfvwrite_r+0x414>
   14b6c:	00098913          	mv	s2,s3
   14b70:	013af463          	bgeu	s5,s3,14b78 <__sfvwrite_r+0x3e4>
   14b74:	000a8913          	mv	s2,s5
   14b78:	00090513          	mv	a0,s2
   14b7c:	7480c0ef          	jal	212c4 <__modsi3>
   14b80:	02442783          	lw	a5,36(s0)
   14b84:	01c42583          	lw	a1,28(s0)
   14b88:	40a906b3          	sub	a3,s2,a0
   14b8c:	000b8613          	mv	a2,s7
   14b90:	000a0513          	mv	a0,s4
   14b94:	000780e7          	jalr	a5
   14b98:	00050913          	mv	s2,a0
   14b9c:	04a05a63          	blez	a0,14bf0 <__sfvwrite_r+0x45c>
   14ba0:	412989b3          	sub	s3,s3,s2
   14ba4:	df9ff06f          	j	1499c <__sfvwrite_r+0x208>
   14ba8:	00070913          	mv	s2,a4
   14bac:	00e9f463          	bgeu	s3,a4,14bb4 <__sfvwrite_r+0x420>
   14bb0:	00098913          	mv	s2,s3
   14bb4:	00078513          	mv	a0,a5
   14bb8:	00090613          	mv	a2,s2
   14bbc:	000b8593          	mv	a1,s7
   14bc0:	40c000ef          	jal	14fcc <memmove>
   14bc4:	00842703          	lw	a4,8(s0)
   14bc8:	00042783          	lw	a5,0(s0)
   14bcc:	41270733          	sub	a4,a4,s2
   14bd0:	012787b3          	add	a5,a5,s2
   14bd4:	00e42423          	sw	a4,8(s0)
   14bd8:	00f42023          	sw	a5,0(s0)
   14bdc:	fc0712e3          	bnez	a4,14ba0 <__sfvwrite_r+0x40c>
   14be0:	00040593          	mv	a1,s0
   14be4:	000a0513          	mv	a0,s4
   14be8:	ad1ff0ef          	jal	146b8 <_fflush_r>
   14bec:	fa050ae3          	beqz	a0,14ba0 <__sfvwrite_r+0x40c>
   14bf0:	00c41783          	lh	a5,12(s0)
   14bf4:	00c12b83          	lw	s7,12(sp)
   14bf8:	00812c03          	lw	s8,8(sp)
   14bfc:	00412c83          	lw	s9,4(sp)
   14c00:	e2dff06f          	j	14a2c <__sfvwrite_r+0x298>
   14c04:	00098c13          	mv	s8,s3
   14c08:	00098c93          	mv	s9,s3
   14c0c:	d65ff06f          	j	14970 <__sfvwrite_r+0x1dc>
   14c10:	000b8613          	mv	a2,s7
   14c14:	000c0593          	mv	a1,s8
   14c18:	3b4000ef          	jal	14fcc <memmove>
   14c1c:	00842703          	lw	a4,8(s0)
   14c20:	00042783          	lw	a5,0(s0)
   14c24:	000b8913          	mv	s2,s7
   14c28:	41770733          	sub	a4,a4,s7
   14c2c:	017787b3          	add	a5,a5,s7
   14c30:	00e42423          	sw	a4,8(s0)
   14c34:	00f42023          	sw	a5,0(s0)
   14c38:	e95ff06f          	j	14acc <__sfvwrite_r+0x338>
   14c3c:	000a0513          	mv	a0,s4
   14c40:	010040ef          	jal	18c50 <_realloc_r>
   14c44:	00050c93          	mv	s9,a0
   14c48:	d00514e3          	bnez	a0,14950 <__sfvwrite_r+0x1bc>
   14c4c:	01042583          	lw	a1,16(s0)
   14c50:	000a0513          	mv	a0,s4
   14c54:	a39fc0ef          	jal	1168c <_free_r>
   14c58:	00c41783          	lh	a5,12(s0)
   14c5c:	00c00713          	li	a4,12
   14c60:	00c12b83          	lw	s7,12(sp)
   14c64:	00812c03          	lw	s8,8(sp)
   14c68:	00412c83          	lw	s9,4(sp)
   14c6c:	00ea2023          	sw	a4,0(s4)
   14c70:	f7f7f793          	andi	a5,a5,-129
   14c74:	db9ff06f          	j	14a2c <__sfvwrite_r+0x298>
   14c78:	00198793          	addi	a5,s3,1
   14c7c:	00078a93          	mv	s5,a5
   14c80:	e05ff06f          	j	14a84 <__sfvwrite_r+0x2f0>
   14c84:	00c41783          	lh	a5,12(s0)
   14c88:	da5ff06f          	j	14a2c <__sfvwrite_r+0x298>
   14c8c:	00c00713          	li	a4,12
   14c90:	00c41783          	lh	a5,12(s0)
   14c94:	00c12b83          	lw	s7,12(sp)
   14c98:	00812c03          	lw	s8,8(sp)
   14c9c:	00412c83          	lw	s9,4(sp)
   14ca0:	00ea2023          	sw	a4,0(s4)
   14ca4:	d89ff06f          	j	14a2c <__sfvwrite_r+0x298>

00014ca8 <__swsetup_r>:
   14ca8:	f141a783          	lw	a5,-236(gp) # 227d4 <_impure_ptr>
   14cac:	ff010113          	addi	sp,sp,-16
   14cb0:	00812423          	sw	s0,8(sp)
   14cb4:	00912223          	sw	s1,4(sp)
   14cb8:	00112623          	sw	ra,12(sp)
   14cbc:	00050493          	mv	s1,a0
   14cc0:	00058413          	mv	s0,a1
   14cc4:	00078663          	beqz	a5,14cd0 <__swsetup_r+0x28>
   14cc8:	0347a703          	lw	a4,52(a5)
   14ccc:	0e070c63          	beqz	a4,14dc4 <__swsetup_r+0x11c>
   14cd0:	00c41783          	lh	a5,12(s0)
   14cd4:	0087f713          	andi	a4,a5,8
   14cd8:	06070a63          	beqz	a4,14d4c <__swsetup_r+0xa4>
   14cdc:	01042703          	lw	a4,16(s0)
   14ce0:	08070663          	beqz	a4,14d6c <__swsetup_r+0xc4>
   14ce4:	0017f693          	andi	a3,a5,1
   14ce8:	02068863          	beqz	a3,14d18 <__swsetup_r+0x70>
   14cec:	01442683          	lw	a3,20(s0)
   14cf0:	00042423          	sw	zero,8(s0)
   14cf4:	00000513          	li	a0,0
   14cf8:	40d006b3          	neg	a3,a3
   14cfc:	00d42c23          	sw	a3,24(s0)
   14d00:	02070a63          	beqz	a4,14d34 <__swsetup_r+0x8c>
   14d04:	00c12083          	lw	ra,12(sp)
   14d08:	00812403          	lw	s0,8(sp)
   14d0c:	00412483          	lw	s1,4(sp)
   14d10:	01010113          	addi	sp,sp,16
   14d14:	00008067          	ret
   14d18:	0027f693          	andi	a3,a5,2
   14d1c:	00000613          	li	a2,0
   14d20:	00069463          	bnez	a3,14d28 <__swsetup_r+0x80>
   14d24:	01442603          	lw	a2,20(s0)
   14d28:	00c42423          	sw	a2,8(s0)
   14d2c:	00000513          	li	a0,0
   14d30:	fc071ae3          	bnez	a4,14d04 <__swsetup_r+0x5c>
   14d34:	0807f713          	andi	a4,a5,128
   14d38:	fc0706e3          	beqz	a4,14d04 <__swsetup_r+0x5c>
   14d3c:	0407e793          	ori	a5,a5,64
   14d40:	00f41623          	sh	a5,12(s0)
   14d44:	fff00513          	li	a0,-1
   14d48:	fbdff06f          	j	14d04 <__swsetup_r+0x5c>
   14d4c:	0107f713          	andi	a4,a5,16
   14d50:	08070063          	beqz	a4,14dd0 <__swsetup_r+0x128>
   14d54:	0047f713          	andi	a4,a5,4
   14d58:	02071c63          	bnez	a4,14d90 <__swsetup_r+0xe8>
   14d5c:	01042703          	lw	a4,16(s0)
   14d60:	0087e793          	ori	a5,a5,8
   14d64:	00f41623          	sh	a5,12(s0)
   14d68:	f6071ee3          	bnez	a4,14ce4 <__swsetup_r+0x3c>
   14d6c:	2807f693          	andi	a3,a5,640
   14d70:	20000613          	li	a2,512
   14d74:	f6c688e3          	beq	a3,a2,14ce4 <__swsetup_r+0x3c>
   14d78:	00040593          	mv	a1,s0
   14d7c:	00048513          	mv	a0,s1
   14d80:	440040ef          	jal	191c0 <__smakebuf_r>
   14d84:	00c41783          	lh	a5,12(s0)
   14d88:	01042703          	lw	a4,16(s0)
   14d8c:	f59ff06f          	j	14ce4 <__swsetup_r+0x3c>
   14d90:	03042583          	lw	a1,48(s0)
   14d94:	00058e63          	beqz	a1,14db0 <__swsetup_r+0x108>
   14d98:	04040713          	addi	a4,s0,64
   14d9c:	00e58863          	beq	a1,a4,14dac <__swsetup_r+0x104>
   14da0:	00048513          	mv	a0,s1
   14da4:	8e9fc0ef          	jal	1168c <_free_r>
   14da8:	00c41783          	lh	a5,12(s0)
   14dac:	02042823          	sw	zero,48(s0)
   14db0:	01042703          	lw	a4,16(s0)
   14db4:	fdb7f793          	andi	a5,a5,-37
   14db8:	00042223          	sw	zero,4(s0)
   14dbc:	00e42023          	sw	a4,0(s0)
   14dc0:	fa1ff06f          	j	14d60 <__swsetup_r+0xb8>
   14dc4:	00078513          	mv	a0,a5
   14dc8:	ef9fb0ef          	jal	10cc0 <__sinit>
   14dcc:	f05ff06f          	j	14cd0 <__swsetup_r+0x28>
   14dd0:	00900713          	li	a4,9
   14dd4:	00e4a023          	sw	a4,0(s1)
   14dd8:	0407e793          	ori	a5,a5,64
   14ddc:	00f41623          	sh	a5,12(s0)
   14de0:	fff00513          	li	a0,-1
   14de4:	f21ff06f          	j	14d04 <__swsetup_r+0x5c>

00014de8 <memchr>:
   14de8:	00357793          	andi	a5,a0,3
   14dec:	0ff5f693          	zext.b	a3,a1
   14df0:	02078a63          	beqz	a5,14e24 <memchr+0x3c>
   14df4:	fff60793          	addi	a5,a2,-1
   14df8:	02060e63          	beqz	a2,14e34 <memchr+0x4c>
   14dfc:	fff00613          	li	a2,-1
   14e00:	0180006f          	j	14e18 <memchr+0x30>
   14e04:	00150513          	addi	a0,a0,1
   14e08:	00357713          	andi	a4,a0,3
   14e0c:	00070e63          	beqz	a4,14e28 <memchr+0x40>
   14e10:	fff78793          	addi	a5,a5,-1
   14e14:	02c78063          	beq	a5,a2,14e34 <memchr+0x4c>
   14e18:	00054703          	lbu	a4,0(a0)
   14e1c:	fed714e3          	bne	a4,a3,14e04 <memchr+0x1c>
   14e20:	00008067          	ret
   14e24:	00060793          	mv	a5,a2
   14e28:	00300713          	li	a4,3
   14e2c:	00f76863          	bltu	a4,a5,14e3c <memchr+0x54>
   14e30:	06079063          	bnez	a5,14e90 <memchr+0xa8>
   14e34:	00000513          	li	a0,0
   14e38:	00008067          	ret
   14e3c:	0ff5f593          	zext.b	a1,a1
   14e40:	00859713          	slli	a4,a1,0x8
   14e44:	00b705b3          	add	a1,a4,a1
   14e48:	01059713          	slli	a4,a1,0x10
   14e4c:	feff08b7          	lui	a7,0xfeff0
   14e50:	80808837          	lui	a6,0x80808
   14e54:	00e585b3          	add	a1,a1,a4
   14e58:	eff88893          	addi	a7,a7,-257 # fefefeff <__BSS_END__+0xfefcd3fb>
   14e5c:	08080813          	addi	a6,a6,128 # 80808080 <__BSS_END__+0x807e557c>
   14e60:	00300313          	li	t1,3
   14e64:	0100006f          	j	14e74 <memchr+0x8c>
   14e68:	ffc78793          	addi	a5,a5,-4
   14e6c:	00450513          	addi	a0,a0,4
   14e70:	fcf370e3          	bgeu	t1,a5,14e30 <memchr+0x48>
   14e74:	00052703          	lw	a4,0(a0)
   14e78:	00e5c733          	xor	a4,a1,a4
   14e7c:	01170633          	add	a2,a4,a7
   14e80:	fff74713          	not	a4,a4
   14e84:	00e67733          	and	a4,a2,a4
   14e88:	01077733          	and	a4,a4,a6
   14e8c:	fc070ee3          	beqz	a4,14e68 <memchr+0x80>
   14e90:	00f507b3          	add	a5,a0,a5
   14e94:	00c0006f          	j	14ea0 <memchr+0xb8>
   14e98:	00150513          	addi	a0,a0,1
   14e9c:	f8f50ce3          	beq	a0,a5,14e34 <memchr+0x4c>
   14ea0:	00054703          	lbu	a4,0(a0)
   14ea4:	fed71ae3          	bne	a4,a3,14e98 <memchr+0xb0>
   14ea8:	00008067          	ret

00014eac <strncpy>:
   14eac:	00a5e7b3          	or	a5,a1,a0
   14eb0:	0037f793          	andi	a5,a5,3
   14eb4:	00079663          	bnez	a5,14ec0 <strncpy+0x14>
   14eb8:	00300793          	li	a5,3
   14ebc:	04c7e663          	bltu	a5,a2,14f08 <strncpy+0x5c>
   14ec0:	00050713          	mv	a4,a0
   14ec4:	01c0006f          	j	14ee0 <strncpy+0x34>
   14ec8:	fff5c683          	lbu	a3,-1(a1)
   14ecc:	fff60813          	addi	a6,a2,-1
   14ed0:	fed78fa3          	sb	a3,-1(a5)
   14ed4:	00068e63          	beqz	a3,14ef0 <strncpy+0x44>
   14ed8:	00078713          	mv	a4,a5
   14edc:	00080613          	mv	a2,a6
   14ee0:	00158593          	addi	a1,a1,1
   14ee4:	00170793          	addi	a5,a4,1
   14ee8:	fe0610e3          	bnez	a2,14ec8 <strncpy+0x1c>
   14eec:	00008067          	ret
   14ef0:	00c70733          	add	a4,a4,a2
   14ef4:	06080063          	beqz	a6,14f54 <strncpy+0xa8>
   14ef8:	00178793          	addi	a5,a5,1
   14efc:	fe078fa3          	sb	zero,-1(a5)
   14f00:	fee79ce3          	bne	a5,a4,14ef8 <strncpy+0x4c>
   14f04:	00008067          	ret
   14f08:	feff0337          	lui	t1,0xfeff0
   14f0c:	808088b7          	lui	a7,0x80808
   14f10:	00050713          	mv	a4,a0
   14f14:	eff30313          	addi	t1,t1,-257 # fefefeff <__BSS_END__+0xfefcd3fb>
   14f18:	08088893          	addi	a7,a7,128 # 80808080 <__BSS_END__+0x807e557c>
   14f1c:	00300e13          	li	t3,3
   14f20:	0180006f          	j	14f38 <strncpy+0x8c>
   14f24:	00d72023          	sw	a3,0(a4)
   14f28:	ffc60613          	addi	a2,a2,-4
   14f2c:	00470713          	addi	a4,a4,4
   14f30:	00458593          	addi	a1,a1,4
   14f34:	face76e3          	bgeu	t3,a2,14ee0 <strncpy+0x34>
   14f38:	0005a683          	lw	a3,0(a1)
   14f3c:	006687b3          	add	a5,a3,t1
   14f40:	fff6c813          	not	a6,a3
   14f44:	0107f7b3          	and	a5,a5,a6
   14f48:	0117f7b3          	and	a5,a5,a7
   14f4c:	fc078ce3          	beqz	a5,14f24 <strncpy+0x78>
   14f50:	f91ff06f          	j	14ee0 <strncpy+0x34>
   14f54:	00008067          	ret

00014f58 <__localeconv_l>:
   14f58:	0f050513          	addi	a0,a0,240
   14f5c:	00008067          	ret

00014f60 <_localeconv_r>:
   14f60:	e2818513          	addi	a0,gp,-472 # 226e8 <__global_locale+0xf0>
   14f64:	00008067          	ret

00014f68 <localeconv>:
   14f68:	e2818513          	addi	a0,gp,-472 # 226e8 <__global_locale+0xf0>
   14f6c:	00008067          	ret

00014f70 <__libc_fini_array>:
   14f70:	ff010113          	addi	sp,sp,-16
   14f74:	00812423          	sw	s0,8(sp)
   14f78:	000227b7          	lui	a5,0x22
   14f7c:	00022437          	lui	s0,0x22
   14f80:	0bc78793          	addi	a5,a5,188 # 220bc <__do_global_dtors_aux_fini_array_entry>
   14f84:	0c040413          	addi	s0,s0,192 # 220c0 <__malloc_av_>
   14f88:	40f40433          	sub	s0,s0,a5
   14f8c:	00912223          	sw	s1,4(sp)
   14f90:	00112623          	sw	ra,12(sp)
   14f94:	40245493          	srai	s1,s0,0x2
   14f98:	02048063          	beqz	s1,14fb8 <__libc_fini_array+0x48>
   14f9c:	ffc40413          	addi	s0,s0,-4
   14fa0:	00f40433          	add	s0,s0,a5
   14fa4:	00042783          	lw	a5,0(s0)
   14fa8:	fff48493          	addi	s1,s1,-1
   14fac:	ffc40413          	addi	s0,s0,-4
   14fb0:	000780e7          	jalr	a5
   14fb4:	fe0498e3          	bnez	s1,14fa4 <__libc_fini_array+0x34>
   14fb8:	00c12083          	lw	ra,12(sp)
   14fbc:	00812403          	lw	s0,8(sp)
   14fc0:	00412483          	lw	s1,4(sp)
   14fc4:	01010113          	addi	sp,sp,16
   14fc8:	00008067          	ret

00014fcc <memmove>:
   14fcc:	02a5f663          	bgeu	a1,a0,14ff8 <memmove+0x2c>
   14fd0:	00c58733          	add	a4,a1,a2
   14fd4:	02e57263          	bgeu	a0,a4,14ff8 <memmove+0x2c>
   14fd8:	00c507b3          	add	a5,a0,a2
   14fdc:	04060663          	beqz	a2,15028 <memmove+0x5c>
   14fe0:	fff74683          	lbu	a3,-1(a4)
   14fe4:	fff78793          	addi	a5,a5,-1
   14fe8:	fff70713          	addi	a4,a4,-1
   14fec:	00d78023          	sb	a3,0(a5)
   14ff0:	fef518e3          	bne	a0,a5,14fe0 <memmove+0x14>
   14ff4:	00008067          	ret
   14ff8:	00f00793          	li	a5,15
   14ffc:	02c7e863          	bltu	a5,a2,1502c <memmove+0x60>
   15000:	00050793          	mv	a5,a0
   15004:	fff60693          	addi	a3,a2,-1
   15008:	0c060263          	beqz	a2,150cc <memmove+0x100>
   1500c:	00168693          	addi	a3,a3,1
   15010:	00d786b3          	add	a3,a5,a3
   15014:	0005c703          	lbu	a4,0(a1)
   15018:	00178793          	addi	a5,a5,1
   1501c:	00158593          	addi	a1,a1,1
   15020:	fee78fa3          	sb	a4,-1(a5)
   15024:	fed798e3          	bne	a5,a3,15014 <memmove+0x48>
   15028:	00008067          	ret
   1502c:	00b567b3          	or	a5,a0,a1
   15030:	0037f793          	andi	a5,a5,3
   15034:	08079663          	bnez	a5,150c0 <memmove+0xf4>
   15038:	ff060893          	addi	a7,a2,-16
   1503c:	ff08f893          	andi	a7,a7,-16
   15040:	01088893          	addi	a7,a7,16
   15044:	011506b3          	add	a3,a0,a7
   15048:	00058713          	mv	a4,a1
   1504c:	00050793          	mv	a5,a0
   15050:	00072803          	lw	a6,0(a4)
   15054:	01070713          	addi	a4,a4,16
   15058:	01078793          	addi	a5,a5,16
   1505c:	ff07a823          	sw	a6,-16(a5)
   15060:	ff472803          	lw	a6,-12(a4)
   15064:	ff07aa23          	sw	a6,-12(a5)
   15068:	ff872803          	lw	a6,-8(a4)
   1506c:	ff07ac23          	sw	a6,-8(a5)
   15070:	ffc72803          	lw	a6,-4(a4)
   15074:	ff07ae23          	sw	a6,-4(a5)
   15078:	fcd79ce3          	bne	a5,a3,15050 <memmove+0x84>
   1507c:	00c67813          	andi	a6,a2,12
   15080:	011585b3          	add	a1,a1,a7
   15084:	00f67713          	andi	a4,a2,15
   15088:	04080463          	beqz	a6,150d0 <memmove+0x104>
   1508c:	ffc70813          	addi	a6,a4,-4
   15090:	ffc87813          	andi	a6,a6,-4
   15094:	00480813          	addi	a6,a6,4
   15098:	010687b3          	add	a5,a3,a6
   1509c:	00058713          	mv	a4,a1
   150a0:	00072883          	lw	a7,0(a4)
   150a4:	00468693          	addi	a3,a3,4
   150a8:	00470713          	addi	a4,a4,4
   150ac:	ff16ae23          	sw	a7,-4(a3)
   150b0:	fef698e3          	bne	a3,a5,150a0 <memmove+0xd4>
   150b4:	00367613          	andi	a2,a2,3
   150b8:	010585b3          	add	a1,a1,a6
   150bc:	f49ff06f          	j	15004 <memmove+0x38>
   150c0:	fff60693          	addi	a3,a2,-1
   150c4:	00050793          	mv	a5,a0
   150c8:	f45ff06f          	j	1500c <memmove+0x40>
   150cc:	00008067          	ret
   150d0:	00070613          	mv	a2,a4
   150d4:	f31ff06f          	j	15004 <memmove+0x38>

000150d8 <memcpy>:
   150d8:	00a5c7b3          	xor	a5,a1,a0
   150dc:	0037f793          	andi	a5,a5,3
   150e0:	00c508b3          	add	a7,a0,a2
   150e4:	06079463          	bnez	a5,1514c <memcpy+0x74>
   150e8:	00300793          	li	a5,3
   150ec:	06c7f063          	bgeu	a5,a2,1514c <memcpy+0x74>
   150f0:	00357793          	andi	a5,a0,3
   150f4:	00050713          	mv	a4,a0
   150f8:	06079a63          	bnez	a5,1516c <memcpy+0x94>
   150fc:	ffc8f613          	andi	a2,a7,-4
   15100:	40e606b3          	sub	a3,a2,a4
   15104:	02000793          	li	a5,32
   15108:	08d7ce63          	blt	a5,a3,151a4 <memcpy+0xcc>
   1510c:	00058693          	mv	a3,a1
   15110:	00070793          	mv	a5,a4
   15114:	02c77863          	bgeu	a4,a2,15144 <memcpy+0x6c>
   15118:	0006a803          	lw	a6,0(a3)
   1511c:	00478793          	addi	a5,a5,4
   15120:	00468693          	addi	a3,a3,4
   15124:	ff07ae23          	sw	a6,-4(a5)
   15128:	fec7e8e3          	bltu	a5,a2,15118 <memcpy+0x40>
   1512c:	fff60793          	addi	a5,a2,-1
   15130:	40e787b3          	sub	a5,a5,a4
   15134:	ffc7f793          	andi	a5,a5,-4
   15138:	00478793          	addi	a5,a5,4
   1513c:	00f70733          	add	a4,a4,a5
   15140:	00f585b3          	add	a1,a1,a5
   15144:	01176863          	bltu	a4,a7,15154 <memcpy+0x7c>
   15148:	00008067          	ret
   1514c:	00050713          	mv	a4,a0
   15150:	05157863          	bgeu	a0,a7,151a0 <memcpy+0xc8>
   15154:	0005c783          	lbu	a5,0(a1)
   15158:	00170713          	addi	a4,a4,1
   1515c:	00158593          	addi	a1,a1,1
   15160:	fef70fa3          	sb	a5,-1(a4)
   15164:	fee898e3          	bne	a7,a4,15154 <memcpy+0x7c>
   15168:	00008067          	ret
   1516c:	0005c683          	lbu	a3,0(a1)
   15170:	00170713          	addi	a4,a4,1
   15174:	00377793          	andi	a5,a4,3
   15178:	fed70fa3          	sb	a3,-1(a4)
   1517c:	00158593          	addi	a1,a1,1
   15180:	f6078ee3          	beqz	a5,150fc <memcpy+0x24>
   15184:	0005c683          	lbu	a3,0(a1)
   15188:	00170713          	addi	a4,a4,1
   1518c:	00377793          	andi	a5,a4,3
   15190:	fed70fa3          	sb	a3,-1(a4)
   15194:	00158593          	addi	a1,a1,1
   15198:	fc079ae3          	bnez	a5,1516c <memcpy+0x94>
   1519c:	f61ff06f          	j	150fc <memcpy+0x24>
   151a0:	00008067          	ret
   151a4:	ff010113          	addi	sp,sp,-16
   151a8:	00812623          	sw	s0,12(sp)
   151ac:	02000413          	li	s0,32
   151b0:	0005a383          	lw	t2,0(a1)
   151b4:	0045a283          	lw	t0,4(a1)
   151b8:	0085af83          	lw	t6,8(a1)
   151bc:	00c5af03          	lw	t5,12(a1)
   151c0:	0105ae83          	lw	t4,16(a1)
   151c4:	0145ae03          	lw	t3,20(a1)
   151c8:	0185a303          	lw	t1,24(a1)
   151cc:	01c5a803          	lw	a6,28(a1)
   151d0:	0205a683          	lw	a3,32(a1)
   151d4:	02470713          	addi	a4,a4,36
   151d8:	40e607b3          	sub	a5,a2,a4
   151dc:	fc772e23          	sw	t2,-36(a4)
   151e0:	fe572023          	sw	t0,-32(a4)
   151e4:	fff72223          	sw	t6,-28(a4)
   151e8:	ffe72423          	sw	t5,-24(a4)
   151ec:	ffd72623          	sw	t4,-20(a4)
   151f0:	ffc72823          	sw	t3,-16(a4)
   151f4:	fe672a23          	sw	t1,-12(a4)
   151f8:	ff072c23          	sw	a6,-8(a4)
   151fc:	fed72e23          	sw	a3,-4(a4)
   15200:	02458593          	addi	a1,a1,36
   15204:	faf446e3          	blt	s0,a5,151b0 <memcpy+0xd8>
   15208:	00058693          	mv	a3,a1
   1520c:	00070793          	mv	a5,a4
   15210:	02c77863          	bgeu	a4,a2,15240 <memcpy+0x168>
   15214:	0006a803          	lw	a6,0(a3)
   15218:	00478793          	addi	a5,a5,4
   1521c:	00468693          	addi	a3,a3,4
   15220:	ff07ae23          	sw	a6,-4(a5)
   15224:	fec7e8e3          	bltu	a5,a2,15214 <memcpy+0x13c>
   15228:	fff60793          	addi	a5,a2,-1
   1522c:	40e787b3          	sub	a5,a5,a4
   15230:	ffc7f793          	andi	a5,a5,-4
   15234:	00478793          	addi	a5,a5,4
   15238:	00f70733          	add	a4,a4,a5
   1523c:	00f585b3          	add	a1,a1,a5
   15240:	01176863          	bltu	a4,a7,15250 <memcpy+0x178>
   15244:	00c12403          	lw	s0,12(sp)
   15248:	01010113          	addi	sp,sp,16
   1524c:	00008067          	ret
   15250:	0005c783          	lbu	a5,0(a1)
   15254:	00170713          	addi	a4,a4,1
   15258:	00158593          	addi	a1,a1,1
   1525c:	fef70fa3          	sb	a5,-1(a4)
   15260:	fee882e3          	beq	a7,a4,15244 <memcpy+0x16c>
   15264:	0005c783          	lbu	a5,0(a1)
   15268:	00170713          	addi	a4,a4,1
   1526c:	00158593          	addi	a1,a1,1
   15270:	fef70fa3          	sb	a5,-1(a4)
   15274:	fce89ee3          	bne	a7,a4,15250 <memcpy+0x178>
   15278:	fcdff06f          	j	15244 <memcpy+0x16c>

0001527c <strlen>:
   1527c:	00357793          	andi	a5,a0,3
   15280:	00050713          	mv	a4,a0
   15284:	04079c63          	bnez	a5,152dc <strlen+0x60>
   15288:	7f7f86b7          	lui	a3,0x7f7f8
   1528c:	f7f68693          	addi	a3,a3,-129 # 7f7f7f7f <__BSS_END__+0x7f7d547b>
   15290:	fff00593          	li	a1,-1
   15294:	00072603          	lw	a2,0(a4)
   15298:	00470713          	addi	a4,a4,4
   1529c:	00d677b3          	and	a5,a2,a3
   152a0:	00d787b3          	add	a5,a5,a3
   152a4:	00c7e7b3          	or	a5,a5,a2
   152a8:	00d7e7b3          	or	a5,a5,a3
   152ac:	feb784e3          	beq	a5,a1,15294 <strlen+0x18>
   152b0:	ffc74683          	lbu	a3,-4(a4)
   152b4:	40a707b3          	sub	a5,a4,a0
   152b8:	04068463          	beqz	a3,15300 <strlen+0x84>
   152bc:	ffd74683          	lbu	a3,-3(a4)
   152c0:	02068c63          	beqz	a3,152f8 <strlen+0x7c>
   152c4:	ffe74503          	lbu	a0,-2(a4)
   152c8:	00a03533          	snez	a0,a0
   152cc:	00f50533          	add	a0,a0,a5
   152d0:	ffe50513          	addi	a0,a0,-2
   152d4:	00008067          	ret
   152d8:	fa0688e3          	beqz	a3,15288 <strlen+0xc>
   152dc:	00074783          	lbu	a5,0(a4)
   152e0:	00170713          	addi	a4,a4,1
   152e4:	00377693          	andi	a3,a4,3
   152e8:	fe0798e3          	bnez	a5,152d8 <strlen+0x5c>
   152ec:	40a70733          	sub	a4,a4,a0
   152f0:	fff70513          	addi	a0,a4,-1
   152f4:	00008067          	ret
   152f8:	ffd78513          	addi	a0,a5,-3
   152fc:	00008067          	ret
   15300:	ffc78513          	addi	a0,a5,-4
   15304:	00008067          	ret

00015308 <frexpl>:
   15308:	f9010113          	addi	sp,sp,-112
   1530c:	07212023          	sw	s2,96(sp)
   15310:	00c5a903          	lw	s2,12(a1)
   15314:	05412c23          	sw	s4,88(sp)
   15318:	05512a23          	sw	s5,84(sp)
   1531c:	05612823          	sw	s6,80(sp)
   15320:	0045aa83          	lw	s5,4(a1)
   15324:	0005ab03          	lw	s6,0(a1)
   15328:	0085aa03          	lw	s4,8(a1)
   1532c:	05312e23          	sw	s3,92(sp)
   15330:	000089b7          	lui	s3,0x8
   15334:	06812423          	sw	s0,104(sp)
   15338:	06912223          	sw	s1,100(sp)
   1533c:	06112623          	sw	ra,108(sp)
   15340:	01095493          	srli	s1,s2,0x10
   15344:	fff98993          	addi	s3,s3,-1 # 7fff <exit-0x8095>
   15348:	03612823          	sw	s6,48(sp)
   1534c:	03512a23          	sw	s5,52(sp)
   15350:	03412c23          	sw	s4,56(sp)
   15354:	03212e23          	sw	s2,60(sp)
   15358:	0134f4b3          	and	s1,s1,s3
   1535c:	00062023          	sw	zero,0(a2)
   15360:	00050413          	mv	s0,a0
   15364:	09348063          	beq	s1,s3,153e4 <frexpl+0xdc>
   15368:	01010593          	addi	a1,sp,16
   1536c:	02010513          	addi	a0,sp,32
   15370:	05712623          	sw	s7,76(sp)
   15374:	03612023          	sw	s6,32(sp)
   15378:	00060b93          	mv	s7,a2
   1537c:	03512223          	sw	s5,36(sp)
   15380:	03412423          	sw	s4,40(sp)
   15384:	03212623          	sw	s2,44(sp)
   15388:	00012823          	sw	zero,16(sp)
   1538c:	00012a23          	sw	zero,20(sp)
   15390:	00012c23          	sw	zero,24(sp)
   15394:	00012e23          	sw	zero,28(sp)
   15398:	5e5080ef          	jal	1e17c <__eqtf2>
   1539c:	0e050463          	beqz	a0,15484 <frexpl+0x17c>
   153a0:	00000693          	li	a3,0
   153a4:	06048e63          	beqz	s1,15420 <frexpl+0x118>
   153a8:	ffffc737          	lui	a4,0xffffc
   153ac:	00270713          	addi	a4,a4,2 # ffffc002 <__BSS_END__+0xfffd94fe>
   153b0:	03c12903          	lw	s2,60(sp)
   153b4:	00e484b3          	add	s1,s1,a4
   153b8:	800107b7          	lui	a5,0x80010
   153bc:	00d484b3          	add	s1,s1,a3
   153c0:	fff78793          	addi	a5,a5,-1 # 8000ffff <__BSS_END__+0x7ffed4fb>
   153c4:	009ba023          	sw	s1,0(s7)
   153c8:	03012b03          	lw	s6,48(sp)
   153cc:	03412a83          	lw	s5,52(sp)
   153d0:	03812a03          	lw	s4,56(sp)
   153d4:	04c12b83          	lw	s7,76(sp)
   153d8:	00f97933          	and	s2,s2,a5
   153dc:	3ffe07b7          	lui	a5,0x3ffe0
   153e0:	00f96933          	or	s2,s2,a5
   153e4:	01642023          	sw	s6,0(s0)
   153e8:	01542223          	sw	s5,4(s0)
   153ec:	01442423          	sw	s4,8(s0)
   153f0:	01242623          	sw	s2,12(s0)
   153f4:	06c12083          	lw	ra,108(sp)
   153f8:	00040513          	mv	a0,s0
   153fc:	06812403          	lw	s0,104(sp)
   15400:	06412483          	lw	s1,100(sp)
   15404:	06012903          	lw	s2,96(sp)
   15408:	05c12983          	lw	s3,92(sp)
   1540c:	05812a03          	lw	s4,88(sp)
   15410:	05412a83          	lw	s5,84(sp)
   15414:	05012b03          	lw	s6,80(sp)
   15418:	07010113          	addi	sp,sp,112
   1541c:	00008067          	ret
   15420:	407107b7          	lui	a5,0x40710
   15424:	00010613          	mv	a2,sp
   15428:	01010593          	addi	a1,sp,16
   1542c:	02010513          	addi	a0,sp,32
   15430:	00f12623          	sw	a5,12(sp)
   15434:	01612823          	sw	s6,16(sp)
   15438:	01512a23          	sw	s5,20(sp)
   1543c:	01412c23          	sw	s4,24(sp)
   15440:	01212e23          	sw	s2,28(sp)
   15444:	00012023          	sw	zero,0(sp)
   15448:	00012223          	sw	zero,4(sp)
   1544c:	00012423          	sw	zero,8(sp)
   15450:	058090ef          	jal	1e4a8 <__multf3>
   15454:	02012703          	lw	a4,32(sp)
   15458:	02c12783          	lw	a5,44(sp)
   1545c:	f8e00693          	li	a3,-114
   15460:	02e12823          	sw	a4,48(sp)
   15464:	02412703          	lw	a4,36(sp)
   15468:	0107d493          	srli	s1,a5,0x10
   1546c:	02f12e23          	sw	a5,60(sp)
   15470:	02e12a23          	sw	a4,52(sp)
   15474:	02812703          	lw	a4,40(sp)
   15478:	0134f4b3          	and	s1,s1,s3
   1547c:	02e12c23          	sw	a4,56(sp)
   15480:	f29ff06f          	j	153a8 <frexpl+0xa0>
   15484:	04c12b83          	lw	s7,76(sp)
   15488:	f5dff06f          	j	153e4 <frexpl+0xdc>

0001548c <__register_exitproc>:
   1548c:	f2c1a783          	lw	a5,-212(gp) # 227ec <__atexit>
   15490:	04078c63          	beqz	a5,154e8 <__register_exitproc+0x5c>
   15494:	0047a703          	lw	a4,4(a5) # 40710004 <__BSS_END__+0x406ed500>
   15498:	01f00813          	li	a6,31
   1549c:	08e84063          	blt	a6,a4,1551c <__register_exitproc+0x90>
   154a0:	00271813          	slli	a6,a4,0x2
   154a4:	02050663          	beqz	a0,154d0 <__register_exitproc+0x44>
   154a8:	01078333          	add	t1,a5,a6
   154ac:	08c32423          	sw	a2,136(t1)
   154b0:	1887a883          	lw	a7,392(a5)
   154b4:	00100613          	li	a2,1
   154b8:	00e61633          	sll	a2,a2,a4
   154bc:	00c8e8b3          	or	a7,a7,a2
   154c0:	1917a423          	sw	a7,392(a5)
   154c4:	10d32423          	sw	a3,264(t1)
   154c8:	00200693          	li	a3,2
   154cc:	02d50663          	beq	a0,a3,154f8 <__register_exitproc+0x6c>
   154d0:	00170713          	addi	a4,a4,1
   154d4:	00e7a223          	sw	a4,4(a5)
   154d8:	010787b3          	add	a5,a5,a6
   154dc:	00b7a423          	sw	a1,8(a5)
   154e0:	00000513          	li	a0,0
   154e4:	00008067          	ret
   154e8:	0b418813          	addi	a6,gp,180 # 22974 <__atexit0>
   154ec:	f301a623          	sw	a6,-212(gp) # 227ec <__atexit>
   154f0:	0b418793          	addi	a5,gp,180 # 22974 <__atexit0>
   154f4:	fa1ff06f          	j	15494 <__register_exitproc+0x8>
   154f8:	18c7a683          	lw	a3,396(a5)
   154fc:	00170713          	addi	a4,a4,1
   15500:	00e7a223          	sw	a4,4(a5)
   15504:	00c6e6b3          	or	a3,a3,a2
   15508:	18d7a623          	sw	a3,396(a5)
   1550c:	010787b3          	add	a5,a5,a6
   15510:	00b7a423          	sw	a1,8(a5)
   15514:	00000513          	li	a0,0
   15518:	00008067          	ret
   1551c:	fff00513          	li	a0,-1
   15520:	00008067          	ret

00015524 <_ldtoa_r>:
   15524:	000218b7          	lui	a7,0x21
   15528:	6b088893          	addi	a7,a7,1712 # 216b0 <blanks.1+0x10>
   1552c:	0008af83          	lw	t6,0(a7)
   15530:	0048af03          	lw	t5,4(a7)
   15534:	0088ae83          	lw	t4,8(a7)
   15538:	00c8ae03          	lw	t3,12(a7)
   1553c:	0108a303          	lw	t1,16(a7)
   15540:	03852883          	lw	a7,56(a0)
   15544:	f5010113          	addi	sp,sp,-176
   15548:	0b212023          	sw	s2,160(sp)
   1554c:	09312e23          	sw	s3,156(sp)
   15550:	09412c23          	sw	s4,152(sp)
   15554:	09612823          	sw	s6,144(sp)
   15558:	09712623          	sw	s7,140(sp)
   1555c:	09812423          	sw	s8,136(sp)
   15560:	09912223          	sw	s9,132(sp)
   15564:	09a12023          	sw	s10,128(sp)
   15568:	0a112623          	sw	ra,172(sp)
   1556c:	0a812423          	sw	s0,168(sp)
   15570:	0a912223          	sw	s1,164(sp)
   15574:	09512a23          	sw	s5,148(sp)
   15578:	07b12e23          	sw	s11,124(sp)
   1557c:	05f12e23          	sw	t6,92(sp)
   15580:	07e12023          	sw	t5,96(sp)
   15584:	07d12223          	sw	t4,100(sp)
   15588:	07c12423          	sw	t3,104(sp)
   1558c:	06612623          	sw	t1,108(sp)
   15590:	00c12c23          	sw	a2,24(sp)
   15594:	00d12e23          	sw	a3,28(sp)
   15598:	0005aa03          	lw	s4,0(a1)
   1559c:	0045a983          	lw	s3,4(a1)
   155a0:	0085a903          	lw	s2,8(a1)
   155a4:	00c5ac03          	lw	s8,12(a1)
   155a8:	00050b13          	mv	s6,a0
   155ac:	00070b93          	mv	s7,a4
   155b0:	00078c93          	mv	s9,a5
   155b4:	00080d13          	mv	s10,a6
   155b8:	00088863          	beqz	a7,155c8 <_ldtoa_r+0xa4>
   155bc:	00088593          	mv	a1,a7
   155c0:	7dd010ef          	jal	1759c <__freedtoa>
   155c4:	020b2c23          	sw	zero,56(s6)
   155c8:	06812603          	lw	a2,104(sp)
   155cc:	01fc5693          	srli	a3,s8,0x1f
   155d0:	001c1a93          	slli	s5,s8,0x1
   155d4:	40165713          	srai	a4,a2,0x1
   155d8:	ffffc4b7          	lui	s1,0xffffc
   155dc:	001c1413          	slli	s0,s8,0x1
   155e0:	00d77733          	and	a4,a4,a3
   155e4:	011ada93          	srli	s5,s5,0x11
   155e8:	f9148493          	addi	s1,s1,-111 # ffffbf91 <__BSS_END__+0xfffd948d>
   155ec:	010c1d93          	slli	s11,s8,0x10
   155f0:	00dca023          	sw	a3,0(s9)
   155f4:	00145413          	srli	s0,s0,0x1
   155f8:	00c74733          	xor	a4,a4,a2
   155fc:	010ddd93          	srli	s11,s11,0x10
   15600:	009a87b3          	add	a5,s5,s1
   15604:	02010593          	addi	a1,sp,32
   15608:	03010513          	addi	a0,sp,48
   1560c:	03412823          	sw	s4,48(sp)
   15610:	03312a23          	sw	s3,52(sp)
   15614:	03212c23          	sw	s2,56(sp)
   15618:	02812e23          	sw	s0,60(sp)
   1561c:	03412023          	sw	s4,32(sp)
   15620:	03312223          	sw	s3,36(sp)
   15624:	03212423          	sw	s2,40(sp)
   15628:	02812623          	sw	s0,44(sp)
   1562c:	06e12423          	sw	a4,104(sp)
   15630:	00f12a23          	sw	a5,20(sp)
   15634:	05412623          	sw	s4,76(sp)
   15638:	05312823          	sw	s3,80(sp)
   1563c:	05212a23          	sw	s2,84(sp)
   15640:	05b12c23          	sw	s11,88(sp)
   15644:	6f80b0ef          	jal	20d3c <__unordtf2>
   15648:	16051a63          	bnez	a0,157bc <_ldtoa_r+0x298>
   1564c:	7fff0cb7          	lui	s9,0x7fff0
   15650:	fff00493          	li	s1,-1
   15654:	fffc8c93          	addi	s9,s9,-1 # 7ffeffff <__BSS_END__+0x7ffcd4fb>
   15658:	02010593          	addi	a1,sp,32
   1565c:	03010513          	addi	a0,sp,48
   15660:	03412823          	sw	s4,48(sp)
   15664:	03312a23          	sw	s3,52(sp)
   15668:	03212c23          	sw	s2,56(sp)
   1566c:	02812e23          	sw	s0,60(sp)
   15670:	02912023          	sw	s1,32(sp)
   15674:	02912223          	sw	s1,36(sp)
   15678:	02912423          	sw	s1,40(sp)
   1567c:	03912623          	sw	s9,44(sp)
   15680:	6bc0b0ef          	jal	20d3c <__unordtf2>
   15684:	08051c63          	bnez	a0,1571c <_ldtoa_r+0x1f8>
   15688:	02010593          	addi	a1,sp,32
   1568c:	03010513          	addi	a0,sp,48
   15690:	4e9080ef          	jal	1e378 <__letf2>
   15694:	08a05463          	blez	a0,1571c <_ldtoa_r+0x1f8>
   15698:	00300793          	li	a5,3
   1569c:	04f12423          	sw	a5,72(sp)
   156a0:	01812783          	lw	a5,24(sp)
   156a4:	01c12803          	lw	a6,28(sp)
   156a8:	01412603          	lw	a2,20(sp)
   156ac:	04810713          	addi	a4,sp,72
   156b0:	01a12023          	sw	s10,0(sp)
   156b4:	000b8893          	mv	a7,s7
   156b8:	04c10693          	addi	a3,sp,76
   156bc:	05c10593          	addi	a1,sp,92
   156c0:	000b0513          	mv	a0,s6
   156c4:	208000ef          	jal	158cc <__gdtoa>
   156c8:	000ba703          	lw	a4,0(s7)
   156cc:	ffff87b7          	lui	a5,0xffff8
   156d0:	00f71863          	bne	a4,a5,156e0 <_ldtoa_r+0x1bc>
   156d4:	800007b7          	lui	a5,0x80000
   156d8:	fff78793          	addi	a5,a5,-1 # 7fffffff <__BSS_END__+0x7ffdd4fb>
   156dc:	00fba023          	sw	a5,0(s7)
   156e0:	0ac12083          	lw	ra,172(sp)
   156e4:	0a812403          	lw	s0,168(sp)
   156e8:	0a412483          	lw	s1,164(sp)
   156ec:	0a012903          	lw	s2,160(sp)
   156f0:	09c12983          	lw	s3,156(sp)
   156f4:	09812a03          	lw	s4,152(sp)
   156f8:	09412a83          	lw	s5,148(sp)
   156fc:	09012b03          	lw	s6,144(sp)
   15700:	08c12b83          	lw	s7,140(sp)
   15704:	08812c03          	lw	s8,136(sp)
   15708:	08412c83          	lw	s9,132(sp)
   1570c:	08012d03          	lw	s10,128(sp)
   15710:	07c12d83          	lw	s11,124(sp)
   15714:	0b010113          	addi	sp,sp,176
   15718:	00008067          	ret
   1571c:	000107b7          	lui	a5,0x10
   15720:	02010593          	addi	a1,sp,32
   15724:	03010513          	addi	a0,sp,48
   15728:	03412823          	sw	s4,48(sp)
   1572c:	03312a23          	sw	s3,52(sp)
   15730:	03212c23          	sw	s2,56(sp)
   15734:	02812e23          	sw	s0,60(sp)
   15738:	02012023          	sw	zero,32(sp)
   1573c:	02012223          	sw	zero,36(sp)
   15740:	02012423          	sw	zero,40(sp)
   15744:	02f12623          	sw	a5,44(sp)
   15748:	301080ef          	jal	1e248 <__getf2>
   1574c:	00054e63          	bltz	a0,15768 <_ldtoa_r+0x244>
   15750:	000107b7          	lui	a5,0x10
   15754:	00fdedb3          	or	s11,s11,a5
   15758:	00100793          	li	a5,1
   1575c:	04f12423          	sw	a5,72(sp)
   15760:	05b12c23          	sw	s11,88(sp)
   15764:	f3dff06f          	j	156a0 <_ldtoa_r+0x17c>
   15768:	02010593          	addi	a1,sp,32
   1576c:	03010513          	addi	a0,sp,48
   15770:	03412823          	sw	s4,48(sp)
   15774:	03312a23          	sw	s3,52(sp)
   15778:	03212c23          	sw	s2,56(sp)
   1577c:	03812e23          	sw	s8,60(sp)
   15780:	02012023          	sw	zero,32(sp)
   15784:	02012223          	sw	zero,36(sp)
   15788:	02012423          	sw	zero,40(sp)
   1578c:	02012623          	sw	zero,44(sp)
   15790:	1ed080ef          	jal	1e17c <__eqtf2>
   15794:	00051663          	bnez	a0,157a0 <_ldtoa_r+0x27c>
   15798:	04012423          	sw	zero,72(sp)
   1579c:	f05ff06f          	j	156a0 <_ldtoa_r+0x17c>
   157a0:	ffffc4b7          	lui	s1,0xffffc
   157a4:	00200793          	li	a5,2
   157a8:	f9248493          	addi	s1,s1,-110 # ffffbf92 <__BSS_END__+0xfffd948e>
   157ac:	04f12423          	sw	a5,72(sp)
   157b0:	009a87b3          	add	a5,s5,s1
   157b4:	00f12a23          	sw	a5,20(sp)
   157b8:	ee9ff06f          	j	156a0 <_ldtoa_r+0x17c>
   157bc:	00400793          	li	a5,4
   157c0:	04f12423          	sw	a5,72(sp)
   157c4:	eddff06f          	j	156a0 <_ldtoa_r+0x17c>

000157c8 <_ldcheck>:
   157c8:	fc010113          	addi	sp,sp,-64
   157cc:	02912a23          	sw	s1,52(sp)
   157d0:	00c52483          	lw	s1,12(a0)
   157d4:	03312623          	sw	s3,44(sp)
   157d8:	03412423          	sw	s4,40(sp)
   157dc:	00852983          	lw	s3,8(a0)
   157e0:	00452a03          	lw	s4,4(a0)
   157e4:	03512223          	sw	s5,36(sp)
   157e8:	00052a83          	lw	s5,0(a0)
   157ec:	00149493          	slli	s1,s1,0x1
   157f0:	0014d493          	srli	s1,s1,0x1
   157f4:	00010593          	mv	a1,sp
   157f8:	01010513          	addi	a0,sp,16
   157fc:	02112e23          	sw	ra,60(sp)
   15800:	01512823          	sw	s5,16(sp)
   15804:	01412a23          	sw	s4,20(sp)
   15808:	01312c23          	sw	s3,24(sp)
   1580c:	00912e23          	sw	s1,28(sp)
   15810:	01512023          	sw	s5,0(sp)
   15814:	01412223          	sw	s4,4(sp)
   15818:	01312423          	sw	s3,8(sp)
   1581c:	00912623          	sw	s1,12(sp)
   15820:	51c0b0ef          	jal	20d3c <__unordtf2>
   15824:	08051463          	bnez	a0,158ac <_ldcheck+0xe4>
   15828:	03612023          	sw	s6,32(sp)
   1582c:	7fff0b37          	lui	s6,0x7fff0
   15830:	03212823          	sw	s2,48(sp)
   15834:	fffb0b13          	addi	s6,s6,-1 # 7ffeffff <__BSS_END__+0x7ffcd4fb>
   15838:	fff00913          	li	s2,-1
   1583c:	00010593          	mv	a1,sp
   15840:	01010513          	addi	a0,sp,16
   15844:	02812c23          	sw	s0,56(sp)
   15848:	01212023          	sw	s2,0(sp)
   1584c:	01212223          	sw	s2,4(sp)
   15850:	01212423          	sw	s2,8(sp)
   15854:	01612623          	sw	s6,12(sp)
   15858:	00100413          	li	s0,1
   1585c:	4e00b0ef          	jal	20d3c <__unordtf2>
   15860:	02050c63          	beqz	a0,15898 <_ldcheck+0xd0>
   15864:	03c12083          	lw	ra,60(sp)
   15868:	00144513          	xori	a0,s0,1
   1586c:	03812403          	lw	s0,56(sp)
   15870:	0ff57513          	zext.b	a0,a0
   15874:	03012903          	lw	s2,48(sp)
   15878:	02012b03          	lw	s6,32(sp)
   1587c:	03412483          	lw	s1,52(sp)
   15880:	02c12983          	lw	s3,44(sp)
   15884:	02812a03          	lw	s4,40(sp)
   15888:	02412a83          	lw	s5,36(sp)
   1588c:	00151513          	slli	a0,a0,0x1
   15890:	04010113          	addi	sp,sp,64
   15894:	00008067          	ret
   15898:	00010593          	mv	a1,sp
   1589c:	01010513          	addi	a0,sp,16
   158a0:	2d9080ef          	jal	1e378 <__letf2>
   158a4:	00152413          	slti	s0,a0,1
   158a8:	fbdff06f          	j	15864 <_ldcheck+0x9c>
   158ac:	03c12083          	lw	ra,60(sp)
   158b0:	03412483          	lw	s1,52(sp)
   158b4:	02c12983          	lw	s3,44(sp)
   158b8:	02812a03          	lw	s4,40(sp)
   158bc:	02412a83          	lw	s5,36(sp)
   158c0:	00100513          	li	a0,1
   158c4:	04010113          	addi	sp,sp,64
   158c8:	00008067          	ret

000158cc <__gdtoa>:
   158cc:	f3010113          	addi	sp,sp,-208
   158d0:	0b612823          	sw	s6,176(sp)
   158d4:	00072b03          	lw	s6,0(a4)
   158d8:	0ba12023          	sw	s10,160(sp)
   158dc:	0c112623          	sw	ra,204(sp)
   158e0:	fcfb7313          	andi	t1,s6,-49
   158e4:	00672023          	sw	t1,0(a4)
   158e8:	00070d13          	mv	s10,a4
   158ec:	0d012703          	lw	a4,208(sp)
   158f0:	00fb7313          	andi	t1,s6,15
   158f4:	00300e93          	li	t4,3
   158f8:	00e12623          	sw	a4,12(sp)
   158fc:	00f12823          	sw	a5,16(sp)
   15900:	01012c23          	sw	a6,24(sp)
   15904:	01112423          	sw	a7,8(sp)
   15908:	7dd30c63          	beq	t1,t4,160e0 <__gdtoa+0x814>
   1590c:	0b912223          	sw	s9,164(sp)
   15910:	00cb7c93          	andi	s9,s6,12
   15914:	720c9063          	bnez	s9,16034 <__gdtoa+0x768>
   15918:	0c812423          	sw	s0,200(sp)
   1591c:	00050413          	mv	s0,a0
   15920:	76030c63          	beqz	t1,16098 <__gdtoa+0x7cc>
   15924:	0b712623          	sw	s7,172(sp)
   15928:	0005ab83          	lw	s7,0(a1)
   1592c:	0d212023          	sw	s2,192(sp)
   15930:	0b512a23          	sw	s5,180(sp)
   15934:	09b12e23          	sw	s11,156(sp)
   15938:	00068913          	mv	s2,a3
   1593c:	0c912223          	sw	s1,196(sp)
   15940:	02000693          	li	a3,32
   15944:	00058d93          	mv	s11,a1
   15948:	00060a93          	mv	s5,a2
   1594c:	00000593          	li	a1,0
   15950:	02000793          	li	a5,32
   15954:	0176d863          	bge	a3,s7,15964 <__gdtoa+0x98>
   15958:	00179793          	slli	a5,a5,0x1
   1595c:	00158593          	addi	a1,a1,1
   15960:	ff77cce3          	blt	a5,s7,15958 <__gdtoa+0x8c>
   15964:	00040513          	mv	a0,s0
   15968:	004020ef          	jal	1796c <_Balloc>
   1596c:	00050493          	mv	s1,a0
   15970:	380504e3          	beqz	a0,164f8 <__gdtoa+0xc2c>
   15974:	fffb8513          	addi	a0,s7,-1
   15978:	40555513          	srai	a0,a0,0x5
   1597c:	00251593          	slli	a1,a0,0x2
   15980:	0b312e23          	sw	s3,188(sp)
   15984:	0b812423          	sw	s8,168(sp)
   15988:	00b905b3          	add	a1,s2,a1
   1598c:	01448693          	addi	a3,s1,20
   15990:	00090793          	mv	a5,s2
   15994:	0007a703          	lw	a4,0(a5) # 10000 <exit-0x94>
   15998:	00478793          	addi	a5,a5,4
   1599c:	00468693          	addi	a3,a3,4
   159a0:	fee6ae23          	sw	a4,-4(a3)
   159a4:	fef5f8e3          	bgeu	a1,a5,15994 <__gdtoa+0xc8>
   159a8:	00158593          	addi	a1,a1,1
   159ac:	00190793          	addi	a5,s2,1
   159b0:	00400693          	li	a3,4
   159b4:	00f5e663          	bltu	a1,a5,159c0 <__gdtoa+0xf4>
   159b8:	00251513          	slli	a0,a0,0x2
   159bc:	00450693          	addi	a3,a0,4
   159c0:	4026dc13          	srai	s8,a3,0x2
   159c4:	00d486b3          	add	a3,s1,a3
   159c8:	00c0006f          	j	159d4 <__gdtoa+0x108>
   159cc:	ffc68693          	addi	a3,a3,-4
   159d0:	780c0463          	beqz	s8,16158 <__gdtoa+0x88c>
   159d4:	0106a783          	lw	a5,16(a3)
   159d8:	000c0993          	mv	s3,s8
   159dc:	fffc0c13          	addi	s8,s8,-1
   159e0:	fe0786e3          	beqz	a5,159cc <__gdtoa+0x100>
   159e4:	004c0793          	addi	a5,s8,4
   159e8:	00279793          	slli	a5,a5,0x2
   159ec:	00f487b3          	add	a5,s1,a5
   159f0:	0047a503          	lw	a0,4(a5)
   159f4:	0134a823          	sw	s3,16(s1)
   159f8:	00599993          	slli	s3,s3,0x5
   159fc:	308020ef          	jal	17d04 <__hi0bits>
   15a00:	40a98c33          	sub	s8,s3,a0
   15a04:	00048513          	mv	a0,s1
   15a08:	701010ef          	jal	17908 <__trailz_D2A>
   15a0c:	08a12623          	sw	a0,140(sp)
   15a10:	03512223          	sw	s5,36(sp)
   15a14:	78051663          	bnez	a0,161a0 <__gdtoa+0x8d4>
   15a18:	0104a683          	lw	a3,16(s1)
   15a1c:	64068a63          	beqz	a3,16070 <__gdtoa+0x7a4>
   15a20:	08c10593          	addi	a1,sp,140
   15a24:	00048513          	mv	a0,s1
   15a28:	0b412c23          	sw	s4,184(sp)
   15a2c:	5a9020ef          	jal	187d4 <__b2d>
   15a30:	00c59993          	slli	s3,a1,0xc
   15a34:	00c9d993          	srli	s3,s3,0xc
   15a38:	3ff006b7          	lui	a3,0x3ff00
   15a3c:	00d9e833          	or	a6,s3,a3
   15a40:	02412703          	lw	a4,36(sp)
   15a44:	ea81a603          	lw	a2,-344(gp) # 22768 <__SDATA_BEGIN__>
   15a48:	eac1a683          	lw	a3,-340(gp) # 2276c <__SDATA_BEGIN__+0x4>
   15a4c:	01870733          	add	a4,a4,s8
   15a50:	00080593          	mv	a1,a6
   15a54:	00050793          	mv	a5,a0
   15a58:	fff70a13          	addi	s4,a4,-1
   15a5c:	03012823          	sw	a6,48(sp)
   15a60:	02e12423          	sw	a4,40(sp)
   15a64:	04f12423          	sw	a5,72(sp)
   15a68:	04a12223          	sw	a0,68(sp)
   15a6c:	641070ef          	jal	1d8ac <__subdf3>
   15a70:	eb01a603          	lw	a2,-336(gp) # 22770 <__SDATA_BEGIN__+0x8>
   15a74:	eb41a683          	lw	a3,-332(gp) # 22774 <__SDATA_BEGIN__+0xc>
   15a78:	784070ef          	jal	1d1fc <__muldf3>
   15a7c:	eb81a603          	lw	a2,-328(gp) # 22778 <__SDATA_BEGIN__+0x10>
   15a80:	ebc1a683          	lw	a3,-324(gp) # 2277c <__SDATA_BEGIN__+0x14>
   15a84:	5c0060ef          	jal	1c044 <__adddf3>
   15a88:	00050793          	mv	a5,a0
   15a8c:	000a0513          	mv	a0,s4
   15a90:	00f12e23          	sw	a5,28(sp)
   15a94:	00058993          	mv	s3,a1
   15a98:	63c080ef          	jal	1e0d4 <__floatsidf>
   15a9c:	ec01a603          	lw	a2,-320(gp) # 22780 <__SDATA_BEGIN__+0x18>
   15aa0:	ec41a683          	lw	a3,-316(gp) # 22784 <__SDATA_BEGIN__+0x1c>
   15aa4:	758070ef          	jal	1d1fc <__muldf3>
   15aa8:	01c12783          	lw	a5,28(sp)
   15aac:	00050613          	mv	a2,a0
   15ab0:	00058693          	mv	a3,a1
   15ab4:	00078513          	mv	a0,a5
   15ab8:	00098593          	mv	a1,s3
   15abc:	588060ef          	jal	1c044 <__adddf3>
   15ac0:	02a12023          	sw	a0,32(sp)
   15ac4:	00058993          	mv	s3,a1
   15ac8:	000a0513          	mv	a0,s4
   15acc:	000a5863          	bgez	s4,15adc <__gdtoa+0x210>
   15ad0:	02812703          	lw	a4,40(sp)
   15ad4:	00100513          	li	a0,1
   15ad8:	40e50533          	sub	a0,a0,a4
   15adc:	bcb50513          	addi	a0,a0,-1077
   15ae0:	02a05863          	blez	a0,15b10 <__gdtoa+0x244>
   15ae4:	5f0080ef          	jal	1e0d4 <__floatsidf>
   15ae8:	ec81a603          	lw	a2,-312(gp) # 22788 <__SDATA_BEGIN__+0x20>
   15aec:	ecc1a683          	lw	a3,-308(gp) # 2278c <__SDATA_BEGIN__+0x24>
   15af0:	70c070ef          	jal	1d1fc <__muldf3>
   15af4:	00050613          	mv	a2,a0
   15af8:	02012503          	lw	a0,32(sp)
   15afc:	00058693          	mv	a3,a1
   15b00:	00098593          	mv	a1,s3
   15b04:	540060ef          	jal	1c044 <__adddf3>
   15b08:	02a12023          	sw	a0,32(sp)
   15b0c:	00058993          	mv	s3,a1
   15b10:	02012503          	lw	a0,32(sp)
   15b14:	00098593          	mv	a1,s3
   15b18:	53c080ef          	jal	1e054 <__fixdfsi>
   15b1c:	00050813          	mv	a6,a0
   15b20:	02012503          	lw	a0,32(sp)
   15b24:	00098593          	mv	a1,s3
   15b28:	00000613          	li	a2,0
   15b2c:	00000693          	li	a3,0
   15b30:	01012e23          	sw	a6,28(sp)
   15b34:	5ec070ef          	jal	1d120 <__ledf2>
   15b38:	02055463          	bgez	a0,15b60 <__gdtoa+0x294>
   15b3c:	01c12503          	lw	a0,28(sp)
   15b40:	594080ef          	jal	1e0d4 <__floatsidf>
   15b44:	02012603          	lw	a2,32(sp)
   15b48:	00098693          	mv	a3,s3
   15b4c:	46c070ef          	jal	1cfb8 <__eqdf2>
   15b50:	01c12783          	lw	a5,28(sp)
   15b54:	00a03533          	snez	a0,a0
   15b58:	40a787b3          	sub	a5,a5,a0
   15b5c:	00f12e23          	sw	a5,28(sp)
   15b60:	03012783          	lw	a5,48(sp)
   15b64:	014a1613          	slli	a2,s4,0x14
   15b68:	01c12703          	lw	a4,28(sp)
   15b6c:	414c0a33          	sub	s4,s8,s4
   15b70:	00f609b3          	add	s3,a2,a5
   15b74:	fffa0793          	addi	a5,s4,-1
   15b78:	01600693          	li	a3,22
   15b7c:	02f12023          	sw	a5,32(sp)
   15b80:	5ee6e063          	bltu	a3,a4,16160 <__gdtoa+0x894>
   15b84:	000217b7          	lui	a5,0x21
   15b88:	72078613          	addi	a2,a5,1824 # 21720 <__mprec_tens>
   15b8c:	00371693          	slli	a3,a4,0x3
   15b90:	00c686b3          	add	a3,a3,a2
   15b94:	04412883          	lw	a7,68(sp)
   15b98:	0006a503          	lw	a0,0(a3) # 3ff00000 <__BSS_END__+0x3fedd4fc>
   15b9c:	0046a583          	lw	a1,4(a3)
   15ba0:	00088613          	mv	a2,a7
   15ba4:	00098693          	mv	a3,s3
   15ba8:	49c070ef          	jal	1d044 <__gedf2>
   15bac:	18a04ee3          	bgtz	a0,16548 <__gdtoa+0xc7c>
   15bb0:	04012823          	sw	zero,80(sp)
   15bb4:	02012823          	sw	zero,48(sp)
   15bb8:	01404a63          	bgtz	s4,15bcc <__gdtoa+0x300>
   15bbc:	00100693          	li	a3,1
   15bc0:	414687b3          	sub	a5,a3,s4
   15bc4:	02f12823          	sw	a5,48(sp)
   15bc8:	02012023          	sw	zero,32(sp)
   15bcc:	02012703          	lw	a4,32(sp)
   15bd0:	01c12783          	lw	a5,28(sp)
   15bd4:	02012c23          	sw	zero,56(sp)
   15bd8:	00f70733          	add	a4,a4,a5
   15bdc:	02e12023          	sw	a4,32(sp)
   15be0:	02f12e23          	sw	a5,60(sp)
   15be4:	01012783          	lw	a5,16(sp)
   15be8:	00900693          	li	a3,9
   15bec:	5cf6ea63          	bltu	a3,a5,161c0 <__gdtoa+0x8f4>
   15bf0:	00500693          	li	a3,5
   15bf4:	16f6c4e3          	blt	a3,a5,1655c <__gdtoa+0xc90>
   15bf8:	02812783          	lw	a5,40(sp)
   15bfc:	00400613          	li	a2,4
   15c00:	3fd78793          	addi	a5,a5,1021
   15c04:	7f87ba13          	sltiu	s4,a5,2040
   15c08:	01012783          	lw	a5,16(sp)
   15c0c:	00c79463          	bne	a5,a2,15c14 <__gdtoa+0x348>
   15c10:	0580106f          	j	16c68 <__gdtoa+0x139c>
   15c14:	00d79463          	bne	a5,a3,15c1c <__gdtoa+0x350>
   15c18:	0440106f          	j	16c5c <__gdtoa+0x1390>
   15c1c:	00200693          	li	a3,2
   15c20:	00d79463          	bne	a5,a3,15c28 <__gdtoa+0x35c>
   15c24:	0500106f          	j	16c74 <__gdtoa+0x13a8>
   15c28:	00300693          	li	a3,3
   15c2c:	04012023          	sw	zero,64(sp)
   15c30:	5ad79063          	bne	a5,a3,161d0 <__gdtoa+0x904>
   15c34:	03c12783          	lw	a5,60(sp)
   15c38:	01812703          	lw	a4,24(sp)
   15c3c:	00e787b3          	add	a5,a5,a4
   15c40:	04f12a23          	sw	a5,84(sp)
   15c44:	00178793          	addi	a5,a5,1
   15c48:	02f12a23          	sw	a5,52(sp)
   15c4c:	5ef056e3          	blez	a5,16a38 <__gdtoa+0x116c>
   15c50:	00078693          	mv	a3,a5
   15c54:	00078593          	mv	a1,a5
   15c58:	00040513          	mv	a0,s0
   15c5c:	08d12623          	sw	a3,140(sp)
   15c60:	019010ef          	jal	17478 <__rv_alloc_D2A>
   15c64:	00050f13          	mv	t5,a0
   15c68:	4c050263          	beqz	a0,1612c <__gdtoa+0x860>
   15c6c:	00cda783          	lw	a5,12(s11)
   15c70:	fff78793          	addi	a5,a5,-1
   15c74:	02f12423          	sw	a5,40(sp)
   15c78:	5a078263          	beqz	a5,1621c <__gdtoa+0x950>
   15c7c:	0c07c0e3          	bltz	a5,1653c <__gdtoa+0xc70>
   15c80:	100b7e13          	andi	t3,s6,256
   15c84:	580e1463          	bnez	t3,1620c <__gdtoa+0x940>
   15c88:	02412783          	lw	a5,36(sp)
   15c8c:	0007c863          	bltz	a5,15c9c <__gdtoa+0x3d0>
   15c90:	03c12783          	lw	a5,60(sp)
   15c94:	00e00693          	li	a3,14
   15c98:	0ef6dae3          	bge	a3,a5,1658c <__gdtoa+0xcc0>
   15c9c:	04012783          	lw	a5,64(sp)
   15ca0:	080786e3          	beqz	a5,1652c <__gdtoa+0xc60>
   15ca4:	02412783          	lw	a5,36(sp)
   15ca8:	418b8333          	sub	t1,s7,s8
   15cac:	004da683          	lw	a3,4(s11)
   15cb0:	00130613          	addi	a2,t1,1
   15cb4:	08c12623          	sw	a2,140(sp)
   15cb8:	40678333          	sub	t1,a5,t1
   15cbc:	5cd35ee3          	bge	t1,a3,16a98 <__gdtoa+0x11cc>
   15cc0:	01012703          	lw	a4,16(sp)
   15cc4:	ffd70613          	addi	a2,a4,-3
   15cc8:	ffd67613          	andi	a2,a2,-3
   15ccc:	4a060ee3          	beqz	a2,16988 <__gdtoa+0x10bc>
   15cd0:	40d786b3          	sub	a3,a5,a3
   15cd4:	00168693          	addi	a3,a3,1
   15cd8:	08d12623          	sw	a3,140(sp)
   15cdc:	00100613          	li	a2,1
   15ce0:	00e65c63          	bge	a2,a4,15cf8 <__gdtoa+0x42c>
   15ce4:	03412783          	lw	a5,52(sp)
   15ce8:	00f05863          	blez	a5,15cf8 <__gdtoa+0x42c>
   15cec:	03412783          	lw	a5,52(sp)
   15cf0:	00d7d463          	bge	a5,a3,15cf8 <__gdtoa+0x42c>
   15cf4:	5740106f          	j	17268 <__gdtoa+0x199c>
   15cf8:	03012783          	lw	a5,48(sp)
   15cfc:	02012703          	lw	a4,32(sp)
   15d00:	03812b03          	lw	s6,56(sp)
   15d04:	00078a13          	mv	s4,a5
   15d08:	00d70733          	add	a4,a4,a3
   15d0c:	00f687b3          	add	a5,a3,a5
   15d10:	02e12023          	sw	a4,32(sp)
   15d14:	02f12823          	sw	a5,48(sp)
   15d18:	00100593          	li	a1,1
   15d1c:	00040513          	mv	a0,s0
   15d20:	03e12223          	sw	t5,36(sp)
   15d24:	138020ef          	jal	17e5c <__i2b>
   15d28:	02412f03          	lw	t5,36(sp)
   15d2c:	00050993          	mv	s3,a0
   15d30:	3e050e63          	beqz	a0,1612c <__gdtoa+0x860>
   15d34:	020a0c63          	beqz	s4,15d6c <__gdtoa+0x4a0>
   15d38:	02012783          	lw	a5,32(sp)
   15d3c:	02f05863          	blez	a5,15d6c <__gdtoa+0x4a0>
   15d40:	000a0693          	mv	a3,s4
   15d44:	0147d463          	bge	a5,s4,15d4c <__gdtoa+0x480>
   15d48:	00078693          	mv	a3,a5
   15d4c:	03012783          	lw	a5,48(sp)
   15d50:	08d12623          	sw	a3,140(sp)
   15d54:	40da0a33          	sub	s4,s4,a3
   15d58:	40d787b3          	sub	a5,a5,a3
   15d5c:	02f12823          	sw	a5,48(sp)
   15d60:	02012783          	lw	a5,32(sp)
   15d64:	40d787b3          	sub	a5,a5,a3
   15d68:	02f12023          	sw	a5,32(sp)
   15d6c:	03812783          	lw	a5,56(sp)
   15d70:	02078863          	beqz	a5,15da0 <__gdtoa+0x4d4>
   15d74:	04012783          	lw	a5,64(sp)
   15d78:	00078463          	beqz	a5,15d80 <__gdtoa+0x4b4>
   15d7c:	600b16e3          	bnez	s6,16b88 <__gdtoa+0x12bc>
   15d80:	03812603          	lw	a2,56(sp)
   15d84:	00048593          	mv	a1,s1
   15d88:	00040513          	mv	a0,s0
   15d8c:	03e12223          	sw	t5,36(sp)
   15d90:	444020ef          	jal	181d4 <__pow5mult>
   15d94:	02412f03          	lw	t5,36(sp)
   15d98:	00050493          	mv	s1,a0
   15d9c:	38050863          	beqz	a0,1612c <__gdtoa+0x860>
   15da0:	00100593          	li	a1,1
   15da4:	00040513          	mv	a0,s0
   15da8:	03e12223          	sw	t5,36(sp)
   15dac:	0b0020ef          	jal	17e5c <__i2b>
   15db0:	00050b93          	mv	s7,a0
   15db4:	36050c63          	beqz	a0,1612c <__gdtoa+0x860>
   15db8:	01c12783          	lw	a5,28(sp)
   15dbc:	02412f03          	lw	t5,36(sp)
   15dc0:	480792e3          	bnez	a5,16a44 <__gdtoa+0x1178>
   15dc4:	01012783          	lw	a5,16(sp)
   15dc8:	00100693          	li	a3,1
   15dcc:	18f6dce3          	bge	a3,a5,16764 <__gdtoa+0xe98>
   15dd0:	01f00a93          	li	s5,31
   15dd4:	02012783          	lw	a5,32(sp)
   15dd8:	40fa8ab3          	sub	s5,s5,a5
   15ddc:	03012783          	lw	a5,48(sp)
   15de0:	ffca8a93          	addi	s5,s5,-4
   15de4:	01fafa93          	andi	s5,s5,31
   15de8:	00fa8633          	add	a2,s5,a5
   15dec:	09512623          	sw	s5,140(sp)
   15df0:	000a8793          	mv	a5,s5
   15df4:	26c048e3          	bgtz	a2,16864 <__gdtoa+0xf98>
   15df8:	02012703          	lw	a4,32(sp)
   15dfc:	00f70633          	add	a2,a4,a5
   15e00:	30c04863          	bgtz	a2,16110 <__gdtoa+0x844>
   15e04:	05012783          	lw	a5,80(sp)
   15e08:	280790e3          	bnez	a5,16888 <__gdtoa+0xfbc>
   15e0c:	03412783          	lw	a5,52(sp)
   15e10:	3af052e3          	blez	a5,169b4 <__gdtoa+0x10e8>
   15e14:	04012783          	lw	a5,64(sp)
   15e18:	2c0784e3          	beqz	a5,168e0 <__gdtoa+0x1014>
   15e1c:	014a8633          	add	a2,s5,s4
   15e20:	60c046e3          	bgtz	a2,16c2c <__gdtoa+0x1360>
   15e24:	01c12783          	lw	a5,28(sp)
   15e28:	00098a13          	mv	s4,s3
   15e2c:	680790e3          	bnez	a5,16cac <__gdtoa+0x13e0>
   15e30:	01a12e23          	sw	s10,28(sp)
   15e34:	01012c83          	lw	s9,16(sp)
   15e38:	03412d03          	lw	s10,52(sp)
   15e3c:	000f0c13          	mv	s8,t5
   15e40:	00100793          	li	a5,1
   15e44:	01e12c23          	sw	t5,24(sp)
   15e48:	0b00006f          	j	15ef8 <__gdtoa+0x62c>
   15e4c:	00040513          	mv	a0,s0
   15e50:	3d1010ef          	jal	17a20 <_Bfree>
   15e54:	000ad463          	bgez	s5,15e5c <__gdtoa+0x590>
   15e58:	7e50006f          	j	16e3c <__gdtoa+0x1570>
   15e5c:	015ceab3          	or	s5,s9,s5
   15e60:	000a9a63          	bnez	s5,15e74 <__gdtoa+0x5a8>
   15e64:	00092783          	lw	a5,0(s2)
   15e68:	0017f793          	andi	a5,a5,1
   15e6c:	00079463          	bnez	a5,15e74 <__gdtoa+0x5a8>
   15e70:	7cd0006f          	j	16e3c <__gdtoa+0x1570>
   15e74:	02812783          	lw	a5,40(sp)
   15e78:	00200713          	li	a4,2
   15e7c:	00e78463          	beq	a5,a4,15e84 <__gdtoa+0x5b8>
   15e80:	3140106f          	j	17194 <__gdtoa+0x18c8>
   15e84:	01bc0023          	sb	s11,0(s8)
   15e88:	08c12783          	lw	a5,140(sp)
   15e8c:	001c0c13          	addi	s8,s8,1
   15e90:	00fd1463          	bne	s10,a5,15e98 <__gdtoa+0x5cc>
   15e94:	2340106f          	j	170c8 <__gdtoa+0x17fc>
   15e98:	00048593          	mv	a1,s1
   15e9c:	00000693          	li	a3,0
   15ea0:	00a00613          	li	a2,10
   15ea4:	00040513          	mv	a0,s0
   15ea8:	39d010ef          	jal	17a44 <__multadd>
   15eac:	00050493          	mv	s1,a0
   15eb0:	26050e63          	beqz	a0,1612c <__gdtoa+0x860>
   15eb4:	00000693          	li	a3,0
   15eb8:	00a00613          	li	a2,10
   15ebc:	00098593          	mv	a1,s3
   15ec0:	00040513          	mv	a0,s0
   15ec4:	114980e3          	beq	s3,s4,167c4 <__gdtoa+0xef8>
   15ec8:	37d010ef          	jal	17a44 <__multadd>
   15ecc:	00050993          	mv	s3,a0
   15ed0:	24050e63          	beqz	a0,1612c <__gdtoa+0x860>
   15ed4:	000a0593          	mv	a1,s4
   15ed8:	00000693          	li	a3,0
   15edc:	00a00613          	li	a2,10
   15ee0:	00040513          	mv	a0,s0
   15ee4:	361010ef          	jal	17a44 <__multadd>
   15ee8:	00050a13          	mv	s4,a0
   15eec:	24050063          	beqz	a0,1612c <__gdtoa+0x860>
   15ef0:	08c12783          	lw	a5,140(sp)
   15ef4:	00178793          	addi	a5,a5,1
   15ef8:	000b8593          	mv	a1,s7
   15efc:	00048513          	mv	a0,s1
   15f00:	08f12623          	sw	a5,140(sp)
   15f04:	6b0010ef          	jal	175b4 <__quorem_D2A>
   15f08:	00050b13          	mv	s6,a0
   15f0c:	00098593          	mv	a1,s3
   15f10:	00048513          	mv	a0,s1
   15f14:	5a0020ef          	jal	184b4 <__mcmp>
   15f18:	000b8593          	mv	a1,s7
   15f1c:	00050a93          	mv	s5,a0
   15f20:	000a0613          	mv	a2,s4
   15f24:	00040513          	mv	a0,s0
   15f28:	5e4020ef          	jal	1850c <__mdiff>
   15f2c:	030b0d93          	addi	s11,s6,48
   15f30:	00050593          	mv	a1,a0
   15f34:	1e050c63          	beqz	a0,1612c <__gdtoa+0x860>
   15f38:	00c52783          	lw	a5,12(a0)
   15f3c:	f00798e3          	bnez	a5,15e4c <__gdtoa+0x580>
   15f40:	00a12823          	sw	a0,16(sp)
   15f44:	00048513          	mv	a0,s1
   15f48:	56c020ef          	jal	184b4 <__mcmp>
   15f4c:	01012583          	lw	a1,16(sp)
   15f50:	00050793          	mv	a5,a0
   15f54:	00040513          	mv	a0,s0
   15f58:	00f12823          	sw	a5,16(sp)
   15f5c:	2c5010ef          	jal	17a20 <_Bfree>
   15f60:	01012783          	lw	a5,16(sp)
   15f64:	00fce733          	or	a4,s9,a5
   15f68:	00070463          	beqz	a4,15f70 <__gdtoa+0x6a4>
   15f6c:	4800106f          	j	173ec <__gdtoa+0x1b20>
   15f70:	00092783          	lw	a5,0(s2)
   15f74:	0017f793          	andi	a5,a5,1
   15f78:	060790e3          	bnez	a5,167d8 <__gdtoa+0xf0c>
   15f7c:	02812783          	lw	a5,40(sp)
   15f80:	00079463          	bnez	a5,15f88 <__gdtoa+0x6bc>
   15f84:	3580106f          	j	172dc <__gdtoa+0x1a10>
   15f88:	ef504ee3          	bgtz	s5,15e84 <__gdtoa+0x5b8>
   15f8c:	0104a683          	lw	a3,16(s1)
   15f90:	00100793          	li	a5,1
   15f94:	01812f03          	lw	t5,24(sp)
   15f98:	01c12d03          	lw	s10,28(sp)
   15f9c:	00070c93          	mv	s9,a4
   15fa0:	00d7c463          	blt	a5,a3,15fa8 <__gdtoa+0x6dc>
   15fa4:	4140106f          	j	173b8 <__gdtoa+0x1aec>
   15fa8:	02812703          	lw	a4,40(sp)
   15fac:	00200793          	li	a5,2
   15fb0:	000f0b13          	mv	s6,t5
   15fb4:	02f71463          	bne	a4,a5,15fdc <__gdtoa+0x710>
   15fb8:	3d40106f          	j	1738c <__gdtoa+0x1ac0>
   15fbc:	289010ef          	jal	17a44 <__multadd>
   15fc0:	000b8593          	mv	a1,s7
   15fc4:	00050493          	mv	s1,a0
   15fc8:	16050263          	beqz	a0,1612c <__gdtoa+0x860>
   15fcc:	5e8010ef          	jal	175b4 <__quorem_D2A>
   15fd0:	03050d93          	addi	s11,a0,48
   15fd4:	00090c13          	mv	s8,s2
   15fd8:	000a8a13          	mv	s4,s5
   15fdc:	000a0593          	mv	a1,s4
   15fe0:	000b8513          	mv	a0,s7
   15fe4:	4d0020ef          	jal	184b4 <__mcmp>
   15fe8:	00050793          	mv	a5,a0
   15fec:	00000693          	li	a3,0
   15ff0:	00a00613          	li	a2,10
   15ff4:	000a0593          	mv	a1,s4
   15ff8:	00040513          	mv	a0,s0
   15ffc:	001c0913          	addi	s2,s8,1
   16000:	00f04463          	bgtz	a5,16008 <__gdtoa+0x73c>
   16004:	3700106f          	j	17374 <__gdtoa+0x1aa8>
   16008:	ffb90fa3          	sb	s11,-1(s2)
   1600c:	239010ef          	jal	17a44 <__multadd>
   16010:	00050a93          	mv	s5,a0
   16014:	00000693          	li	a3,0
   16018:	00a00613          	li	a2,10
   1601c:	00048593          	mv	a1,s1
   16020:	00040513          	mv	a0,s0
   16024:	100a8463          	beqz	s5,1612c <__gdtoa+0x860>
   16028:	f9499ae3          	bne	s3,s4,15fbc <__gdtoa+0x6f0>
   1602c:	000a8993          	mv	s3,s5
   16030:	f8dff06f          	j	15fbc <__gdtoa+0x6f0>
   16034:	00400793          	li	a5,4
   16038:	10f31c63          	bne	t1,a5,16150 <__gdtoa+0x884>
   1603c:	00812703          	lw	a4,8(sp)
   16040:	00c12603          	lw	a2,12(sp)
   16044:	0a412c83          	lw	s9,164(sp)
   16048:	0cc12083          	lw	ra,204(sp)
   1604c:	0b012b03          	lw	s6,176(sp)
   16050:	0a012d03          	lw	s10,160(sp)
   16054:	ffff87b7          	lui	a5,0xffff8
   16058:	00f72023          	sw	a5,0(a4)
   1605c:	000215b7          	lui	a1,0x21
   16060:	00300693          	li	a3,3
   16064:	39458593          	addi	a1,a1,916 # 21394 <__clzsi2+0xa0>
   16068:	0d010113          	addi	sp,sp,208
   1606c:	4780106f          	j	174e4 <__nrv_alloc_D2A>
   16070:	00048593          	mv	a1,s1
   16074:	00040513          	mv	a0,s0
   16078:	1a9010ef          	jal	17a20 <_Bfree>
   1607c:	0c412483          	lw	s1,196(sp)
   16080:	0c012903          	lw	s2,192(sp)
   16084:	0bc12983          	lw	s3,188(sp)
   16088:	0b412a83          	lw	s5,180(sp)
   1608c:	0ac12b83          	lw	s7,172(sp)
   16090:	0a812c03          	lw	s8,168(sp)
   16094:	09c12d83          	lw	s11,156(sp)
   16098:	00812703          	lw	a4,8(sp)
   1609c:	00c12603          	lw	a2,12(sp)
   160a0:	00100793          	li	a5,1
   160a4:	000215b7          	lui	a1,0x21
   160a8:	00040513          	mv	a0,s0
   160ac:	00f72023          	sw	a5,0(a4)
   160b0:	00100693          	li	a3,1
   160b4:	38458593          	addi	a1,a1,900 # 21384 <__clzsi2+0x90>
   160b8:	42c010ef          	jal	174e4 <__nrv_alloc_D2A>
   160bc:	0c812403          	lw	s0,200(sp)
   160c0:	00050f13          	mv	t5,a0
   160c4:	0cc12083          	lw	ra,204(sp)
   160c8:	0a412c83          	lw	s9,164(sp)
   160cc:	0b012b03          	lw	s6,176(sp)
   160d0:	0a012d03          	lw	s10,160(sp)
   160d4:	000f0513          	mv	a0,t5
   160d8:	0d010113          	addi	sp,sp,208
   160dc:	00008067          	ret
   160e0:	00812703          	lw	a4,8(sp)
   160e4:	00c12603          	lw	a2,12(sp)
   160e8:	0cc12083          	lw	ra,204(sp)
   160ec:	0b012b03          	lw	s6,176(sp)
   160f0:	0a012d03          	lw	s10,160(sp)
   160f4:	ffff87b7          	lui	a5,0xffff8
   160f8:	00f72023          	sw	a5,0(a4)
   160fc:	000215b7          	lui	a1,0x21
   16100:	00800693          	li	a3,8
   16104:	38858593          	addi	a1,a1,904 # 21388 <__clzsi2+0x94>
   16108:	0d010113          	addi	sp,sp,208
   1610c:	3d80106f          	j	174e4 <__nrv_alloc_D2A>
   16110:	000b8593          	mv	a1,s7
   16114:	00040513          	mv	a0,s0
   16118:	03e12023          	sw	t5,32(sp)
   1611c:	208020ef          	jal	18324 <__lshift>
   16120:	02012f03          	lw	t5,32(sp)
   16124:	00050b93          	mv	s7,a0
   16128:	cc051ee3          	bnez	a0,15e04 <__gdtoa+0x538>
   1612c:	0c812403          	lw	s0,200(sp)
   16130:	0c412483          	lw	s1,196(sp)
   16134:	0c012903          	lw	s2,192(sp)
   16138:	0bc12983          	lw	s3,188(sp)
   1613c:	0b812a03          	lw	s4,184(sp)
   16140:	0b412a83          	lw	s5,180(sp)
   16144:	0ac12b83          	lw	s7,172(sp)
   16148:	0a812c03          	lw	s8,168(sp)
   1614c:	09c12d83          	lw	s11,156(sp)
   16150:	00000f13          	li	t5,0
   16154:	f71ff06f          	j	160c4 <__gdtoa+0x7f8>
   16158:	0004a823          	sw	zero,16(s1)
   1615c:	8a9ff06f          	j	15a04 <__gdtoa+0x138>
   16160:	00100793          	li	a5,1
   16164:	04f12823          	sw	a5,80(sp)
   16168:	02012823          	sw	zero,48(sp)
   1616c:	fffa0793          	addi	a5,s4,-1
   16170:	3a07c463          	bltz	a5,16518 <__gdtoa+0xc4c>
   16174:	01c12783          	lw	a5,28(sp)
   16178:	a407dae3          	bgez	a5,15bcc <__gdtoa+0x300>
   1617c:	01c12783          	lw	a5,28(sp)
   16180:	03012703          	lw	a4,48(sp)
   16184:	00012e23          	sw	zero,28(sp)
   16188:	02f12e23          	sw	a5,60(sp)
   1618c:	40f70733          	sub	a4,a4,a5
   16190:	02e12823          	sw	a4,48(sp)
   16194:	40f00733          	neg	a4,a5
   16198:	02e12c23          	sw	a4,56(sp)
   1619c:	a49ff06f          	j	15be4 <__gdtoa+0x318>
   161a0:	00050593          	mv	a1,a0
   161a4:	00048513          	mv	a0,s1
   161a8:	67c010ef          	jal	17824 <__rshift_D2A>
   161ac:	08c12683          	lw	a3,140(sp)
   161b0:	015687b3          	add	a5,a3,s5
   161b4:	02f12223          	sw	a5,36(sp)
   161b8:	40dc0c33          	sub	s8,s8,a3
   161bc:	85dff06f          	j	15a18 <__gdtoa+0x14c>
   161c0:	02812783          	lw	a5,40(sp)
   161c4:	00012823          	sw	zero,16(sp)
   161c8:	3fd78793          	addi	a5,a5,1021 # ffff83fd <__BSS_END__+0xfffd58f9>
   161cc:	7f87ba13          	sltiu	s4,a5,2040
   161d0:	000b8513          	mv	a0,s7
   161d4:	701070ef          	jal	1e0d4 <__floatsidf>
   161d8:	ed01a603          	lw	a2,-304(gp) # 22790 <__SDATA_BEGIN__+0x28>
   161dc:	ed41a683          	lw	a3,-300(gp) # 22794 <__SDATA_BEGIN__+0x2c>
   161e0:	01c070ef          	jal	1d1fc <__muldf3>
   161e4:	671070ef          	jal	1e054 <__fixdfsi>
   161e8:	00100793          	li	a5,1
   161ec:	00350593          	addi	a1,a0,3
   161f0:	04f12023          	sw	a5,64(sp)
   161f4:	fff00793          	li	a5,-1
   161f8:	00058693          	mv	a3,a1
   161fc:	00012c23          	sw	zero,24(sp)
   16200:	04f12a23          	sw	a5,84(sp)
   16204:	02f12a23          	sw	a5,52(sp)
   16208:	a51ff06f          	j	15c58 <__gdtoa+0x38c>
   1620c:	02812783          	lw	a5,40(sp)
   16210:	00300693          	li	a3,3
   16214:	40f687b3          	sub	a5,a3,a5
   16218:	02f12423          	sw	a5,40(sp)
   1621c:	03412783          	lw	a5,52(sp)
   16220:	00e00693          	li	a3,14
   16224:	a6f6e2e3          	bltu	a3,a5,15c88 <__gdtoa+0x3bc>
   16228:	a60a00e3          	beqz	s4,15c88 <__gdtoa+0x3bc>
   1622c:	03c12703          	lw	a4,60(sp)
   16230:	02812683          	lw	a3,40(sp)
   16234:	00d766b3          	or	a3,a4,a3
   16238:	a40698e3          	bnez	a3,15c88 <__gdtoa+0x3bc>
   1623c:	05012703          	lw	a4,80(sp)
   16240:	08012623          	sw	zero,140(sp)
   16244:	05312c23          	sw	s3,88(sp)
   16248:	04412b03          	lw	s6,68(sp)
   1624c:	02070263          	beqz	a4,16270 <__gdtoa+0x9a4>
   16250:	ed81a603          	lw	a2,-296(gp) # 22798 <__SDATA_BEGIN__+0x30>
   16254:	edc1a683          	lw	a3,-292(gp) # 2279c <__SDATA_BEGIN__+0x34>
   16258:	000b0513          	mv	a0,s6
   1625c:	00098593          	mv	a1,s3
   16260:	03e12423          	sw	t5,40(sp)
   16264:	6bd060ef          	jal	1d120 <__ledf2>
   16268:	02812f03          	lw	t5,40(sp)
   1626c:	66054ce3          	bltz	a0,170e4 <__gdtoa+0x1818>
   16270:	04412783          	lw	a5,68(sp)
   16274:	03e12423          	sw	t5,40(sp)
   16278:	00078613          	mv	a2,a5
   1627c:	00078513          	mv	a0,a5
   16280:	05812783          	lw	a5,88(sp)
   16284:	00078693          	mv	a3,a5
   16288:	00078593          	mv	a1,a5
   1628c:	5b9050ef          	jal	1c044 <__adddf3>
   16290:	ef01a603          	lw	a2,-272(gp) # 227b0 <__SDATA_BEGIN__+0x48>
   16294:	ef41a683          	lw	a3,-268(gp) # 227b4 <__SDATA_BEGIN__+0x4c>
   16298:	5ad050ef          	jal	1c044 <__adddf3>
   1629c:	fcc007b7          	lui	a5,0xfcc00
   162a0:	00b78a33          	add	s4,a5,a1
   162a4:	03412783          	lw	a5,52(sp)
   162a8:	02812f03          	lw	t5,40(sp)
   162ac:	00050713          	mv	a4,a0
   162b0:	280782e3          	beqz	a5,16d34 <__gdtoa+0x1468>
   162b4:	03412783          	lw	a5,52(sp)
   162b8:	04412e83          	lw	t4,68(sp)
   162bc:	05812803          	lw	a6,88(sp)
   162c0:	06012023          	sw	zero,96(sp)
   162c4:	04f12e23          	sw	a5,92(sp)
   162c8:	05c12683          	lw	a3,92(sp)
   162cc:	000217b7          	lui	a5,0x21
   162d0:	04012583          	lw	a1,64(sp)
   162d4:	fff68693          	addi	a3,a3,-1
   162d8:	72078613          	addi	a2,a5,1824 # 21720 <__mprec_tens>
   162dc:	00369693          	slli	a3,a3,0x3
   162e0:	00c686b3          	add	a3,a3,a2
   162e4:	07012223          	sw	a6,100(sp)
   162e8:	03d12423          	sw	t4,40(sp)
   162ec:	0006a603          	lw	a2,0(a3)
   162f0:	0046a683          	lw	a3,4(a3)
   162f4:	42058ce3          	beqz	a1,16f2c <__gdtoa+0x1660>
   162f8:	f001a503          	lw	a0,-256(gp) # 227c0 <__SDATA_BEGIN__+0x58>
   162fc:	f041a583          	lw	a1,-252(gp) # 227c4 <__SDATA_BEGIN__+0x5c>
   16300:	06f12e23          	sw	a5,124(sp)
   16304:	001f0b13          	addi	s6,t5,1
   16308:	07e12a23          	sw	t5,116(sp)
   1630c:	04e12423          	sw	a4,72(sp)
   16310:	4c8060ef          	jal	1c7d8 <__divdf3>
   16314:	04812703          	lw	a4,72(sp)
   16318:	000a0693          	mv	a3,s4
   1631c:	00070613          	mv	a2,a4
   16320:	58c070ef          	jal	1d8ac <__subdf3>
   16324:	02812e83          	lw	t4,40(sp)
   16328:	06412803          	lw	a6,100(sp)
   1632c:	00050613          	mv	a2,a0
   16330:	00058693          	mv	a3,a1
   16334:	000e8513          	mv	a0,t4
   16338:	00080593          	mv	a1,a6
   1633c:	07d12423          	sw	t4,104(sp)
   16340:	05012423          	sw	a6,72(sp)
   16344:	06c12623          	sw	a2,108(sp)
   16348:	06d12823          	sw	a3,112(sp)
   1634c:	509070ef          	jal	1e054 <__fixdfsi>
   16350:	02a12423          	sw	a0,40(sp)
   16354:	581070ef          	jal	1e0d4 <__floatsidf>
   16358:	06812e83          	lw	t4,104(sp)
   1635c:	04812803          	lw	a6,72(sp)
   16360:	00050613          	mv	a2,a0
   16364:	00058693          	mv	a3,a1
   16368:	000e8513          	mv	a0,t4
   1636c:	00080593          	mv	a1,a6
   16370:	53c070ef          	jal	1d8ac <__subdf3>
   16374:	02812e03          	lw	t3,40(sp)
   16378:	07412f03          	lw	t5,116(sp)
   1637c:	00050613          	mv	a2,a0
   16380:	00058693          	mv	a3,a1
   16384:	00050a13          	mv	s4,a0
   16388:	00058993          	mv	s3,a1
   1638c:	06c12503          	lw	a0,108(sp)
   16390:	07012583          	lw	a1,112(sp)
   16394:	030e0e13          	addi	t3,t3,48
   16398:	01cf0023          	sb	t3,0(t5)
   1639c:	03e12423          	sw	t5,40(sp)
   163a0:	4a5060ef          	jal	1d044 <__gedf2>
   163a4:	02812f03          	lw	t5,40(sp)
   163a8:	68a042e3          	bgtz	a0,1722c <__gdtoa+0x1960>
   163ac:	ed81a783          	lw	a5,-296(gp) # 22798 <__SDATA_BEGIN__+0x30>
   163b0:	edc1a803          	lw	a6,-292(gp) # 2279c <__SDATA_BEGIN__+0x34>
   163b4:	04f12423          	sw	a5,72(sp)
   163b8:	05012623          	sw	a6,76(sp)
   163bc:	ee01a783          	lw	a5,-288(gp) # 227a0 <__SDATA_BEGIN__+0x38>
   163c0:	ee41a803          	lw	a6,-284(gp) # 227a4 <__SDATA_BEGIN__+0x3c>
   163c4:	06912223          	sw	s1,100(sp)
   163c8:	07712a23          	sw	s7,116(sp)
   163cc:	07812c23          	sw	s8,120(sp)
   163d0:	06c12483          	lw	s1,108(sp)
   163d4:	05c12c03          	lw	s8,92(sp)
   163d8:	07012b83          	lw	s7,112(sp)
   163dc:	02f12423          	sw	a5,40(sp)
   163e0:	03012623          	sw	a6,44(sp)
   163e4:	05e12e23          	sw	t5,92(sp)
   163e8:	06812423          	sw	s0,104(sp)
   163ec:	0800006f          	j	1646c <__gdtoa+0xba0>
   163f0:	08c12783          	lw	a5,140(sp)
   163f4:	00178793          	addi	a5,a5,1
   163f8:	08f12623          	sw	a5,140(sp)
   163fc:	6b87d6e3          	bge	a5,s8,172a8 <__gdtoa+0x19dc>
   16400:	5fd060ef          	jal	1d1fc <__muldf3>
   16404:	02812603          	lw	a2,40(sp)
   16408:	02c12683          	lw	a3,44(sp)
   1640c:	00050493          	mv	s1,a0
   16410:	00058b93          	mv	s7,a1
   16414:	000a0513          	mv	a0,s4
   16418:	00098593          	mv	a1,s3
   1641c:	5e1060ef          	jal	1d1fc <__muldf3>
   16420:	00058a13          	mv	s4,a1
   16424:	00050413          	mv	s0,a0
   16428:	42d070ef          	jal	1e054 <__fixdfsi>
   1642c:	00050993          	mv	s3,a0
   16430:	4a5070ef          	jal	1e0d4 <__floatsidf>
   16434:	00050613          	mv	a2,a0
   16438:	00058693          	mv	a3,a1
   1643c:	00040513          	mv	a0,s0
   16440:	000a0593          	mv	a1,s4
   16444:	468070ef          	jal	1d8ac <__subdf3>
   16448:	03098793          	addi	a5,s3,48
   1644c:	00048613          	mv	a2,s1
   16450:	000b8693          	mv	a3,s7
   16454:	00fb0023          	sb	a5,0(s6)
   16458:	001b0b13          	addi	s6,s6,1
   1645c:	00050a13          	mv	s4,a0
   16460:	00058993          	mv	s3,a1
   16464:	4bd060ef          	jal	1d120 <__ledf2>
   16468:	5a054ce3          	bltz	a0,17220 <__gdtoa+0x1954>
   1646c:	04812503          	lw	a0,72(sp)
   16470:	04c12583          	lw	a1,76(sp)
   16474:	000a0613          	mv	a2,s4
   16478:	00098693          	mv	a3,s3
   1647c:	430070ef          	jal	1d8ac <__subdf3>
   16480:	00050613          	mv	a2,a0
   16484:	00058693          	mv	a3,a1
   16488:	00048513          	mv	a0,s1
   1648c:	000b8593          	mv	a1,s7
   16490:	3b5060ef          	jal	1d044 <__gedf2>
   16494:	00050793          	mv	a5,a0
   16498:	02812603          	lw	a2,40(sp)
   1649c:	02c12683          	lw	a3,44(sp)
   164a0:	00048513          	mv	a0,s1
   164a4:	000b8593          	mv	a1,s7
   164a8:	f4f054e3          	blez	a5,163f0 <__gdtoa+0xb24>
   164ac:	06012783          	lw	a5,96(sp)
   164b0:	06412483          	lw	s1,100(sp)
   164b4:	05c12f03          	lw	t5,92(sp)
   164b8:	06812403          	lw	s0,104(sp)
   164bc:	fffb4b83          	lbu	s7,-1(s6)
   164c0:	00178d93          	addi	s11,a5,1
   164c4:	03900693          	li	a3,57
   164c8:	0100006f          	j	164d8 <__gdtoa+0xc0c>
   164cc:	24ff0ae3          	beq	t5,a5,16f20 <__gdtoa+0x1654>
   164d0:	fff7cb83          	lbu	s7,-1(a5)
   164d4:	00078b13          	mv	s6,a5
   164d8:	fffb0793          	addi	a5,s6,-1
   164dc:	fedb88e3          	beq	s7,a3,164cc <__gdtoa+0xc00>
   164e0:	001b8693          	addi	a3,s7,1
   164e4:	0ff6f693          	zext.b	a3,a3
   164e8:	00d78023          	sb	a3,0(a5)
   164ec:	000d8b93          	mv	s7,s11
   164f0:	02000c93          	li	s9,32
   164f4:	2100006f          	j	16704 <__gdtoa+0xe38>
   164f8:	0c812403          	lw	s0,200(sp)
   164fc:	0c412483          	lw	s1,196(sp)
   16500:	0c012903          	lw	s2,192(sp)
   16504:	0b412a83          	lw	s5,180(sp)
   16508:	0ac12b83          	lw	s7,172(sp)
   1650c:	09c12d83          	lw	s11,156(sp)
   16510:	00000f13          	li	t5,0
   16514:	bb1ff06f          	j	160c4 <__gdtoa+0x7f8>
   16518:	00100693          	li	a3,1
   1651c:	414687b3          	sub	a5,a3,s4
   16520:	02f12823          	sw	a5,48(sp)
   16524:	02012023          	sw	zero,32(sp)
   16528:	c4dff06f          	j	16174 <__gdtoa+0x8a8>
   1652c:	03812b03          	lw	s6,56(sp)
   16530:	03012a03          	lw	s4,48(sp)
   16534:	00000993          	li	s3,0
   16538:	ffcff06f          	j	15d34 <__gdtoa+0x468>
   1653c:	00200793          	li	a5,2
   16540:	02f12423          	sw	a5,40(sp)
   16544:	f3cff06f          	j	15c80 <__gdtoa+0x3b4>
   16548:	01c12783          	lw	a5,28(sp)
   1654c:	04012823          	sw	zero,80(sp)
   16550:	fff78793          	addi	a5,a5,-1
   16554:	00f12e23          	sw	a5,28(sp)
   16558:	c11ff06f          	j	16168 <__gdtoa+0x89c>
   1655c:	ffc78793          	addi	a5,a5,-4
   16560:	00f12823          	sw	a5,16(sp)
   16564:	00400613          	li	a2,4
   16568:	22c78863          	beq	a5,a2,16798 <__gdtoa+0xecc>
   1656c:	6ed78063          	beq	a5,a3,16c4c <__gdtoa+0x1380>
   16570:	00200693          	li	a3,2
   16574:	04012023          	sw	zero,64(sp)
   16578:	00000a13          	li	s4,0
   1657c:	22d78463          	beq	a5,a3,167a4 <__gdtoa+0xed8>
   16580:	00300793          	li	a5,3
   16584:	00f12823          	sw	a5,16(sp)
   16588:	eacff06f          	j	15c34 <__gdtoa+0x368>
   1658c:	000216b7          	lui	a3,0x21
   16590:	00379793          	slli	a5,a5,0x3
   16594:	72068693          	addi	a3,a3,1824 # 21720 <__mprec_tens>
   16598:	00d787b3          	add	a5,a5,a3
   1659c:	0007aa03          	lw	s4,0(a5)
   165a0:	0047aa83          	lw	s5,4(a5)
   165a4:	01812783          	lw	a5,24(sp)
   165a8:	5407c263          	bltz	a5,16aec <__gdtoa+0x1220>
   165ac:	04812b03          	lw	s6,72(sp)
   165b0:	00100793          	li	a5,1
   165b4:	000a0613          	mv	a2,s4
   165b8:	000a8693          	mv	a3,s5
   165bc:	000b0513          	mv	a0,s6
   165c0:	00098593          	mv	a1,s3
   165c4:	01e12823          	sw	t5,16(sp)
   165c8:	08f12623          	sw	a5,140(sp)
   165cc:	20c060ef          	jal	1c7d8 <__divdf3>
   165d0:	285070ef          	jal	1e054 <__fixdfsi>
   165d4:	00050913          	mv	s2,a0
   165d8:	2fd070ef          	jal	1e0d4 <__floatsidf>
   165dc:	000a0613          	mv	a2,s4
   165e0:	000a8693          	mv	a3,s5
   165e4:	419060ef          	jal	1d1fc <__muldf3>
   165e8:	00050613          	mv	a2,a0
   165ec:	00058693          	mv	a3,a1
   165f0:	000b0513          	mv	a0,s6
   165f4:	00098593          	mv	a1,s3
   165f8:	2b4070ef          	jal	1d8ac <__subdf3>
   165fc:	01012f03          	lw	t5,16(sp)
   16600:	03c12703          	lw	a4,60(sp)
   16604:	03090793          	addi	a5,s2,48
   16608:	00ff0023          	sb	a5,0(t5)
   1660c:	00000613          	li	a2,0
   16610:	00000693          	li	a3,0
   16614:	00170d93          	addi	s11,a4,1
   16618:	001f0b13          	addi	s6,t5,1
   1661c:	00050c13          	mv	s8,a0
   16620:	00058993          	mv	s3,a1
   16624:	195060ef          	jal	1cfb8 <__eqdf2>
   16628:	01012f03          	lw	t5,16(sp)
   1662c:	000d8b93          	mv	s7,s11
   16630:	0c050a63          	beqz	a0,16704 <__gdtoa+0xe38>
   16634:	ee41a803          	lw	a6,-284(gp) # 227a4 <__SDATA_BEGIN__+0x3c>
   16638:	ee01a783          	lw	a5,-288(gp) # 227a0 <__SDATA_BEGIN__+0x38>
   1663c:	01912e23          	sw	s9,28(sp)
   16640:	01b12c23          	sw	s11,24(sp)
   16644:	03412c83          	lw	s9,52(sp)
   16648:	000c0d93          	mv	s11,s8
   1664c:	00f12823          	sw	a5,16(sp)
   16650:	00098c13          	mv	s8,s3
   16654:	01012a23          	sw	a6,20(sp)
   16658:	000f0993          	mv	s3,t5
   1665c:	0700006f          	j	166cc <__gdtoa+0xe00>
   16660:	09112623          	sw	a7,140(sp)
   16664:	399060ef          	jal	1d1fc <__muldf3>
   16668:	000a0613          	mv	a2,s4
   1666c:	000a8693          	mv	a3,s5
   16670:	00050d93          	mv	s11,a0
   16674:	00058c13          	mv	s8,a1
   16678:	160060ef          	jal	1c7d8 <__divdf3>
   1667c:	1d9070ef          	jal	1e054 <__fixdfsi>
   16680:	00050913          	mv	s2,a0
   16684:	251070ef          	jal	1e0d4 <__floatsidf>
   16688:	000a0613          	mv	a2,s4
   1668c:	000a8693          	mv	a3,s5
   16690:	36d060ef          	jal	1d1fc <__muldf3>
   16694:	00050613          	mv	a2,a0
   16698:	00058693          	mv	a3,a1
   1669c:	000d8513          	mv	a0,s11
   166a0:	000c0593          	mv	a1,s8
   166a4:	208070ef          	jal	1d8ac <__subdf3>
   166a8:	001b0b13          	addi	s6,s6,1
   166ac:	03090793          	addi	a5,s2,48
   166b0:	fefb0fa3          	sb	a5,-1(s6)
   166b4:	00000613          	li	a2,0
   166b8:	00000693          	li	a3,0
   166bc:	00050d93          	mv	s11,a0
   166c0:	00058c13          	mv	s8,a1
   166c4:	0f5060ef          	jal	1cfb8 <__eqdf2>
   166c8:	40050c63          	beqz	a0,16ae0 <__gdtoa+0x1214>
   166cc:	08c12803          	lw	a6,140(sp)
   166d0:	01012603          	lw	a2,16(sp)
   166d4:	01412683          	lw	a3,20(sp)
   166d8:	000d8513          	mv	a0,s11
   166dc:	000c0593          	mv	a1,s8
   166e0:	00180893          	addi	a7,a6,1
   166e4:	f7981ee3          	bne	a6,s9,16660 <__gdtoa+0xd94>
   166e8:	02812703          	lw	a4,40(sp)
   166ec:	01812d83          	lw	s11,24(sp)
   166f0:	00098f13          	mv	t5,s3
   166f4:	7a070a63          	beqz	a4,16ea8 <__gdtoa+0x15dc>
   166f8:	00100793          	li	a5,1
   166fc:	01000c93          	li	s9,16
   16700:	1cf70ee3          	beq	a4,a5,170dc <__gdtoa+0x1810>
   16704:	00048593          	mv	a1,s1
   16708:	00040513          	mv	a0,s0
   1670c:	01e12823          	sw	t5,16(sp)
   16710:	310010ef          	jal	17a20 <_Bfree>
   16714:	00812783          	lw	a5,8(sp)
   16718:	000b0023          	sb	zero,0(s6)
   1671c:	01012f03          	lw	t5,16(sp)
   16720:	0177a023          	sw	s7,0(a5)
   16724:	00c12783          	lw	a5,12(sp)
   16728:	00078463          	beqz	a5,16730 <__gdtoa+0xe64>
   1672c:	0167a023          	sw	s6,0(a5)
   16730:	000d2783          	lw	a5,0(s10)
   16734:	0c812403          	lw	s0,200(sp)
   16738:	0c412483          	lw	s1,196(sp)
   1673c:	0197e7b3          	or	a5,a5,s9
   16740:	0c012903          	lw	s2,192(sp)
   16744:	0bc12983          	lw	s3,188(sp)
   16748:	0b812a03          	lw	s4,184(sp)
   1674c:	0b412a83          	lw	s5,180(sp)
   16750:	0ac12b83          	lw	s7,172(sp)
   16754:	0a812c03          	lw	s8,168(sp)
   16758:	09c12d83          	lw	s11,156(sp)
   1675c:	00fd2023          	sw	a5,0(s10)
   16760:	965ff06f          	j	160c4 <__gdtoa+0x7f8>
   16764:	e6dc1663          	bne	s8,a3,15dd0 <__gdtoa+0x504>
   16768:	004da783          	lw	a5,4(s11)
   1676c:	00178793          	addi	a5,a5,1
   16770:	e757d063          	bge	a5,s5,15dd0 <__gdtoa+0x504>
   16774:	03012783          	lw	a5,48(sp)
   16778:	00178793          	addi	a5,a5,1
   1677c:	02f12823          	sw	a5,48(sp)
   16780:	02012783          	lw	a5,32(sp)
   16784:	00178793          	addi	a5,a5,1
   16788:	02f12023          	sw	a5,32(sp)
   1678c:	00100793          	li	a5,1
   16790:	00f12e23          	sw	a5,28(sp)
   16794:	e3cff06f          	j	15dd0 <__gdtoa+0x504>
   16798:	00100793          	li	a5,1
   1679c:	00000a13          	li	s4,0
   167a0:	04f12023          	sw	a5,64(sp)
   167a4:	01812583          	lw	a1,24(sp)
   167a8:	00b04463          	bgtz	a1,167b0 <__gdtoa+0xee4>
   167ac:	00100593          	li	a1,1
   167b0:	00058693          	mv	a3,a1
   167b4:	04b12a23          	sw	a1,84(sp)
   167b8:	02b12a23          	sw	a1,52(sp)
   167bc:	00b12c23          	sw	a1,24(sp)
   167c0:	c98ff06f          	j	15c58 <__gdtoa+0x38c>
   167c4:	280010ef          	jal	17a44 <__multadd>
   167c8:	00050993          	mv	s3,a0
   167cc:	960500e3          	beqz	a0,1612c <__gdtoa+0x860>
   167d0:	00050a13          	mv	s4,a0
   167d4:	f1cff06f          	j	15ef0 <__gdtoa+0x624>
   167d8:	ea0ad663          	bgez	s5,15e84 <__gdtoa+0x5b8>
   167dc:	02812783          	lw	a5,40(sp)
   167e0:	01812f03          	lw	t5,24(sp)
   167e4:	01c12d03          	lw	s10,28(sp)
   167e8:	00070c93          	mv	s9,a4
   167ec:	3a079ee3          	bnez	a5,173a8 <__gdtoa+0x1adc>
   167f0:	0104a683          	lw	a3,16(s1)
   167f4:	00100793          	li	a5,1
   167f8:	01000c93          	li	s9,16
   167fc:	001c0913          	addi	s2,s8,1
   16800:	34d7d0e3          	bge	a5,a3,17340 <__gdtoa+0x1a74>
   16804:	00098a93          	mv	s5,s3
   16808:	00090b13          	mv	s6,s2
   1680c:	01bc0023          	sb	s11,0(s8)
   16810:	000a0993          	mv	s3,s4
   16814:	000b8593          	mv	a1,s7
   16818:	00040513          	mv	a0,s0
   1681c:	01e12823          	sw	t5,16(sp)
   16820:	200010ef          	jal	17a20 <_Bfree>
   16824:	03c12783          	lw	a5,60(sp)
   16828:	01012f03          	lw	t5,16(sp)
   1682c:	00178b93          	addi	s7,a5,1
   16830:	ec098ae3          	beqz	s3,16704 <__gdtoa+0xe38>
   16834:	000a8c63          	beqz	s5,1684c <__gdtoa+0xf80>
   16838:	013a8a63          	beq	s5,s3,1684c <__gdtoa+0xf80>
   1683c:	000a8593          	mv	a1,s5
   16840:	00040513          	mv	a0,s0
   16844:	1dc010ef          	jal	17a20 <_Bfree>
   16848:	01012f03          	lw	t5,16(sp)
   1684c:	00098593          	mv	a1,s3
   16850:	00040513          	mv	a0,s0
   16854:	01e12823          	sw	t5,16(sp)
   16858:	1c8010ef          	jal	17a20 <_Bfree>
   1685c:	01012f03          	lw	t5,16(sp)
   16860:	ea5ff06f          	j	16704 <__gdtoa+0xe38>
   16864:	00048593          	mv	a1,s1
   16868:	00040513          	mv	a0,s0
   1686c:	03e12223          	sw	t5,36(sp)
   16870:	2b5010ef          	jal	18324 <__lshift>
   16874:	00050493          	mv	s1,a0
   16878:	8a050ae3          	beqz	a0,1612c <__gdtoa+0x860>
   1687c:	08c12783          	lw	a5,140(sp)
   16880:	02412f03          	lw	t5,36(sp)
   16884:	d74ff06f          	j	15df8 <__gdtoa+0x52c>
   16888:	000b8593          	mv	a1,s7
   1688c:	00048513          	mv	a0,s1
   16890:	03e12023          	sw	t5,32(sp)
   16894:	421010ef          	jal	184b4 <__mcmp>
   16898:	02012f03          	lw	t5,32(sp)
   1689c:	d6055863          	bgez	a0,15e0c <__gdtoa+0x540>
   168a0:	03c12783          	lw	a5,60(sp)
   168a4:	00048593          	mv	a1,s1
   168a8:	00000693          	li	a3,0
   168ac:	fff78793          	addi	a5,a5,-1
   168b0:	00a00613          	li	a2,10
   168b4:	00040513          	mv	a0,s0
   168b8:	02f12e23          	sw	a5,60(sp)
   168bc:	188010ef          	jal	17a44 <__multadd>
   168c0:	00050493          	mv	s1,a0
   168c4:	860504e3          	beqz	a0,1612c <__gdtoa+0x860>
   168c8:	04012783          	lw	a5,64(sp)
   168cc:	02012f03          	lw	t5,32(sp)
   168d0:	100792e3          	bnez	a5,171d4 <__gdtoa+0x1908>
   168d4:	05412783          	lw	a5,84(sp)
   168d8:	1ef05863          	blez	a5,16ac8 <__gdtoa+0x11fc>
   168dc:	02f12a23          	sw	a5,52(sp)
   168e0:	03412903          	lw	s2,52(sp)
   168e4:	000f0c13          	mv	s8,t5
   168e8:	00100793          	li	a5,1
   168ec:	000f0a13          	mv	s4,t5
   168f0:	0180006f          	j	16908 <__gdtoa+0x103c>
   168f4:	150010ef          	jal	17a44 <__multadd>
   168f8:	00050493          	mv	s1,a0
   168fc:	820508e3          	beqz	a0,1612c <__gdtoa+0x860>
   16900:	08c12783          	lw	a5,140(sp)
   16904:	00178793          	addi	a5,a5,1
   16908:	000b8593          	mv	a1,s7
   1690c:	00048513          	mv	a0,s1
   16910:	08f12623          	sw	a5,140(sp)
   16914:	4a1000ef          	jal	175b4 <__quorem_D2A>
   16918:	03050d93          	addi	s11,a0,48
   1691c:	01bc0023          	sb	s11,0(s8)
   16920:	08c12783          	lw	a5,140(sp)
   16924:	00000693          	li	a3,0
   16928:	00a00613          	li	a2,10
   1692c:	00048593          	mv	a1,s1
   16930:	00040513          	mv	a0,s0
   16934:	001c0c13          	addi	s8,s8,1
   16938:	fb27cee3          	blt	a5,s2,168f4 <__gdtoa+0x1028>
   1693c:	000a0f13          	mv	t5,s4
   16940:	00000a93          	li	s5,0
   16944:	02812703          	lw	a4,40(sp)
   16948:	48070463          	beqz	a4,16dd0 <__gdtoa+0x1504>
   1694c:	00200793          	li	a5,2
   16950:	0104a683          	lw	a3,16(s1)
   16954:	4af70a63          	beq	a4,a5,16e08 <__gdtoa+0x153c>
   16958:	00100793          	li	a5,1
   1695c:	2ad7c263          	blt	a5,a3,16c00 <__gdtoa+0x1334>
   16960:	0144a783          	lw	a5,20(s1)
   16964:	28079e63          	bnez	a5,16c00 <__gdtoa+0x1334>
   16968:	00f037b3          	snez	a5,a5
   1696c:	00479c93          	slli	s9,a5,0x4
   16970:	03000693          	li	a3,48
   16974:	fffc4783          	lbu	a5,-1(s8)
   16978:	000c0b13          	mv	s6,s8
   1697c:	fffc0c13          	addi	s8,s8,-1
   16980:	fed78ae3          	beq	a5,a3,16974 <__gdtoa+0x10a8>
   16984:	e91ff06f          	j	16814 <__gdtoa+0xf48>
   16988:	03412783          	lw	a5,52(sp)
   1698c:	03812703          	lw	a4,56(sp)
   16990:	fff78693          	addi	a3,a5,-1
   16994:	1ad74863          	blt	a4,a3,16b44 <__gdtoa+0x1278>
   16998:	40d70b33          	sub	s6,a4,a3
   1699c:	7c07d263          	bgez	a5,17160 <__gdtoa+0x1894>
   169a0:	03012783          	lw	a5,48(sp)
   169a4:	03412703          	lw	a4,52(sp)
   169a8:	08012623          	sw	zero,140(sp)
   169ac:	40e78a33          	sub	s4,a5,a4
   169b0:	b68ff06f          	j	15d18 <__gdtoa+0x44c>
   169b4:	01012703          	lw	a4,16(sp)
   169b8:	00200793          	li	a5,2
   169bc:	c4e7dc63          	bge	a5,a4,15e14 <__gdtoa+0x548>
   169c0:	000b8593          	mv	a1,s7
   169c4:	00000693          	li	a3,0
   169c8:	00500613          	li	a2,5
   169cc:	00040513          	mv	a0,s0
   169d0:	01e12823          	sw	t5,16(sp)
   169d4:	070010ef          	jal	17a44 <__multadd>
   169d8:	00050593          	mv	a1,a0
   169dc:	f4050863          	beqz	a0,1612c <__gdtoa+0x860>
   169e0:	03412783          	lw	a5,52(sp)
   169e4:	01012f03          	lw	t5,16(sp)
   169e8:	14079463          	bnez	a5,16b30 <__gdtoa+0x1264>
   169ec:	00a12823          	sw	a0,16(sp)
   169f0:	00048513          	mv	a0,s1
   169f4:	01e12e23          	sw	t5,28(sp)
   169f8:	2bd010ef          	jal	184b4 <__mcmp>
   169fc:	01012583          	lw	a1,16(sp)
   16a00:	01c12f03          	lw	t5,28(sp)
   16a04:	12a05663          	blez	a0,16b30 <__gdtoa+0x1264>
   16a08:	03c12783          	lw	a5,60(sp)
   16a0c:	00278b93          	addi	s7,a5,2
   16a10:	03100793          	li	a5,49
   16a14:	001f0b13          	addi	s6,t5,1
   16a18:	00ff0023          	sb	a5,0(t5)
   16a1c:	02000c93          	li	s9,32
   16a20:	00040513          	mv	a0,s0
   16a24:	01e12823          	sw	t5,16(sp)
   16a28:	7f9000ef          	jal	17a20 <_Bfree>
   16a2c:	01012f03          	lw	t5,16(sp)
   16a30:	cc098ae3          	beqz	s3,16704 <__gdtoa+0xe38>
   16a34:	e19ff06f          	j	1684c <__gdtoa+0xf80>
   16a38:	00100693          	li	a3,1
   16a3c:	00100593          	li	a1,1
   16a40:	a18ff06f          	j	15c58 <__gdtoa+0x38c>
   16a44:	00050593          	mv	a1,a0
   16a48:	00078613          	mv	a2,a5
   16a4c:	00040513          	mv	a0,s0
   16a50:	784010ef          	jal	181d4 <__pow5mult>
   16a54:	00050b93          	mv	s7,a0
   16a58:	ec050a63          	beqz	a0,1612c <__gdtoa+0x860>
   16a5c:	01012783          	lw	a5,16(sp)
   16a60:	00100693          	li	a3,1
   16a64:	02412f03          	lw	t5,36(sp)
   16a68:	20f6da63          	bge	a3,a5,16c7c <__gdtoa+0x13b0>
   16a6c:	010ba783          	lw	a5,16(s7)
   16a70:	03e12223          	sw	t5,36(sp)
   16a74:	00378793          	addi	a5,a5,3
   16a78:	00279793          	slli	a5,a5,0x2
   16a7c:	00fb87b3          	add	a5,s7,a5
   16a80:	0047a503          	lw	a0,4(a5)
   16a84:	280010ef          	jal	17d04 <__hi0bits>
   16a88:	02412f03          	lw	t5,36(sp)
   16a8c:	00050a93          	mv	s5,a0
   16a90:	01912e23          	sw	s9,28(sp)
   16a94:	b40ff06f          	j	15dd4 <__gdtoa+0x508>
   16a98:	01012783          	lw	a5,16(sp)
   16a9c:	00100693          	li	a3,1
   16aa0:	eef6c4e3          	blt	a3,a5,16988 <__gdtoa+0x10bc>
   16aa4:	03012783          	lw	a5,48(sp)
   16aa8:	02012703          	lw	a4,32(sp)
   16aac:	03812b03          	lw	s6,56(sp)
   16ab0:	00078a13          	mv	s4,a5
   16ab4:	00c70733          	add	a4,a4,a2
   16ab8:	00f607b3          	add	a5,a2,a5
   16abc:	02e12023          	sw	a4,32(sp)
   16ac0:	02f12823          	sw	a5,48(sp)
   16ac4:	a54ff06f          	j	15d18 <__gdtoa+0x44c>
   16ac8:	01012703          	lw	a4,16(sp)
   16acc:	00200793          	li	a5,2
   16ad0:	08e7cce3          	blt	a5,a4,17368 <__gdtoa+0x1a9c>
   16ad4:	05412783          	lw	a5,84(sp)
   16ad8:	02f12a23          	sw	a5,52(sp)
   16adc:	e05ff06f          	j	168e0 <__gdtoa+0x1014>
   16ae0:	01c12c83          	lw	s9,28(sp)
   16ae4:	00098f13          	mv	t5,s3
   16ae8:	c1dff06f          	j	16704 <__gdtoa+0xe38>
   16aec:	03412783          	lw	a5,52(sp)
   16af0:	aaf04ee3          	bgtz	a5,165ac <__gdtoa+0xce0>
   16af4:	02079a63          	bnez	a5,16b28 <__gdtoa+0x125c>
   16af8:	ef81a603          	lw	a2,-264(gp) # 227b8 <__SDATA_BEGIN__+0x50>
   16afc:	efc1a683          	lw	a3,-260(gp) # 227bc <__SDATA_BEGIN__+0x54>
   16b00:	000a0513          	mv	a0,s4
   16b04:	000a8593          	mv	a1,s5
   16b08:	01e12823          	sw	t5,16(sp)
   16b0c:	6f0060ef          	jal	1d1fc <__muldf3>
   16b10:	04812883          	lw	a7,72(sp)
   16b14:	00098693          	mv	a3,s3
   16b18:	00088613          	mv	a2,a7
   16b1c:	528060ef          	jal	1d044 <__gedf2>
   16b20:	01012f03          	lw	t5,16(sp)
   16b24:	68054e63          	bltz	a0,171c0 <__gdtoa+0x18f4>
   16b28:	00000593          	li	a1,0
   16b2c:	00000993          	li	s3,0
   16b30:	01812783          	lw	a5,24(sp)
   16b34:	000f0b13          	mv	s6,t5
   16b38:	01000c93          	li	s9,16
   16b3c:	40f00bb3          	neg	s7,a5
   16b40:	ee1ff06f          	j	16a20 <__gdtoa+0x1154>
   16b44:	03812783          	lw	a5,56(sp)
   16b48:	03012703          	lw	a4,48(sp)
   16b4c:	00000b13          	li	s6,0
   16b50:	40f68633          	sub	a2,a3,a5
   16b54:	01c12783          	lw	a5,28(sp)
   16b58:	00070a13          	mv	s4,a4
   16b5c:	02d12c23          	sw	a3,56(sp)
   16b60:	00c787b3          	add	a5,a5,a2
   16b64:	00f12e23          	sw	a5,28(sp)
   16b68:	02012603          	lw	a2,32(sp)
   16b6c:	03412783          	lw	a5,52(sp)
   16b70:	00f60633          	add	a2,a2,a5
   16b74:	08f12623          	sw	a5,140(sp)
   16b78:	00f707b3          	add	a5,a4,a5
   16b7c:	02c12023          	sw	a2,32(sp)
   16b80:	02f12823          	sw	a5,48(sp)
   16b84:	994ff06f          	j	15d18 <__gdtoa+0x44c>
   16b88:	00098593          	mv	a1,s3
   16b8c:	000b0613          	mv	a2,s6
   16b90:	00040513          	mv	a0,s0
   16b94:	03e12223          	sw	t5,36(sp)
   16b98:	63c010ef          	jal	181d4 <__pow5mult>
   16b9c:	00050993          	mv	s3,a0
   16ba0:	d8050663          	beqz	a0,1612c <__gdtoa+0x860>
   16ba4:	00050593          	mv	a1,a0
   16ba8:	00048613          	mv	a2,s1
   16bac:	00040513          	mv	a0,s0
   16bb0:	35c010ef          	jal	17f0c <__multiply>
   16bb4:	00050b93          	mv	s7,a0
   16bb8:	d6050a63          	beqz	a0,1612c <__gdtoa+0x860>
   16bbc:	00048593          	mv	a1,s1
   16bc0:	00040513          	mv	a0,s0
   16bc4:	65d000ef          	jal	17a20 <_Bfree>
   16bc8:	03812783          	lw	a5,56(sp)
   16bcc:	02412f03          	lw	t5,36(sp)
   16bd0:	000b8493          	mv	s1,s7
   16bd4:	416787b3          	sub	a5,a5,s6
   16bd8:	02f12c23          	sw	a5,56(sp)
   16bdc:	9c078263          	beqz	a5,15da0 <__gdtoa+0x4d4>
   16be0:	9a0ff06f          	j	15d80 <__gdtoa+0x4b4>
   16be4:	00098a93          	mv	s5,s3
   16be8:	000c0793          	mv	a5,s8
   16bec:	001c0913          	addi	s2,s8,1
   16bf0:	000a0993          	mv	s3,s4
   16bf4:	03900693          	li	a3,57
   16bf8:	00090c13          	mv	s8,s2
   16bfc:	00d78023          	sb	a3,0(a5)
   16c00:	03900693          	li	a3,57
   16c04:	0080006f          	j	16c0c <__gdtoa+0x1340>
   16c08:	218f0c63          	beq	t5,s8,16e20 <__gdtoa+0x1554>
   16c0c:	fffc4783          	lbu	a5,-1(s8)
   16c10:	000c0b13          	mv	s6,s8
   16c14:	fffc0c13          	addi	s8,s8,-1
   16c18:	fed788e3          	beq	a5,a3,16c08 <__gdtoa+0x133c>
   16c1c:	00178793          	addi	a5,a5,1
   16c20:	00fc0023          	sb	a5,0(s8)
   16c24:	02000c93          	li	s9,32
   16c28:	bedff06f          	j	16814 <__gdtoa+0xf48>
   16c2c:	00098593          	mv	a1,s3
   16c30:	00040513          	mv	a0,s0
   16c34:	01e12c23          	sw	t5,24(sp)
   16c38:	6ec010ef          	jal	18324 <__lshift>
   16c3c:	01812f03          	lw	t5,24(sp)
   16c40:	00050993          	mv	s3,a0
   16c44:	9e051063          	bnez	a0,15e24 <__gdtoa+0x558>
   16c48:	ce4ff06f          	j	1612c <__gdtoa+0x860>
   16c4c:	00100793          	li	a5,1
   16c50:	00000a13          	li	s4,0
   16c54:	04f12023          	sw	a5,64(sp)
   16c58:	fddfe06f          	j	15c34 <__gdtoa+0x368>
   16c5c:	00100793          	li	a5,1
   16c60:	04f12023          	sw	a5,64(sp)
   16c64:	fd1fe06f          	j	15c34 <__gdtoa+0x368>
   16c68:	00100793          	li	a5,1
   16c6c:	04f12023          	sw	a5,64(sp)
   16c70:	b35ff06f          	j	167a4 <__gdtoa+0xed8>
   16c74:	04012023          	sw	zero,64(sp)
   16c78:	b2dff06f          	j	167a4 <__gdtoa+0xed8>
   16c7c:	dedc18e3          	bne	s8,a3,16a6c <__gdtoa+0x11a0>
   16c80:	004da783          	lw	a5,4(s11)
   16c84:	00178793          	addi	a5,a5,1
   16c88:	df57d2e3          	bge	a5,s5,16a6c <__gdtoa+0x11a0>
   16c8c:	03012783          	lw	a5,48(sp)
   16c90:	00100c93          	li	s9,1
   16c94:	00178793          	addi	a5,a5,1
   16c98:	02f12823          	sw	a5,48(sp)
   16c9c:	02012783          	lw	a5,32(sp)
   16ca0:	00178793          	addi	a5,a5,1
   16ca4:	02f12023          	sw	a5,32(sp)
   16ca8:	dc5ff06f          	j	16a6c <__gdtoa+0x11a0>
   16cac:	0049a583          	lw	a1,4(s3)
   16cb0:	00040513          	mv	a0,s0
   16cb4:	01e12c23          	sw	t5,24(sp)
   16cb8:	4b5000ef          	jal	1796c <_Balloc>
   16cbc:	00050a13          	mv	s4,a0
   16cc0:	c6050663          	beqz	a0,1612c <__gdtoa+0x860>
   16cc4:	0109a603          	lw	a2,16(s3)
   16cc8:	00c98593          	addi	a1,s3,12
   16ccc:	00c50513          	addi	a0,a0,12
   16cd0:	00260613          	addi	a2,a2,2
   16cd4:	00261613          	slli	a2,a2,0x2
   16cd8:	c00fe0ef          	jal	150d8 <memcpy>
   16cdc:	000a0593          	mv	a1,s4
   16ce0:	00100613          	li	a2,1
   16ce4:	00040513          	mv	a0,s0
   16ce8:	63c010ef          	jal	18324 <__lshift>
   16cec:	01812f03          	lw	t5,24(sp)
   16cf0:	00050a13          	mv	s4,a0
   16cf4:	00050463          	beqz	a0,16cfc <__gdtoa+0x1430>
   16cf8:	938ff06f          	j	15e30 <__gdtoa+0x564>
   16cfc:	c30ff06f          	j	1612c <__gdtoa+0x860>
   16d00:	000b0613          	mv	a2,s6
   16d04:	00098693          	mv	a3,s3
   16d08:	000b0513          	mv	a0,s6
   16d0c:	00098593          	mv	a1,s3
   16d10:	03e12423          	sw	t5,40(sp)
   16d14:	330050ef          	jal	1c044 <__adddf3>
   16d18:	ef01a603          	lw	a2,-272(gp) # 227b0 <__SDATA_BEGIN__+0x48>
   16d1c:	ef41a683          	lw	a3,-268(gp) # 227b4 <__SDATA_BEGIN__+0x4c>
   16d20:	324050ef          	jal	1c044 <__adddf3>
   16d24:	02812f03          	lw	t5,40(sp)
   16d28:	fcc007b7          	lui	a5,0xfcc00
   16d2c:	00050713          	mv	a4,a0
   16d30:	00b78a33          	add	s4,a5,a1
   16d34:	ef81a603          	lw	a2,-264(gp) # 227b8 <__SDATA_BEGIN__+0x50>
   16d38:	04412503          	lw	a0,68(sp)
   16d3c:	efc1a683          	lw	a3,-260(gp) # 227bc <__SDATA_BEGIN__+0x54>
   16d40:	05812583          	lw	a1,88(sp)
   16d44:	03e12423          	sw	t5,40(sp)
   16d48:	04e12423          	sw	a4,72(sp)
   16d4c:	361060ef          	jal	1d8ac <__subdf3>
   16d50:	04812703          	lw	a4,72(sp)
   16d54:	000a0693          	mv	a3,s4
   16d58:	00050993          	mv	s3,a0
   16d5c:	00070613          	mv	a2,a4
   16d60:	00058b13          	mv	s6,a1
   16d64:	2e0060ef          	jal	1d044 <__gedf2>
   16d68:	02812f03          	lw	t5,40(sp)
   16d6c:	40a04c63          	bgtz	a0,17184 <__gdtoa+0x18b8>
   16d70:	04812703          	lw	a4,72(sp)
   16d74:	800008b7          	lui	a7,0x80000
   16d78:	0148c8b3          	xor	a7,a7,s4
   16d7c:	00070613          	mv	a2,a4
   16d80:	00098513          	mv	a0,s3
   16d84:	00088693          	mv	a3,a7
   16d88:	000b0593          	mv	a1,s6
   16d8c:	394060ef          	jal	1d120 <__ledf2>
   16d90:	02812f03          	lw	t5,40(sp)
   16d94:	d8054ae3          	bltz	a0,16b28 <__gdtoa+0x125c>
   16d98:	04412783          	lw	a5,68(sp)
   16d9c:	02412703          	lw	a4,36(sp)
   16da0:	05812983          	lw	s3,88(sp)
   16da4:	04f12423          	sw	a5,72(sp)
   16da8:	000217b7          	lui	a5,0x21
   16dac:	4e074a63          	bltz	a4,172a0 <__gdtoa+0x19d4>
   16db0:	7207aa03          	lw	s4,1824(a5) # 21720 <__mprec_tens>
   16db4:	7247aa83          	lw	s5,1828(a5)
   16db8:	01812783          	lw	a5,24(sp)
   16dbc:	02012423          	sw	zero,40(sp)
   16dc0:	fe07d663          	bgez	a5,165ac <__gdtoa+0xce0>
   16dc4:	03412783          	lw	a5,52(sp)
   16dc8:	fe079263          	bnez	a5,165ac <__gdtoa+0xce0>
   16dcc:	d2dff06f          	j	16af8 <__gdtoa+0x122c>
   16dd0:	00048593          	mv	a1,s1
   16dd4:	00100613          	li	a2,1
   16dd8:	00040513          	mv	a0,s0
   16ddc:	01e12823          	sw	t5,16(sp)
   16de0:	544010ef          	jal	18324 <__lshift>
   16de4:	00050493          	mv	s1,a0
   16de8:	b4050263          	beqz	a0,1612c <__gdtoa+0x860>
   16dec:	000b8593          	mv	a1,s7
   16df0:	6c4010ef          	jal	184b4 <__mcmp>
   16df4:	01012f03          	lw	t5,16(sp)
   16df8:	e0a044e3          	bgtz	a0,16c00 <__gdtoa+0x1334>
   16dfc:	00051663          	bnez	a0,16e08 <__gdtoa+0x153c>
   16e00:	001dfd93          	andi	s11,s11,1
   16e04:	de0d9ee3          	bnez	s11,16c00 <__gdtoa+0x1334>
   16e08:	0104a683          	lw	a3,16(s1)
   16e0c:	00100793          	li	a5,1
   16e10:	01000c93          	li	s9,16
   16e14:	b4d7cee3          	blt	a5,a3,16970 <__gdtoa+0x10a4>
   16e18:	0144a783          	lw	a5,20(s1)
   16e1c:	b4dff06f          	j	16968 <__gdtoa+0x109c>
   16e20:	03c12783          	lw	a5,60(sp)
   16e24:	02000c93          	li	s9,32
   16e28:	00178793          	addi	a5,a5,1
   16e2c:	02f12e23          	sw	a5,60(sp)
   16e30:	03100793          	li	a5,49
   16e34:	00ff0023          	sb	a5,0(t5)
   16e38:	9ddff06f          	j	16814 <__gdtoa+0xf48>
   16e3c:	02812783          	lw	a5,40(sp)
   16e40:	01812f03          	lw	t5,24(sp)
   16e44:	01c12d03          	lw	s10,28(sp)
   16e48:	00078e63          	beqz	a5,16e64 <__gdtoa+0x1598>
   16e4c:	0104a683          	lw	a3,16(s1)
   16e50:	00100793          	li	a5,1
   16e54:	94d7ca63          	blt	a5,a3,15fa8 <__gdtoa+0x6dc>
   16e58:	0144a783          	lw	a5,20(s1)
   16e5c:	00078463          	beqz	a5,16e64 <__gdtoa+0x1598>
   16e60:	948ff06f          	j	15fa8 <__gdtoa+0x6dc>
   16e64:	00048593          	mv	a1,s1
   16e68:	00100613          	li	a2,1
   16e6c:	00040513          	mv	a0,s0
   16e70:	01e12823          	sw	t5,16(sp)
   16e74:	4b0010ef          	jal	18324 <__lshift>
   16e78:	00050493          	mv	s1,a0
   16e7c:	aa050863          	beqz	a0,1612c <__gdtoa+0x860>
   16e80:	000b8593          	mv	a1,s7
   16e84:	630010ef          	jal	184b4 <__mcmp>
   16e88:	01012f03          	lw	t5,16(sp)
   16e8c:	4ca05263          	blez	a0,17350 <__gdtoa+0x1a84>
   16e90:	03900793          	li	a5,57
   16e94:	d4fd88e3          	beq	s11,a5,16be4 <__gdtoa+0x1318>
   16e98:	02000793          	li	a5,32
   16e9c:	031b0d93          	addi	s11,s6,49
   16ea0:	02f12423          	sw	a5,40(sp)
   16ea4:	94dff06f          	j	167f0 <__gdtoa+0xf24>
   16ea8:	00050613          	mv	a2,a0
   16eac:	00058693          	mv	a3,a1
   16eb0:	01e12823          	sw	t5,16(sp)
   16eb4:	190050ef          	jal	1c044 <__adddf3>
   16eb8:	000a0613          	mv	a2,s4
   16ebc:	000a8693          	mv	a3,s5
   16ec0:	00050c13          	mv	s8,a0
   16ec4:	00058993          	mv	s3,a1
   16ec8:	17c060ef          	jal	1d044 <__gedf2>
   16ecc:	fffb4b83          	lbu	s7,-1(s6)
   16ed0:	01012f03          	lw	t5,16(sp)
   16ed4:	dea04863          	bgtz	a0,164c4 <__gdtoa+0xbf8>
   16ed8:	000c0513          	mv	a0,s8
   16edc:	00098593          	mv	a1,s3
   16ee0:	000a0613          	mv	a2,s4
   16ee4:	000a8693          	mv	a3,s5
   16ee8:	0d0060ef          	jal	1cfb8 <__eqdf2>
   16eec:	01012f03          	lw	t5,16(sp)
   16ef0:	00051663          	bnez	a0,16efc <__gdtoa+0x1630>
   16ef4:	00197913          	andi	s2,s2,1
   16ef8:	dc091663          	bnez	s2,164c4 <__gdtoa+0xbf8>
   16efc:	000b0793          	mv	a5,s6
   16f00:	01000c93          	li	s9,16
   16f04:	03000613          	li	a2,48
   16f08:	fff7c703          	lbu	a4,-1(a5)
   16f0c:	00078b13          	mv	s6,a5
   16f10:	fff78793          	addi	a5,a5,-1
   16f14:	fec70ae3          	beq	a4,a2,16f08 <__gdtoa+0x163c>
   16f18:	000d8b93          	mv	s7,s11
   16f1c:	fe8ff06f          	j	16704 <__gdtoa+0xe38>
   16f20:	03100693          	li	a3,49
   16f24:	001d8d93          	addi	s11,s11,1
   16f28:	dc0ff06f          	j	164e8 <__gdtoa+0xc1c>
   16f2c:	00070513          	mv	a0,a4
   16f30:	000a0593          	mv	a1,s4
   16f34:	06f12e23          	sw	a5,124(sp)
   16f38:	07e12823          	sw	t5,112(sp)
   16f3c:	2c0060ef          	jal	1d1fc <__muldf3>
   16f40:	ee01a783          	lw	a5,-288(gp) # 227a0 <__SDATA_BEGIN__+0x38>
   16f44:	07012f03          	lw	t5,112(sp)
   16f48:	ee41a803          	lw	a6,-284(gp) # 227a4 <__SDATA_BEGIN__+0x3c>
   16f4c:	04812603          	lw	a2,72(sp)
   16f50:	02f12423          	sw	a5,40(sp)
   16f54:	07c12783          	lw	a5,124(sp)
   16f58:	06b12623          	sw	a1,108(sp)
   16f5c:	00000693          	li	a3,0
   16f60:	00100593          	li	a1,1
   16f64:	06912823          	sw	s1,112(sp)
   16f68:	06812a23          	sw	s0,116(sp)
   16f6c:	05c12483          	lw	s1,92(sp)
   16f70:	07212c23          	sw	s2,120(sp)
   16f74:	03012623          	sw	a6,44(sp)
   16f78:	06a12423          	sw	a0,104(sp)
   16f7c:	08b12623          	sw	a1,140(sp)
   16f80:	07312223          	sw	s3,100(sp)
   16f84:	000f0b13          	mv	s6,t5
   16f88:	05e12e23          	sw	t5,92(sp)
   16f8c:	00068413          	mv	s0,a3
   16f90:	00078b93          	mv	s7,a5
   16f94:	00060913          	mv	s2,a2
   16f98:	0180006f          	j	16fb0 <__gdtoa+0x16e4>
   16f9c:	08612623          	sw	t1,140(sp)
   16fa0:	25c060ef          	jal	1d1fc <__muldf3>
   16fa4:	00050913          	mv	s2,a0
   16fa8:	00058993          	mv	s3,a1
   16fac:	00100413          	li	s0,1
   16fb0:	00090513          	mv	a0,s2
   16fb4:	00098593          	mv	a1,s3
   16fb8:	09c070ef          	jal	1e054 <__fixdfsi>
   16fbc:	00050a13          	mv	s4,a0
   16fc0:	02050463          	beqz	a0,16fe8 <__gdtoa+0x171c>
   16fc4:	110070ef          	jal	1e0d4 <__floatsidf>
   16fc8:	00050613          	mv	a2,a0
   16fcc:	00058693          	mv	a3,a1
   16fd0:	00090513          	mv	a0,s2
   16fd4:	00098593          	mv	a1,s3
   16fd8:	0d5060ef          	jal	1d8ac <__subdf3>
   16fdc:	00050913          	mv	s2,a0
   16fe0:	00058993          	mv	s3,a1
   16fe4:	00100413          	li	s0,1
   16fe8:	030a0793          	addi	a5,s4,48
   16fec:	001b0b13          	addi	s6,s6,1
   16ff0:	0ff7f793          	zext.b	a5,a5
   16ff4:	fefb0fa3          	sb	a5,-1(s6)
   16ff8:	08c12883          	lw	a7,140(sp)
   16ffc:	02812603          	lw	a2,40(sp)
   17000:	02c12683          	lw	a3,44(sp)
   17004:	00090513          	mv	a0,s2
   17008:	00098593          	mv	a1,s3
   1700c:	00188313          	addi	t1,a7,1 # 80000001 <__BSS_END__+0x7ffdd4fd>
   17010:	f89896e3          	bne	a7,s1,16f9c <__gdtoa+0x16d0>
   17014:	000b8713          	mv	a4,s7
   17018:	00040693          	mv	a3,s0
   1701c:	00078b93          	mv	s7,a5
   17020:	07012483          	lw	s1,112(sp)
   17024:	05c12f03          	lw	t5,92(sp)
   17028:	07412403          	lw	s0,116(sp)
   1702c:	07812903          	lw	s2,120(sp)
   17030:	00070793          	mv	a5,a4
   17034:	00068663          	beqz	a3,17040 <__gdtoa+0x1774>
   17038:	04a12423          	sw	a0,72(sp)
   1703c:	07312223          	sw	s3,100(sp)
   17040:	f001a603          	lw	a2,-256(gp) # 227c0 <__SDATA_BEGIN__+0x58>
   17044:	f041a683          	lw	a3,-252(gp) # 227c4 <__SDATA_BEGIN__+0x5c>
   17048:	06812503          	lw	a0,104(sp)
   1704c:	06c12583          	lw	a1,108(sp)
   17050:	03e12423          	sw	t5,40(sp)
   17054:	04f12e23          	sw	a5,92(sp)
   17058:	7ed040ef          	jal	1c044 <__adddf3>
   1705c:	06412a03          	lw	s4,100(sp)
   17060:	04812603          	lw	a2,72(sp)
   17064:	000a0693          	mv	a3,s4
   17068:	0b8060ef          	jal	1d120 <__ledf2>
   1706c:	02812f03          	lw	t5,40(sp)
   17070:	1e054663          	bltz	a0,1725c <__gdtoa+0x1990>
   17074:	06812603          	lw	a2,104(sp)
   17078:	06c12683          	lw	a3,108(sp)
   1707c:	f001a503          	lw	a0,-256(gp) # 227c0 <__SDATA_BEGIN__+0x58>
   17080:	f041a583          	lw	a1,-252(gp) # 227c4 <__SDATA_BEGIN__+0x5c>
   17084:	029060ef          	jal	1d8ac <__subdf3>
   17088:	04812603          	lw	a2,72(sp)
   1708c:	000a0693          	mv	a3,s4
   17090:	7b5050ef          	jal	1d044 <__gedf2>
   17094:	02812f03          	lw	t5,40(sp)
   17098:	05c12783          	lw	a5,92(sp)
   1709c:	26a04863          	bgtz	a0,1730c <__gdtoa+0x1a40>
   170a0:	04412703          	lw	a4,68(sp)
   170a4:	05812983          	lw	s3,88(sp)
   170a8:	04e12423          	sw	a4,72(sp)
   170ac:	02412703          	lw	a4,36(sp)
   170b0:	d00750e3          	bgez	a4,16db0 <__gdtoa+0x14e4>
   170b4:	03812b03          	lw	s6,56(sp)
   170b8:	03012a03          	lw	s4,48(sp)
   170bc:	02012423          	sw	zero,40(sp)
   170c0:	00000993          	li	s3,0
   170c4:	c71fe06f          	j	15d34 <__gdtoa+0x468>
   170c8:	00098a93          	mv	s5,s3
   170cc:	01812f03          	lw	t5,24(sp)
   170d0:	01c12d03          	lw	s10,28(sp)
   170d4:	000a0993          	mv	s3,s4
   170d8:	86dff06f          	j	16944 <__gdtoa+0x1078>
   170dc:	fffb4b83          	lbu	s7,-1(s6)
   170e0:	be4ff06f          	j	164c4 <__gdtoa+0xbf8>
   170e4:	03412783          	lw	a5,52(sp)
   170e8:	c0078ce3          	beqz	a5,16d00 <__gdtoa+0x1434>
   170ec:	05412783          	lw	a5,84(sp)
   170f0:	caf054e3          	blez	a5,16d98 <__gdtoa+0x14cc>
   170f4:	ee01a603          	lw	a2,-288(gp) # 227a0 <__SDATA_BEGIN__+0x38>
   170f8:	ee41a683          	lw	a3,-284(gp) # 227a4 <__SDATA_BEGIN__+0x3c>
   170fc:	00098593          	mv	a1,s3
   17100:	000b0513          	mv	a0,s6
   17104:	07e12423          	sw	t5,104(sp)
   17108:	0f4060ef          	jal	1d1fc <__muldf3>
   1710c:	ee81a603          	lw	a2,-280(gp) # 227a8 <__SDATA_BEGIN__+0x40>
   17110:	eec1a683          	lw	a3,-276(gp) # 227ac <__SDATA_BEGIN__+0x44>
   17114:	00058993          	mv	s3,a1
   17118:	04a12423          	sw	a0,72(sp)
   1711c:	06a12223          	sw	a0,100(sp)
   17120:	02b12423          	sw	a1,40(sp)
   17124:	0d8060ef          	jal	1d1fc <__muldf3>
   17128:	ef01a603          	lw	a2,-272(gp) # 227b0 <__SDATA_BEGIN__+0x48>
   1712c:	ef41a683          	lw	a3,-268(gp) # 227b4 <__SDATA_BEGIN__+0x4c>
   17130:	715040ef          	jal	1c044 <__adddf3>
   17134:	fcc007b7          	lui	a5,0xfcc00
   17138:	00b78a33          	add	s4,a5,a1
   1713c:	05412783          	lw	a5,84(sp)
   17140:	06412e83          	lw	t4,100(sp)
   17144:	06812f03          	lw	t5,104(sp)
   17148:	04f12e23          	sw	a5,92(sp)
   1714c:	fff00793          	li	a5,-1
   17150:	00050713          	mv	a4,a0
   17154:	06f12023          	sw	a5,96(sp)
   17158:	00098813          	mv	a6,s3
   1715c:	96cff06f          	j	162c8 <__gdtoa+0x9fc>
   17160:	03012703          	lw	a4,48(sp)
   17164:	02012683          	lw	a3,32(sp)
   17168:	08f12623          	sw	a5,140(sp)
   1716c:	00070a13          	mv	s4,a4
   17170:	00f686b3          	add	a3,a3,a5
   17174:	00f707b3          	add	a5,a4,a5
   17178:	02d12023          	sw	a3,32(sp)
   1717c:	02f12823          	sw	a5,48(sp)
   17180:	b99fe06f          	j	15d18 <__gdtoa+0x44c>
   17184:	00200b93          	li	s7,2
   17188:	00000593          	li	a1,0
   1718c:	00000993          	li	s3,0
   17190:	881ff06f          	j	16a10 <__gdtoa+0x1144>
   17194:	03900793          	li	a5,57
   17198:	01812f03          	lw	t5,24(sp)
   1719c:	01c12d03          	lw	s10,28(sp)
   171a0:	a4fd82e3          	beq	s11,a5,16be4 <__gdtoa+0x1318>
   171a4:	001d8d93          	addi	s11,s11,1
   171a8:	00098a93          	mv	s5,s3
   171ac:	001c0b13          	addi	s6,s8,1
   171b0:	01bc0023          	sb	s11,0(s8)
   171b4:	000a0993          	mv	s3,s4
   171b8:	02000c93          	li	s9,32
   171bc:	e58ff06f          	j	16814 <__gdtoa+0xf48>
   171c0:	03c12783          	lw	a5,60(sp)
   171c4:	00000593          	li	a1,0
   171c8:	00000993          	li	s3,0
   171cc:	00278b93          	addi	s7,a5,2 # fcc00002 <__BSS_END__+0xfcbdd4fe>
   171d0:	841ff06f          	j	16a10 <__gdtoa+0x1144>
   171d4:	00098593          	mv	a1,s3
   171d8:	00000693          	li	a3,0
   171dc:	00a00613          	li	a2,10
   171e0:	00040513          	mv	a0,s0
   171e4:	061000ef          	jal	17a44 <__multadd>
   171e8:	00050993          	mv	s3,a0
   171ec:	00051463          	bnez	a0,171f4 <__gdtoa+0x1928>
   171f0:	f3dfe06f          	j	1612c <__gdtoa+0x860>
   171f4:	05412783          	lw	a5,84(sp)
   171f8:	02012f03          	lw	t5,32(sp)
   171fc:	00f05663          	blez	a5,17208 <__gdtoa+0x193c>
   17200:	02f12a23          	sw	a5,52(sp)
   17204:	c19fe06f          	j	15e1c <__gdtoa+0x550>
   17208:	01012703          	lw	a4,16(sp)
   1720c:	00200793          	li	a5,2
   17210:	14e7cc63          	blt	a5,a4,17368 <__gdtoa+0x1a9c>
   17214:	05412783          	lw	a5,84(sp)
   17218:	02f12a23          	sw	a5,52(sp)
   1721c:	c01fe06f          	j	15e1c <__gdtoa+0x550>
   17220:	06412483          	lw	s1,100(sp)
   17224:	05c12f03          	lw	t5,92(sp)
   17228:	06812403          	lw	s0,104(sp)
   1722c:	000a0513          	mv	a0,s4
   17230:	00098593          	mv	a1,s3
   17234:	00000613          	li	a2,0
   17238:	00000693          	li	a3,0
   1723c:	01e12823          	sw	t5,16(sp)
   17240:	579050ef          	jal	1cfb8 <__eqdf2>
   17244:	00a037b3          	snez	a5,a0
   17248:	00479c93          	slli	s9,a5,0x4
   1724c:	06012783          	lw	a5,96(sp)
   17250:	01012f03          	lw	t5,16(sp)
   17254:	00178b93          	addi	s7,a5,1
   17258:	cacff06f          	j	16704 <__gdtoa+0xe38>
   1725c:	06012783          	lw	a5,96(sp)
   17260:	00178d93          	addi	s11,a5,1
   17264:	a60ff06f          	j	164c4 <__gdtoa+0xbf8>
   17268:	03412783          	lw	a5,52(sp)
   1726c:	03812703          	lw	a4,56(sp)
   17270:	fff78693          	addi	a3,a5,-1
   17274:	8cd748e3          	blt	a4,a3,16b44 <__gdtoa+0x1278>
   17278:	03012583          	lw	a1,48(sp)
   1727c:	02012603          	lw	a2,32(sp)
   17280:	08f12623          	sw	a5,140(sp)
   17284:	00058a13          	mv	s4,a1
   17288:	00f60633          	add	a2,a2,a5
   1728c:	00f587b3          	add	a5,a1,a5
   17290:	02c12023          	sw	a2,32(sp)
   17294:	40d70b33          	sub	s6,a4,a3
   17298:	02f12823          	sw	a5,48(sp)
   1729c:	a7dfe06f          	j	15d18 <__gdtoa+0x44c>
   172a0:	02012423          	sw	zero,40(sp)
   172a4:	9f9fe06f          	j	15c9c <__gdtoa+0x3d0>
   172a8:	04412703          	lw	a4,68(sp)
   172ac:	06412483          	lw	s1,100(sp)
   172b0:	07412b83          	lw	s7,116(sp)
   172b4:	04e12423          	sw	a4,72(sp)
   172b8:	02412703          	lw	a4,36(sp)
   172bc:	07812c03          	lw	s8,120(sp)
   172c0:	05c12f03          	lw	t5,92(sp)
   172c4:	06812403          	lw	s0,104(sp)
   172c8:	07c12783          	lw	a5,124(sp)
   172cc:	05812983          	lw	s3,88(sp)
   172d0:	ae0750e3          	bgez	a4,16db0 <__gdtoa+0x14e4>
   172d4:	02012423          	sw	zero,40(sp)
   172d8:	9cdfe06f          	j	15ca4 <__gdtoa+0x3d8>
   172dc:	03900793          	li	a5,57
   172e0:	01812f03          	lw	t5,24(sp)
   172e4:	01c12d03          	lw	s10,28(sp)
   172e8:	8efd8ee3          	beq	s11,a5,16be4 <__gdtoa+0x1318>
   172ec:	0f505063          	blez	s5,173cc <__gdtoa+0x1b00>
   172f0:	031b0d93          	addi	s11,s6,49
   172f4:	02000c93          	li	s9,32
   172f8:	00098a93          	mv	s5,s3
   172fc:	001c0b13          	addi	s6,s8,1
   17300:	01bc0023          	sb	s11,0(s8)
   17304:	000a0993          	mv	s3,s4
   17308:	d0cff06f          	j	16814 <__gdtoa+0xf48>
   1730c:	04812503          	lw	a0,72(sp)
   17310:	000a0593          	mv	a1,s4
   17314:	00000613          	li	a2,0
   17318:	00000693          	li	a3,0
   1731c:	01e12823          	sw	t5,16(sp)
   17320:	499050ef          	jal	1cfb8 <__eqdf2>
   17324:	06012703          	lw	a4,96(sp)
   17328:	00a037b3          	snez	a5,a0
   1732c:	00479c93          	slli	s9,a5,0x4
   17330:	01012f03          	lw	t5,16(sp)
   17334:	000b0793          	mv	a5,s6
   17338:	00170d93          	addi	s11,a4,1
   1733c:	bc9ff06f          	j	16f04 <__gdtoa+0x1638>
   17340:	0144a783          	lw	a5,20(s1)
   17344:	cc079063          	bnez	a5,16804 <__gdtoa+0xf38>
   17348:	02812c83          	lw	s9,40(sp)
   1734c:	cb8ff06f          	j	16804 <__gdtoa+0xf38>
   17350:	00051663          	bnez	a0,1735c <__gdtoa+0x1a90>
   17354:	001df793          	andi	a5,s11,1
   17358:	b2079ce3          	bnez	a5,16e90 <__gdtoa+0x15c4>
   1735c:	02000793          	li	a5,32
   17360:	02f12423          	sw	a5,40(sp)
   17364:	c8cff06f          	j	167f0 <__gdtoa+0xf24>
   17368:	05412783          	lw	a5,84(sp)
   1736c:	02f12a23          	sw	a5,52(sp)
   17370:	e50ff06f          	j	169c0 <__gdtoa+0x10f4>
   17374:	03900793          	li	a5,57
   17378:	000b0f13          	mv	t5,s6
   1737c:	00fd8e63          	beq	s11,a5,17398 <__gdtoa+0x1acc>
   17380:	001d8d93          	addi	s11,s11,1
   17384:	02000c93          	li	s9,32
   17388:	c7cff06f          	j	16804 <__gdtoa+0xf38>
   1738c:	01000c93          	li	s9,16
   17390:	001c0913          	addi	s2,s8,1
   17394:	c70ff06f          	j	16804 <__gdtoa+0xf38>
   17398:	00098a93          	mv	s5,s3
   1739c:	000c0793          	mv	a5,s8
   173a0:	000a0993          	mv	s3,s4
   173a4:	851ff06f          	j	16bf4 <__gdtoa+0x1328>
   173a8:	0104a683          	lw	a3,16(s1)
   173ac:	00100793          	li	a5,1
   173b0:	00d7d463          	bge	a5,a3,173b8 <__gdtoa+0x1aec>
   173b4:	bf5fe06f          	j	15fa8 <__gdtoa+0x6dc>
   173b8:	0144a783          	lw	a5,20(s1)
   173bc:	00078463          	beqz	a5,173c4 <__gdtoa+0x1af8>
   173c0:	be9fe06f          	j	15fa8 <__gdtoa+0x6dc>
   173c4:	001c0913          	addi	s2,s8,1
   173c8:	c3cff06f          	j	16804 <__gdtoa+0xf38>
   173cc:	0104a683          	lw	a3,16(s1)
   173d0:	00100793          	li	a5,1
   173d4:	01000c93          	li	s9,16
   173d8:	f2d7c0e3          	blt	a5,a3,172f8 <__gdtoa+0x1a2c>
   173dc:	0144a783          	lw	a5,20(s1)
   173e0:	00f037b3          	snez	a5,a5
   173e4:	00479c93          	slli	s9,a5,0x4
   173e8:	f11ff06f          	j	172f8 <__gdtoa+0x1a2c>
   173ec:	020ac263          	bltz	s5,17410 <__gdtoa+0x1b44>
   173f0:	015ceab3          	or	s5,s9,s5
   173f4:	000a9863          	bnez	s5,17404 <__gdtoa+0x1b38>
   173f8:	00092703          	lw	a4,0(s2)
   173fc:	00177713          	andi	a4,a4,1
   17400:	00070863          	beqz	a4,17410 <__gdtoa+0x1b44>
   17404:	00f04463          	bgtz	a5,1740c <__gdtoa+0x1b40>
   17408:	a7dfe06f          	j	15e84 <__gdtoa+0x5b8>
   1740c:	a69fe06f          	j	15e74 <__gdtoa+0x5a8>
   17410:	02812703          	lw	a4,40(sp)
   17414:	01812f03          	lw	t5,24(sp)
   17418:	01c12d03          	lw	s10,28(sp)
   1741c:	02070863          	beqz	a4,1744c <__gdtoa+0x1b80>
   17420:	0104a603          	lw	a2,16(s1)
   17424:	00100693          	li	a3,1
   17428:	00c6d463          	bge	a3,a2,17430 <__gdtoa+0x1b64>
   1742c:	b7dfe06f          	j	15fa8 <__gdtoa+0x6dc>
   17430:	0144a683          	lw	a3,20(s1)
   17434:	00068463          	beqz	a3,1743c <__gdtoa+0x1b70>
   17438:	b71fe06f          	j	15fa8 <__gdtoa+0x6dc>
   1743c:	a2f044e3          	bgtz	a5,16e64 <__gdtoa+0x1598>
   17440:	00000c93          	li	s9,0
   17444:	001c0913          	addi	s2,s8,1
   17448:	bbcff06f          	j	16804 <__gdtoa+0xf38>
   1744c:	baf05263          	blez	a5,167f0 <__gdtoa+0xf24>
   17450:	a15ff06f          	j	16e64 <__gdtoa+0x1598>

00017454 <__rv_alloc_D2A.part.0>:
   17454:	000216b7          	lui	a3,0x21
   17458:	00021537          	lui	a0,0x21
   1745c:	ff010113          	addi	sp,sp,-16
   17460:	39868693          	addi	a3,a3,920 # 21398 <__clzsi2+0xa4>
   17464:	00000613          	li	a2,0
   17468:	03900593          	li	a1,57
   1746c:	3ac50513          	addi	a0,a0,940 # 213ac <__clzsi2+0xb8>
   17470:	00112623          	sw	ra,12(sp)
   17474:	300020ef          	jal	19774 <__assert_func>

00017478 <__rv_alloc_D2A>:
   17478:	ff010113          	addi	sp,sp,-16
   1747c:	00812423          	sw	s0,8(sp)
   17480:	00112623          	sw	ra,12(sp)
   17484:	01700693          	li	a3,23
   17488:	00050413          	mv	s0,a0
   1748c:	00100713          	li	a4,1
   17490:	00400793          	li	a5,4
   17494:	04b6f063          	bgeu	a3,a1,174d4 <__rv_alloc_D2A+0x5c>
   17498:	00179793          	slli	a5,a5,0x1
   1749c:	01478693          	addi	a3,a5,20
   174a0:	00070613          	mv	a2,a4
   174a4:	00170713          	addi	a4,a4,1
   174a8:	fed5f8e3          	bgeu	a1,a3,17498 <__rv_alloc_D2A+0x20>
   174ac:	00060593          	mv	a1,a2
   174b0:	02c42e23          	sw	a2,60(s0)
   174b4:	00040513          	mv	a0,s0
   174b8:	4b4000ef          	jal	1796c <_Balloc>
   174bc:	02050263          	beqz	a0,174e0 <__rv_alloc_D2A+0x68>
   174c0:	00c12083          	lw	ra,12(sp)
   174c4:	02a42c23          	sw	a0,56(s0)
   174c8:	00812403          	lw	s0,8(sp)
   174cc:	01010113          	addi	sp,sp,16
   174d0:	00008067          	ret
   174d4:	02052e23          	sw	zero,60(a0)
   174d8:	00000593          	li	a1,0
   174dc:	fd9ff06f          	j	174b4 <__rv_alloc_D2A+0x3c>
   174e0:	f75ff0ef          	jal	17454 <__rv_alloc_D2A.part.0>

000174e4 <__nrv_alloc_D2A>:
   174e4:	ff010113          	addi	sp,sp,-16
   174e8:	00812423          	sw	s0,8(sp)
   174ec:	00912223          	sw	s1,4(sp)
   174f0:	01212023          	sw	s2,0(sp)
   174f4:	00112623          	sw	ra,12(sp)
   174f8:	01700813          	li	a6,23
   174fc:	00050493          	mv	s1,a0
   17500:	00058413          	mv	s0,a1
   17504:	00060913          	mv	s2,a2
   17508:	00100713          	li	a4,1
   1750c:	00400793          	li	a5,4
   17510:	06d87a63          	bgeu	a6,a3,17584 <__nrv_alloc_D2A+0xa0>
   17514:	00179793          	slli	a5,a5,0x1
   17518:	01478813          	addi	a6,a5,20
   1751c:	00070593          	mv	a1,a4
   17520:	00170713          	addi	a4,a4,1
   17524:	ff06f8e3          	bgeu	a3,a6,17514 <__nrv_alloc_D2A+0x30>
   17528:	02b4ae23          	sw	a1,60(s1)
   1752c:	00048513          	mv	a0,s1
   17530:	43c000ef          	jal	1796c <_Balloc>
   17534:	06050263          	beqz	a0,17598 <__nrv_alloc_D2A+0xb4>
   17538:	02a4ac23          	sw	a0,56(s1)
   1753c:	00044783          	lbu	a5,0(s0)
   17540:	00140593          	addi	a1,s0,1
   17544:	00f50023          	sb	a5,0(a0)
   17548:	04078463          	beqz	a5,17590 <__nrv_alloc_D2A+0xac>
   1754c:	00050793          	mv	a5,a0
   17550:	0005c703          	lbu	a4,0(a1)
   17554:	00178793          	addi	a5,a5,1
   17558:	00158593          	addi	a1,a1,1
   1755c:	00e78023          	sb	a4,0(a5)
   17560:	fe0718e3          	bnez	a4,17550 <__nrv_alloc_D2A+0x6c>
   17564:	00090463          	beqz	s2,1756c <__nrv_alloc_D2A+0x88>
   17568:	00f92023          	sw	a5,0(s2)
   1756c:	00c12083          	lw	ra,12(sp)
   17570:	00812403          	lw	s0,8(sp)
   17574:	00412483          	lw	s1,4(sp)
   17578:	00012903          	lw	s2,0(sp)
   1757c:	01010113          	addi	sp,sp,16
   17580:	00008067          	ret
   17584:	02052e23          	sw	zero,60(a0)
   17588:	00000593          	li	a1,0
   1758c:	fa1ff06f          	j	1752c <__nrv_alloc_D2A+0x48>
   17590:	00050793          	mv	a5,a0
   17594:	fd1ff06f          	j	17564 <__nrv_alloc_D2A+0x80>
   17598:	ebdff0ef          	jal	17454 <__rv_alloc_D2A.part.0>

0001759c <__freedtoa>:
   1759c:	03c52683          	lw	a3,60(a0)
   175a0:	00100713          	li	a4,1
   175a4:	00d71733          	sll	a4,a4,a3
   175a8:	00d5a223          	sw	a3,4(a1)
   175ac:	00e5a423          	sw	a4,8(a1)
   175b0:	4700006f          	j	17a20 <_Bfree>

000175b4 <__quorem_D2A>:
   175b4:	fb010113          	addi	sp,sp,-80
   175b8:	04912223          	sw	s1,68(sp)
   175bc:	01052783          	lw	a5,16(a0)
   175c0:	0105a483          	lw	s1,16(a1)
   175c4:	04112623          	sw	ra,76(sp)
   175c8:	00b12423          	sw	a1,8(sp)
   175cc:	2297c263          	blt	a5,s1,177f0 <__quorem_D2A+0x23c>
   175d0:	fff48493          	addi	s1,s1,-1
   175d4:	03512a23          	sw	s5,52(sp)
   175d8:	03712623          	sw	s7,44(sp)
   175dc:	00249a93          	slli	s5,s1,0x2
   175e0:	01458b93          	addi	s7,a1,20
   175e4:	05212023          	sw	s2,64(sp)
   175e8:	03312e23          	sw	s3,60(sp)
   175ec:	015b8933          	add	s2,s7,s5
   175f0:	01450993          	addi	s3,a0,20
   175f4:	015987b3          	add	a5,s3,s5
   175f8:	03812423          	sw	s8,40(sp)
   175fc:	00092c03          	lw	s8,0(s2)
   17600:	03912223          	sw	s9,36(sp)
   17604:	0007ac83          	lw	s9,0(a5)
   17608:	001c0c13          	addi	s8,s8,1
   1760c:	03412c23          	sw	s4,56(sp)
   17610:	000c0593          	mv	a1,s8
   17614:	00050a13          	mv	s4,a0
   17618:	000c8513          	mv	a0,s9
   1761c:	04812423          	sw	s0,72(sp)
   17620:	00f12623          	sw	a5,12(sp)
   17624:	425090ef          	jal	21248 <__hidden___udivsi3>
   17628:	00050413          	mv	s0,a0
   1762c:	0f8ce263          	bltu	s9,s8,17710 <__quorem_D2A+0x15c>
   17630:	00010cb7          	lui	s9,0x10
   17634:	03a12023          	sw	s10,32(sp)
   17638:	01b12e23          	sw	s11,28(sp)
   1763c:	03612823          	sw	s6,48(sp)
   17640:	000b8d93          	mv	s11,s7
   17644:	00098d13          	mv	s10,s3
   17648:	00000c13          	li	s8,0
   1764c:	00000a93          	li	s5,0
   17650:	fffc8c93          	addi	s9,s9,-1 # ffff <exit-0x95>
   17654:	000dab03          	lw	s6,0(s11)
   17658:	00040593          	mv	a1,s0
   1765c:	004d0d13          	addi	s10,s10,4
   17660:	019b7533          	and	a0,s6,s9
   17664:	3b9090ef          	jal	2121c <__mulsi3>
   17668:	00050793          	mv	a5,a0
   1766c:	00040593          	mv	a1,s0
   17670:	010b5513          	srli	a0,s6,0x10
   17674:	01878c33          	add	s8,a5,s8
   17678:	3a5090ef          	jal	2121c <__mulsi3>
   1767c:	ffcd2783          	lw	a5,-4(s10)
   17680:	019c7633          	and	a2,s8,s9
   17684:	010c5c13          	srli	s8,s8,0x10
   17688:	0197f733          	and	a4,a5,s9
   1768c:	40c70733          	sub	a4,a4,a2
   17690:	41570733          	sub	a4,a4,s5
   17694:	01850533          	add	a0,a0,s8
   17698:	01075693          	srli	a3,a4,0x10
   1769c:	0016f693          	andi	a3,a3,1
   176a0:	01957633          	and	a2,a0,s9
   176a4:	00c686b3          	add	a3,a3,a2
   176a8:	0107d793          	srli	a5,a5,0x10
   176ac:	40d787b3          	sub	a5,a5,a3
   176b0:	01079693          	slli	a3,a5,0x10
   176b4:	01977733          	and	a4,a4,s9
   176b8:	00e6e733          	or	a4,a3,a4
   176bc:	0107d793          	srli	a5,a5,0x10
   176c0:	004d8d93          	addi	s11,s11,4
   176c4:	feed2e23          	sw	a4,-4(s10)
   176c8:	01055c13          	srli	s8,a0,0x10
   176cc:	0017fa93          	andi	s5,a5,1
   176d0:	f9b972e3          	bgeu	s2,s11,17654 <__quorem_D2A+0xa0>
   176d4:	00c12703          	lw	a4,12(sp)
   176d8:	00072783          	lw	a5,0(a4)
   176dc:	12079463          	bnez	a5,17804 <__quorem_D2A+0x250>
   176e0:	ffc70a93          	addi	s5,a4,-4
   176e4:	0159e863          	bltu	s3,s5,176f4 <__quorem_D2A+0x140>
   176e8:	0180006f          	j	17700 <__quorem_D2A+0x14c>
   176ec:	fff48493          	addi	s1,s1,-1
   176f0:	0159f863          	bgeu	s3,s5,17700 <__quorem_D2A+0x14c>
   176f4:	000aa783          	lw	a5,0(s5)
   176f8:	ffca8a93          	addi	s5,s5,-4
   176fc:	fe0788e3          	beqz	a5,176ec <__quorem_D2A+0x138>
   17700:	03012b03          	lw	s6,48(sp)
   17704:	02012d03          	lw	s10,32(sp)
   17708:	01c12d83          	lw	s11,28(sp)
   1770c:	009a2823          	sw	s1,16(s4)
   17710:	00812583          	lw	a1,8(sp)
   17714:	000a0513          	mv	a0,s4
   17718:	59d000ef          	jal	184b4 <__mcmp>
   1771c:	0a054063          	bltz	a0,177bc <__quorem_D2A+0x208>
   17720:	00010537          	lui	a0,0x10
   17724:	00098593          	mv	a1,s3
   17728:	00000693          	li	a3,0
   1772c:	fff50513          	addi	a0,a0,-1 # ffff <exit-0x95>
   17730:	0005a783          	lw	a5,0(a1)
   17734:	000ba603          	lw	a2,0(s7)
   17738:	00458593          	addi	a1,a1,4
   1773c:	00a7f733          	and	a4,a5,a0
   17740:	00a67833          	and	a6,a2,a0
   17744:	41070733          	sub	a4,a4,a6
   17748:	40d70733          	sub	a4,a4,a3
   1774c:	01075693          	srli	a3,a4,0x10
   17750:	0016f693          	andi	a3,a3,1
   17754:	01065613          	srli	a2,a2,0x10
   17758:	00c686b3          	add	a3,a3,a2
   1775c:	0107d793          	srli	a5,a5,0x10
   17760:	40d787b3          	sub	a5,a5,a3
   17764:	01079693          	slli	a3,a5,0x10
   17768:	00a77733          	and	a4,a4,a0
   1776c:	00e6e733          	or	a4,a3,a4
   17770:	0107d793          	srli	a5,a5,0x10
   17774:	004b8b93          	addi	s7,s7,4
   17778:	fee5ae23          	sw	a4,-4(a1)
   1777c:	0017f693          	andi	a3,a5,1
   17780:	fb7978e3          	bgeu	s2,s7,17730 <__quorem_D2A+0x17c>
   17784:	00249793          	slli	a5,s1,0x2
   17788:	00f987b3          	add	a5,s3,a5
   1778c:	0007a703          	lw	a4,0(a5)
   17790:	02071463          	bnez	a4,177b8 <__quorem_D2A+0x204>
   17794:	ffc78793          	addi	a5,a5,-4
   17798:	00f9e863          	bltu	s3,a5,177a8 <__quorem_D2A+0x1f4>
   1779c:	0180006f          	j	177b4 <__quorem_D2A+0x200>
   177a0:	fff48493          	addi	s1,s1,-1
   177a4:	00f9f863          	bgeu	s3,a5,177b4 <__quorem_D2A+0x200>
   177a8:	0007a703          	lw	a4,0(a5)
   177ac:	ffc78793          	addi	a5,a5,-4
   177b0:	fe0708e3          	beqz	a4,177a0 <__quorem_D2A+0x1ec>
   177b4:	009a2823          	sw	s1,16(s4)
   177b8:	00140413          	addi	s0,s0,1
   177bc:	04c12083          	lw	ra,76(sp)
   177c0:	00040513          	mv	a0,s0
   177c4:	04812403          	lw	s0,72(sp)
   177c8:	04012903          	lw	s2,64(sp)
   177cc:	03c12983          	lw	s3,60(sp)
   177d0:	03812a03          	lw	s4,56(sp)
   177d4:	03412a83          	lw	s5,52(sp)
   177d8:	02c12b83          	lw	s7,44(sp)
   177dc:	02812c03          	lw	s8,40(sp)
   177e0:	02412c83          	lw	s9,36(sp)
   177e4:	04412483          	lw	s1,68(sp)
   177e8:	05010113          	addi	sp,sp,80
   177ec:	00008067          	ret
   177f0:	04c12083          	lw	ra,76(sp)
   177f4:	04412483          	lw	s1,68(sp)
   177f8:	00000513          	li	a0,0
   177fc:	05010113          	addi	sp,sp,80
   17800:	00008067          	ret
   17804:	00812583          	lw	a1,8(sp)
   17808:	000a0513          	mv	a0,s4
   1780c:	03012b03          	lw	s6,48(sp)
   17810:	02012d03          	lw	s10,32(sp)
   17814:	01c12d83          	lw	s11,28(sp)
   17818:	49d000ef          	jal	184b4 <__mcmp>
   1781c:	f00552e3          	bgez	a0,17720 <__quorem_D2A+0x16c>
   17820:	f9dff06f          	j	177bc <__quorem_D2A+0x208>

00017824 <__rshift_D2A>:
   17824:	01052803          	lw	a6,16(a0)
   17828:	4055de13          	srai	t3,a1,0x5
   1782c:	010e4863          	blt	t3,a6,1783c <__rshift_D2A+0x18>
   17830:	00052823          	sw	zero,16(a0)
   17834:	00052a23          	sw	zero,20(a0)
   17838:	00008067          	ret
   1783c:	01450313          	addi	t1,a0,20
   17840:	00281613          	slli	a2,a6,0x2
   17844:	002e1793          	slli	a5,t3,0x2
   17848:	01f5f593          	andi	a1,a1,31
   1784c:	00c30633          	add	a2,t1,a2
   17850:	00f307b3          	add	a5,t1,a5
   17854:	06058263          	beqz	a1,178b8 <__rshift_D2A+0x94>
   17858:	0007a683          	lw	a3,0(a5)
   1785c:	02000e93          	li	t4,32
   17860:	00478793          	addi	a5,a5,4
   17864:	40be8eb3          	sub	t4,t4,a1
   17868:	00b6d6b3          	srl	a3,a3,a1
   1786c:	08c7f463          	bgeu	a5,a2,178f4 <__rshift_D2A+0xd0>
   17870:	00030893          	mv	a7,t1
   17874:	0007a703          	lw	a4,0(a5)
   17878:	00488893          	addi	a7,a7,4
   1787c:	00478793          	addi	a5,a5,4
   17880:	01d71733          	sll	a4,a4,t4
   17884:	00d76733          	or	a4,a4,a3
   17888:	fee8ae23          	sw	a4,-4(a7)
   1788c:	ffc7a683          	lw	a3,-4(a5)
   17890:	00b6d6b3          	srl	a3,a3,a1
   17894:	fec7e0e3          	bltu	a5,a2,17874 <__rshift_D2A+0x50>
   17898:	41c80833          	sub	a6,a6,t3
   1789c:	00281813          	slli	a6,a6,0x2
   178a0:	ffc80813          	addi	a6,a6,-4
   178a4:	01030833          	add	a6,t1,a6
   178a8:	00d82023          	sw	a3,0(a6)
   178ac:	02068a63          	beqz	a3,178e0 <__rshift_D2A+0xbc>
   178b0:	00480813          	addi	a6,a6,4
   178b4:	02c0006f          	j	178e0 <__rshift_D2A+0xbc>
   178b8:	00030713          	mv	a4,t1
   178bc:	f6c7fae3          	bgeu	a5,a2,17830 <__rshift_D2A+0xc>
   178c0:	0007a683          	lw	a3,0(a5)
   178c4:	00478793          	addi	a5,a5,4
   178c8:	00470713          	addi	a4,a4,4
   178cc:	fed72e23          	sw	a3,-4(a4)
   178d0:	fec7e8e3          	bltu	a5,a2,178c0 <__rshift_D2A+0x9c>
   178d4:	41c80833          	sub	a6,a6,t3
   178d8:	00281813          	slli	a6,a6,0x2
   178dc:	01030833          	add	a6,t1,a6
   178e0:	406807b3          	sub	a5,a6,t1
   178e4:	4027d793          	srai	a5,a5,0x2
   178e8:	00f52823          	sw	a5,16(a0)
   178ec:	f46804e3          	beq	a6,t1,17834 <__rshift_D2A+0x10>
   178f0:	00008067          	ret
   178f4:	00d52a23          	sw	a3,20(a0)
   178f8:	f2068ce3          	beqz	a3,17830 <__rshift_D2A+0xc>
   178fc:	00030813          	mv	a6,t1
   17900:	00480813          	addi	a6,a6,4
   17904:	fddff06f          	j	178e0 <__rshift_D2A+0xbc>

00017908 <__trailz_D2A>:
   17908:	01052703          	lw	a4,16(a0)
   1790c:	fe010113          	addi	sp,sp,-32
   17910:	01450513          	addi	a0,a0,20
   17914:	00271713          	slli	a4,a4,0x2
   17918:	00812c23          	sw	s0,24(sp)
   1791c:	00112e23          	sw	ra,28(sp)
   17920:	00e50733          	add	a4,a0,a4
   17924:	00000413          	li	s0,0
   17928:	00e56a63          	bltu	a0,a4,1793c <__trailz_D2A+0x34>
   1792c:	02c0006f          	j	17958 <__trailz_D2A+0x50>
   17930:	00450513          	addi	a0,a0,4
   17934:	02040413          	addi	s0,s0,32
   17938:	02e57063          	bgeu	a0,a4,17958 <__trailz_D2A+0x50>
   1793c:	00052783          	lw	a5,0(a0)
   17940:	fe0788e3          	beqz	a5,17930 <__trailz_D2A+0x28>
   17944:	00e57a63          	bgeu	a0,a4,17958 <__trailz_D2A+0x50>
   17948:	00c10513          	addi	a0,sp,12
   1794c:	00f12623          	sw	a5,12(sp)
   17950:	42c000ef          	jal	17d7c <__lo0bits>
   17954:	00a40433          	add	s0,s0,a0
   17958:	01c12083          	lw	ra,28(sp)
   1795c:	00040513          	mv	a0,s0
   17960:	01812403          	lw	s0,24(sp)
   17964:	02010113          	addi	sp,sp,32
   17968:	00008067          	ret

0001796c <_Balloc>:
   1796c:	04452783          	lw	a5,68(a0)
   17970:	ff010113          	addi	sp,sp,-16
   17974:	00812423          	sw	s0,8(sp)
   17978:	00912223          	sw	s1,4(sp)
   1797c:	00112623          	sw	ra,12(sp)
   17980:	00050413          	mv	s0,a0
   17984:	00058493          	mv	s1,a1
   17988:	02078c63          	beqz	a5,179c0 <_Balloc+0x54>
   1798c:	00249713          	slli	a4,s1,0x2
   17990:	00e787b3          	add	a5,a5,a4
   17994:	0007a503          	lw	a0,0(a5)
   17998:	04050463          	beqz	a0,179e0 <_Balloc+0x74>
   1799c:	00052703          	lw	a4,0(a0)
   179a0:	00e7a023          	sw	a4,0(a5)
   179a4:	00052823          	sw	zero,16(a0)
   179a8:	00052623          	sw	zero,12(a0)
   179ac:	00c12083          	lw	ra,12(sp)
   179b0:	00812403          	lw	s0,8(sp)
   179b4:	00412483          	lw	s1,4(sp)
   179b8:	01010113          	addi	sp,sp,16
   179bc:	00008067          	ret
   179c0:	02100613          	li	a2,33
   179c4:	00400593          	li	a1,4
   179c8:	615010ef          	jal	197dc <_calloc_r>
   179cc:	04a42223          	sw	a0,68(s0)
   179d0:	00050793          	mv	a5,a0
   179d4:	fa051ce3          	bnez	a0,1798c <_Balloc+0x20>
   179d8:	00000513          	li	a0,0
   179dc:	fd1ff06f          	j	179ac <_Balloc+0x40>
   179e0:	01212023          	sw	s2,0(sp)
   179e4:	00100913          	li	s2,1
   179e8:	00991933          	sll	s2,s2,s1
   179ec:	00590613          	addi	a2,s2,5
   179f0:	00261613          	slli	a2,a2,0x2
   179f4:	00100593          	li	a1,1
   179f8:	00040513          	mv	a0,s0
   179fc:	5e1010ef          	jal	197dc <_calloc_r>
   17a00:	00050a63          	beqz	a0,17a14 <_Balloc+0xa8>
   17a04:	01252423          	sw	s2,8(a0)
   17a08:	00952223          	sw	s1,4(a0)
   17a0c:	00012903          	lw	s2,0(sp)
   17a10:	f95ff06f          	j	179a4 <_Balloc+0x38>
   17a14:	00012903          	lw	s2,0(sp)
   17a18:	00000513          	li	a0,0
   17a1c:	f91ff06f          	j	179ac <_Balloc+0x40>

00017a20 <_Bfree>:
   17a20:	02058063          	beqz	a1,17a40 <_Bfree+0x20>
   17a24:	0045a703          	lw	a4,4(a1)
   17a28:	04452783          	lw	a5,68(a0)
   17a2c:	00271713          	slli	a4,a4,0x2
   17a30:	00e787b3          	add	a5,a5,a4
   17a34:	0007a703          	lw	a4,0(a5)
   17a38:	00e5a023          	sw	a4,0(a1)
   17a3c:	00b7a023          	sw	a1,0(a5)
   17a40:	00008067          	ret

00017a44 <__multadd>:
   17a44:	fd010113          	addi	sp,sp,-48
   17a48:	01412c23          	sw	s4,24(sp)
   17a4c:	0105aa03          	lw	s4,16(a1)
   17a50:	01912223          	sw	s9,4(sp)
   17a54:	00010cb7          	lui	s9,0x10
   17a58:	02912223          	sw	s1,36(sp)
   17a5c:	03212023          	sw	s2,32(sp)
   17a60:	01312e23          	sw	s3,28(sp)
   17a64:	01512a23          	sw	s5,20(sp)
   17a68:	01612823          	sw	s6,16(sp)
   17a6c:	01712623          	sw	s7,12(sp)
   17a70:	02112623          	sw	ra,44(sp)
   17a74:	02812423          	sw	s0,40(sp)
   17a78:	01812423          	sw	s8,8(sp)
   17a7c:	00058a93          	mv	s5,a1
   17a80:	00050b13          	mv	s6,a0
   17a84:	00060993          	mv	s3,a2
   17a88:	00068493          	mv	s1,a3
   17a8c:	01458913          	addi	s2,a1,20
   17a90:	00000b93          	li	s7,0
   17a94:	fffc8c93          	addi	s9,s9,-1 # ffff <exit-0x95>
   17a98:	00092c03          	lw	s8,0(s2)
   17a9c:	00098593          	mv	a1,s3
   17aa0:	00490913          	addi	s2,s2,4
   17aa4:	019c7533          	and	a0,s8,s9
   17aa8:	774090ef          	jal	2121c <__mulsi3>
   17aac:	00050413          	mv	s0,a0
   17ab0:	00098593          	mv	a1,s3
   17ab4:	010c5513          	srli	a0,s8,0x10
   17ab8:	00940433          	add	s0,s0,s1
   17abc:	760090ef          	jal	2121c <__mulsi3>
   17ac0:	01045793          	srli	a5,s0,0x10
   17ac4:	00f50533          	add	a0,a0,a5
   17ac8:	01051793          	slli	a5,a0,0x10
   17acc:	01947433          	and	s0,s0,s9
   17ad0:	008787b3          	add	a5,a5,s0
   17ad4:	fef92e23          	sw	a5,-4(s2)
   17ad8:	001b8b93          	addi	s7,s7,1
   17adc:	01055493          	srli	s1,a0,0x10
   17ae0:	fb4bcce3          	blt	s7,s4,17a98 <__multadd+0x54>
   17ae4:	02048263          	beqz	s1,17b08 <__multadd+0xc4>
   17ae8:	008aa783          	lw	a5,8(s5)
   17aec:	04fa5a63          	bge	s4,a5,17b40 <__multadd+0xfc>
   17af0:	004a0793          	addi	a5,s4,4
   17af4:	00279793          	slli	a5,a5,0x2
   17af8:	00fa87b3          	add	a5,s5,a5
   17afc:	0097a223          	sw	s1,4(a5)
   17b00:	001a0a13          	addi	s4,s4,1
   17b04:	014aa823          	sw	s4,16(s5)
   17b08:	02c12083          	lw	ra,44(sp)
   17b0c:	02812403          	lw	s0,40(sp)
   17b10:	02412483          	lw	s1,36(sp)
   17b14:	02012903          	lw	s2,32(sp)
   17b18:	01c12983          	lw	s3,28(sp)
   17b1c:	01812a03          	lw	s4,24(sp)
   17b20:	01012b03          	lw	s6,16(sp)
   17b24:	00c12b83          	lw	s7,12(sp)
   17b28:	00812c03          	lw	s8,8(sp)
   17b2c:	00412c83          	lw	s9,4(sp)
   17b30:	000a8513          	mv	a0,s5
   17b34:	01412a83          	lw	s5,20(sp)
   17b38:	03010113          	addi	sp,sp,48
   17b3c:	00008067          	ret
   17b40:	004aa583          	lw	a1,4(s5)
   17b44:	000b0513          	mv	a0,s6
   17b48:	00158593          	addi	a1,a1,1
   17b4c:	e21ff0ef          	jal	1796c <_Balloc>
   17b50:	00050413          	mv	s0,a0
   17b54:	04050c63          	beqz	a0,17bac <__multadd+0x168>
   17b58:	010aa603          	lw	a2,16(s5)
   17b5c:	00ca8593          	addi	a1,s5,12
   17b60:	00c50513          	addi	a0,a0,12
   17b64:	00260613          	addi	a2,a2,2
   17b68:	00261613          	slli	a2,a2,0x2
   17b6c:	d6cfd0ef          	jal	150d8 <memcpy>
   17b70:	004aa703          	lw	a4,4(s5)
   17b74:	044b2783          	lw	a5,68(s6)
   17b78:	00271713          	slli	a4,a4,0x2
   17b7c:	00e787b3          	add	a5,a5,a4
   17b80:	0007a703          	lw	a4,0(a5)
   17b84:	00eaa023          	sw	a4,0(s5)
   17b88:	0157a023          	sw	s5,0(a5)
   17b8c:	004a0793          	addi	a5,s4,4
   17b90:	00040a93          	mv	s5,s0
   17b94:	00279793          	slli	a5,a5,0x2
   17b98:	00fa87b3          	add	a5,s5,a5
   17b9c:	0097a223          	sw	s1,4(a5)
   17ba0:	001a0a13          	addi	s4,s4,1
   17ba4:	014aa823          	sw	s4,16(s5)
   17ba8:	f61ff06f          	j	17b08 <__multadd+0xc4>
   17bac:	000216b7          	lui	a3,0x21
   17bb0:	00021537          	lui	a0,0x21
   17bb4:	39868693          	addi	a3,a3,920 # 21398 <__clzsi2+0xa4>
   17bb8:	00000613          	li	a2,0
   17bbc:	0ba00593          	li	a1,186
   17bc0:	3f850513          	addi	a0,a0,1016 # 213f8 <__clzsi2+0x104>
   17bc4:	3b1010ef          	jal	19774 <__assert_func>

00017bc8 <__s2b>:
   17bc8:	fe010113          	addi	sp,sp,-32
   17bcc:	00812c23          	sw	s0,24(sp)
   17bd0:	01212823          	sw	s2,16(sp)
   17bd4:	00058413          	mv	s0,a1
   17bd8:	00050913          	mv	s2,a0
   17bdc:	00900593          	li	a1,9
   17be0:	00868513          	addi	a0,a3,8
   17be4:	00912a23          	sw	s1,20(sp)
   17be8:	01312623          	sw	s3,12(sp)
   17bec:	01412423          	sw	s4,8(sp)
   17bf0:	00112e23          	sw	ra,28(sp)
   17bf4:	00068493          	mv	s1,a3
   17bf8:	00060993          	mv	s3,a2
   17bfc:	00070a13          	mv	s4,a4
   17c00:	640090ef          	jal	21240 <__divsi3>
   17c04:	00900793          	li	a5,9
   17c08:	0c97da63          	bge	a5,s1,17cdc <__s2b+0x114>
   17c0c:	00100793          	li	a5,1
   17c10:	00000593          	li	a1,0
   17c14:	00179793          	slli	a5,a5,0x1
   17c18:	00158593          	addi	a1,a1,1
   17c1c:	fea7cce3          	blt	a5,a0,17c14 <__s2b+0x4c>
   17c20:	00090513          	mv	a0,s2
   17c24:	d49ff0ef          	jal	1796c <_Balloc>
   17c28:	00050593          	mv	a1,a0
   17c2c:	0a050c63          	beqz	a0,17ce4 <__s2b+0x11c>
   17c30:	00100793          	li	a5,1
   17c34:	00f52823          	sw	a5,16(a0)
   17c38:	01452a23          	sw	s4,20(a0)
   17c3c:	00900793          	li	a5,9
   17c40:	0937d863          	bge	a5,s3,17cd0 <__s2b+0x108>
   17c44:	01512223          	sw	s5,4(sp)
   17c48:	00940a93          	addi	s5,s0,9
   17c4c:	01340a33          	add	s4,s0,s3
   17c50:	000a8413          	mv	s0,s5
   17c54:	00044683          	lbu	a3,0(s0)
   17c58:	00a00613          	li	a2,10
   17c5c:	00090513          	mv	a0,s2
   17c60:	fd068693          	addi	a3,a3,-48
   17c64:	de1ff0ef          	jal	17a44 <__multadd>
   17c68:	00140413          	addi	s0,s0,1
   17c6c:	00050593          	mv	a1,a0
   17c70:	ff4412e3          	bne	s0,s4,17c54 <__s2b+0x8c>
   17c74:	ff898413          	addi	s0,s3,-8
   17c78:	008a8433          	add	s0,s5,s0
   17c7c:	00412a83          	lw	s5,4(sp)
   17c80:	0299d663          	bge	s3,s1,17cac <__s2b+0xe4>
   17c84:	413484b3          	sub	s1,s1,s3
   17c88:	009404b3          	add	s1,s0,s1
   17c8c:	00044683          	lbu	a3,0(s0)
   17c90:	00a00613          	li	a2,10
   17c94:	00090513          	mv	a0,s2
   17c98:	fd068693          	addi	a3,a3,-48
   17c9c:	da9ff0ef          	jal	17a44 <__multadd>
   17ca0:	00140413          	addi	s0,s0,1
   17ca4:	00050593          	mv	a1,a0
   17ca8:	fe9412e3          	bne	s0,s1,17c8c <__s2b+0xc4>
   17cac:	01c12083          	lw	ra,28(sp)
   17cb0:	01812403          	lw	s0,24(sp)
   17cb4:	01412483          	lw	s1,20(sp)
   17cb8:	01012903          	lw	s2,16(sp)
   17cbc:	00c12983          	lw	s3,12(sp)
   17cc0:	00812a03          	lw	s4,8(sp)
   17cc4:	00058513          	mv	a0,a1
   17cc8:	02010113          	addi	sp,sp,32
   17ccc:	00008067          	ret
   17cd0:	00a40413          	addi	s0,s0,10
   17cd4:	00900993          	li	s3,9
   17cd8:	fa9ff06f          	j	17c80 <__s2b+0xb8>
   17cdc:	00000593          	li	a1,0
   17ce0:	f41ff06f          	j	17c20 <__s2b+0x58>
   17ce4:	000216b7          	lui	a3,0x21
   17ce8:	00021537          	lui	a0,0x21
   17cec:	39868693          	addi	a3,a3,920 # 21398 <__clzsi2+0xa4>
   17cf0:	00000613          	li	a2,0
   17cf4:	0d300593          	li	a1,211
   17cf8:	3f850513          	addi	a0,a0,1016 # 213f8 <__clzsi2+0x104>
   17cfc:	01512223          	sw	s5,4(sp)
   17d00:	275010ef          	jal	19774 <__assert_func>

00017d04 <__hi0bits>:
   17d04:	00050793          	mv	a5,a0
   17d08:	00010737          	lui	a4,0x10
   17d0c:	00000513          	li	a0,0
   17d10:	00e7f663          	bgeu	a5,a4,17d1c <__hi0bits+0x18>
   17d14:	01079793          	slli	a5,a5,0x10
   17d18:	01000513          	li	a0,16
   17d1c:	01000737          	lui	a4,0x1000
   17d20:	00e7f663          	bgeu	a5,a4,17d2c <__hi0bits+0x28>
   17d24:	00850513          	addi	a0,a0,8
   17d28:	00879793          	slli	a5,a5,0x8
   17d2c:	10000737          	lui	a4,0x10000
   17d30:	00e7f663          	bgeu	a5,a4,17d3c <__hi0bits+0x38>
   17d34:	00450513          	addi	a0,a0,4
   17d38:	00479793          	slli	a5,a5,0x4
   17d3c:	40000737          	lui	a4,0x40000
   17d40:	00e7ea63          	bltu	a5,a4,17d54 <__hi0bits+0x50>
   17d44:	fff7c793          	not	a5,a5
   17d48:	01f7d793          	srli	a5,a5,0x1f
   17d4c:	00f50533          	add	a0,a0,a5
   17d50:	00008067          	ret
   17d54:	00279793          	slli	a5,a5,0x2
   17d58:	0007ca63          	bltz	a5,17d6c <__hi0bits+0x68>
   17d5c:	00179713          	slli	a4,a5,0x1
   17d60:	00074a63          	bltz	a4,17d74 <__hi0bits+0x70>
   17d64:	02000513          	li	a0,32
   17d68:	00008067          	ret
   17d6c:	00250513          	addi	a0,a0,2
   17d70:	00008067          	ret
   17d74:	00350513          	addi	a0,a0,3
   17d78:	00008067          	ret

00017d7c <__lo0bits>:
   17d7c:	00052783          	lw	a5,0(a0)
   17d80:	00050713          	mv	a4,a0
   17d84:	0077f693          	andi	a3,a5,7
   17d88:	02068463          	beqz	a3,17db0 <__lo0bits+0x34>
   17d8c:	0017f693          	andi	a3,a5,1
   17d90:	00000513          	li	a0,0
   17d94:	04069e63          	bnez	a3,17df0 <__lo0bits+0x74>
   17d98:	0027f693          	andi	a3,a5,2
   17d9c:	0a068863          	beqz	a3,17e4c <__lo0bits+0xd0>
   17da0:	0017d793          	srli	a5,a5,0x1
   17da4:	00f72023          	sw	a5,0(a4) # 40000000 <__BSS_END__+0x3ffdd4fc>
   17da8:	00100513          	li	a0,1
   17dac:	00008067          	ret
   17db0:	01079693          	slli	a3,a5,0x10
   17db4:	0106d693          	srli	a3,a3,0x10
   17db8:	00000513          	li	a0,0
   17dbc:	06068e63          	beqz	a3,17e38 <__lo0bits+0xbc>
   17dc0:	0ff7f693          	zext.b	a3,a5
   17dc4:	06068063          	beqz	a3,17e24 <__lo0bits+0xa8>
   17dc8:	00f7f693          	andi	a3,a5,15
   17dcc:	04068263          	beqz	a3,17e10 <__lo0bits+0x94>
   17dd0:	0037f693          	andi	a3,a5,3
   17dd4:	02068463          	beqz	a3,17dfc <__lo0bits+0x80>
   17dd8:	0017f693          	andi	a3,a5,1
   17ddc:	00069c63          	bnez	a3,17df4 <__lo0bits+0x78>
   17de0:	0017d793          	srli	a5,a5,0x1
   17de4:	00150513          	addi	a0,a0,1
   17de8:	00079663          	bnez	a5,17df4 <__lo0bits+0x78>
   17dec:	02000513          	li	a0,32
   17df0:	00008067          	ret
   17df4:	00f72023          	sw	a5,0(a4)
   17df8:	00008067          	ret
   17dfc:	0027d793          	srli	a5,a5,0x2
   17e00:	0017f693          	andi	a3,a5,1
   17e04:	00250513          	addi	a0,a0,2
   17e08:	fe0696e3          	bnez	a3,17df4 <__lo0bits+0x78>
   17e0c:	fd5ff06f          	j	17de0 <__lo0bits+0x64>
   17e10:	0047d793          	srli	a5,a5,0x4
   17e14:	0037f693          	andi	a3,a5,3
   17e18:	00450513          	addi	a0,a0,4
   17e1c:	fa069ee3          	bnez	a3,17dd8 <__lo0bits+0x5c>
   17e20:	fddff06f          	j	17dfc <__lo0bits+0x80>
   17e24:	0087d793          	srli	a5,a5,0x8
   17e28:	00f7f693          	andi	a3,a5,15
   17e2c:	00850513          	addi	a0,a0,8
   17e30:	fa0690e3          	bnez	a3,17dd0 <__lo0bits+0x54>
   17e34:	fddff06f          	j	17e10 <__lo0bits+0x94>
   17e38:	0107d793          	srli	a5,a5,0x10
   17e3c:	0ff7f693          	zext.b	a3,a5
   17e40:	01000513          	li	a0,16
   17e44:	f80692e3          	bnez	a3,17dc8 <__lo0bits+0x4c>
   17e48:	fddff06f          	j	17e24 <__lo0bits+0xa8>
   17e4c:	0027d793          	srli	a5,a5,0x2
   17e50:	00f72023          	sw	a5,0(a4)
   17e54:	00200513          	li	a0,2
   17e58:	00008067          	ret

00017e5c <__i2b>:
   17e5c:	04452783          	lw	a5,68(a0)
   17e60:	ff010113          	addi	sp,sp,-16
   17e64:	00812423          	sw	s0,8(sp)
   17e68:	00912223          	sw	s1,4(sp)
   17e6c:	00112623          	sw	ra,12(sp)
   17e70:	00050413          	mv	s0,a0
   17e74:	00058493          	mv	s1,a1
   17e78:	02078c63          	beqz	a5,17eb0 <__i2b+0x54>
   17e7c:	0047a503          	lw	a0,4(a5)
   17e80:	06050263          	beqz	a0,17ee4 <__i2b+0x88>
   17e84:	00052703          	lw	a4,0(a0)
   17e88:	00e7a223          	sw	a4,4(a5)
   17e8c:	00c12083          	lw	ra,12(sp)
   17e90:	00812403          	lw	s0,8(sp)
   17e94:	00100793          	li	a5,1
   17e98:	00952a23          	sw	s1,20(a0)
   17e9c:	00052623          	sw	zero,12(a0)
   17ea0:	00f52823          	sw	a5,16(a0)
   17ea4:	00412483          	lw	s1,4(sp)
   17ea8:	01010113          	addi	sp,sp,16
   17eac:	00008067          	ret
   17eb0:	02100613          	li	a2,33
   17eb4:	00400593          	li	a1,4
   17eb8:	125010ef          	jal	197dc <_calloc_r>
   17ebc:	04a42223          	sw	a0,68(s0)
   17ec0:	00050793          	mv	a5,a0
   17ec4:	fa051ce3          	bnez	a0,17e7c <__i2b+0x20>
   17ec8:	000216b7          	lui	a3,0x21
   17ecc:	00021537          	lui	a0,0x21
   17ed0:	39868693          	addi	a3,a3,920 # 21398 <__clzsi2+0xa4>
   17ed4:	00000613          	li	a2,0
   17ed8:	14500593          	li	a1,325
   17edc:	3f850513          	addi	a0,a0,1016 # 213f8 <__clzsi2+0x104>
   17ee0:	095010ef          	jal	19774 <__assert_func>
   17ee4:	01c00613          	li	a2,28
   17ee8:	00100593          	li	a1,1
   17eec:	00040513          	mv	a0,s0
   17ef0:	0ed010ef          	jal	197dc <_calloc_r>
   17ef4:	fc050ae3          	beqz	a0,17ec8 <__i2b+0x6c>
   17ef8:	00100793          	li	a5,1
   17efc:	00f52223          	sw	a5,4(a0)
   17f00:	00200793          	li	a5,2
   17f04:	00f52423          	sw	a5,8(a0)
   17f08:	f85ff06f          	j	17e8c <__i2b+0x30>

00017f0c <__multiply>:
   17f0c:	fb010113          	addi	sp,sp,-80
   17f10:	03312e23          	sw	s3,60(sp)
   17f14:	03812423          	sw	s8,40(sp)
   17f18:	01062983          	lw	s3,16(a2)
   17f1c:	0105ac03          	lw	s8,16(a1)
   17f20:	04812423          	sw	s0,72(sp)
   17f24:	03412c23          	sw	s4,56(sp)
   17f28:	04112623          	sw	ra,76(sp)
   17f2c:	03712623          	sw	s7,44(sp)
   17f30:	00058a13          	mv	s4,a1
   17f34:	00060413          	mv	s0,a2
   17f38:	013c4c63          	blt	s8,s3,17f50 <__multiply+0x44>
   17f3c:	00098713          	mv	a4,s3
   17f40:	00058413          	mv	s0,a1
   17f44:	000c0993          	mv	s3,s8
   17f48:	00060a13          	mv	s4,a2
   17f4c:	00070c13          	mv	s8,a4
   17f50:	00842783          	lw	a5,8(s0)
   17f54:	00442583          	lw	a1,4(s0)
   17f58:	01898bb3          	add	s7,s3,s8
   17f5c:	0177a7b3          	slt	a5,a5,s7
   17f60:	00f585b3          	add	a1,a1,a5
   17f64:	a09ff0ef          	jal	1796c <_Balloc>
   17f68:	00a12623          	sw	a0,12(sp)
   17f6c:	22050863          	beqz	a0,1819c <__multiply+0x290>
   17f70:	00c12783          	lw	a5,12(sp)
   17f74:	03512a23          	sw	s5,52(sp)
   17f78:	03612823          	sw	s6,48(sp)
   17f7c:	002b9a93          	slli	s5,s7,0x2
   17f80:	01478b13          	addi	s6,a5,20
   17f84:	015b0ab3          	add	s5,s6,s5
   17f88:	000b0793          	mv	a5,s6
   17f8c:	015b7863          	bgeu	s6,s5,17f9c <__multiply+0x90>
   17f90:	0007a023          	sw	zero,0(a5)
   17f94:	00478793          	addi	a5,a5,4
   17f98:	ff57ece3          	bltu	a5,s5,17f90 <__multiply+0x84>
   17f9c:	014a0a13          	addi	s4,s4,20
   17fa0:	002c1c13          	slli	s8,s8,0x2
   17fa4:	01440793          	addi	a5,s0,20
   17fa8:	018a0733          	add	a4,s4,s8
   17fac:	00299993          	slli	s3,s3,0x2
   17fb0:	00f12423          	sw	a5,8(sp)
   17fb4:	00e12023          	sw	a4,0(sp)
   17fb8:	013789b3          	add	s3,a5,s3
   17fbc:	16ea7c63          	bgeu	s4,a4,18134 <__multiply+0x228>
   17fc0:	00400713          	li	a4,4
   17fc4:	04912223          	sw	s1,68(sp)
   17fc8:	05212023          	sw	s2,64(sp)
   17fcc:	03912223          	sw	s9,36(sp)
   17fd0:	03a12023          	sw	s10,32(sp)
   17fd4:	01b12e23          	sw	s11,28(sp)
   17fd8:	01540793          	addi	a5,s0,21
   17fdc:	00e12223          	sw	a4,4(sp)
   17fe0:	1af9f263          	bgeu	s3,a5,18184 <__multiply+0x278>
   17fe4:	00010437          	lui	s0,0x10
   17fe8:	fff40413          	addi	s0,s0,-1 # ffff <exit-0x95>
   17fec:	01c0006f          	j	18008 <__multiply+0xfc>
   17ff0:	01095913          	srli	s2,s2,0x10
   17ff4:	0a091063          	bnez	s2,18094 <__multiply+0x188>
   17ff8:	00012783          	lw	a5,0(sp)
   17ffc:	004a0a13          	addi	s4,s4,4
   18000:	004b0b13          	addi	s6,s6,4
   18004:	10fa7e63          	bgeu	s4,a5,18120 <__multiply+0x214>
   18008:	000a2903          	lw	s2,0(s4)
   1800c:	008974b3          	and	s1,s2,s0
   18010:	fe0480e3          	beqz	s1,17ff0 <__multiply+0xe4>
   18014:	00812c83          	lw	s9,8(sp)
   18018:	000b0d13          	mv	s10,s6
   1801c:	00000c13          	li	s8,0
   18020:	000cad83          	lw	s11,0(s9)
   18024:	000d2903          	lw	s2,0(s10)
   18028:	00048593          	mv	a1,s1
   1802c:	008df533          	and	a0,s11,s0
   18030:	1ec090ef          	jal	2121c <__mulsi3>
   18034:	00897733          	and	a4,s2,s0
   18038:	00e50733          	add	a4,a0,a4
   1803c:	00048593          	mv	a1,s1
   18040:	010dd513          	srli	a0,s11,0x10
   18044:	01870c33          	add	s8,a4,s8
   18048:	01095913          	srli	s2,s2,0x10
   1804c:	1d0090ef          	jal	2121c <__mulsi3>
   18050:	010c5713          	srli	a4,s8,0x10
   18054:	01250533          	add	a0,a0,s2
   18058:	00e50533          	add	a0,a0,a4
   1805c:	008c77b3          	and	a5,s8,s0
   18060:	01051713          	slli	a4,a0,0x10
   18064:	004d0d13          	addi	s10,s10,4
   18068:	00f767b3          	or	a5,a4,a5
   1806c:	004c8c93          	addi	s9,s9,4
   18070:	fefd2e23          	sw	a5,-4(s10)
   18074:	01055c13          	srli	s8,a0,0x10
   18078:	fb3ce4e3          	bltu	s9,s3,18020 <__multiply+0x114>
   1807c:	00412783          	lw	a5,4(sp)
   18080:	00fb0733          	add	a4,s6,a5
   18084:	01872023          	sw	s8,0(a4)
   18088:	000a2903          	lw	s2,0(s4)
   1808c:	01095913          	srli	s2,s2,0x10
   18090:	f60904e3          	beqz	s2,17ff8 <__multiply+0xec>
   18094:	000b2c83          	lw	s9,0(s6)
   18098:	00812d03          	lw	s10,8(sp)
   1809c:	000b0c13          	mv	s8,s6
   180a0:	000c8493          	mv	s1,s9
   180a4:	00000d93          	li	s11,0
   180a8:	000d2503          	lw	a0,0(s10)
   180ac:	00090593          	mv	a1,s2
   180b0:	0104d493          	srli	s1,s1,0x10
   180b4:	00857533          	and	a0,a0,s0
   180b8:	164090ef          	jal	2121c <__mulsi3>
   180bc:	01b50733          	add	a4,a0,s11
   180c0:	00970db3          	add	s11,a4,s1
   180c4:	010d9593          	slli	a1,s11,0x10
   180c8:	008cf7b3          	and	a5,s9,s0
   180cc:	00f5e7b3          	or	a5,a1,a5
   180d0:	00fc2023          	sw	a5,0(s8)
   180d4:	002d5503          	lhu	a0,2(s10)
   180d8:	004c2483          	lw	s1,4(s8)
   180dc:	00090593          	mv	a1,s2
   180e0:	13c090ef          	jal	2121c <__mulsi3>
   180e4:	0084f7b3          	and	a5,s1,s0
   180e8:	010dd713          	srli	a4,s11,0x10
   180ec:	00f507b3          	add	a5,a0,a5
   180f0:	004d0d13          	addi	s10,s10,4
   180f4:	00e78cb3          	add	s9,a5,a4
   180f8:	004c0c13          	addi	s8,s8,4
   180fc:	010cdd93          	srli	s11,s9,0x10
   18100:	fb3d64e3          	bltu	s10,s3,180a8 <__multiply+0x19c>
   18104:	00412783          	lw	a5,4(sp)
   18108:	004a0a13          	addi	s4,s4,4
   1810c:	00fb0733          	add	a4,s6,a5
   18110:	00012783          	lw	a5,0(sp)
   18114:	01972023          	sw	s9,0(a4)
   18118:	004b0b13          	addi	s6,s6,4
   1811c:	eefa66e3          	bltu	s4,a5,18008 <__multiply+0xfc>
   18120:	04412483          	lw	s1,68(sp)
   18124:	04012903          	lw	s2,64(sp)
   18128:	02412c83          	lw	s9,36(sp)
   1812c:	02012d03          	lw	s10,32(sp)
   18130:	01c12d83          	lw	s11,28(sp)
   18134:	01704863          	bgtz	s7,18144 <__multiply+0x238>
   18138:	0180006f          	j	18150 <__multiply+0x244>
   1813c:	fffb8b93          	addi	s7,s7,-1
   18140:	000b8863          	beqz	s7,18150 <__multiply+0x244>
   18144:	ffcaa783          	lw	a5,-4(s5)
   18148:	ffca8a93          	addi	s5,s5,-4
   1814c:	fe0788e3          	beqz	a5,1813c <__multiply+0x230>
   18150:	00c12783          	lw	a5,12(sp)
   18154:	04c12083          	lw	ra,76(sp)
   18158:	04812403          	lw	s0,72(sp)
   1815c:	0177a823          	sw	s7,16(a5)
   18160:	03412a83          	lw	s5,52(sp)
   18164:	03012b03          	lw	s6,48(sp)
   18168:	03c12983          	lw	s3,60(sp)
   1816c:	03812a03          	lw	s4,56(sp)
   18170:	02c12b83          	lw	s7,44(sp)
   18174:	02812c03          	lw	s8,40(sp)
   18178:	00078513          	mv	a0,a5
   1817c:	05010113          	addi	sp,sp,80
   18180:	00008067          	ret
   18184:	408987b3          	sub	a5,s3,s0
   18188:	feb78793          	addi	a5,a5,-21
   1818c:	ffc7f793          	andi	a5,a5,-4
   18190:	00478793          	addi	a5,a5,4
   18194:	00f12223          	sw	a5,4(sp)
   18198:	e4dff06f          	j	17fe4 <__multiply+0xd8>
   1819c:	000216b7          	lui	a3,0x21
   181a0:	00021537          	lui	a0,0x21
   181a4:	39868693          	addi	a3,a3,920 # 21398 <__clzsi2+0xa4>
   181a8:	00000613          	li	a2,0
   181ac:	16200593          	li	a1,354
   181b0:	3f850513          	addi	a0,a0,1016 # 213f8 <__clzsi2+0x104>
   181b4:	04912223          	sw	s1,68(sp)
   181b8:	05212023          	sw	s2,64(sp)
   181bc:	03512a23          	sw	s5,52(sp)
   181c0:	03612823          	sw	s6,48(sp)
   181c4:	03912223          	sw	s9,36(sp)
   181c8:	03a12023          	sw	s10,32(sp)
   181cc:	01b12e23          	sw	s11,28(sp)
   181d0:	5a4010ef          	jal	19774 <__assert_func>

000181d4 <__pow5mult>:
   181d4:	fe010113          	addi	sp,sp,-32
   181d8:	00812c23          	sw	s0,24(sp)
   181dc:	01212823          	sw	s2,16(sp)
   181e0:	01312623          	sw	s3,12(sp)
   181e4:	00112e23          	sw	ra,28(sp)
   181e8:	00367793          	andi	a5,a2,3
   181ec:	00060413          	mv	s0,a2
   181f0:	00050993          	mv	s3,a0
   181f4:	00058913          	mv	s2,a1
   181f8:	0a079c63          	bnez	a5,182b0 <__pow5mult+0xdc>
   181fc:	40245413          	srai	s0,s0,0x2
   18200:	06040a63          	beqz	s0,18274 <__pow5mult+0xa0>
   18204:	00912a23          	sw	s1,20(sp)
   18208:	0409a483          	lw	s1,64(s3)
   1820c:	0c048663          	beqz	s1,182d8 <__pow5mult+0x104>
   18210:	00147793          	andi	a5,s0,1
   18214:	02079063          	bnez	a5,18234 <__pow5mult+0x60>
   18218:	40145413          	srai	s0,s0,0x1
   1821c:	04040a63          	beqz	s0,18270 <__pow5mult+0x9c>
   18220:	0004a503          	lw	a0,0(s1)
   18224:	06050663          	beqz	a0,18290 <__pow5mult+0xbc>
   18228:	00050493          	mv	s1,a0
   1822c:	00147793          	andi	a5,s0,1
   18230:	fe0784e3          	beqz	a5,18218 <__pow5mult+0x44>
   18234:	00048613          	mv	a2,s1
   18238:	00090593          	mv	a1,s2
   1823c:	00098513          	mv	a0,s3
   18240:	ccdff0ef          	jal	17f0c <__multiply>
   18244:	02090063          	beqz	s2,18264 <__pow5mult+0x90>
   18248:	00492703          	lw	a4,4(s2)
   1824c:	0449a783          	lw	a5,68(s3)
   18250:	00271713          	slli	a4,a4,0x2
   18254:	00e787b3          	add	a5,a5,a4
   18258:	0007a703          	lw	a4,0(a5)
   1825c:	00e92023          	sw	a4,0(s2)
   18260:	0127a023          	sw	s2,0(a5)
   18264:	40145413          	srai	s0,s0,0x1
   18268:	00050913          	mv	s2,a0
   1826c:	fa041ae3          	bnez	s0,18220 <__pow5mult+0x4c>
   18270:	01412483          	lw	s1,20(sp)
   18274:	01c12083          	lw	ra,28(sp)
   18278:	01812403          	lw	s0,24(sp)
   1827c:	00c12983          	lw	s3,12(sp)
   18280:	00090513          	mv	a0,s2
   18284:	01012903          	lw	s2,16(sp)
   18288:	02010113          	addi	sp,sp,32
   1828c:	00008067          	ret
   18290:	00048613          	mv	a2,s1
   18294:	00048593          	mv	a1,s1
   18298:	00098513          	mv	a0,s3
   1829c:	c71ff0ef          	jal	17f0c <__multiply>
   182a0:	00a4a023          	sw	a0,0(s1)
   182a4:	00052023          	sw	zero,0(a0)
   182a8:	00050493          	mv	s1,a0
   182ac:	f81ff06f          	j	1822c <__pow5mult+0x58>
   182b0:	fff78793          	addi	a5,a5,-1
   182b4:	00021737          	lui	a4,0x21
   182b8:	6c470713          	addi	a4,a4,1732 # 216c4 <p05.0>
   182bc:	00279793          	slli	a5,a5,0x2
   182c0:	00f707b3          	add	a5,a4,a5
   182c4:	0007a603          	lw	a2,0(a5)
   182c8:	00000693          	li	a3,0
   182cc:	f78ff0ef          	jal	17a44 <__multadd>
   182d0:	00050913          	mv	s2,a0
   182d4:	f29ff06f          	j	181fc <__pow5mult+0x28>
   182d8:	00100593          	li	a1,1
   182dc:	00098513          	mv	a0,s3
   182e0:	e8cff0ef          	jal	1796c <_Balloc>
   182e4:	00050493          	mv	s1,a0
   182e8:	02050063          	beqz	a0,18308 <__pow5mult+0x134>
   182ec:	27100793          	li	a5,625
   182f0:	00f52a23          	sw	a5,20(a0)
   182f4:	00100793          	li	a5,1
   182f8:	00f52823          	sw	a5,16(a0)
   182fc:	04a9a023          	sw	a0,64(s3)
   18300:	00052023          	sw	zero,0(a0)
   18304:	f0dff06f          	j	18210 <__pow5mult+0x3c>
   18308:	000216b7          	lui	a3,0x21
   1830c:	00021537          	lui	a0,0x21
   18310:	39868693          	addi	a3,a3,920 # 21398 <__clzsi2+0xa4>
   18314:	00000613          	li	a2,0
   18318:	14500593          	li	a1,325
   1831c:	3f850513          	addi	a0,a0,1016 # 213f8 <__clzsi2+0x104>
   18320:	454010ef          	jal	19774 <__assert_func>

00018324 <__lshift>:
   18324:	fe010113          	addi	sp,sp,-32
   18328:	01512223          	sw	s5,4(sp)
   1832c:	0105aa83          	lw	s5,16(a1)
   18330:	0085a783          	lw	a5,8(a1)
   18334:	01312623          	sw	s3,12(sp)
   18338:	40565993          	srai	s3,a2,0x5
   1833c:	01598ab3          	add	s5,s3,s5
   18340:	00812c23          	sw	s0,24(sp)
   18344:	00912a23          	sw	s1,20(sp)
   18348:	01212823          	sw	s2,16(sp)
   1834c:	01412423          	sw	s4,8(sp)
   18350:	00112e23          	sw	ra,28(sp)
   18354:	001a8913          	addi	s2,s5,1
   18358:	00058493          	mv	s1,a1
   1835c:	00060413          	mv	s0,a2
   18360:	0045a583          	lw	a1,4(a1)
   18364:	00050a13          	mv	s4,a0
   18368:	0127d863          	bge	a5,s2,18378 <__lshift+0x54>
   1836c:	00179793          	slli	a5,a5,0x1
   18370:	00158593          	addi	a1,a1,1
   18374:	ff27cce3          	blt	a5,s2,1836c <__lshift+0x48>
   18378:	000a0513          	mv	a0,s4
   1837c:	df0ff0ef          	jal	1796c <_Balloc>
   18380:	10050c63          	beqz	a0,18498 <__lshift+0x174>
   18384:	01450813          	addi	a6,a0,20
   18388:	03305463          	blez	s3,183b0 <__lshift+0x8c>
   1838c:	00598993          	addi	s3,s3,5
   18390:	00299993          	slli	s3,s3,0x2
   18394:	01350733          	add	a4,a0,s3
   18398:	00080793          	mv	a5,a6
   1839c:	00478793          	addi	a5,a5,4
   183a0:	fe07ae23          	sw	zero,-4(a5)
   183a4:	fee79ce3          	bne	a5,a4,1839c <__lshift+0x78>
   183a8:	fec98993          	addi	s3,s3,-20
   183ac:	01380833          	add	a6,a6,s3
   183b0:	0104a883          	lw	a7,16(s1)
   183b4:	01448793          	addi	a5,s1,20
   183b8:	01f47613          	andi	a2,s0,31
   183bc:	00289893          	slli	a7,a7,0x2
   183c0:	011788b3          	add	a7,a5,a7
   183c4:	0a060463          	beqz	a2,1846c <__lshift+0x148>
   183c8:	02000593          	li	a1,32
   183cc:	40c585b3          	sub	a1,a1,a2
   183d0:	00080313          	mv	t1,a6
   183d4:	00000693          	li	a3,0
   183d8:	0007a703          	lw	a4,0(a5)
   183dc:	00430313          	addi	t1,t1,4
   183e0:	00478793          	addi	a5,a5,4
   183e4:	00c71733          	sll	a4,a4,a2
   183e8:	00d76733          	or	a4,a4,a3
   183ec:	fee32e23          	sw	a4,-4(t1)
   183f0:	ffc7a683          	lw	a3,-4(a5)
   183f4:	00b6d6b3          	srl	a3,a3,a1
   183f8:	ff17e0e3          	bltu	a5,a7,183d8 <__lshift+0xb4>
   183fc:	01548793          	addi	a5,s1,21
   18400:	00400713          	li	a4,4
   18404:	00f8ea63          	bltu	a7,a5,18418 <__lshift+0xf4>
   18408:	409887b3          	sub	a5,a7,s1
   1840c:	feb78793          	addi	a5,a5,-21
   18410:	ffc7f793          	andi	a5,a5,-4
   18414:	00478713          	addi	a4,a5,4
   18418:	00e80833          	add	a6,a6,a4
   1841c:	00d82023          	sw	a3,0(a6)
   18420:	00069463          	bnez	a3,18428 <__lshift+0x104>
   18424:	000a8913          	mv	s2,s5
   18428:	0044a703          	lw	a4,4(s1)
   1842c:	044a2783          	lw	a5,68(s4)
   18430:	01c12083          	lw	ra,28(sp)
   18434:	00271713          	slli	a4,a4,0x2
   18438:	00e787b3          	add	a5,a5,a4
   1843c:	0007a703          	lw	a4,0(a5)
   18440:	01252823          	sw	s2,16(a0)
   18444:	01812403          	lw	s0,24(sp)
   18448:	00e4a023          	sw	a4,0(s1)
   1844c:	0097a023          	sw	s1,0(a5)
   18450:	01012903          	lw	s2,16(sp)
   18454:	01412483          	lw	s1,20(sp)
   18458:	00c12983          	lw	s3,12(sp)
   1845c:	00812a03          	lw	s4,8(sp)
   18460:	00412a83          	lw	s5,4(sp)
   18464:	02010113          	addi	sp,sp,32
   18468:	00008067          	ret
   1846c:	0007a703          	lw	a4,0(a5)
   18470:	00478793          	addi	a5,a5,4
   18474:	00480813          	addi	a6,a6,4
   18478:	fee82e23          	sw	a4,-4(a6)
   1847c:	fb17f4e3          	bgeu	a5,a7,18424 <__lshift+0x100>
   18480:	0007a703          	lw	a4,0(a5)
   18484:	00478793          	addi	a5,a5,4
   18488:	00480813          	addi	a6,a6,4
   1848c:	fee82e23          	sw	a4,-4(a6)
   18490:	fd17eee3          	bltu	a5,a7,1846c <__lshift+0x148>
   18494:	f91ff06f          	j	18424 <__lshift+0x100>
   18498:	000216b7          	lui	a3,0x21
   1849c:	00021537          	lui	a0,0x21
   184a0:	39868693          	addi	a3,a3,920 # 21398 <__clzsi2+0xa4>
   184a4:	00000613          	li	a2,0
   184a8:	1de00593          	li	a1,478
   184ac:	3f850513          	addi	a0,a0,1016 # 213f8 <__clzsi2+0x104>
   184b0:	2c4010ef          	jal	19774 <__assert_func>

000184b4 <__mcmp>:
   184b4:	01052703          	lw	a4,16(a0)
   184b8:	0105a783          	lw	a5,16(a1)
   184bc:	00050813          	mv	a6,a0
   184c0:	40f70533          	sub	a0,a4,a5
   184c4:	04f71263          	bne	a4,a5,18508 <__mcmp+0x54>
   184c8:	00279793          	slli	a5,a5,0x2
   184cc:	01480813          	addi	a6,a6,20
   184d0:	01458593          	addi	a1,a1,20
   184d4:	00f80733          	add	a4,a6,a5
   184d8:	00f587b3          	add	a5,a1,a5
   184dc:	0080006f          	j	184e4 <__mcmp+0x30>
   184e0:	02e87463          	bgeu	a6,a4,18508 <__mcmp+0x54>
   184e4:	ffc72603          	lw	a2,-4(a4)
   184e8:	ffc7a683          	lw	a3,-4(a5)
   184ec:	ffc70713          	addi	a4,a4,-4
   184f0:	ffc78793          	addi	a5,a5,-4
   184f4:	fed606e3          	beq	a2,a3,184e0 <__mcmp+0x2c>
   184f8:	00100513          	li	a0,1
   184fc:	00d67663          	bgeu	a2,a3,18508 <__mcmp+0x54>
   18500:	fff00513          	li	a0,-1
   18504:	00008067          	ret
   18508:	00008067          	ret

0001850c <__mdiff>:
   1850c:	0105a703          	lw	a4,16(a1)
   18510:	01062783          	lw	a5,16(a2)
   18514:	ff010113          	addi	sp,sp,-16
   18518:	00812423          	sw	s0,8(sp)
   1851c:	00912223          	sw	s1,4(sp)
   18520:	00112623          	sw	ra,12(sp)
   18524:	01212023          	sw	s2,0(sp)
   18528:	00058413          	mv	s0,a1
   1852c:	00060493          	mv	s1,a2
   18530:	40f706b3          	sub	a3,a4,a5
   18534:	18f71e63          	bne	a4,a5,186d0 <__mdiff+0x1c4>
   18538:	00279693          	slli	a3,a5,0x2
   1853c:	01458613          	addi	a2,a1,20
   18540:	01448713          	addi	a4,s1,20
   18544:	00d607b3          	add	a5,a2,a3
   18548:	00d70733          	add	a4,a4,a3
   1854c:	0080006f          	j	18554 <__mdiff+0x48>
   18550:	18f67c63          	bgeu	a2,a5,186e8 <__mdiff+0x1dc>
   18554:	ffc7a583          	lw	a1,-4(a5)
   18558:	ffc72683          	lw	a3,-4(a4)
   1855c:	ffc78793          	addi	a5,a5,-4
   18560:	ffc70713          	addi	a4,a4,-4
   18564:	fed586e3          	beq	a1,a3,18550 <__mdiff+0x44>
   18568:	00100913          	li	s2,1
   1856c:	00d5ea63          	bltu	a1,a3,18580 <__mdiff+0x74>
   18570:	00048793          	mv	a5,s1
   18574:	00000913          	li	s2,0
   18578:	00040493          	mv	s1,s0
   1857c:	00078413          	mv	s0,a5
   18580:	0044a583          	lw	a1,4(s1)
   18584:	be8ff0ef          	jal	1796c <_Balloc>
   18588:	1a050663          	beqz	a0,18734 <__mdiff+0x228>
   1858c:	0104a883          	lw	a7,16(s1)
   18590:	01042283          	lw	t0,16(s0)
   18594:	01448f93          	addi	t6,s1,20
   18598:	00289313          	slli	t1,a7,0x2
   1859c:	01440813          	addi	a6,s0,20
   185a0:	00229293          	slli	t0,t0,0x2
   185a4:	01450593          	addi	a1,a0,20
   185a8:	00010e37          	lui	t3,0x10
   185ac:	01252623          	sw	s2,12(a0)
   185b0:	006f8333          	add	t1,t6,t1
   185b4:	005802b3          	add	t0,a6,t0
   185b8:	00058f13          	mv	t5,a1
   185bc:	000f8e93          	mv	t4,t6
   185c0:	00000693          	li	a3,0
   185c4:	fffe0e13          	addi	t3,t3,-1 # ffff <exit-0x95>
   185c8:	000ea703          	lw	a4,0(t4)
   185cc:	00082603          	lw	a2,0(a6)
   185d0:	004f0f13          	addi	t5,t5,4
   185d4:	01c777b3          	and	a5,a4,t3
   185d8:	01c673b3          	and	t2,a2,t3
   185dc:	407787b3          	sub	a5,a5,t2
   185e0:	00d787b3          	add	a5,a5,a3
   185e4:	01075713          	srli	a4,a4,0x10
   185e8:	01065613          	srli	a2,a2,0x10
   185ec:	4107d693          	srai	a3,a5,0x10
   185f0:	40c70733          	sub	a4,a4,a2
   185f4:	00d70733          	add	a4,a4,a3
   185f8:	01071693          	slli	a3,a4,0x10
   185fc:	01c7f7b3          	and	a5,a5,t3
   18600:	00d7e7b3          	or	a5,a5,a3
   18604:	00480813          	addi	a6,a6,4
   18608:	feff2e23          	sw	a5,-4(t5)
   1860c:	004e8e93          	addi	t4,t4,4
   18610:	41075693          	srai	a3,a4,0x10
   18614:	fa586ae3          	bltu	a6,t0,185c8 <__mdiff+0xbc>
   18618:	01540713          	addi	a4,s0,21
   1861c:	40828433          	sub	s0,t0,s0
   18620:	feb40413          	addi	s0,s0,-21
   18624:	00e2b2b3          	sltu	t0,t0,a4
   18628:	0012cf13          	xori	t5,t0,1
   1862c:	00245413          	srli	s0,s0,0x2
   18630:	00400713          	li	a4,4
   18634:	0a028463          	beqz	t0,186dc <__mdiff+0x1d0>
   18638:	00ef8fb3          	add	t6,t6,a4
   1863c:	00e58833          	add	a6,a1,a4
   18640:	00010eb7          	lui	t4,0x10
   18644:	00080e13          	mv	t3,a6
   18648:	000f8613          	mv	a2,t6
   1864c:	fffe8e93          	addi	t4,t4,-1 # ffff <exit-0x95>
   18650:	0c6ff463          	bgeu	t6,t1,18718 <__mdiff+0x20c>
   18654:	00062783          	lw	a5,0(a2)
   18658:	004e0e13          	addi	t3,t3,4
   1865c:	00460613          	addi	a2,a2,4
   18660:	01d7f733          	and	a4,a5,t4
   18664:	00d70733          	add	a4,a4,a3
   18668:	0107d593          	srli	a1,a5,0x10
   1866c:	41075713          	srai	a4,a4,0x10
   18670:	00b70733          	add	a4,a4,a1
   18674:	00d787b3          	add	a5,a5,a3
   18678:	01d7f7b3          	and	a5,a5,t4
   1867c:	01071693          	slli	a3,a4,0x10
   18680:	00d7e7b3          	or	a5,a5,a3
   18684:	fefe2e23          	sw	a5,-4(t3)
   18688:	41075693          	srai	a3,a4,0x10
   1868c:	fc6664e3          	bltu	a2,t1,18654 <__mdiff+0x148>
   18690:	fff30313          	addi	t1,t1,-1
   18694:	41f30333          	sub	t1,t1,t6
   18698:	ffc37313          	andi	t1,t1,-4
   1869c:	00680733          	add	a4,a6,t1
   186a0:	00079a63          	bnez	a5,186b4 <__mdiff+0x1a8>
   186a4:	ffc72783          	lw	a5,-4(a4)
   186a8:	fff88893          	addi	a7,a7,-1
   186ac:	ffc70713          	addi	a4,a4,-4
   186b0:	fe078ae3          	beqz	a5,186a4 <__mdiff+0x198>
   186b4:	00c12083          	lw	ra,12(sp)
   186b8:	00812403          	lw	s0,8(sp)
   186bc:	01152823          	sw	a7,16(a0)
   186c0:	00412483          	lw	s1,4(sp)
   186c4:	00012903          	lw	s2,0(sp)
   186c8:	01010113          	addi	sp,sp,16
   186cc:	00008067          	ret
   186d0:	00100913          	li	s2,1
   186d4:	e806dee3          	bgez	a3,18570 <__mdiff+0x64>
   186d8:	ea9ff06f          	j	18580 <__mdiff+0x74>
   186dc:	00140713          	addi	a4,s0,1
   186e0:	00271713          	slli	a4,a4,0x2
   186e4:	f55ff06f          	j	18638 <__mdiff+0x12c>
   186e8:	00000593          	li	a1,0
   186ec:	a80ff0ef          	jal	1796c <_Balloc>
   186f0:	06050063          	beqz	a0,18750 <__mdiff+0x244>
   186f4:	00c12083          	lw	ra,12(sp)
   186f8:	00812403          	lw	s0,8(sp)
   186fc:	00100793          	li	a5,1
   18700:	00f52823          	sw	a5,16(a0)
   18704:	00052a23          	sw	zero,20(a0)
   18708:	00412483          	lw	s1,4(sp)
   1870c:	00012903          	lw	s2,0(sp)
   18710:	01010113          	addi	sp,sp,16
   18714:	00008067          	ret
   18718:	00000713          	li	a4,0
   1871c:	000f1663          	bnez	t5,18728 <__mdiff+0x21c>
   18720:	00e58733          	add	a4,a1,a4
   18724:	f7dff06f          	j	186a0 <__mdiff+0x194>
   18728:	00241713          	slli	a4,s0,0x2
   1872c:	00e58733          	add	a4,a1,a4
   18730:	f71ff06f          	j	186a0 <__mdiff+0x194>
   18734:	000216b7          	lui	a3,0x21
   18738:	00021537          	lui	a0,0x21
   1873c:	39868693          	addi	a3,a3,920 # 21398 <__clzsi2+0xa4>
   18740:	00000613          	li	a2,0
   18744:	24500593          	li	a1,581
   18748:	3f850513          	addi	a0,a0,1016 # 213f8 <__clzsi2+0x104>
   1874c:	028010ef          	jal	19774 <__assert_func>
   18750:	000216b7          	lui	a3,0x21
   18754:	00021537          	lui	a0,0x21
   18758:	39868693          	addi	a3,a3,920 # 21398 <__clzsi2+0xa4>
   1875c:	00000613          	li	a2,0
   18760:	23700593          	li	a1,567
   18764:	3f850513          	addi	a0,a0,1016 # 213f8 <__clzsi2+0x104>
   18768:	00c010ef          	jal	19774 <__assert_func>

0001876c <__ulp>:
   1876c:	7ff007b7          	lui	a5,0x7ff00
   18770:	00b7f5b3          	and	a1,a5,a1
   18774:	fcc007b7          	lui	a5,0xfcc00
   18778:	00f585b3          	add	a1,a1,a5
   1877c:	00000793          	li	a5,0
   18780:	00b05663          	blez	a1,1878c <__ulp+0x20>
   18784:	00078513          	mv	a0,a5
   18788:	00008067          	ret
   1878c:	40b005b3          	neg	a1,a1
   18790:	4145d593          	srai	a1,a1,0x14
   18794:	01300793          	li	a5,19
   18798:	00b7cc63          	blt	a5,a1,187b0 <__ulp+0x44>
   1879c:	000807b7          	lui	a5,0x80
   187a0:	40b7d5b3          	sra	a1,a5,a1
   187a4:	00000793          	li	a5,0
   187a8:	00078513          	mv	a0,a5
   187ac:	00008067          	ret
   187b0:	fec58593          	addi	a1,a1,-20
   187b4:	01e00713          	li	a4,30
   187b8:	00100793          	li	a5,1
   187bc:	00b74663          	blt	a4,a1,187c8 <__ulp+0x5c>
   187c0:	800007b7          	lui	a5,0x80000
   187c4:	00b7d7b3          	srl	a5,a5,a1
   187c8:	00000593          	li	a1,0
   187cc:	00078513          	mv	a0,a5
   187d0:	00008067          	ret

000187d4 <__b2d>:
   187d4:	fe010113          	addi	sp,sp,-32
   187d8:	00912a23          	sw	s1,20(sp)
   187dc:	01052483          	lw	s1,16(a0)
   187e0:	00812c23          	sw	s0,24(sp)
   187e4:	01450413          	addi	s0,a0,20
   187e8:	00249493          	slli	s1,s1,0x2
   187ec:	009404b3          	add	s1,s0,s1
   187f0:	01212823          	sw	s2,16(sp)
   187f4:	ffc4a903          	lw	s2,-4(s1)
   187f8:	01312623          	sw	s3,12(sp)
   187fc:	01412423          	sw	s4,8(sp)
   18800:	00090513          	mv	a0,s2
   18804:	00058993          	mv	s3,a1
   18808:	00112e23          	sw	ra,28(sp)
   1880c:	cf8ff0ef          	jal	17d04 <__hi0bits>
   18810:	02000713          	li	a4,32
   18814:	40a707b3          	sub	a5,a4,a0
   18818:	00f9a023          	sw	a5,0(s3)
   1881c:	00a00793          	li	a5,10
   18820:	ffc48a13          	addi	s4,s1,-4
   18824:	08a7dc63          	bge	a5,a0,188bc <__b2d+0xe8>
   18828:	ff550613          	addi	a2,a0,-11
   1882c:	05447063          	bgeu	s0,s4,1886c <__b2d+0x98>
   18830:	ff84a783          	lw	a5,-8(s1)
   18834:	04060c63          	beqz	a2,1888c <__b2d+0xb8>
   18838:	40c706b3          	sub	a3,a4,a2
   1883c:	00d7d733          	srl	a4,a5,a3
   18840:	00c91933          	sll	s2,s2,a2
   18844:	00e96933          	or	s2,s2,a4
   18848:	ff848593          	addi	a1,s1,-8
   1884c:	3ff00737          	lui	a4,0x3ff00
   18850:	00e96733          	or	a4,s2,a4
   18854:	00c797b3          	sll	a5,a5,a2
   18858:	02b47e63          	bgeu	s0,a1,18894 <__b2d+0xc0>
   1885c:	ff44a603          	lw	a2,-12(s1)
   18860:	00d656b3          	srl	a3,a2,a3
   18864:	00d7e7b3          	or	a5,a5,a3
   18868:	02c0006f          	j	18894 <__b2d+0xc0>
   1886c:	00b00793          	li	a5,11
   18870:	00f50c63          	beq	a0,a5,18888 <__b2d+0xb4>
   18874:	00c91933          	sll	s2,s2,a2
   18878:	3ff00737          	lui	a4,0x3ff00
   1887c:	00e96733          	or	a4,s2,a4
   18880:	00000793          	li	a5,0
   18884:	0100006f          	j	18894 <__b2d+0xc0>
   18888:	00000793          	li	a5,0
   1888c:	3ff00737          	lui	a4,0x3ff00
   18890:	00e96733          	or	a4,s2,a4
   18894:	01c12083          	lw	ra,28(sp)
   18898:	01812403          	lw	s0,24(sp)
   1889c:	01412483          	lw	s1,20(sp)
   188a0:	01012903          	lw	s2,16(sp)
   188a4:	00c12983          	lw	s3,12(sp)
   188a8:	00812a03          	lw	s4,8(sp)
   188ac:	00078513          	mv	a0,a5
   188b0:	00070593          	mv	a1,a4
   188b4:	02010113          	addi	sp,sp,32
   188b8:	00008067          	ret
   188bc:	00b00693          	li	a3,11
   188c0:	40a686b3          	sub	a3,a3,a0
   188c4:	3ff007b7          	lui	a5,0x3ff00
   188c8:	00d95733          	srl	a4,s2,a3
   188cc:	00f76733          	or	a4,a4,a5
   188d0:	00000793          	li	a5,0
   188d4:	01447663          	bgeu	s0,s4,188e0 <__b2d+0x10c>
   188d8:	ff84a783          	lw	a5,-8(s1)
   188dc:	00d7d7b3          	srl	a5,a5,a3
   188e0:	01550513          	addi	a0,a0,21
   188e4:	00a91933          	sll	s2,s2,a0
   188e8:	00f967b3          	or	a5,s2,a5
   188ec:	fa9ff06f          	j	18894 <__b2d+0xc0>

000188f0 <__d2b>:
   188f0:	fd010113          	addi	sp,sp,-48
   188f4:	01512a23          	sw	s5,20(sp)
   188f8:	00058a93          	mv	s5,a1
   188fc:	00100593          	li	a1,1
   18900:	02912223          	sw	s1,36(sp)
   18904:	01312e23          	sw	s3,28(sp)
   18908:	01412c23          	sw	s4,24(sp)
   1890c:	02112623          	sw	ra,44(sp)
   18910:	02812423          	sw	s0,40(sp)
   18914:	03212023          	sw	s2,32(sp)
   18918:	00060493          	mv	s1,a2
   1891c:	00068a13          	mv	s4,a3
   18920:	00070993          	mv	s3,a4
   18924:	848ff0ef          	jal	1796c <_Balloc>
   18928:	10050263          	beqz	a0,18a2c <__d2b+0x13c>
   1892c:	00100737          	lui	a4,0x100
   18930:	0144d913          	srli	s2,s1,0x14
   18934:	fff70793          	addi	a5,a4,-1 # fffff <__BSS_END__+0xdd4fb>
   18938:	7ff97913          	andi	s2,s2,2047
   1893c:	00050413          	mv	s0,a0
   18940:	0097f7b3          	and	a5,a5,s1
   18944:	00090463          	beqz	s2,1894c <__d2b+0x5c>
   18948:	00e7e7b3          	or	a5,a5,a4
   1894c:	00f12623          	sw	a5,12(sp)
   18950:	060a9263          	bnez	s5,189b4 <__d2b+0xc4>
   18954:	00c10513          	addi	a0,sp,12
   18958:	c24ff0ef          	jal	17d7c <__lo0bits>
   1895c:	00c12703          	lw	a4,12(sp)
   18960:	00100493          	li	s1,1
   18964:	00942823          	sw	s1,16(s0)
   18968:	00e42a23          	sw	a4,20(s0)
   1896c:	02050793          	addi	a5,a0,32
   18970:	08090863          	beqz	s2,18a00 <__d2b+0x110>
   18974:	bcd90913          	addi	s2,s2,-1075
   18978:	00f90933          	add	s2,s2,a5
   1897c:	03500493          	li	s1,53
   18980:	012a2023          	sw	s2,0(s4)
   18984:	40f48533          	sub	a0,s1,a5
   18988:	00a9a023          	sw	a0,0(s3)
   1898c:	02c12083          	lw	ra,44(sp)
   18990:	00040513          	mv	a0,s0
   18994:	02812403          	lw	s0,40(sp)
   18998:	02412483          	lw	s1,36(sp)
   1899c:	02012903          	lw	s2,32(sp)
   189a0:	01c12983          	lw	s3,28(sp)
   189a4:	01812a03          	lw	s4,24(sp)
   189a8:	01412a83          	lw	s5,20(sp)
   189ac:	03010113          	addi	sp,sp,48
   189b0:	00008067          	ret
   189b4:	00810513          	addi	a0,sp,8
   189b8:	01512423          	sw	s5,8(sp)
   189bc:	bc0ff0ef          	jal	17d7c <__lo0bits>
   189c0:	00c12703          	lw	a4,12(sp)
   189c4:	00050793          	mv	a5,a0
   189c8:	04050e63          	beqz	a0,18a24 <__d2b+0x134>
   189cc:	00812603          	lw	a2,8(sp)
   189d0:	02000693          	li	a3,32
   189d4:	40a686b3          	sub	a3,a3,a0
   189d8:	00d716b3          	sll	a3,a4,a3
   189dc:	00a75733          	srl	a4,a4,a0
   189e0:	00c6e6b3          	or	a3,a3,a2
   189e4:	00e12623          	sw	a4,12(sp)
   189e8:	00e034b3          	snez	s1,a4
   189ec:	00148493          	addi	s1,s1,1
   189f0:	00d42a23          	sw	a3,20(s0)
   189f4:	00e42c23          	sw	a4,24(s0)
   189f8:	00942823          	sw	s1,16(s0)
   189fc:	f6091ce3          	bnez	s2,18974 <__d2b+0x84>
   18a00:	00249713          	slli	a4,s1,0x2
   18a04:	00e40733          	add	a4,s0,a4
   18a08:	01072503          	lw	a0,16(a4)
   18a0c:	bce78793          	addi	a5,a5,-1074 # 3feffbce <__BSS_END__+0x3fedd0ca>
   18a10:	00fa2023          	sw	a5,0(s4)
   18a14:	af0ff0ef          	jal	17d04 <__hi0bits>
   18a18:	00549493          	slli	s1,s1,0x5
   18a1c:	40a48533          	sub	a0,s1,a0
   18a20:	f69ff06f          	j	18988 <__d2b+0x98>
   18a24:	00812683          	lw	a3,8(sp)
   18a28:	fc1ff06f          	j	189e8 <__d2b+0xf8>
   18a2c:	000216b7          	lui	a3,0x21
   18a30:	00021537          	lui	a0,0x21
   18a34:	39868693          	addi	a3,a3,920 # 21398 <__clzsi2+0xa4>
   18a38:	00000613          	li	a2,0
   18a3c:	30f00593          	li	a1,783
   18a40:	3f850513          	addi	a0,a0,1016 # 213f8 <__clzsi2+0x104>
   18a44:	531000ef          	jal	19774 <__assert_func>

00018a48 <__ratio>:
   18a48:	fd010113          	addi	sp,sp,-48
   18a4c:	03212023          	sw	s2,32(sp)
   18a50:	00058913          	mv	s2,a1
   18a54:	00810593          	addi	a1,sp,8
   18a58:	02112623          	sw	ra,44(sp)
   18a5c:	02812423          	sw	s0,40(sp)
   18a60:	02912223          	sw	s1,36(sp)
   18a64:	01312e23          	sw	s3,28(sp)
   18a68:	00050993          	mv	s3,a0
   18a6c:	d69ff0ef          	jal	187d4 <__b2d>
   18a70:	00050493          	mv	s1,a0
   18a74:	00058413          	mv	s0,a1
   18a78:	00090513          	mv	a0,s2
   18a7c:	00c10593          	addi	a1,sp,12
   18a80:	d55ff0ef          	jal	187d4 <__b2d>
   18a84:	01092703          	lw	a4,16(s2)
   18a88:	0109a783          	lw	a5,16(s3)
   18a8c:	00c12683          	lw	a3,12(sp)
   18a90:	40e787b3          	sub	a5,a5,a4
   18a94:	00812703          	lw	a4,8(sp)
   18a98:	00579793          	slli	a5,a5,0x5
   18a9c:	40d70733          	sub	a4,a4,a3
   18aa0:	00e787b3          	add	a5,a5,a4
   18aa4:	00050713          	mv	a4,a0
   18aa8:	02f05e63          	blez	a5,18ae4 <__ratio+0x9c>
   18aac:	01479793          	slli	a5,a5,0x14
   18ab0:	00878433          	add	s0,a5,s0
   18ab4:	00058693          	mv	a3,a1
   18ab8:	00048513          	mv	a0,s1
   18abc:	00040593          	mv	a1,s0
   18ac0:	00070613          	mv	a2,a4
   18ac4:	515030ef          	jal	1c7d8 <__divdf3>
   18ac8:	02c12083          	lw	ra,44(sp)
   18acc:	02812403          	lw	s0,40(sp)
   18ad0:	02412483          	lw	s1,36(sp)
   18ad4:	02012903          	lw	s2,32(sp)
   18ad8:	01c12983          	lw	s3,28(sp)
   18adc:	03010113          	addi	sp,sp,48
   18ae0:	00008067          	ret
   18ae4:	01479793          	slli	a5,a5,0x14
   18ae8:	40f585b3          	sub	a1,a1,a5
   18aec:	fc9ff06f          	j	18ab4 <__ratio+0x6c>

00018af0 <_mprec_log10>:
   18af0:	ff010113          	addi	sp,sp,-16
   18af4:	01212023          	sw	s2,0(sp)
   18af8:	00112623          	sw	ra,12(sp)
   18afc:	01700793          	li	a5,23
   18b00:	00050913          	mv	s2,a0
   18b04:	04a7da63          	bge	a5,a0,18b58 <_mprec_log10+0x68>
   18b08:	ed81a783          	lw	a5,-296(gp) # 22798 <__SDATA_BEGIN__+0x30>
   18b0c:	edc1a583          	lw	a1,-292(gp) # 2279c <__SDATA_BEGIN__+0x34>
   18b10:	00812423          	sw	s0,8(sp)
   18b14:	00912223          	sw	s1,4(sp)
   18b18:	ee01a403          	lw	s0,-288(gp) # 227a0 <__SDATA_BEGIN__+0x38>
   18b1c:	ee41a483          	lw	s1,-284(gp) # 227a4 <__SDATA_BEGIN__+0x3c>
   18b20:	00078513          	mv	a0,a5
   18b24:	00040613          	mv	a2,s0
   18b28:	00048693          	mv	a3,s1
   18b2c:	6d0040ef          	jal	1d1fc <__muldf3>
   18b30:	fff90913          	addi	s2,s2,-1
   18b34:	00050793          	mv	a5,a0
   18b38:	fe0914e3          	bnez	s2,18b20 <_mprec_log10+0x30>
   18b3c:	00812403          	lw	s0,8(sp)
   18b40:	00c12083          	lw	ra,12(sp)
   18b44:	00412483          	lw	s1,4(sp)
   18b48:	00012903          	lw	s2,0(sp)
   18b4c:	00078513          	mv	a0,a5
   18b50:	01010113          	addi	sp,sp,16
   18b54:	00008067          	ret
   18b58:	00021737          	lui	a4,0x21
   18b5c:	00351913          	slli	s2,a0,0x3
   18b60:	72070713          	addi	a4,a4,1824 # 21720 <__mprec_tens>
   18b64:	01270733          	add	a4,a4,s2
   18b68:	00072783          	lw	a5,0(a4)
   18b6c:	00c12083          	lw	ra,12(sp)
   18b70:	00472583          	lw	a1,4(a4)
   18b74:	00012903          	lw	s2,0(sp)
   18b78:	00078513          	mv	a0,a5
   18b7c:	01010113          	addi	sp,sp,16
   18b80:	00008067          	ret

00018b84 <__copybits>:
   18b84:	01062683          	lw	a3,16(a2)
   18b88:	fff58593          	addi	a1,a1,-1
   18b8c:	4055d593          	srai	a1,a1,0x5
   18b90:	00158593          	addi	a1,a1,1
   18b94:	01460793          	addi	a5,a2,20
   18b98:	00269693          	slli	a3,a3,0x2
   18b9c:	00259593          	slli	a1,a1,0x2
   18ba0:	00d786b3          	add	a3,a5,a3
   18ba4:	00b505b3          	add	a1,a0,a1
   18ba8:	02d7f863          	bgeu	a5,a3,18bd8 <__copybits+0x54>
   18bac:	00050713          	mv	a4,a0
   18bb0:	0007a803          	lw	a6,0(a5)
   18bb4:	00478793          	addi	a5,a5,4
   18bb8:	00470713          	addi	a4,a4,4
   18bbc:	ff072e23          	sw	a6,-4(a4)
   18bc0:	fed7e8e3          	bltu	a5,a3,18bb0 <__copybits+0x2c>
   18bc4:	40c687b3          	sub	a5,a3,a2
   18bc8:	feb78793          	addi	a5,a5,-21
   18bcc:	ffc7f793          	andi	a5,a5,-4
   18bd0:	00478793          	addi	a5,a5,4
   18bd4:	00f50533          	add	a0,a0,a5
   18bd8:	00b57863          	bgeu	a0,a1,18be8 <__copybits+0x64>
   18bdc:	00450513          	addi	a0,a0,4
   18be0:	fe052e23          	sw	zero,-4(a0)
   18be4:	feb56ce3          	bltu	a0,a1,18bdc <__copybits+0x58>
   18be8:	00008067          	ret

00018bec <__any_on>:
   18bec:	01052703          	lw	a4,16(a0)
   18bf0:	4055d613          	srai	a2,a1,0x5
   18bf4:	01450693          	addi	a3,a0,20
   18bf8:	02c75263          	bge	a4,a2,18c1c <__any_on+0x30>
   18bfc:	00271713          	slli	a4,a4,0x2
   18c00:	00e687b3          	add	a5,a3,a4
   18c04:	04f6f263          	bgeu	a3,a5,18c48 <__any_on+0x5c>
   18c08:	ffc7a703          	lw	a4,-4(a5)
   18c0c:	ffc78793          	addi	a5,a5,-4
   18c10:	fe070ae3          	beqz	a4,18c04 <__any_on+0x18>
   18c14:	00100513          	li	a0,1
   18c18:	00008067          	ret
   18c1c:	00261793          	slli	a5,a2,0x2
   18c20:	00f687b3          	add	a5,a3,a5
   18c24:	fee650e3          	bge	a2,a4,18c04 <__any_on+0x18>
   18c28:	01f5f593          	andi	a1,a1,31
   18c2c:	fc058ce3          	beqz	a1,18c04 <__any_on+0x18>
   18c30:	0007a603          	lw	a2,0(a5)
   18c34:	00100513          	li	a0,1
   18c38:	00b65733          	srl	a4,a2,a1
   18c3c:	00b71733          	sll	a4,a4,a1
   18c40:	fce602e3          	beq	a2,a4,18c04 <__any_on+0x18>
   18c44:	00008067          	ret
   18c48:	00000513          	li	a0,0
   18c4c:	00008067          	ret

00018c50 <_realloc_r>:
   18c50:	fd010113          	addi	sp,sp,-48
   18c54:	02912223          	sw	s1,36(sp)
   18c58:	02112623          	sw	ra,44(sp)
   18c5c:	00060493          	mv	s1,a2
   18c60:	1e058863          	beqz	a1,18e50 <_realloc_r+0x200>
   18c64:	02812423          	sw	s0,40(sp)
   18c68:	03212023          	sw	s2,32(sp)
   18c6c:	00058413          	mv	s0,a1
   18c70:	01312e23          	sw	s3,28(sp)
   18c74:	01512a23          	sw	s5,20(sp)
   18c78:	01412c23          	sw	s4,24(sp)
   18c7c:	00050913          	mv	s2,a0
   18c80:	d39f70ef          	jal	109b8 <__malloc_lock>
   18c84:	ffc42703          	lw	a4,-4(s0)
   18c88:	00b48793          	addi	a5,s1,11
   18c8c:	01600693          	li	a3,22
   18c90:	ff840a93          	addi	s5,s0,-8
   18c94:	ffc77993          	andi	s3,a4,-4
   18c98:	10f6f263          	bgeu	a3,a5,18d9c <_realloc_r+0x14c>
   18c9c:	ff87fa13          	andi	s4,a5,-8
   18ca0:	1007c263          	bltz	a5,18da4 <_realloc_r+0x154>
   18ca4:	109a6063          	bltu	s4,s1,18da4 <_realloc_r+0x154>
   18ca8:	1349d263          	bge	s3,s4,18dcc <_realloc_r+0x17c>
   18cac:	000227b7          	lui	a5,0x22
   18cb0:	01812423          	sw	s8,8(sp)
   18cb4:	0c078c13          	addi	s8,a5,192 # 220c0 <__malloc_av_>
   18cb8:	008c2603          	lw	a2,8(s8)
   18cbc:	013a86b3          	add	a3,s5,s3
   18cc0:	0046a783          	lw	a5,4(a3)
   18cc4:	1cd60863          	beq	a2,a3,18e94 <_realloc_r+0x244>
   18cc8:	ffe7f613          	andi	a2,a5,-2
   18ccc:	00c68633          	add	a2,a3,a2
   18cd0:	00462603          	lw	a2,4(a2)
   18cd4:	00167613          	andi	a2,a2,1
   18cd8:	14061a63          	bnez	a2,18e2c <_realloc_r+0x1dc>
   18cdc:	ffc7f793          	andi	a5,a5,-4
   18ce0:	00f98633          	add	a2,s3,a5
   18ce4:	0d465863          	bge	a2,s4,18db4 <_realloc_r+0x164>
   18ce8:	00177713          	andi	a4,a4,1
   18cec:	02071c63          	bnez	a4,18d24 <_realloc_r+0xd4>
   18cf0:	01712623          	sw	s7,12(sp)
   18cf4:	ff842b83          	lw	s7,-8(s0)
   18cf8:	01612823          	sw	s6,16(sp)
   18cfc:	417a8bb3          	sub	s7,s5,s7
   18d00:	004ba703          	lw	a4,4(s7)
   18d04:	ffc77713          	andi	a4,a4,-4
   18d08:	00e787b3          	add	a5,a5,a4
   18d0c:	01378b33          	add	s6,a5,s3
   18d10:	334b5c63          	bge	s6,s4,19048 <_realloc_r+0x3f8>
   18d14:	00e98b33          	add	s6,s3,a4
   18d18:	294b5863          	bge	s6,s4,18fa8 <_realloc_r+0x358>
   18d1c:	01012b03          	lw	s6,16(sp)
   18d20:	00c12b83          	lw	s7,12(sp)
   18d24:	00048593          	mv	a1,s1
   18d28:	00090513          	mv	a0,s2
   18d2c:	cd0f70ef          	jal	101fc <_malloc_r>
   18d30:	00050493          	mv	s1,a0
   18d34:	40050863          	beqz	a0,19144 <_realloc_r+0x4f4>
   18d38:	ffc42783          	lw	a5,-4(s0)
   18d3c:	ff850713          	addi	a4,a0,-8
   18d40:	ffe7f793          	andi	a5,a5,-2
   18d44:	00fa87b3          	add	a5,s5,a5
   18d48:	24e78663          	beq	a5,a4,18f94 <_realloc_r+0x344>
   18d4c:	ffc98613          	addi	a2,s3,-4
   18d50:	02400793          	li	a5,36
   18d54:	2ec7e463          	bltu	a5,a2,1903c <_realloc_r+0x3ec>
   18d58:	01300713          	li	a4,19
   18d5c:	20c76a63          	bltu	a4,a2,18f70 <_realloc_r+0x320>
   18d60:	00050793          	mv	a5,a0
   18d64:	00040713          	mv	a4,s0
   18d68:	00072683          	lw	a3,0(a4)
   18d6c:	00d7a023          	sw	a3,0(a5)
   18d70:	00472683          	lw	a3,4(a4)
   18d74:	00d7a223          	sw	a3,4(a5)
   18d78:	00872703          	lw	a4,8(a4)
   18d7c:	00e7a423          	sw	a4,8(a5)
   18d80:	00040593          	mv	a1,s0
   18d84:	00090513          	mv	a0,s2
   18d88:	905f80ef          	jal	1168c <_free_r>
   18d8c:	00090513          	mv	a0,s2
   18d90:	c2df70ef          	jal	109bc <__malloc_unlock>
   18d94:	00812c03          	lw	s8,8(sp)
   18d98:	06c0006f          	j	18e04 <_realloc_r+0x1b4>
   18d9c:	01000a13          	li	s4,16
   18da0:	f09a74e3          	bgeu	s4,s1,18ca8 <_realloc_r+0x58>
   18da4:	00c00793          	li	a5,12
   18da8:	00f92023          	sw	a5,0(s2)
   18dac:	00000493          	li	s1,0
   18db0:	0540006f          	j	18e04 <_realloc_r+0x1b4>
   18db4:	00c6a783          	lw	a5,12(a3)
   18db8:	0086a703          	lw	a4,8(a3)
   18dbc:	00812c03          	lw	s8,8(sp)
   18dc0:	00060993          	mv	s3,a2
   18dc4:	00f72623          	sw	a5,12(a4)
   18dc8:	00e7a423          	sw	a4,8(a5)
   18dcc:	004aa783          	lw	a5,4(s5)
   18dd0:	414986b3          	sub	a3,s3,s4
   18dd4:	00f00613          	li	a2,15
   18dd8:	0017f793          	andi	a5,a5,1
   18ddc:	013a8733          	add	a4,s5,s3
   18de0:	08d66263          	bltu	a2,a3,18e64 <_realloc_r+0x214>
   18de4:	0137e7b3          	or	a5,a5,s3
   18de8:	00faa223          	sw	a5,4(s5)
   18dec:	00472783          	lw	a5,4(a4)
   18df0:	0017e793          	ori	a5,a5,1
   18df4:	00f72223          	sw	a5,4(a4)
   18df8:	00090513          	mv	a0,s2
   18dfc:	bc1f70ef          	jal	109bc <__malloc_unlock>
   18e00:	00040493          	mv	s1,s0
   18e04:	02812403          	lw	s0,40(sp)
   18e08:	02c12083          	lw	ra,44(sp)
   18e0c:	02012903          	lw	s2,32(sp)
   18e10:	01c12983          	lw	s3,28(sp)
   18e14:	01812a03          	lw	s4,24(sp)
   18e18:	01412a83          	lw	s5,20(sp)
   18e1c:	00048513          	mv	a0,s1
   18e20:	02412483          	lw	s1,36(sp)
   18e24:	03010113          	addi	sp,sp,48
   18e28:	00008067          	ret
   18e2c:	00177713          	andi	a4,a4,1
   18e30:	ee071ae3          	bnez	a4,18d24 <_realloc_r+0xd4>
   18e34:	01712623          	sw	s7,12(sp)
   18e38:	ff842b83          	lw	s7,-8(s0)
   18e3c:	01612823          	sw	s6,16(sp)
   18e40:	417a8bb3          	sub	s7,s5,s7
   18e44:	004ba703          	lw	a4,4(s7)
   18e48:	ffc77713          	andi	a4,a4,-4
   18e4c:	ec9ff06f          	j	18d14 <_realloc_r+0xc4>
   18e50:	02c12083          	lw	ra,44(sp)
   18e54:	02412483          	lw	s1,36(sp)
   18e58:	00060593          	mv	a1,a2
   18e5c:	03010113          	addi	sp,sp,48
   18e60:	b9cf706f          	j	101fc <_malloc_r>
   18e64:	0147e7b3          	or	a5,a5,s4
   18e68:	00faa223          	sw	a5,4(s5)
   18e6c:	014a85b3          	add	a1,s5,s4
   18e70:	0016e693          	ori	a3,a3,1
   18e74:	00d5a223          	sw	a3,4(a1)
   18e78:	00472783          	lw	a5,4(a4)
   18e7c:	00858593          	addi	a1,a1,8
   18e80:	00090513          	mv	a0,s2
   18e84:	0017e793          	ori	a5,a5,1
   18e88:	00f72223          	sw	a5,4(a4)
   18e8c:	801f80ef          	jal	1168c <_free_r>
   18e90:	f69ff06f          	j	18df8 <_realloc_r+0x1a8>
   18e94:	ffc7f793          	andi	a5,a5,-4
   18e98:	013786b3          	add	a3,a5,s3
   18e9c:	010a0613          	addi	a2,s4,16
   18ea0:	26c6d063          	bge	a3,a2,19100 <_realloc_r+0x4b0>
   18ea4:	00177713          	andi	a4,a4,1
   18ea8:	e6071ee3          	bnez	a4,18d24 <_realloc_r+0xd4>
   18eac:	01712623          	sw	s7,12(sp)
   18eb0:	ff842b83          	lw	s7,-8(s0)
   18eb4:	01612823          	sw	s6,16(sp)
   18eb8:	417a8bb3          	sub	s7,s5,s7
   18ebc:	004ba703          	lw	a4,4(s7)
   18ec0:	ffc77713          	andi	a4,a4,-4
   18ec4:	00e787b3          	add	a5,a5,a4
   18ec8:	01378b33          	add	s6,a5,s3
   18ecc:	e4cb44e3          	blt	s6,a2,18d14 <_realloc_r+0xc4>
   18ed0:	00cba783          	lw	a5,12(s7)
   18ed4:	008ba703          	lw	a4,8(s7)
   18ed8:	ffc98613          	addi	a2,s3,-4
   18edc:	02400693          	li	a3,36
   18ee0:	00f72623          	sw	a5,12(a4)
   18ee4:	00e7a423          	sw	a4,8(a5)
   18ee8:	008b8493          	addi	s1,s7,8
   18eec:	28c6e463          	bltu	a3,a2,19174 <_realloc_r+0x524>
   18ef0:	01300713          	li	a4,19
   18ef4:	00048793          	mv	a5,s1
   18ef8:	02c77263          	bgeu	a4,a2,18f1c <_realloc_r+0x2cc>
   18efc:	00042703          	lw	a4,0(s0)
   18f00:	01b00793          	li	a5,27
   18f04:	00eba423          	sw	a4,8(s7)
   18f08:	00442703          	lw	a4,4(s0)
   18f0c:	00eba623          	sw	a4,12(s7)
   18f10:	26c7ea63          	bltu	a5,a2,19184 <_realloc_r+0x534>
   18f14:	00840413          	addi	s0,s0,8
   18f18:	010b8793          	addi	a5,s7,16
   18f1c:	00042703          	lw	a4,0(s0)
   18f20:	00e7a023          	sw	a4,0(a5)
   18f24:	00442703          	lw	a4,4(s0)
   18f28:	00e7a223          	sw	a4,4(a5)
   18f2c:	00842703          	lw	a4,8(s0)
   18f30:	00e7a423          	sw	a4,8(a5)
   18f34:	014b8733          	add	a4,s7,s4
   18f38:	414b0b33          	sub	s6,s6,s4
   18f3c:	00ec2423          	sw	a4,8(s8)
   18f40:	001b6793          	ori	a5,s6,1
   18f44:	00f72223          	sw	a5,4(a4)
   18f48:	004ba783          	lw	a5,4(s7)
   18f4c:	00090513          	mv	a0,s2
   18f50:	0017f793          	andi	a5,a5,1
   18f54:	0147e7b3          	or	a5,a5,s4
   18f58:	00fba223          	sw	a5,4(s7)
   18f5c:	a61f70ef          	jal	109bc <__malloc_unlock>
   18f60:	01012b03          	lw	s6,16(sp)
   18f64:	00c12b83          	lw	s7,12(sp)
   18f68:	00812c03          	lw	s8,8(sp)
   18f6c:	e99ff06f          	j	18e04 <_realloc_r+0x1b4>
   18f70:	00042683          	lw	a3,0(s0)
   18f74:	01b00713          	li	a4,27
   18f78:	00d52023          	sw	a3,0(a0)
   18f7c:	00442683          	lw	a3,4(s0)
   18f80:	00d52223          	sw	a3,4(a0)
   18f84:	14c76e63          	bltu	a4,a2,190e0 <_realloc_r+0x490>
   18f88:	00840713          	addi	a4,s0,8
   18f8c:	00850793          	addi	a5,a0,8
   18f90:	dd9ff06f          	j	18d68 <_realloc_r+0x118>
   18f94:	ffc52783          	lw	a5,-4(a0)
   18f98:	00812c03          	lw	s8,8(sp)
   18f9c:	ffc7f793          	andi	a5,a5,-4
   18fa0:	00f989b3          	add	s3,s3,a5
   18fa4:	e29ff06f          	j	18dcc <_realloc_r+0x17c>
   18fa8:	00cba783          	lw	a5,12(s7)
   18fac:	008ba703          	lw	a4,8(s7)
   18fb0:	ffc98613          	addi	a2,s3,-4
   18fb4:	02400693          	li	a3,36
   18fb8:	00f72623          	sw	a5,12(a4)
   18fbc:	00e7a423          	sw	a4,8(a5)
   18fc0:	008b8493          	addi	s1,s7,8
   18fc4:	10c6e663          	bltu	a3,a2,190d0 <_realloc_r+0x480>
   18fc8:	01300713          	li	a4,19
   18fcc:	00048793          	mv	a5,s1
   18fd0:	02c77c63          	bgeu	a4,a2,19008 <_realloc_r+0x3b8>
   18fd4:	00042703          	lw	a4,0(s0)
   18fd8:	01b00793          	li	a5,27
   18fdc:	00eba423          	sw	a4,8(s7)
   18fe0:	00442703          	lw	a4,4(s0)
   18fe4:	00eba623          	sw	a4,12(s7)
   18fe8:	14c7f863          	bgeu	a5,a2,19138 <_realloc_r+0x4e8>
   18fec:	00842783          	lw	a5,8(s0)
   18ff0:	00fba823          	sw	a5,16(s7)
   18ff4:	00c42783          	lw	a5,12(s0)
   18ff8:	00fbaa23          	sw	a5,20(s7)
   18ffc:	0ad60c63          	beq	a2,a3,190b4 <_realloc_r+0x464>
   19000:	01040413          	addi	s0,s0,16
   19004:	018b8793          	addi	a5,s7,24
   19008:	00042703          	lw	a4,0(s0)
   1900c:	00e7a023          	sw	a4,0(a5)
   19010:	00442703          	lw	a4,4(s0)
   19014:	00e7a223          	sw	a4,4(a5)
   19018:	00842703          	lw	a4,8(s0)
   1901c:	00e7a423          	sw	a4,8(a5)
   19020:	000b0993          	mv	s3,s6
   19024:	000b8a93          	mv	s5,s7
   19028:	01012b03          	lw	s6,16(sp)
   1902c:	00c12b83          	lw	s7,12(sp)
   19030:	00812c03          	lw	s8,8(sp)
   19034:	00048413          	mv	s0,s1
   19038:	d95ff06f          	j	18dcc <_realloc_r+0x17c>
   1903c:	00040593          	mv	a1,s0
   19040:	f8dfb0ef          	jal	14fcc <memmove>
   19044:	d3dff06f          	j	18d80 <_realloc_r+0x130>
   19048:	00c6a783          	lw	a5,12(a3)
   1904c:	0086a703          	lw	a4,8(a3)
   19050:	ffc98613          	addi	a2,s3,-4
   19054:	02400693          	li	a3,36
   19058:	00f72623          	sw	a5,12(a4)
   1905c:	00e7a423          	sw	a4,8(a5)
   19060:	008ba703          	lw	a4,8(s7)
   19064:	00cba783          	lw	a5,12(s7)
   19068:	008b8493          	addi	s1,s7,8
   1906c:	00f72623          	sw	a5,12(a4)
   19070:	00e7a423          	sw	a4,8(a5)
   19074:	04c6ee63          	bltu	a3,a2,190d0 <_realloc_r+0x480>
   19078:	01300713          	li	a4,19
   1907c:	00048793          	mv	a5,s1
   19080:	f8c774e3          	bgeu	a4,a2,19008 <_realloc_r+0x3b8>
   19084:	00042703          	lw	a4,0(s0)
   19088:	01b00793          	li	a5,27
   1908c:	00eba423          	sw	a4,8(s7)
   19090:	00442703          	lw	a4,4(s0)
   19094:	00eba623          	sw	a4,12(s7)
   19098:	0ac7f063          	bgeu	a5,a2,19138 <_realloc_r+0x4e8>
   1909c:	00842703          	lw	a4,8(s0)
   190a0:	02400793          	li	a5,36
   190a4:	00eba823          	sw	a4,16(s7)
   190a8:	00c42703          	lw	a4,12(s0)
   190ac:	00ebaa23          	sw	a4,20(s7)
   190b0:	f4f618e3          	bne	a2,a5,19000 <_realloc_r+0x3b0>
   190b4:	01042703          	lw	a4,16(s0)
   190b8:	020b8793          	addi	a5,s7,32
   190bc:	01840413          	addi	s0,s0,24
   190c0:	00ebac23          	sw	a4,24(s7)
   190c4:	ffc42703          	lw	a4,-4(s0)
   190c8:	00ebae23          	sw	a4,28(s7)
   190cc:	f3dff06f          	j	19008 <_realloc_r+0x3b8>
   190d0:	00040593          	mv	a1,s0
   190d4:	00048513          	mv	a0,s1
   190d8:	ef5fb0ef          	jal	14fcc <memmove>
   190dc:	f45ff06f          	j	19020 <_realloc_r+0x3d0>
   190e0:	00842703          	lw	a4,8(s0)
   190e4:	00e52423          	sw	a4,8(a0)
   190e8:	00c42703          	lw	a4,12(s0)
   190ec:	00e52623          	sw	a4,12(a0)
   190f0:	06f60463          	beq	a2,a5,19158 <_realloc_r+0x508>
   190f4:	01040713          	addi	a4,s0,16
   190f8:	01050793          	addi	a5,a0,16
   190fc:	c6dff06f          	j	18d68 <_realloc_r+0x118>
   19100:	014a8ab3          	add	s5,s5,s4
   19104:	414686b3          	sub	a3,a3,s4
   19108:	015c2423          	sw	s5,8(s8)
   1910c:	0016e793          	ori	a5,a3,1
   19110:	00faa223          	sw	a5,4(s5)
   19114:	ffc42783          	lw	a5,-4(s0)
   19118:	00090513          	mv	a0,s2
   1911c:	00040493          	mv	s1,s0
   19120:	0017f793          	andi	a5,a5,1
   19124:	0147e7b3          	or	a5,a5,s4
   19128:	fef42e23          	sw	a5,-4(s0)
   1912c:	891f70ef          	jal	109bc <__malloc_unlock>
   19130:	00812c03          	lw	s8,8(sp)
   19134:	cd1ff06f          	j	18e04 <_realloc_r+0x1b4>
   19138:	00840413          	addi	s0,s0,8
   1913c:	010b8793          	addi	a5,s7,16
   19140:	ec9ff06f          	j	19008 <_realloc_r+0x3b8>
   19144:	00090513          	mv	a0,s2
   19148:	875f70ef          	jal	109bc <__malloc_unlock>
   1914c:	00000493          	li	s1,0
   19150:	00812c03          	lw	s8,8(sp)
   19154:	cb1ff06f          	j	18e04 <_realloc_r+0x1b4>
   19158:	01042683          	lw	a3,16(s0)
   1915c:	01840713          	addi	a4,s0,24
   19160:	01850793          	addi	a5,a0,24
   19164:	00d52823          	sw	a3,16(a0)
   19168:	01442683          	lw	a3,20(s0)
   1916c:	00d52a23          	sw	a3,20(a0)
   19170:	bf9ff06f          	j	18d68 <_realloc_r+0x118>
   19174:	00040593          	mv	a1,s0
   19178:	00048513          	mv	a0,s1
   1917c:	e51fb0ef          	jal	14fcc <memmove>
   19180:	db5ff06f          	j	18f34 <_realloc_r+0x2e4>
   19184:	00842783          	lw	a5,8(s0)
   19188:	00fba823          	sw	a5,16(s7)
   1918c:	00c42783          	lw	a5,12(s0)
   19190:	00fbaa23          	sw	a5,20(s7)
   19194:	00d60863          	beq	a2,a3,191a4 <_realloc_r+0x554>
   19198:	01040413          	addi	s0,s0,16
   1919c:	018b8793          	addi	a5,s7,24
   191a0:	d7dff06f          	j	18f1c <_realloc_r+0x2cc>
   191a4:	01042703          	lw	a4,16(s0)
   191a8:	020b8793          	addi	a5,s7,32
   191ac:	01840413          	addi	s0,s0,24
   191b0:	00ebac23          	sw	a4,24(s7)
   191b4:	ffc42703          	lw	a4,-4(s0)
   191b8:	00ebae23          	sw	a4,28(s7)
   191bc:	d61ff06f          	j	18f1c <_realloc_r+0x2cc>

000191c0 <__smakebuf_r>:
   191c0:	00c59783          	lh	a5,12(a1)
   191c4:	f8010113          	addi	sp,sp,-128
   191c8:	06812c23          	sw	s0,120(sp)
   191cc:	06112e23          	sw	ra,124(sp)
   191d0:	0027f713          	andi	a4,a5,2
   191d4:	00058413          	mv	s0,a1
   191d8:	02070463          	beqz	a4,19200 <__smakebuf_r+0x40>
   191dc:	04358793          	addi	a5,a1,67
   191e0:	00f5a023          	sw	a5,0(a1)
   191e4:	00f5a823          	sw	a5,16(a1)
   191e8:	00100793          	li	a5,1
   191ec:	00f5aa23          	sw	a5,20(a1)
   191f0:	07c12083          	lw	ra,124(sp)
   191f4:	07812403          	lw	s0,120(sp)
   191f8:	08010113          	addi	sp,sp,128
   191fc:	00008067          	ret
   19200:	00e59583          	lh	a1,14(a1)
   19204:	06912a23          	sw	s1,116(sp)
   19208:	07212823          	sw	s2,112(sp)
   1920c:	07312623          	sw	s3,108(sp)
   19210:	07412423          	sw	s4,104(sp)
   19214:	00050493          	mv	s1,a0
   19218:	0805c663          	bltz	a1,192a4 <__smakebuf_r+0xe4>
   1921c:	00810613          	addi	a2,sp,8
   19220:	318000ef          	jal	19538 <_fstat_r>
   19224:	06054e63          	bltz	a0,192a0 <__smakebuf_r+0xe0>
   19228:	00c12783          	lw	a5,12(sp)
   1922c:	0000f937          	lui	s2,0xf
   19230:	000019b7          	lui	s3,0x1
   19234:	00f97933          	and	s2,s2,a5
   19238:	ffffe7b7          	lui	a5,0xffffe
   1923c:	00f90933          	add	s2,s2,a5
   19240:	00193913          	seqz	s2,s2
   19244:	40000a13          	li	s4,1024
   19248:	80098993          	addi	s3,s3,-2048 # 800 <exit-0xf894>
   1924c:	000a0593          	mv	a1,s4
   19250:	00048513          	mv	a0,s1
   19254:	fa9f60ef          	jal	101fc <_malloc_r>
   19258:	00c41783          	lh	a5,12(s0)
   1925c:	06050863          	beqz	a0,192cc <__smakebuf_r+0x10c>
   19260:	0807e793          	ori	a5,a5,128
   19264:	00a42023          	sw	a0,0(s0)
   19268:	00a42823          	sw	a0,16(s0)
   1926c:	00f41623          	sh	a5,12(s0)
   19270:	01442a23          	sw	s4,20(s0)
   19274:	0a091063          	bnez	s2,19314 <__smakebuf_r+0x154>
   19278:	0137e7b3          	or	a5,a5,s3
   1927c:	07c12083          	lw	ra,124(sp)
   19280:	00f41623          	sh	a5,12(s0)
   19284:	07812403          	lw	s0,120(sp)
   19288:	07412483          	lw	s1,116(sp)
   1928c:	07012903          	lw	s2,112(sp)
   19290:	06c12983          	lw	s3,108(sp)
   19294:	06812a03          	lw	s4,104(sp)
   19298:	08010113          	addi	sp,sp,128
   1929c:	00008067          	ret
   192a0:	00c41783          	lh	a5,12(s0)
   192a4:	0807f793          	andi	a5,a5,128
   192a8:	00000913          	li	s2,0
   192ac:	04078e63          	beqz	a5,19308 <__smakebuf_r+0x148>
   192b0:	04000a13          	li	s4,64
   192b4:	000a0593          	mv	a1,s4
   192b8:	00048513          	mv	a0,s1
   192bc:	f41f60ef          	jal	101fc <_malloc_r>
   192c0:	00c41783          	lh	a5,12(s0)
   192c4:	00000993          	li	s3,0
   192c8:	f8051ce3          	bnez	a0,19260 <__smakebuf_r+0xa0>
   192cc:	2007f713          	andi	a4,a5,512
   192d0:	04071e63          	bnez	a4,1932c <__smakebuf_r+0x16c>
   192d4:	ffc7f793          	andi	a5,a5,-4
   192d8:	0027e793          	ori	a5,a5,2
   192dc:	04340713          	addi	a4,s0,67
   192e0:	00f41623          	sh	a5,12(s0)
   192e4:	00100793          	li	a5,1
   192e8:	07412483          	lw	s1,116(sp)
   192ec:	07012903          	lw	s2,112(sp)
   192f0:	06c12983          	lw	s3,108(sp)
   192f4:	06812a03          	lw	s4,104(sp)
   192f8:	00e42023          	sw	a4,0(s0)
   192fc:	00e42823          	sw	a4,16(s0)
   19300:	00f42a23          	sw	a5,20(s0)
   19304:	eedff06f          	j	191f0 <__smakebuf_r+0x30>
   19308:	40000a13          	li	s4,1024
   1930c:	00000993          	li	s3,0
   19310:	f3dff06f          	j	1924c <__smakebuf_r+0x8c>
   19314:	00e41583          	lh	a1,14(s0)
   19318:	00048513          	mv	a0,s1
   1931c:	280000ef          	jal	1959c <_isatty_r>
   19320:	02051063          	bnez	a0,19340 <__smakebuf_r+0x180>
   19324:	00c41783          	lh	a5,12(s0)
   19328:	f51ff06f          	j	19278 <__smakebuf_r+0xb8>
   1932c:	07412483          	lw	s1,116(sp)
   19330:	07012903          	lw	s2,112(sp)
   19334:	06c12983          	lw	s3,108(sp)
   19338:	06812a03          	lw	s4,104(sp)
   1933c:	eb5ff06f          	j	191f0 <__smakebuf_r+0x30>
   19340:	00c45783          	lhu	a5,12(s0)
   19344:	ffc7f793          	andi	a5,a5,-4
   19348:	0017e793          	ori	a5,a5,1
   1934c:	01079793          	slli	a5,a5,0x10
   19350:	4107d793          	srai	a5,a5,0x10
   19354:	f25ff06f          	j	19278 <__smakebuf_r+0xb8>

00019358 <__swhatbuf_r>:
   19358:	f9010113          	addi	sp,sp,-112
   1935c:	06812423          	sw	s0,104(sp)
   19360:	00058413          	mv	s0,a1
   19364:	00e59583          	lh	a1,14(a1)
   19368:	06912223          	sw	s1,100(sp)
   1936c:	07212023          	sw	s2,96(sp)
   19370:	06112623          	sw	ra,108(sp)
   19374:	00060493          	mv	s1,a2
   19378:	00068913          	mv	s2,a3
   1937c:	0405ca63          	bltz	a1,193d0 <__swhatbuf_r+0x78>
   19380:	00810613          	addi	a2,sp,8
   19384:	1b4000ef          	jal	19538 <_fstat_r>
   19388:	04054463          	bltz	a0,193d0 <__swhatbuf_r+0x78>
   1938c:	00c12703          	lw	a4,12(sp)
   19390:	0000f7b7          	lui	a5,0xf
   19394:	06c12083          	lw	ra,108(sp)
   19398:	00e7f7b3          	and	a5,a5,a4
   1939c:	ffffe737          	lui	a4,0xffffe
   193a0:	00e787b3          	add	a5,a5,a4
   193a4:	06812403          	lw	s0,104(sp)
   193a8:	0017b793          	seqz	a5,a5
   193ac:	00f92023          	sw	a5,0(s2) # f000 <exit-0x1094>
   193b0:	40000713          	li	a4,1024
   193b4:	00e4a023          	sw	a4,0(s1)
   193b8:	00001537          	lui	a0,0x1
   193bc:	06412483          	lw	s1,100(sp)
   193c0:	06012903          	lw	s2,96(sp)
   193c4:	80050513          	addi	a0,a0,-2048 # 800 <exit-0xf894>
   193c8:	07010113          	addi	sp,sp,112
   193cc:	00008067          	ret
   193d0:	00c45783          	lhu	a5,12(s0)
   193d4:	0807f793          	andi	a5,a5,128
   193d8:	02078863          	beqz	a5,19408 <__swhatbuf_r+0xb0>
   193dc:	06c12083          	lw	ra,108(sp)
   193e0:	06812403          	lw	s0,104(sp)
   193e4:	00000793          	li	a5,0
   193e8:	00f92023          	sw	a5,0(s2)
   193ec:	04000713          	li	a4,64
   193f0:	00e4a023          	sw	a4,0(s1)
   193f4:	06012903          	lw	s2,96(sp)
   193f8:	06412483          	lw	s1,100(sp)
   193fc:	00000513          	li	a0,0
   19400:	07010113          	addi	sp,sp,112
   19404:	00008067          	ret
   19408:	06c12083          	lw	ra,108(sp)
   1940c:	06812403          	lw	s0,104(sp)
   19410:	00f92023          	sw	a5,0(s2)
   19414:	40000713          	li	a4,1024
   19418:	00e4a023          	sw	a4,0(s1)
   1941c:	06012903          	lw	s2,96(sp)
   19420:	06412483          	lw	s1,100(sp)
   19424:	00000513          	li	a0,0
   19428:	07010113          	addi	sp,sp,112
   1942c:	00008067          	ret

00019430 <_setlocale_r>:
   19430:	ff010113          	addi	sp,sp,-16
   19434:	00112623          	sw	ra,12(sp)
   19438:	00912223          	sw	s1,4(sp)
   1943c:	02060e63          	beqz	a2,19478 <_setlocale_r+0x48>
   19440:	000215b7          	lui	a1,0x21
   19444:	44058593          	addi	a1,a1,1088 # 21440 <__clzsi2+0x14c>
   19448:	00060513          	mv	a0,a2
   1944c:	00812423          	sw	s0,8(sp)
   19450:	00060413          	mv	s0,a2
   19454:	1a4000ef          	jal	195f8 <strcmp>
   19458:	000214b7          	lui	s1,0x21
   1945c:	02051263          	bnez	a0,19480 <_setlocale_r+0x50>
   19460:	00812403          	lw	s0,8(sp)
   19464:	43c48513          	addi	a0,s1,1084 # 2143c <__clzsi2+0x148>
   19468:	00c12083          	lw	ra,12(sp)
   1946c:	00412483          	lw	s1,4(sp)
   19470:	01010113          	addi	sp,sp,16
   19474:	00008067          	ret
   19478:	000214b7          	lui	s1,0x21
   1947c:	fe9ff06f          	j	19464 <_setlocale_r+0x34>
   19480:	43c48593          	addi	a1,s1,1084 # 2143c <__clzsi2+0x148>
   19484:	00040513          	mv	a0,s0
   19488:	170000ef          	jal	195f8 <strcmp>
   1948c:	fc050ae3          	beqz	a0,19460 <_setlocale_r+0x30>
   19490:	000215b7          	lui	a1,0x21
   19494:	45858593          	addi	a1,a1,1112 # 21458 <__clzsi2+0x164>
   19498:	00040513          	mv	a0,s0
   1949c:	15c000ef          	jal	195f8 <strcmp>
   194a0:	fc0500e3          	beqz	a0,19460 <_setlocale_r+0x30>
   194a4:	00812403          	lw	s0,8(sp)
   194a8:	00000513          	li	a0,0
   194ac:	fbdff06f          	j	19468 <_setlocale_r+0x38>

000194b0 <__locale_mb_cur_max>:
   194b0:	e601c503          	lbu	a0,-416(gp) # 22720 <__global_locale+0x128>
   194b4:	00008067          	ret

000194b8 <setlocale>:
   194b8:	ff010113          	addi	sp,sp,-16
   194bc:	00112623          	sw	ra,12(sp)
   194c0:	00912223          	sw	s1,4(sp)
   194c4:	02058e63          	beqz	a1,19500 <setlocale+0x48>
   194c8:	00812423          	sw	s0,8(sp)
   194cc:	00058413          	mv	s0,a1
   194d0:	000215b7          	lui	a1,0x21
   194d4:	44058593          	addi	a1,a1,1088 # 21440 <__clzsi2+0x14c>
   194d8:	00040513          	mv	a0,s0
   194dc:	11c000ef          	jal	195f8 <strcmp>
   194e0:	000214b7          	lui	s1,0x21
   194e4:	02051263          	bnez	a0,19508 <setlocale+0x50>
   194e8:	00812403          	lw	s0,8(sp)
   194ec:	43c48513          	addi	a0,s1,1084 # 2143c <__clzsi2+0x148>
   194f0:	00c12083          	lw	ra,12(sp)
   194f4:	00412483          	lw	s1,4(sp)
   194f8:	01010113          	addi	sp,sp,16
   194fc:	00008067          	ret
   19500:	000214b7          	lui	s1,0x21
   19504:	fe9ff06f          	j	194ec <setlocale+0x34>
   19508:	43c48593          	addi	a1,s1,1084 # 2143c <__clzsi2+0x148>
   1950c:	00040513          	mv	a0,s0
   19510:	0e8000ef          	jal	195f8 <strcmp>
   19514:	fc050ae3          	beqz	a0,194e8 <setlocale+0x30>
   19518:	000215b7          	lui	a1,0x21
   1951c:	45858593          	addi	a1,a1,1112 # 21458 <__clzsi2+0x164>
   19520:	00040513          	mv	a0,s0
   19524:	0d4000ef          	jal	195f8 <strcmp>
   19528:	fc0500e3          	beqz	a0,194e8 <setlocale+0x30>
   1952c:	00812403          	lw	s0,8(sp)
   19530:	00000513          	li	a0,0
   19534:	fbdff06f          	j	194f0 <setlocale+0x38>

00019538 <_fstat_r>:
   19538:	ff010113          	addi	sp,sp,-16
   1953c:	00058713          	mv	a4,a1
   19540:	00812423          	sw	s0,8(sp)
   19544:	00912223          	sw	s1,4(sp)
   19548:	00050413          	mv	s0,a0
   1954c:	00060593          	mv	a1,a2
   19550:	00070513          	mv	a0,a4
   19554:	00112623          	sw	ra,12(sp)
   19558:	f201a423          	sw	zero,-216(gp) # 227e8 <errno>
   1955c:	59d010ef          	jal	1b2f8 <_fstat>
   19560:	fff00793          	li	a5,-1
   19564:	00f50c63          	beq	a0,a5,1957c <_fstat_r+0x44>
   19568:	00c12083          	lw	ra,12(sp)
   1956c:	00812403          	lw	s0,8(sp)
   19570:	00412483          	lw	s1,4(sp)
   19574:	01010113          	addi	sp,sp,16
   19578:	00008067          	ret
   1957c:	f281a783          	lw	a5,-216(gp) # 227e8 <errno>
   19580:	fe0784e3          	beqz	a5,19568 <_fstat_r+0x30>
   19584:	00c12083          	lw	ra,12(sp)
   19588:	00f42023          	sw	a5,0(s0)
   1958c:	00812403          	lw	s0,8(sp)
   19590:	00412483          	lw	s1,4(sp)
   19594:	01010113          	addi	sp,sp,16
   19598:	00008067          	ret

0001959c <_isatty_r>:
   1959c:	ff010113          	addi	sp,sp,-16
   195a0:	00812423          	sw	s0,8(sp)
   195a4:	00912223          	sw	s1,4(sp)
   195a8:	00050413          	mv	s0,a0
   195ac:	00058513          	mv	a0,a1
   195b0:	00112623          	sw	ra,12(sp)
   195b4:	f201a423          	sw	zero,-216(gp) # 227e8 <errno>
   195b8:	5a9010ef          	jal	1b360 <_isatty>
   195bc:	fff00793          	li	a5,-1
   195c0:	00f50c63          	beq	a0,a5,195d8 <_isatty_r+0x3c>
   195c4:	00c12083          	lw	ra,12(sp)
   195c8:	00812403          	lw	s0,8(sp)
   195cc:	00412483          	lw	s1,4(sp)
   195d0:	01010113          	addi	sp,sp,16
   195d4:	00008067          	ret
   195d8:	f281a783          	lw	a5,-216(gp) # 227e8 <errno>
   195dc:	fe0784e3          	beqz	a5,195c4 <_isatty_r+0x28>
   195e0:	00c12083          	lw	ra,12(sp)
   195e4:	00f42023          	sw	a5,0(s0)
   195e8:	00812403          	lw	s0,8(sp)
   195ec:	00412483          	lw	s1,4(sp)
   195f0:	01010113          	addi	sp,sp,16
   195f4:	00008067          	ret

000195f8 <strcmp>:
   195f8:	00b56733          	or	a4,a0,a1
   195fc:	fff00393          	li	t2,-1
   19600:	00377713          	andi	a4,a4,3
   19604:	10071063          	bnez	a4,19704 <strcmp+0x10c>
   19608:	7f7f87b7          	lui	a5,0x7f7f8
   1960c:	f7f78793          	addi	a5,a5,-129 # 7f7f7f7f <__BSS_END__+0x7f7d547b>
   19610:	00052603          	lw	a2,0(a0)
   19614:	0005a683          	lw	a3,0(a1)
   19618:	00f672b3          	and	t0,a2,a5
   1961c:	00f66333          	or	t1,a2,a5
   19620:	00f282b3          	add	t0,t0,a5
   19624:	0062e2b3          	or	t0,t0,t1
   19628:	10729263          	bne	t0,t2,1972c <strcmp+0x134>
   1962c:	08d61663          	bne	a2,a3,196b8 <strcmp+0xc0>
   19630:	00452603          	lw	a2,4(a0)
   19634:	0045a683          	lw	a3,4(a1)
   19638:	00f672b3          	and	t0,a2,a5
   1963c:	00f66333          	or	t1,a2,a5
   19640:	00f282b3          	add	t0,t0,a5
   19644:	0062e2b3          	or	t0,t0,t1
   19648:	0c729e63          	bne	t0,t2,19724 <strcmp+0x12c>
   1964c:	06d61663          	bne	a2,a3,196b8 <strcmp+0xc0>
   19650:	00852603          	lw	a2,8(a0)
   19654:	0085a683          	lw	a3,8(a1)
   19658:	00f672b3          	and	t0,a2,a5
   1965c:	00f66333          	or	t1,a2,a5
   19660:	00f282b3          	add	t0,t0,a5
   19664:	0062e2b3          	or	t0,t0,t1
   19668:	0c729863          	bne	t0,t2,19738 <strcmp+0x140>
   1966c:	04d61663          	bne	a2,a3,196b8 <strcmp+0xc0>
   19670:	00c52603          	lw	a2,12(a0)
   19674:	00c5a683          	lw	a3,12(a1)
   19678:	00f672b3          	and	t0,a2,a5
   1967c:	00f66333          	or	t1,a2,a5
   19680:	00f282b3          	add	t0,t0,a5
   19684:	0062e2b3          	or	t0,t0,t1
   19688:	0c729263          	bne	t0,t2,1974c <strcmp+0x154>
   1968c:	02d61663          	bne	a2,a3,196b8 <strcmp+0xc0>
   19690:	01052603          	lw	a2,16(a0)
   19694:	0105a683          	lw	a3,16(a1)
   19698:	00f672b3          	and	t0,a2,a5
   1969c:	00f66333          	or	t1,a2,a5
   196a0:	00f282b3          	add	t0,t0,a5
   196a4:	0062e2b3          	or	t0,t0,t1
   196a8:	0a729c63          	bne	t0,t2,19760 <strcmp+0x168>
   196ac:	01450513          	addi	a0,a0,20
   196b0:	01458593          	addi	a1,a1,20
   196b4:	f4d60ee3          	beq	a2,a3,19610 <strcmp+0x18>
   196b8:	01061713          	slli	a4,a2,0x10
   196bc:	01069793          	slli	a5,a3,0x10
   196c0:	00f71e63          	bne	a4,a5,196dc <strcmp+0xe4>
   196c4:	01065713          	srli	a4,a2,0x10
   196c8:	0106d793          	srli	a5,a3,0x10
   196cc:	40f70533          	sub	a0,a4,a5
   196d0:	0ff57593          	zext.b	a1,a0
   196d4:	02059063          	bnez	a1,196f4 <strcmp+0xfc>
   196d8:	00008067          	ret
   196dc:	01075713          	srli	a4,a4,0x10
   196e0:	0107d793          	srli	a5,a5,0x10
   196e4:	40f70533          	sub	a0,a4,a5
   196e8:	0ff57593          	zext.b	a1,a0
   196ec:	00059463          	bnez	a1,196f4 <strcmp+0xfc>
   196f0:	00008067          	ret
   196f4:	0ff77713          	zext.b	a4,a4
   196f8:	0ff7f793          	zext.b	a5,a5
   196fc:	40f70533          	sub	a0,a4,a5
   19700:	00008067          	ret
   19704:	00054603          	lbu	a2,0(a0)
   19708:	0005c683          	lbu	a3,0(a1)
   1970c:	00150513          	addi	a0,a0,1
   19710:	00158593          	addi	a1,a1,1
   19714:	00d61463          	bne	a2,a3,1971c <strcmp+0x124>
   19718:	fe0616e3          	bnez	a2,19704 <strcmp+0x10c>
   1971c:	40d60533          	sub	a0,a2,a3
   19720:	00008067          	ret
   19724:	00450513          	addi	a0,a0,4
   19728:	00458593          	addi	a1,a1,4
   1972c:	fcd61ce3          	bne	a2,a3,19704 <strcmp+0x10c>
   19730:	00000513          	li	a0,0
   19734:	00008067          	ret
   19738:	00850513          	addi	a0,a0,8
   1973c:	00858593          	addi	a1,a1,8
   19740:	fcd612e3          	bne	a2,a3,19704 <strcmp+0x10c>
   19744:	00000513          	li	a0,0
   19748:	00008067          	ret
   1974c:	00c50513          	addi	a0,a0,12
   19750:	00c58593          	addi	a1,a1,12
   19754:	fad618e3          	bne	a2,a3,19704 <strcmp+0x10c>
   19758:	00000513          	li	a0,0
   1975c:	00008067          	ret
   19760:	01050513          	addi	a0,a0,16
   19764:	01058593          	addi	a1,a1,16
   19768:	f8d61ee3          	bne	a2,a3,19704 <strcmp+0x10c>
   1976c:	00000513          	li	a0,0
   19770:	00008067          	ret

00019774 <__assert_func>:
   19774:	f141a703          	lw	a4,-236(gp) # 227d4 <_impure_ptr>
   19778:	ff010113          	addi	sp,sp,-16
   1977c:	00068793          	mv	a5,a3
   19780:	00060813          	mv	a6,a2
   19784:	00112623          	sw	ra,12(sp)
   19788:	00c72883          	lw	a7,12(a4) # ffffe00c <__BSS_END__+0xfffdb508>
   1978c:	00050693          	mv	a3,a0
   19790:	00058713          	mv	a4,a1
   19794:	00078613          	mv	a2,a5
   19798:	02080063          	beqz	a6,197b8 <__assert_func+0x44>
   1979c:	000217b7          	lui	a5,0x21
   197a0:	44c78793          	addi	a5,a5,1100 # 2144c <__clzsi2+0x158>
   197a4:	000215b7          	lui	a1,0x21
   197a8:	45c58593          	addi	a1,a1,1116 # 2145c <__clzsi2+0x168>
   197ac:	00088513          	mv	a0,a7
   197b0:	2c8000ef          	jal	19a78 <fiprintf>
   197b4:	510010ef          	jal	1acc4 <abort>
   197b8:	00021837          	lui	a6,0x21
   197bc:	45880793          	addi	a5,a6,1112 # 21458 <__clzsi2+0x164>
   197c0:	45880813          	addi	a6,a6,1112
   197c4:	fe1ff06f          	j	197a4 <__assert_func+0x30>

000197c8 <__assert>:
   197c8:	ff010113          	addi	sp,sp,-16
   197cc:	00060693          	mv	a3,a2
   197d0:	00000613          	li	a2,0
   197d4:	00112623          	sw	ra,12(sp)
   197d8:	f9dff0ef          	jal	19774 <__assert_func>

000197dc <_calloc_r>:
   197dc:	fe010113          	addi	sp,sp,-32
   197e0:	00812c23          	sw	s0,24(sp)
   197e4:	00112e23          	sw	ra,28(sp)
   197e8:	0105d693          	srli	a3,a1,0x10
   197ec:	00058793          	mv	a5,a1
   197f0:	00050413          	mv	s0,a0
   197f4:	01065713          	srli	a4,a2,0x10
   197f8:	0c069063          	bnez	a3,198b8 <_calloc_r+0xdc>
   197fc:	14071a63          	bnez	a4,19950 <_calloc_r+0x174>
   19800:	01061593          	slli	a1,a2,0x10
   19804:	01079513          	slli	a0,a5,0x10
   19808:	0105d593          	srli	a1,a1,0x10
   1980c:	01055513          	srli	a0,a0,0x10
   19810:	20d070ef          	jal	2121c <__mulsi3>
   19814:	00050593          	mv	a1,a0
   19818:	00040513          	mv	a0,s0
   1981c:	9e1f60ef          	jal	101fc <_malloc_r>
   19820:	00050413          	mv	s0,a0
   19824:	10050a63          	beqz	a0,19938 <_calloc_r+0x15c>
   19828:	ffc52603          	lw	a2,-4(a0)
   1982c:	02400713          	li	a4,36
   19830:	ffc67613          	andi	a2,a2,-4
   19834:	ffc60613          	addi	a2,a2,-4
   19838:	04c76863          	bltu	a4,a2,19888 <_calloc_r+0xac>
   1983c:	01300693          	li	a3,19
   19840:	00050793          	mv	a5,a0
   19844:	02c6f263          	bgeu	a3,a2,19868 <_calloc_r+0x8c>
   19848:	00052023          	sw	zero,0(a0)
   1984c:	00052223          	sw	zero,4(a0)
   19850:	01b00793          	li	a5,27
   19854:	04c7f863          	bgeu	a5,a2,198a4 <_calloc_r+0xc8>
   19858:	00052423          	sw	zero,8(a0)
   1985c:	00052623          	sw	zero,12(a0)
   19860:	01050793          	addi	a5,a0,16
   19864:	10e60263          	beq	a2,a4,19968 <_calloc_r+0x18c>
   19868:	0007a023          	sw	zero,0(a5)
   1986c:	0007a223          	sw	zero,4(a5)
   19870:	0007a423          	sw	zero,8(a5)
   19874:	01c12083          	lw	ra,28(sp)
   19878:	00040513          	mv	a0,s0
   1987c:	01812403          	lw	s0,24(sp)
   19880:	02010113          	addi	sp,sp,32
   19884:	00008067          	ret
   19888:	00000593          	li	a1,0
   1988c:	aa5f70ef          	jal	11330 <memset>
   19890:	01c12083          	lw	ra,28(sp)
   19894:	00040513          	mv	a0,s0
   19898:	01812403          	lw	s0,24(sp)
   1989c:	02010113          	addi	sp,sp,32
   198a0:	00008067          	ret
   198a4:	00850793          	addi	a5,a0,8
   198a8:	0007a023          	sw	zero,0(a5)
   198ac:	0007a223          	sw	zero,4(a5)
   198b0:	0007a423          	sw	zero,8(a5)
   198b4:	fc1ff06f          	j	19874 <_calloc_r+0x98>
   198b8:	0c071663          	bnez	a4,19984 <_calloc_r+0x1a8>
   198bc:	01212823          	sw	s2,16(sp)
   198c0:	01312623          	sw	s3,12(sp)
   198c4:	00912a23          	sw	s1,20(sp)
   198c8:	00068913          	mv	s2,a3
   198cc:	00060993          	mv	s3,a2
   198d0:	01079513          	slli	a0,a5,0x10
   198d4:	01061593          	slli	a1,a2,0x10
   198d8:	0105d593          	srli	a1,a1,0x10
   198dc:	01055513          	srli	a0,a0,0x10
   198e0:	13d070ef          	jal	2121c <__mulsi3>
   198e4:	00050493          	mv	s1,a0
   198e8:	01091593          	slli	a1,s2,0x10
   198ec:	01099513          	slli	a0,s3,0x10
   198f0:	0105d593          	srli	a1,a1,0x10
   198f4:	01055513          	srli	a0,a0,0x10
   198f8:	125070ef          	jal	2121c <__mulsi3>
   198fc:	0104d793          	srli	a5,s1,0x10
   19900:	00f505b3          	add	a1,a0,a5
   19904:	0105d793          	srli	a5,a1,0x10
   19908:	06079863          	bnez	a5,19978 <_calloc_r+0x19c>
   1990c:	01049493          	slli	s1,s1,0x10
   19910:	0104d493          	srli	s1,s1,0x10
   19914:	01059593          	slli	a1,a1,0x10
   19918:	0095e5b3          	or	a1,a1,s1
   1991c:	00040513          	mv	a0,s0
   19920:	01412483          	lw	s1,20(sp)
   19924:	01012903          	lw	s2,16(sp)
   19928:	00c12983          	lw	s3,12(sp)
   1992c:	8d1f60ef          	jal	101fc <_malloc_r>
   19930:	00050413          	mv	s0,a0
   19934:	ee051ae3          	bnez	a0,19828 <_calloc_r+0x4c>
   19938:	00000413          	li	s0,0
   1993c:	01c12083          	lw	ra,28(sp)
   19940:	00040513          	mv	a0,s0
   19944:	01812403          	lw	s0,24(sp)
   19948:	02010113          	addi	sp,sp,32
   1994c:	00008067          	ret
   19950:	01212823          	sw	s2,16(sp)
   19954:	01312623          	sw	s3,12(sp)
   19958:	00912a23          	sw	s1,20(sp)
   1995c:	00070913          	mv	s2,a4
   19960:	00058993          	mv	s3,a1
   19964:	f6dff06f          	j	198d0 <_calloc_r+0xf4>
   19968:	00052823          	sw	zero,16(a0)
   1996c:	01850793          	addi	a5,a0,24
   19970:	00052a23          	sw	zero,20(a0)
   19974:	ef5ff06f          	j	19868 <_calloc_r+0x8c>
   19978:	01412483          	lw	s1,20(sp)
   1997c:	01012903          	lw	s2,16(sp)
   19980:	00c12983          	lw	s3,12(sp)
   19984:	338010ef          	jal	1acbc <__errno>
   19988:	00c00793          	li	a5,12
   1998c:	00f52023          	sw	a5,0(a0)
   19990:	00000413          	li	s0,0
   19994:	fa9ff06f          	j	1993c <_calloc_r+0x160>

00019998 <_mbtowc_r>:
   19998:	e1c1a783          	lw	a5,-484(gp) # 226dc <__global_locale+0xe4>
   1999c:	00078067          	jr	a5

000199a0 <__ascii_mbtowc>:
   199a0:	02058063          	beqz	a1,199c0 <__ascii_mbtowc+0x20>
   199a4:	04060263          	beqz	a2,199e8 <__ascii_mbtowc+0x48>
   199a8:	04068863          	beqz	a3,199f8 <__ascii_mbtowc+0x58>
   199ac:	00064783          	lbu	a5,0(a2)
   199b0:	00f5a023          	sw	a5,0(a1)
   199b4:	00064503          	lbu	a0,0(a2)
   199b8:	00a03533          	snez	a0,a0
   199bc:	00008067          	ret
   199c0:	ff010113          	addi	sp,sp,-16
   199c4:	00c10593          	addi	a1,sp,12
   199c8:	02060463          	beqz	a2,199f0 <__ascii_mbtowc+0x50>
   199cc:	02068a63          	beqz	a3,19a00 <__ascii_mbtowc+0x60>
   199d0:	00064783          	lbu	a5,0(a2)
   199d4:	00f5a023          	sw	a5,0(a1)
   199d8:	00064503          	lbu	a0,0(a2)
   199dc:	00a03533          	snez	a0,a0
   199e0:	01010113          	addi	sp,sp,16
   199e4:	00008067          	ret
   199e8:	00000513          	li	a0,0
   199ec:	00008067          	ret
   199f0:	00000513          	li	a0,0
   199f4:	fedff06f          	j	199e0 <__ascii_mbtowc+0x40>
   199f8:	ffe00513          	li	a0,-2
   199fc:	00008067          	ret
   19a00:	ffe00513          	li	a0,-2
   19a04:	fddff06f          	j	199e0 <__ascii_mbtowc+0x40>

00019a08 <_wctomb_r>:
   19a08:	e181a783          	lw	a5,-488(gp) # 226d8 <__global_locale+0xe0>
   19a0c:	00078067          	jr	a5

00019a10 <__ascii_wctomb>:
   19a10:	02058463          	beqz	a1,19a38 <__ascii_wctomb+0x28>
   19a14:	0ff00793          	li	a5,255
   19a18:	00c7e863          	bltu	a5,a2,19a28 <__ascii_wctomb+0x18>
   19a1c:	00c58023          	sb	a2,0(a1)
   19a20:	00100513          	li	a0,1
   19a24:	00008067          	ret
   19a28:	08a00793          	li	a5,138
   19a2c:	00f52023          	sw	a5,0(a0)
   19a30:	fff00513          	li	a0,-1
   19a34:	00008067          	ret
   19a38:	00000513          	li	a0,0
   19a3c:	00008067          	ret

00019a40 <_fiprintf_r>:
   19a40:	fc010113          	addi	sp,sp,-64
   19a44:	02c10313          	addi	t1,sp,44
   19a48:	02d12623          	sw	a3,44(sp)
   19a4c:	00030693          	mv	a3,t1
   19a50:	00112e23          	sw	ra,28(sp)
   19a54:	02e12823          	sw	a4,48(sp)
   19a58:	02f12a23          	sw	a5,52(sp)
   19a5c:	03012c23          	sw	a6,56(sp)
   19a60:	03112e23          	sw	a7,60(sp)
   19a64:	00612623          	sw	t1,12(sp)
   19a68:	05c000ef          	jal	19ac4 <_vfiprintf_r>
   19a6c:	01c12083          	lw	ra,28(sp)
   19a70:	04010113          	addi	sp,sp,64
   19a74:	00008067          	ret

00019a78 <fiprintf>:
   19a78:	00050e13          	mv	t3,a0
   19a7c:	fc010113          	addi	sp,sp,-64
   19a80:	f141a503          	lw	a0,-236(gp) # 227d4 <_impure_ptr>
   19a84:	02810313          	addi	t1,sp,40
   19a88:	02c12423          	sw	a2,40(sp)
   19a8c:	02d12623          	sw	a3,44(sp)
   19a90:	00058613          	mv	a2,a1
   19a94:	00030693          	mv	a3,t1
   19a98:	000e0593          	mv	a1,t3
   19a9c:	00112e23          	sw	ra,28(sp)
   19aa0:	02e12823          	sw	a4,48(sp)
   19aa4:	02f12a23          	sw	a5,52(sp)
   19aa8:	03012c23          	sw	a6,56(sp)
   19aac:	03112e23          	sw	a7,60(sp)
   19ab0:	00612623          	sw	t1,12(sp)
   19ab4:	010000ef          	jal	19ac4 <_vfiprintf_r>
   19ab8:	01c12083          	lw	ra,28(sp)
   19abc:	04010113          	addi	sp,sp,64
   19ac0:	00008067          	ret

00019ac4 <_vfiprintf_r>:
   19ac4:	ed010113          	addi	sp,sp,-304
   19ac8:	12912223          	sw	s1,292(sp)
   19acc:	13212023          	sw	s2,288(sp)
   19ad0:	11312e23          	sw	s3,284(sp)
   19ad4:	11812423          	sw	s8,264(sp)
   19ad8:	12112623          	sw	ra,300(sp)
   19adc:	11612823          	sw	s6,272(sp)
   19ae0:	00050993          	mv	s3,a0
   19ae4:	00058493          	mv	s1,a1
   19ae8:	00060c13          	mv	s8,a2
   19aec:	00068913          	mv	s2,a3
   19af0:	00050863          	beqz	a0,19b00 <_vfiprintf_r+0x3c>
   19af4:	03452783          	lw	a5,52(a0)
   19af8:	00079463          	bnez	a5,19b00 <_vfiprintf_r+0x3c>
   19afc:	7b10006f          	j	1aaac <_vfiprintf_r+0xfe8>
   19b00:	00c49703          	lh	a4,12(s1)
   19b04:	0644a783          	lw	a5,100(s1)
   19b08:	01271693          	slli	a3,a4,0x12
   19b0c:	0206c063          	bltz	a3,19b2c <_vfiprintf_r+0x68>
   19b10:	ffffe6b7          	lui	a3,0xffffe
   19b14:	fff68693          	addi	a3,a3,-1 # ffffdfff <__BSS_END__+0xfffdb4fb>
   19b18:	00002637          	lui	a2,0x2
   19b1c:	00c76733          	or	a4,a4,a2
   19b20:	00d7f7b3          	and	a5,a5,a3
   19b24:	00e49623          	sh	a4,12(s1)
   19b28:	06f4a223          	sw	a5,100(s1)
   19b2c:	01279713          	slli	a4,a5,0x12
   19b30:	00075463          	bgez	a4,19b38 <_vfiprintf_r+0x74>
   19b34:	0800106f          	j	1abb4 <_vfiprintf_r+0x10f0>
   19b38:	00c49783          	lh	a5,12(s1)
   19b3c:	0087f713          	andi	a4,a5,8
   19b40:	2a070063          	beqz	a4,19de0 <_vfiprintf_r+0x31c>
   19b44:	0104a703          	lw	a4,16(s1)
   19b48:	28070c63          	beqz	a4,19de0 <_vfiprintf_r+0x31c>
   19b4c:	01a7f793          	andi	a5,a5,26
   19b50:	00a00713          	li	a4,10
   19b54:	2ae78663          	beq	a5,a4,19e00 <_vfiprintf_r+0x33c>
   19b58:	00022737          	lui	a4,0x22
   19b5c:	11412c23          	sw	s4,280(sp)
   19b60:	11512a23          	sw	s5,276(sp)
   19b64:	04c10a13          	addi	s4,sp,76
   19b68:	00000b13          	li	s6,0
   19b6c:	8ec70713          	addi	a4,a4,-1812 # 218ec <_ctype_+0x104>
   19b70:	00022ab7          	lui	s5,0x22
   19b74:	12812423          	sw	s0,296(sp)
   19b78:	11912223          	sw	s9,260(sp)
   19b7c:	11712623          	sw	s7,268(sp)
   19b80:	11a12023          	sw	s10,256(sp)
   19b84:	0fb12e23          	sw	s11,252(sp)
   19b88:	05412023          	sw	s4,64(sp)
   19b8c:	04012423          	sw	zero,72(sp)
   19b90:	04012223          	sw	zero,68(sp)
   19b94:	000a0793          	mv	a5,s4
   19b98:	00012223          	sw	zero,4(sp)
   19b9c:	00012c23          	sw	zero,24(sp)
   19ba0:	00012e23          	sw	zero,28(sp)
   19ba4:	02012023          	sw	zero,32(sp)
   19ba8:	00e12023          	sw	a4,0(sp)
   19bac:	01000413          	li	s0,16
   19bb0:	a58a8a93          	addi	s5,s5,-1448 # 21a58 <zeroes.0>
   19bb4:	000b0c93          	mv	s9,s6
   19bb8:	00090813          	mv	a6,s2
   19bbc:	000c4703          	lbu	a4,0(s8)
   19bc0:	1e070063          	beqz	a4,19da0 <_vfiprintf_r+0x2dc>
   19bc4:	000c0b93          	mv	s7,s8
   19bc8:	02500693          	li	a3,37
   19bcc:	26d70663          	beq	a4,a3,19e38 <_vfiprintf_r+0x374>
   19bd0:	001bc703          	lbu	a4,1(s7)
   19bd4:	001b8b93          	addi	s7,s7,1
   19bd8:	fe071ae3          	bnez	a4,19bcc <_vfiprintf_r+0x108>
   19bdc:	418b8933          	sub	s2,s7,s8
   19be0:	1d8b8063          	beq	s7,s8,19da0 <_vfiprintf_r+0x2dc>
   19be4:	04812683          	lw	a3,72(sp)
   19be8:	04412703          	lw	a4,68(sp)
   19bec:	0187a023          	sw	s8,0(a5)
   19bf0:	012686b3          	add	a3,a3,s2
   19bf4:	00170713          	addi	a4,a4,1
   19bf8:	0127a223          	sw	s2,4(a5)
   19bfc:	04d12423          	sw	a3,72(sp)
   19c00:	04e12223          	sw	a4,68(sp)
   19c04:	00700693          	li	a3,7
   19c08:	00878793          	addi	a5,a5,8
   19c0c:	22e6ce63          	blt	a3,a4,19e48 <_vfiprintf_r+0x384>
   19c10:	000bc703          	lbu	a4,0(s7)
   19c14:	012c8cb3          	add	s9,s9,s2
   19c18:	18070463          	beqz	a4,19da0 <_vfiprintf_r+0x2dc>
   19c1c:	00000313          	li	t1,0
   19c20:	001bc703          	lbu	a4,1(s7)
   19c24:	001b8c13          	addi	s8,s7,1
   19c28:	02010da3          	sb	zero,59(sp)
   19c2c:	fff00d13          	li	s10,-1
   19c30:	00000b13          	li	s6,0
   19c34:	05a00913          	li	s2,90
   19c38:	00078b93          	mv	s7,a5
   19c3c:	00030d93          	mv	s11,t1
   19c40:	001c0c13          	addi	s8,s8,1
   19c44:	00070613          	mv	a2,a4
   19c48:	fe060693          	addi	a3,a2,-32 # 1fe0 <exit-0xe0b4>
   19c4c:	04d96663          	bltu	s2,a3,19c98 <_vfiprintf_r+0x1d4>
   19c50:	00012783          	lw	a5,0(sp)
   19c54:	00269693          	slli	a3,a3,0x2
   19c58:	00f686b3          	add	a3,a3,a5
   19c5c:	0006a703          	lw	a4,0(a3)
   19c60:	00070067          	jr	a4
   19c64:	00000b13          	li	s6,0
   19c68:	fd060713          	addi	a4,a2,-48
   19c6c:	00900593          	li	a1,9
   19c70:	000c4603          	lbu	a2,0(s8)
   19c74:	002b1693          	slli	a3,s6,0x2
   19c78:	01668b33          	add	s6,a3,s6
   19c7c:	001b1b13          	slli	s6,s6,0x1
   19c80:	01670b33          	add	s6,a4,s6
   19c84:	fd060713          	addi	a4,a2,-48
   19c88:	001c0c13          	addi	s8,s8,1
   19c8c:	fee5f2e3          	bgeu	a1,a4,19c70 <_vfiprintf_r+0x1ac>
   19c90:	fe060693          	addi	a3,a2,-32
   19c94:	fad97ee3          	bgeu	s2,a3,19c50 <_vfiprintf_r+0x18c>
   19c98:	000b8793          	mv	a5,s7
   19c9c:	000d8313          	mv	t1,s11
   19ca0:	10060063          	beqz	a2,19da0 <_vfiprintf_r+0x2dc>
   19ca4:	08c10623          	sb	a2,140(sp)
   19ca8:	02010da3          	sb	zero,59(sp)
   19cac:	00100d93          	li	s11,1
   19cb0:	00100e93          	li	t4,1
   19cb4:	08c10b93          	addi	s7,sp,140
   19cb8:	00000d13          	li	s10,0
   19cbc:	00000f93          	li	t6,0
   19cc0:	08437293          	andi	t0,t1,132
   19cc4:	04812683          	lw	a3,72(sp)
   19cc8:	04412703          	lw	a4,68(sp)
   19ccc:	00029663          	bnez	t0,19cd8 <_vfiprintf_r+0x214>
   19cd0:	41bb0933          	sub	s2,s6,s11
   19cd4:	1f204ee3          	bgtz	s2,1a6d0 <_vfiprintf_r+0xc0c>
   19cd8:	03b14603          	lbu	a2,59(sp)
   19cdc:	02060863          	beqz	a2,19d0c <_vfiprintf_r+0x248>
   19ce0:	03b10613          	addi	a2,sp,59
   19ce4:	00c7a023          	sw	a2,0(a5)
   19ce8:	00170713          	addi	a4,a4,1
   19cec:	00100613          	li	a2,1
   19cf0:	00168693          	addi	a3,a3,1
   19cf4:	00c7a223          	sw	a2,4(a5)
   19cf8:	04d12423          	sw	a3,72(sp)
   19cfc:	04e12223          	sw	a4,68(sp)
   19d00:	00700613          	li	a2,7
   19d04:	00878793          	addi	a5,a5,8
   19d08:	1ce64863          	blt	a2,a4,19ed8 <_vfiprintf_r+0x414>
   19d0c:	020f8863          	beqz	t6,19d3c <_vfiprintf_r+0x278>
   19d10:	03c10613          	addi	a2,sp,60
   19d14:	00c7a023          	sw	a2,0(a5)
   19d18:	00170713          	addi	a4,a4,1
   19d1c:	00200613          	li	a2,2
   19d20:	00268693          	addi	a3,a3,2
   19d24:	00c7a223          	sw	a2,4(a5)
   19d28:	04d12423          	sw	a3,72(sp)
   19d2c:	04e12223          	sw	a4,68(sp)
   19d30:	00700613          	li	a2,7
   19d34:	00878793          	addi	a5,a5,8
   19d38:	2ae64ae3          	blt	a2,a4,1a7ec <_vfiprintf_r+0xd28>
   19d3c:	08000613          	li	a2,128
   19d40:	70c28663          	beq	t0,a2,1a44c <_vfiprintf_r+0x988>
   19d44:	41dd0d33          	sub	s10,s10,t4
   19d48:	01a046e3          	bgtz	s10,1a554 <_vfiprintf_r+0xa90>
   19d4c:	00de86b3          	add	a3,t4,a3
   19d50:	00170713          	addi	a4,a4,1
   19d54:	0177a023          	sw	s7,0(a5)
   19d58:	01d7a223          	sw	t4,4(a5)
   19d5c:	04d12423          	sw	a3,72(sp)
   19d60:	04e12223          	sw	a4,68(sp)
   19d64:	00700613          	li	a2,7
   19d68:	00878793          	addi	a5,a5,8
   19d6c:	0ce64ee3          	blt	a2,a4,1a648 <_vfiprintf_r+0xb84>
   19d70:	00437313          	andi	t1,t1,4
   19d74:	00030663          	beqz	t1,19d80 <_vfiprintf_r+0x2bc>
   19d78:	41bb0933          	sub	s2,s6,s11
   19d7c:	1b204463          	bgtz	s2,19f24 <_vfiprintf_r+0x460>
   19d80:	01bb5463          	bge	s6,s11,19d88 <_vfiprintf_r+0x2c4>
   19d84:	000d8b13          	mv	s6,s11
   19d88:	016c8cb3          	add	s9,s9,s6
   19d8c:	0e069063          	bnez	a3,19e6c <_vfiprintf_r+0x3a8>
   19d90:	000c4703          	lbu	a4,0(s8)
   19d94:	04012223          	sw	zero,68(sp)
   19d98:	000a0793          	mv	a5,s4
   19d9c:	e20714e3          	bnez	a4,19bc4 <_vfiprintf_r+0x100>
   19da0:	04812783          	lw	a5,72(sp)
   19da4:	000c8b13          	mv	s6,s9
   19da8:	0e078263          	beqz	a5,19e8c <_vfiprintf_r+0x3c8>
   19dac:	04010613          	addi	a2,sp,64
   19db0:	00048593          	mv	a1,s1
   19db4:	00098513          	mv	a0,s3
   19db8:	d54fa0ef          	jal	1430c <__sprint_r>
   19dbc:	0d00006f          	j	19e8c <_vfiprintf_r+0x3c8>
   19dc0:	00082b03          	lw	s6,0(a6)
   19dc4:	00480813          	addi	a6,a6,4
   19dc8:	320b4063          	bltz	s6,1a0e8 <_vfiprintf_r+0x624>
   19dcc:	000c4703          	lbu	a4,0(s8)
   19dd0:	e71ff06f          	j	19c40 <_vfiprintf_r+0x17c>
   19dd4:	000c4703          	lbu	a4,0(s8)
   19dd8:	020ded93          	ori	s11,s11,32
   19ddc:	e65ff06f          	j	19c40 <_vfiprintf_r+0x17c>
   19de0:	00048593          	mv	a1,s1
   19de4:	00098513          	mv	a0,s3
   19de8:	ec1fa0ef          	jal	14ca8 <__swsetup_r>
   19dec:	5c0514e3          	bnez	a0,1abb4 <_vfiprintf_r+0x10f0>
   19df0:	00c49783          	lh	a5,12(s1)
   19df4:	00a00713          	li	a4,10
   19df8:	01a7f793          	andi	a5,a5,26
   19dfc:	d4e79ee3          	bne	a5,a4,19b58 <_vfiprintf_r+0x94>
   19e00:	00e49783          	lh	a5,14(s1)
   19e04:	d407cae3          	bltz	a5,19b58 <_vfiprintf_r+0x94>
   19e08:	12c12083          	lw	ra,300(sp)
   19e0c:	11012b03          	lw	s6,272(sp)
   19e10:	00090693          	mv	a3,s2
   19e14:	000c0613          	mv	a2,s8
   19e18:	12012903          	lw	s2,288(sp)
   19e1c:	10812c03          	lw	s8,264(sp)
   19e20:	00048593          	mv	a1,s1
   19e24:	00098513          	mv	a0,s3
   19e28:	12412483          	lw	s1,292(sp)
   19e2c:	11c12983          	lw	s3,284(sp)
   19e30:	13010113          	addi	sp,sp,304
   19e34:	5bd0006f          	j	1abf0 <__sbprintf>
   19e38:	418b8933          	sub	s2,s7,s8
   19e3c:	db8b94e3          	bne	s7,s8,19be4 <_vfiprintf_r+0x120>
   19e40:	000bc703          	lbu	a4,0(s7)
   19e44:	dd5ff06f          	j	19c18 <_vfiprintf_r+0x154>
   19e48:	04010613          	addi	a2,sp,64
   19e4c:	00048593          	mv	a1,s1
   19e50:	00098513          	mv	a0,s3
   19e54:	01012423          	sw	a6,8(sp)
   19e58:	cb4fa0ef          	jal	1430c <__sprint_r>
   19e5c:	02051663          	bnez	a0,19e88 <_vfiprintf_r+0x3c4>
   19e60:	00812803          	lw	a6,8(sp)
   19e64:	000a0793          	mv	a5,s4
   19e68:	da9ff06f          	j	19c10 <_vfiprintf_r+0x14c>
   19e6c:	04010613          	addi	a2,sp,64
   19e70:	00048593          	mv	a1,s1
   19e74:	00098513          	mv	a0,s3
   19e78:	01012423          	sw	a6,8(sp)
   19e7c:	c90fa0ef          	jal	1430c <__sprint_r>
   19e80:	00812803          	lw	a6,8(sp)
   19e84:	f00506e3          	beqz	a0,19d90 <_vfiprintf_r+0x2cc>
   19e88:	000c8b13          	mv	s6,s9
   19e8c:	00c4d783          	lhu	a5,12(s1)
   19e90:	12812403          	lw	s0,296(sp)
   19e94:	11812a03          	lw	s4,280(sp)
   19e98:	0407f793          	andi	a5,a5,64
   19e9c:	11412a83          	lw	s5,276(sp)
   19ea0:	10c12b83          	lw	s7,268(sp)
   19ea4:	10412c83          	lw	s9,260(sp)
   19ea8:	10012d03          	lw	s10,256(sp)
   19eac:	0fc12d83          	lw	s11,252(sp)
   19eb0:	500792e3          	bnez	a5,1abb4 <_vfiprintf_r+0x10f0>
   19eb4:	12c12083          	lw	ra,300(sp)
   19eb8:	12412483          	lw	s1,292(sp)
   19ebc:	12012903          	lw	s2,288(sp)
   19ec0:	11c12983          	lw	s3,284(sp)
   19ec4:	10812c03          	lw	s8,264(sp)
   19ec8:	000b0513          	mv	a0,s6
   19ecc:	11012b03          	lw	s6,272(sp)
   19ed0:	13010113          	addi	sp,sp,304
   19ed4:	00008067          	ret
   19ed8:	04010613          	addi	a2,sp,64
   19edc:	00048593          	mv	a1,s1
   19ee0:	00098513          	mv	a0,s3
   19ee4:	03012223          	sw	a6,36(sp)
   19ee8:	01d12a23          	sw	t4,20(sp)
   19eec:	00612823          	sw	t1,16(sp)
   19ef0:	00512623          	sw	t0,12(sp)
   19ef4:	01f12423          	sw	t6,8(sp)
   19ef8:	c14fa0ef          	jal	1430c <__sprint_r>
   19efc:	f80516e3          	bnez	a0,19e88 <_vfiprintf_r+0x3c4>
   19f00:	04812683          	lw	a3,72(sp)
   19f04:	04412703          	lw	a4,68(sp)
   19f08:	02412803          	lw	a6,36(sp)
   19f0c:	01412e83          	lw	t4,20(sp)
   19f10:	01012303          	lw	t1,16(sp)
   19f14:	00c12283          	lw	t0,12(sp)
   19f18:	00812f83          	lw	t6,8(sp)
   19f1c:	000a0793          	mv	a5,s4
   19f20:	dedff06f          	j	19d0c <_vfiprintf_r+0x248>
   19f24:	00022e37          	lui	t3,0x22
   19f28:	01000613          	li	a2,16
   19f2c:	04412703          	lw	a4,68(sp)
   19f30:	a68e0e13          	addi	t3,t3,-1432 # 21a68 <blanks.1>
   19f34:	07265c63          	bge	a2,s2,19fac <_vfiprintf_r+0x4e8>
   19f38:	01612423          	sw	s6,8(sp)
   19f3c:	01000b93          	li	s7,16
   19f40:	00700d13          	li	s10,7
   19f44:	01012623          	sw	a6,12(sp)
   19f48:	000e0b13          	mv	s6,t3
   19f4c:	00c0006f          	j	19f58 <_vfiprintf_r+0x494>
   19f50:	ff090913          	addi	s2,s2,-16
   19f54:	052bd663          	bge	s7,s2,19fa0 <_vfiprintf_r+0x4dc>
   19f58:	01068693          	addi	a3,a3,16
   19f5c:	00170713          	addi	a4,a4,1
   19f60:	0167a023          	sw	s6,0(a5)
   19f64:	0177a223          	sw	s7,4(a5)
   19f68:	04d12423          	sw	a3,72(sp)
   19f6c:	04e12223          	sw	a4,68(sp)
   19f70:	00878793          	addi	a5,a5,8
   19f74:	fced5ee3          	bge	s10,a4,19f50 <_vfiprintf_r+0x48c>
   19f78:	04010613          	addi	a2,sp,64
   19f7c:	00048593          	mv	a1,s1
   19f80:	00098513          	mv	a0,s3
   19f84:	b88fa0ef          	jal	1430c <__sprint_r>
   19f88:	f00510e3          	bnez	a0,19e88 <_vfiprintf_r+0x3c4>
   19f8c:	ff090913          	addi	s2,s2,-16
   19f90:	04812683          	lw	a3,72(sp)
   19f94:	04412703          	lw	a4,68(sp)
   19f98:	000a0793          	mv	a5,s4
   19f9c:	fb2bcee3          	blt	s7,s2,19f58 <_vfiprintf_r+0x494>
   19fa0:	000b0e13          	mv	t3,s6
   19fa4:	00c12803          	lw	a6,12(sp)
   19fa8:	00812b03          	lw	s6,8(sp)
   19fac:	012686b3          	add	a3,a3,s2
   19fb0:	00170713          	addi	a4,a4,1
   19fb4:	01c7a023          	sw	t3,0(a5)
   19fb8:	0127a223          	sw	s2,4(a5)
   19fbc:	04d12423          	sw	a3,72(sp)
   19fc0:	04e12223          	sw	a4,68(sp)
   19fc4:	00700793          	li	a5,7
   19fc8:	dae7dce3          	bge	a5,a4,19d80 <_vfiprintf_r+0x2bc>
   19fcc:	04010613          	addi	a2,sp,64
   19fd0:	00048593          	mv	a1,s1
   19fd4:	00098513          	mv	a0,s3
   19fd8:	01012423          	sw	a6,8(sp)
   19fdc:	b30fa0ef          	jal	1430c <__sprint_r>
   19fe0:	ea0514e3          	bnez	a0,19e88 <_vfiprintf_r+0x3c4>
   19fe4:	04812683          	lw	a3,72(sp)
   19fe8:	00812803          	lw	a6,8(sp)
   19fec:	d95ff06f          	j	19d80 <_vfiprintf_r+0x2bc>
   19ff0:	000b8793          	mv	a5,s7
   19ff4:	00082b83          	lw	s7,0(a6)
   19ff8:	02010da3          	sb	zero,59(sp)
   19ffc:	000d8313          	mv	t1,s11
   1a000:	00480913          	addi	s2,a6,4
   1a004:	2e0b80e3          	beqz	s7,1aae4 <_vfiprintf_r+0x1020>
   1a008:	00f12623          	sw	a5,12(sp)
   1a00c:	01b12423          	sw	s11,8(sp)
   1a010:	180d4ee3          	bltz	s10,1a9ac <_vfiprintf_r+0xee8>
   1a014:	000d0613          	mv	a2,s10
   1a018:	00000593          	li	a1,0
   1a01c:	000b8513          	mv	a0,s7
   1a020:	dc9fa0ef          	jal	14de8 <memchr>
   1a024:	00812303          	lw	t1,8(sp)
   1a028:	00c12783          	lw	a5,12(sp)
   1a02c:	000d0e93          	mv	t4,s10
   1a030:	00050463          	beqz	a0,1a038 <_vfiprintf_r+0x574>
   1a034:	41750eb3          	sub	t4,a0,s7
   1a038:	03b14703          	lbu	a4,59(sp)
   1a03c:	fffecd93          	not	s11,t4
   1a040:	41fddd93          	srai	s11,s11,0x1f
   1a044:	01befdb3          	and	s11,t4,s11
   1a048:	00090813          	mv	a6,s2
   1a04c:	00000d13          	li	s10,0
   1a050:	00000f93          	li	t6,0
   1a054:	c60706e3          	beqz	a4,19cc0 <_vfiprintf_r+0x1fc>
   1a058:	001d8d93          	addi	s11,s11,1
   1a05c:	00237f93          	andi	t6,t1,2
   1a060:	c60f80e3          	beqz	t6,19cc0 <_vfiprintf_r+0x1fc>
   1a064:	002d8d93          	addi	s11,s11,2
   1a068:	00200f93          	li	t6,2
   1a06c:	c55ff06f          	j	19cc0 <_vfiprintf_r+0x1fc>
   1a070:	00082703          	lw	a4,0(a6)
   1a074:	000b8793          	mv	a5,s7
   1a078:	000d8313          	mv	t1,s11
   1a07c:	02010da3          	sb	zero,59(sp)
   1a080:	00480813          	addi	a6,a6,4
   1a084:	08e10623          	sb	a4,140(sp)
   1a088:	00100d93          	li	s11,1
   1a08c:	00100e93          	li	t4,1
   1a090:	08c10b93          	addi	s7,sp,140
   1a094:	c25ff06f          	j	19cb8 <_vfiprintf_r+0x1f4>
   1a098:	000d8313          	mv	t1,s11
   1a09c:	02037713          	andi	a4,t1,32
   1a0a0:	000b8793          	mv	a5,s7
   1a0a4:	22070a63          	beqz	a4,1a2d8 <_vfiprintf_r+0x814>
   1a0a8:	00780813          	addi	a6,a6,7
   1a0ac:	ff887813          	andi	a6,a6,-8
   1a0b0:	00482683          	lw	a3,4(a6)
   1a0b4:	00082903          	lw	s2,0(a6)
   1a0b8:	00880813          	addi	a6,a6,8
   1a0bc:	00068d93          	mv	s11,a3
   1a0c0:	2406c263          	bltz	a3,1a304 <_vfiprintf_r+0x840>
   1a0c4:	260d4063          	bltz	s10,1a324 <_vfiprintf_r+0x860>
   1a0c8:	01b966b3          	or	a3,s2,s11
   1a0cc:	f7f37313          	andi	t1,t1,-129
   1a0d0:	24069a63          	bnez	a3,1a324 <_vfiprintf_r+0x860>
   1a0d4:	2c0d1ce3          	bnez	s10,1abac <_vfiprintf_r+0x10e8>
   1a0d8:	00000d93          	li	s11,0
   1a0dc:	00000e93          	li	t4,0
   1a0e0:	0f010b93          	addi	s7,sp,240
   1a0e4:	26c0006f          	j	1a350 <_vfiprintf_r+0x88c>
   1a0e8:	41600b33          	neg	s6,s6
   1a0ec:	000c4703          	lbu	a4,0(s8)
   1a0f0:	004ded93          	ori	s11,s11,4
   1a0f4:	b4dff06f          	j	19c40 <_vfiprintf_r+0x17c>
   1a0f8:	02b00693          	li	a3,43
   1a0fc:	000c4703          	lbu	a4,0(s8)
   1a100:	02d10da3          	sb	a3,59(sp)
   1a104:	b3dff06f          	j	19c40 <_vfiprintf_r+0x17c>
   1a108:	000086b7          	lui	a3,0x8
   1a10c:	83068693          	addi	a3,a3,-2000 # 7830 <exit-0x8864>
   1a110:	02d11e23          	sh	a3,60(sp)
   1a114:	000216b7          	lui	a3,0x21
   1a118:	35468693          	addi	a3,a3,852 # 21354 <__clzsi2+0x60>
   1a11c:	00082703          	lw	a4,0(a6)
   1a120:	000b8793          	mv	a5,s7
   1a124:	00000593          	li	a1,0
   1a128:	002de313          	ori	t1,s11,2
   1a12c:	00480813          	addi	a6,a6,4
   1a130:	00d12223          	sw	a3,4(sp)
   1a134:	02010da3          	sb	zero,59(sp)
   1a138:	540d4663          	bltz	s10,1a684 <_vfiprintf_r+0xbc0>
   1a13c:	00b766b3          	or	a3,a4,a1
   1a140:	f7f37613          	andi	a2,t1,-129
   1a144:	52069a63          	bnez	a3,1a678 <_vfiprintf_r+0xbb4>
   1a148:	00030e93          	mv	t4,t1
   1a14c:	00200713          	li	a4,2
   1a150:	00060313          	mv	t1,a2
   1a154:	0a0d1863          	bnez	s10,1a204 <_vfiprintf_r+0x740>
   1a158:	f80710e3          	bnez	a4,1a0d8 <_vfiprintf_r+0x614>
   1a15c:	001efe93          	andi	t4,t4,1
   1a160:	740e8e63          	beqz	t4,1a8bc <_vfiprintf_r+0xdf8>
   1a164:	03000713          	li	a4,48
   1a168:	0ee107a3          	sb	a4,239(sp)
   1a16c:	000e8d93          	mv	s11,t4
   1a170:	0ef10b93          	addi	s7,sp,239
   1a174:	1dc0006f          	j	1a350 <_vfiprintf_r+0x88c>
   1a178:	020df713          	andi	a4,s11,32
   1a17c:	000b8793          	mv	a5,s7
   1a180:	74071463          	bnez	a4,1a8c8 <_vfiprintf_r+0xe04>
   1a184:	010df713          	andi	a4,s11,16
   1a188:	140716e3          	bnez	a4,1aad4 <_vfiprintf_r+0x1010>
   1a18c:	040df713          	andi	a4,s11,64
   1a190:	1e071ce3          	bnez	a4,1ab88 <_vfiprintf_r+0x10c4>
   1a194:	200df313          	andi	t1,s11,512
   1a198:	12030ee3          	beqz	t1,1aad4 <_vfiprintf_r+0x1010>
   1a19c:	00082703          	lw	a4,0(a6)
   1a1a0:	00480813          	addi	a6,a6,4
   1a1a4:	01970023          	sb	s9,0(a4)
   1a1a8:	a15ff06f          	j	19bbc <_vfiprintf_r+0xf8>
   1a1ac:	000c4703          	lbu	a4,0(s8)
   1a1b0:	06800693          	li	a3,104
   1a1b4:	10d708e3          	beq	a4,a3,1aac4 <_vfiprintf_r+0x1000>
   1a1b8:	040ded93          	ori	s11,s11,64
   1a1bc:	a85ff06f          	j	19c40 <_vfiprintf_r+0x17c>
   1a1c0:	000b8793          	mv	a5,s7
   1a1c4:	010dee93          	ori	t4,s11,16
   1a1c8:	020ef713          	andi	a4,t4,32
   1a1cc:	68070e63          	beqz	a4,1a868 <_vfiprintf_r+0xda4>
   1a1d0:	00780813          	addi	a6,a6,7
   1a1d4:	ff887813          	andi	a6,a6,-8
   1a1d8:	00082903          	lw	s2,0(a6)
   1a1dc:	00482d83          	lw	s11,4(a6)
   1a1e0:	00880813          	addi	a6,a6,8
   1a1e4:	02010da3          	sb	zero,59(sp)
   1a1e8:	000e8313          	mv	t1,t4
   1a1ec:	120d4c63          	bltz	s10,1a324 <_vfiprintf_r+0x860>
   1a1f0:	01b966b3          	or	a3,s2,s11
   1a1f4:	f7fef313          	andi	t1,t4,-129
   1a1f8:	12069663          	bnez	a3,1a324 <_vfiprintf_r+0x860>
   1a1fc:	00100713          	li	a4,1
   1a200:	f40d0ce3          	beqz	s10,1a158 <_vfiprintf_r+0x694>
   1a204:	00100693          	li	a3,1
   1a208:	1ad702e3          	beq	a4,a3,1abac <_vfiprintf_r+0x10e8>
   1a20c:	00200693          	li	a3,2
   1a210:	0ed70ae3          	beq	a4,a3,1ab04 <_vfiprintf_r+0x1040>
   1a214:	00000713          	li	a4,0
   1a218:	00000593          	li	a1,0
   1a21c:	0f010b93          	addi	s7,sp,240
   1a220:	01d59613          	slli	a2,a1,0x1d
   1a224:	00777693          	andi	a3,a4,7
   1a228:	00375713          	srli	a4,a4,0x3
   1a22c:	03068693          	addi	a3,a3,48
   1a230:	00e66733          	or	a4,a2,a4
   1a234:	0035d593          	srli	a1,a1,0x3
   1a238:	fedb8fa3          	sb	a3,-1(s7)
   1a23c:	00b76633          	or	a2,a4,a1
   1a240:	000b8513          	mv	a0,s7
   1a244:	fffb8b93          	addi	s7,s7,-1
   1a248:	fc061ce3          	bnez	a2,1a220 <_vfiprintf_r+0x75c>
   1a24c:	00137713          	andi	a4,t1,1
   1a250:	46070463          	beqz	a4,1a6b8 <_vfiprintf_r+0xbf4>
   1a254:	03000713          	li	a4,48
   1a258:	46e68063          	beq	a3,a4,1a6b8 <_vfiprintf_r+0xbf4>
   1a25c:	ffe50513          	addi	a0,a0,-2
   1a260:	feeb8fa3          	sb	a4,-1(s7)
   1a264:	0f010713          	addi	a4,sp,240
   1a268:	40a70eb3          	sub	t4,a4,a0
   1a26c:	000d0d93          	mv	s11,s10
   1a270:	67dd4863          	blt	s10,t4,1a8e0 <_vfiprintf_r+0xe1c>
   1a274:	00050b93          	mv	s7,a0
   1a278:	0d80006f          	j	1a350 <_vfiprintf_r+0x88c>
   1a27c:	000b8793          	mv	a5,s7
   1a280:	010de693          	ori	a3,s11,16
   1a284:	0206f713          	andi	a4,a3,32
   1a288:	5a070463          	beqz	a4,1a830 <_vfiprintf_r+0xd6c>
   1a28c:	00780813          	addi	a6,a6,7
   1a290:	ff887813          	andi	a6,a6,-8
   1a294:	00082703          	lw	a4,0(a6)
   1a298:	00482583          	lw	a1,4(a6)
   1a29c:	00880813          	addi	a6,a6,8
   1a2a0:	02010da3          	sb	zero,59(sp)
   1a2a4:	bff6f313          	andi	t1,a3,-1025
   1a2a8:	f60d4ae3          	bltz	s10,1a21c <_vfiprintf_r+0x758>
   1a2ac:	00b76633          	or	a2,a4,a1
   1a2b0:	b7f6f693          	andi	a3,a3,-1153
   1a2b4:	7e061463          	bnez	a2,1aa9c <_vfiprintf_r+0xfd8>
   1a2b8:	00030e93          	mv	t4,t1
   1a2bc:	00000713          	li	a4,0
   1a2c0:	00068313          	mv	t1,a3
   1a2c4:	e91ff06f          	j	1a154 <_vfiprintf_r+0x690>
   1a2c8:	010de313          	ori	t1,s11,16
   1a2cc:	02037713          	andi	a4,t1,32
   1a2d0:	000b8793          	mv	a5,s7
   1a2d4:	dc071ae3          	bnez	a4,1a0a8 <_vfiprintf_r+0x5e4>
   1a2d8:	01037693          	andi	a3,t1,16
   1a2dc:	00082703          	lw	a4,0(a6)
   1a2e0:	00480813          	addi	a6,a6,4
   1a2e4:	5c069463          	bnez	a3,1a8ac <_vfiprintf_r+0xde8>
   1a2e8:	04037693          	andi	a3,t1,64
   1a2ec:	5a068c63          	beqz	a3,1a8a4 <_vfiprintf_r+0xde0>
   1a2f0:	01071913          	slli	s2,a4,0x10
   1a2f4:	41095913          	srai	s2,s2,0x10
   1a2f8:	41f95d93          	srai	s11,s2,0x1f
   1a2fc:	000d8693          	mv	a3,s11
   1a300:	dc06d2e3          	bgez	a3,1a0c4 <_vfiprintf_r+0x600>
   1a304:	02d00613          	li	a2,45
   1a308:	012036b3          	snez	a3,s2
   1a30c:	41b00e33          	neg	t3,s11
   1a310:	02c10da3          	sb	a2,59(sp)
   1a314:	40de0db3          	sub	s11,t3,a3
   1a318:	41200933          	neg	s2,s2
   1a31c:	000d4463          	bltz	s10,1a324 <_vfiprintf_r+0x860>
   1a320:	f7f37313          	andi	t1,t1,-129
   1a324:	6a0d9863          	bnez	s11,1a9d4 <_vfiprintf_r+0xf10>
   1a328:	00900693          	li	a3,9
   1a32c:	6b26e463          	bltu	a3,s2,1a9d4 <_vfiprintf_r+0xf10>
   1a330:	03090713          	addi	a4,s2,48
   1a334:	0ff77713          	zext.b	a4,a4
   1a338:	0ee107a3          	sb	a4,239(sp)
   1a33c:	000d0d93          	mv	s11,s10
   1a340:	01a04463          	bgtz	s10,1a348 <_vfiprintf_r+0x884>
   1a344:	00100d93          	li	s11,1
   1a348:	00100e93          	li	t4,1
   1a34c:	0ef10b93          	addi	s7,sp,239
   1a350:	03b14703          	lbu	a4,59(sp)
   1a354:	d00712e3          	bnez	a4,1a058 <_vfiprintf_r+0x594>
   1a358:	d05ff06f          	j	1a05c <_vfiprintf_r+0x598>
   1a35c:	00098513          	mv	a0,s3
   1a360:	01012423          	sw	a6,8(sp)
   1a364:	bfdfa0ef          	jal	14f60 <_localeconv_r>
   1a368:	00452783          	lw	a5,4(a0)
   1a36c:	00078513          	mv	a0,a5
   1a370:	02f12023          	sw	a5,32(sp)
   1a374:	f09fa0ef          	jal	1527c <strlen>
   1a378:	00050713          	mv	a4,a0
   1a37c:	00098513          	mv	a0,s3
   1a380:	00e12e23          	sw	a4,28(sp)
   1a384:	bddfa0ef          	jal	14f60 <_localeconv_r>
   1a388:	00852683          	lw	a3,8(a0)
   1a38c:	01c12783          	lw	a5,28(sp)
   1a390:	00812803          	lw	a6,8(sp)
   1a394:	00d12c23          	sw	a3,24(sp)
   1a398:	a2078ae3          	beqz	a5,19dcc <_vfiprintf_r+0x308>
   1a39c:	01812783          	lw	a5,24(sp)
   1a3a0:	000c4703          	lbu	a4,0(s8)
   1a3a4:	88078ee3          	beqz	a5,19c40 <_vfiprintf_r+0x17c>
   1a3a8:	0007c683          	lbu	a3,0(a5)
   1a3ac:	88068ae3          	beqz	a3,19c40 <_vfiprintf_r+0x17c>
   1a3b0:	400ded93          	ori	s11,s11,1024
   1a3b4:	88dff06f          	j	19c40 <_vfiprintf_r+0x17c>
   1a3b8:	000c4703          	lbu	a4,0(s8)
   1a3bc:	001ded93          	ori	s11,s11,1
   1a3c0:	881ff06f          	j	19c40 <_vfiprintf_r+0x17c>
   1a3c4:	03b14683          	lbu	a3,59(sp)
   1a3c8:	000c4703          	lbu	a4,0(s8)
   1a3cc:	86069ae3          	bnez	a3,19c40 <_vfiprintf_r+0x17c>
   1a3d0:	02000693          	li	a3,32
   1a3d4:	02d10da3          	sb	a3,59(sp)
   1a3d8:	869ff06f          	j	19c40 <_vfiprintf_r+0x17c>
   1a3dc:	000c4703          	lbu	a4,0(s8)
   1a3e0:	080ded93          	ori	s11,s11,128
   1a3e4:	85dff06f          	j	19c40 <_vfiprintf_r+0x17c>
   1a3e8:	000c4603          	lbu	a2,0(s8)
   1a3ec:	02a00713          	li	a4,42
   1a3f0:	001c0593          	addi	a1,s8,1
   1a3f4:	7ce60463          	beq	a2,a4,1abbc <_vfiprintf_r+0x10f8>
   1a3f8:	fd060713          	addi	a4,a2,-48
   1a3fc:	00900693          	li	a3,9
   1a400:	00000d13          	li	s10,0
   1a404:	00900513          	li	a0,9
   1a408:	02e6e463          	bltu	a3,a4,1a430 <_vfiprintf_r+0x96c>
   1a40c:	0005c603          	lbu	a2,0(a1)
   1a410:	002d1693          	slli	a3,s10,0x2
   1a414:	01a68d33          	add	s10,a3,s10
   1a418:	001d1d13          	slli	s10,s10,0x1
   1a41c:	00ed0d33          	add	s10,s10,a4
   1a420:	fd060713          	addi	a4,a2,-48
   1a424:	00158593          	addi	a1,a1,1
   1a428:	fee572e3          	bgeu	a0,a4,1a40c <_vfiprintf_r+0x948>
   1a42c:	4c0d4063          	bltz	s10,1a8ec <_vfiprintf_r+0xe28>
   1a430:	00058c13          	mv	s8,a1
   1a434:	815ff06f          	j	19c48 <_vfiprintf_r+0x184>
   1a438:	000c4703          	lbu	a4,0(s8)
   1a43c:	06c00693          	li	a3,108
   1a440:	66d70a63          	beq	a4,a3,1aab4 <_vfiprintf_r+0xff0>
   1a444:	010ded93          	ori	s11,s11,16
   1a448:	ff8ff06f          	j	19c40 <_vfiprintf_r+0x17c>
   1a44c:	41bb0933          	sub	s2,s6,s11
   1a450:	8f205ae3          	blez	s2,19d44 <_vfiprintf_r+0x280>
   1a454:	00022f37          	lui	t5,0x22
   1a458:	01000613          	li	a2,16
   1a45c:	a58f0f13          	addi	t5,t5,-1448 # 21a58 <zeroes.0>
   1a460:	09265863          	bge	a2,s2,1a4f0 <_vfiprintf_r+0xa2c>
   1a464:	01612423          	sw	s6,8(sp)
   1a468:	01000e13          	li	t3,16
   1a46c:	00700f93          	li	t6,7
   1a470:	00612623          	sw	t1,12(sp)
   1a474:	01d12823          	sw	t4,16(sp)
   1a478:	01012a23          	sw	a6,20(sp)
   1a47c:	000f0b13          	mv	s6,t5
   1a480:	00c0006f          	j	1a48c <_vfiprintf_r+0x9c8>
   1a484:	ff090913          	addi	s2,s2,-16
   1a488:	052e5a63          	bge	t3,s2,1a4dc <_vfiprintf_r+0xa18>
   1a48c:	01068693          	addi	a3,a3,16
   1a490:	00170713          	addi	a4,a4,1
   1a494:	0167a023          	sw	s6,0(a5)
   1a498:	01c7a223          	sw	t3,4(a5)
   1a49c:	04d12423          	sw	a3,72(sp)
   1a4a0:	04e12223          	sw	a4,68(sp)
   1a4a4:	00878793          	addi	a5,a5,8
   1a4a8:	fcefdee3          	bge	t6,a4,1a484 <_vfiprintf_r+0x9c0>
   1a4ac:	04010613          	addi	a2,sp,64
   1a4b0:	00048593          	mv	a1,s1
   1a4b4:	00098513          	mv	a0,s3
   1a4b8:	e55f90ef          	jal	1430c <__sprint_r>
   1a4bc:	9c0516e3          	bnez	a0,19e88 <_vfiprintf_r+0x3c4>
   1a4c0:	01000e13          	li	t3,16
   1a4c4:	ff090913          	addi	s2,s2,-16
   1a4c8:	04812683          	lw	a3,72(sp)
   1a4cc:	04412703          	lw	a4,68(sp)
   1a4d0:	000a0793          	mv	a5,s4
   1a4d4:	00700f93          	li	t6,7
   1a4d8:	fb2e4ae3          	blt	t3,s2,1a48c <_vfiprintf_r+0x9c8>
   1a4dc:	000b0f13          	mv	t5,s6
   1a4e0:	00c12303          	lw	t1,12(sp)
   1a4e4:	01012e83          	lw	t4,16(sp)
   1a4e8:	01412803          	lw	a6,20(sp)
   1a4ec:	00812b03          	lw	s6,8(sp)
   1a4f0:	012686b3          	add	a3,a3,s2
   1a4f4:	00170713          	addi	a4,a4,1
   1a4f8:	01e7a023          	sw	t5,0(a5)
   1a4fc:	0127a223          	sw	s2,4(a5)
   1a500:	04d12423          	sw	a3,72(sp)
   1a504:	04e12223          	sw	a4,68(sp)
   1a508:	00700613          	li	a2,7
   1a50c:	00878793          	addi	a5,a5,8
   1a510:	82e65ae3          	bge	a2,a4,19d44 <_vfiprintf_r+0x280>
   1a514:	04010613          	addi	a2,sp,64
   1a518:	00048593          	mv	a1,s1
   1a51c:	00098513          	mv	a0,s3
   1a520:	01012823          	sw	a6,16(sp)
   1a524:	01d12623          	sw	t4,12(sp)
   1a528:	00612423          	sw	t1,8(sp)
   1a52c:	de1f90ef          	jal	1430c <__sprint_r>
   1a530:	94051ce3          	bnez	a0,19e88 <_vfiprintf_r+0x3c4>
   1a534:	00c12e83          	lw	t4,12(sp)
   1a538:	04812683          	lw	a3,72(sp)
   1a53c:	04412703          	lw	a4,68(sp)
   1a540:	41dd0d33          	sub	s10,s10,t4
   1a544:	01012803          	lw	a6,16(sp)
   1a548:	00812303          	lw	t1,8(sp)
   1a54c:	000a0793          	mv	a5,s4
   1a550:	ffa05e63          	blez	s10,19d4c <_vfiprintf_r+0x288>
   1a554:	00022f37          	lui	t5,0x22
   1a558:	a58f0f13          	addi	t5,t5,-1448 # 21a58 <zeroes.0>
   1a55c:	09a45663          	bge	s0,s10,1a5e8 <_vfiprintf_r+0xb24>
   1a560:	01612423          	sw	s6,8(sp)
   1a564:	00700913          	li	s2,7
   1a568:	000d0b13          	mv	s6,s10
   1a56c:	00612623          	sw	t1,12(sp)
   1a570:	01d12823          	sw	t4,16(sp)
   1a574:	01012a23          	sw	a6,20(sp)
   1a578:	000a8d13          	mv	s10,s5
   1a57c:	00c0006f          	j	1a588 <_vfiprintf_r+0xac4>
   1a580:	ff0b0b13          	addi	s6,s6,-16
   1a584:	05645663          	bge	s0,s6,1a5d0 <_vfiprintf_r+0xb0c>
   1a588:	01068693          	addi	a3,a3,16
   1a58c:	00170713          	addi	a4,a4,1
   1a590:	0157a023          	sw	s5,0(a5)
   1a594:	0087a223          	sw	s0,4(a5)
   1a598:	04d12423          	sw	a3,72(sp)
   1a59c:	04e12223          	sw	a4,68(sp)
   1a5a0:	00878793          	addi	a5,a5,8
   1a5a4:	fce95ee3          	bge	s2,a4,1a580 <_vfiprintf_r+0xabc>
   1a5a8:	04010613          	addi	a2,sp,64
   1a5ac:	00048593          	mv	a1,s1
   1a5b0:	00098513          	mv	a0,s3
   1a5b4:	d59f90ef          	jal	1430c <__sprint_r>
   1a5b8:	8c0518e3          	bnez	a0,19e88 <_vfiprintf_r+0x3c4>
   1a5bc:	ff0b0b13          	addi	s6,s6,-16
   1a5c0:	04812683          	lw	a3,72(sp)
   1a5c4:	04412703          	lw	a4,68(sp)
   1a5c8:	000a0793          	mv	a5,s4
   1a5cc:	fb644ee3          	blt	s0,s6,1a588 <_vfiprintf_r+0xac4>
   1a5d0:	000d0f13          	mv	t5,s10
   1a5d4:	00c12303          	lw	t1,12(sp)
   1a5d8:	000b0d13          	mv	s10,s6
   1a5dc:	01012e83          	lw	t4,16(sp)
   1a5e0:	01412803          	lw	a6,20(sp)
   1a5e4:	00812b03          	lw	s6,8(sp)
   1a5e8:	01a686b3          	add	a3,a3,s10
   1a5ec:	00170713          	addi	a4,a4,1
   1a5f0:	01e7a023          	sw	t5,0(a5)
   1a5f4:	01a7a223          	sw	s10,4(a5)
   1a5f8:	04d12423          	sw	a3,72(sp)
   1a5fc:	04e12223          	sw	a4,68(sp)
   1a600:	00700613          	li	a2,7
   1a604:	00878793          	addi	a5,a5,8
   1a608:	f4e65263          	bge	a2,a4,19d4c <_vfiprintf_r+0x288>
   1a60c:	04010613          	addi	a2,sp,64
   1a610:	00048593          	mv	a1,s1
   1a614:	00098513          	mv	a0,s3
   1a618:	01012823          	sw	a6,16(sp)
   1a61c:	01d12623          	sw	t4,12(sp)
   1a620:	00612423          	sw	t1,8(sp)
   1a624:	ce9f90ef          	jal	1430c <__sprint_r>
   1a628:	860510e3          	bnez	a0,19e88 <_vfiprintf_r+0x3c4>
   1a62c:	04812683          	lw	a3,72(sp)
   1a630:	04412703          	lw	a4,68(sp)
   1a634:	01012803          	lw	a6,16(sp)
   1a638:	00c12e83          	lw	t4,12(sp)
   1a63c:	00812303          	lw	t1,8(sp)
   1a640:	000a0793          	mv	a5,s4
   1a644:	f08ff06f          	j	19d4c <_vfiprintf_r+0x288>
   1a648:	04010613          	addi	a2,sp,64
   1a64c:	00048593          	mv	a1,s1
   1a650:	00098513          	mv	a0,s3
   1a654:	01012623          	sw	a6,12(sp)
   1a658:	00612423          	sw	t1,8(sp)
   1a65c:	cb1f90ef          	jal	1430c <__sprint_r>
   1a660:	820514e3          	bnez	a0,19e88 <_vfiprintf_r+0x3c4>
   1a664:	04812683          	lw	a3,72(sp)
   1a668:	00c12803          	lw	a6,12(sp)
   1a66c:	00812303          	lw	t1,8(sp)
   1a670:	000a0793          	mv	a5,s4
   1a674:	efcff06f          	j	19d70 <_vfiprintf_r+0x2ac>
   1a678:	00200693          	li	a3,2
   1a67c:	00060313          	mv	t1,a2
   1a680:	b8068ee3          	beqz	a3,1a21c <_vfiprintf_r+0x758>
   1a684:	00412503          	lw	a0,4(sp)
   1a688:	0f010b93          	addi	s7,sp,240
   1a68c:	00f77693          	andi	a3,a4,15
   1a690:	00d506b3          	add	a3,a0,a3
   1a694:	0006c603          	lbu	a2,0(a3)
   1a698:	00475713          	srli	a4,a4,0x4
   1a69c:	01c59693          	slli	a3,a1,0x1c
   1a6a0:	00e6e733          	or	a4,a3,a4
   1a6a4:	0045d593          	srli	a1,a1,0x4
   1a6a8:	fecb8fa3          	sb	a2,-1(s7)
   1a6ac:	00b766b3          	or	a3,a4,a1
   1a6b0:	fffb8b93          	addi	s7,s7,-1
   1a6b4:	fc069ce3          	bnez	a3,1a68c <_vfiprintf_r+0xbc8>
   1a6b8:	0f010713          	addi	a4,sp,240
   1a6bc:	41770eb3          	sub	t4,a4,s7
   1a6c0:	000d0d93          	mv	s11,s10
   1a6c4:	c9dd56e3          	bge	s10,t4,1a350 <_vfiprintf_r+0x88c>
   1a6c8:	000e8d93          	mv	s11,t4
   1a6cc:	c85ff06f          	j	1a350 <_vfiprintf_r+0x88c>
   1a6d0:	00022e37          	lui	t3,0x22
   1a6d4:	01000613          	li	a2,16
   1a6d8:	a68e0e13          	addi	t3,t3,-1432 # 21a68 <blanks.1>
   1a6dc:	0b265063          	bge	a2,s2,1a77c <_vfiprintf_r+0xcb8>
   1a6e0:	01612823          	sw	s6,16(sp)
   1a6e4:	01000f13          	li	t5,16
   1a6e8:	00700393          	li	t2,7
   1a6ec:	01f12423          	sw	t6,8(sp)
   1a6f0:	00512623          	sw	t0,12(sp)
   1a6f4:	00612a23          	sw	t1,20(sp)
   1a6f8:	03d12223          	sw	t4,36(sp)
   1a6fc:	03012423          	sw	a6,40(sp)
   1a700:	000e0b13          	mv	s6,t3
   1a704:	00c0006f          	j	1a710 <_vfiprintf_r+0xc4c>
   1a708:	ff090913          	addi	s2,s2,-16
   1a70c:	052f5a63          	bge	t5,s2,1a760 <_vfiprintf_r+0xc9c>
   1a710:	01068693          	addi	a3,a3,16
   1a714:	00170713          	addi	a4,a4,1
   1a718:	0167a023          	sw	s6,0(a5)
   1a71c:	01e7a223          	sw	t5,4(a5)
   1a720:	04d12423          	sw	a3,72(sp)
   1a724:	04e12223          	sw	a4,68(sp)
   1a728:	00878793          	addi	a5,a5,8
   1a72c:	fce3dee3          	bge	t2,a4,1a708 <_vfiprintf_r+0xc44>
   1a730:	04010613          	addi	a2,sp,64
   1a734:	00048593          	mv	a1,s1
   1a738:	00098513          	mv	a0,s3
   1a73c:	bd1f90ef          	jal	1430c <__sprint_r>
   1a740:	f4051463          	bnez	a0,19e88 <_vfiprintf_r+0x3c4>
   1a744:	01000f13          	li	t5,16
   1a748:	ff090913          	addi	s2,s2,-16
   1a74c:	04812683          	lw	a3,72(sp)
   1a750:	04412703          	lw	a4,68(sp)
   1a754:	000a0793          	mv	a5,s4
   1a758:	00700393          	li	t2,7
   1a75c:	fb2f4ae3          	blt	t5,s2,1a710 <_vfiprintf_r+0xc4c>
   1a760:	000b0e13          	mv	t3,s6
   1a764:	00812f83          	lw	t6,8(sp)
   1a768:	00c12283          	lw	t0,12(sp)
   1a76c:	01412303          	lw	t1,20(sp)
   1a770:	02412e83          	lw	t4,36(sp)
   1a774:	02812803          	lw	a6,40(sp)
   1a778:	01012b03          	lw	s6,16(sp)
   1a77c:	012686b3          	add	a3,a3,s2
   1a780:	00170713          	addi	a4,a4,1
   1a784:	01c7a023          	sw	t3,0(a5)
   1a788:	0127a223          	sw	s2,4(a5)
   1a78c:	04d12423          	sw	a3,72(sp)
   1a790:	04e12223          	sw	a4,68(sp)
   1a794:	00700613          	li	a2,7
   1a798:	00878793          	addi	a5,a5,8
   1a79c:	d2e65e63          	bge	a2,a4,19cd8 <_vfiprintf_r+0x214>
   1a7a0:	04010613          	addi	a2,sp,64
   1a7a4:	00048593          	mv	a1,s1
   1a7a8:	00098513          	mv	a0,s3
   1a7ac:	03012223          	sw	a6,36(sp)
   1a7b0:	01d12a23          	sw	t4,20(sp)
   1a7b4:	00612823          	sw	t1,16(sp)
   1a7b8:	00512623          	sw	t0,12(sp)
   1a7bc:	01f12423          	sw	t6,8(sp)
   1a7c0:	b4df90ef          	jal	1430c <__sprint_r>
   1a7c4:	ec051263          	bnez	a0,19e88 <_vfiprintf_r+0x3c4>
   1a7c8:	04812683          	lw	a3,72(sp)
   1a7cc:	04412703          	lw	a4,68(sp)
   1a7d0:	02412803          	lw	a6,36(sp)
   1a7d4:	01412e83          	lw	t4,20(sp)
   1a7d8:	01012303          	lw	t1,16(sp)
   1a7dc:	00c12283          	lw	t0,12(sp)
   1a7e0:	00812f83          	lw	t6,8(sp)
   1a7e4:	000a0793          	mv	a5,s4
   1a7e8:	cf0ff06f          	j	19cd8 <_vfiprintf_r+0x214>
   1a7ec:	04010613          	addi	a2,sp,64
   1a7f0:	00048593          	mv	a1,s1
   1a7f4:	00098513          	mv	a0,s3
   1a7f8:	01012a23          	sw	a6,20(sp)
   1a7fc:	01d12823          	sw	t4,16(sp)
   1a800:	00612623          	sw	t1,12(sp)
   1a804:	00512423          	sw	t0,8(sp)
   1a808:	b05f90ef          	jal	1430c <__sprint_r>
   1a80c:	e6051e63          	bnez	a0,19e88 <_vfiprintf_r+0x3c4>
   1a810:	04812683          	lw	a3,72(sp)
   1a814:	04412703          	lw	a4,68(sp)
   1a818:	01412803          	lw	a6,20(sp)
   1a81c:	01012e83          	lw	t4,16(sp)
   1a820:	00c12303          	lw	t1,12(sp)
   1a824:	00812283          	lw	t0,8(sp)
   1a828:	000a0793          	mv	a5,s4
   1a82c:	d10ff06f          	j	19d3c <_vfiprintf_r+0x278>
   1a830:	0106f613          	andi	a2,a3,16
   1a834:	00082703          	lw	a4,0(a6)
   1a838:	00480813          	addi	a6,a6,4
   1a83c:	02061263          	bnez	a2,1a860 <_vfiprintf_r+0xd9c>
   1a840:	0406f613          	andi	a2,a3,64
   1a844:	00060a63          	beqz	a2,1a858 <_vfiprintf_r+0xd94>
   1a848:	01071713          	slli	a4,a4,0x10
   1a84c:	01075713          	srli	a4,a4,0x10
   1a850:	00000593          	li	a1,0
   1a854:	a4dff06f          	j	1a2a0 <_vfiprintf_r+0x7dc>
   1a858:	2006f613          	andi	a2,a3,512
   1a85c:	30061463          	bnez	a2,1ab64 <_vfiprintf_r+0x10a0>
   1a860:	00000593          	li	a1,0
   1a864:	a3dff06f          	j	1a2a0 <_vfiprintf_r+0x7dc>
   1a868:	010ef693          	andi	a3,t4,16
   1a86c:	00082703          	lw	a4,0(a6)
   1a870:	00480813          	addi	a6,a6,4
   1a874:	02069263          	bnez	a3,1a898 <_vfiprintf_r+0xdd4>
   1a878:	040ef693          	andi	a3,t4,64
   1a87c:	00068a63          	beqz	a3,1a890 <_vfiprintf_r+0xdcc>
   1a880:	01071913          	slli	s2,a4,0x10
   1a884:	01095913          	srli	s2,s2,0x10
   1a888:	00000d93          	li	s11,0
   1a88c:	959ff06f          	j	1a1e4 <_vfiprintf_r+0x720>
   1a890:	200ef693          	andi	a3,t4,512
   1a894:	2c069e63          	bnez	a3,1ab70 <_vfiprintf_r+0x10ac>
   1a898:	00070913          	mv	s2,a4
   1a89c:	00000d93          	li	s11,0
   1a8a0:	945ff06f          	j	1a1e4 <_vfiprintf_r+0x720>
   1a8a4:	20037693          	andi	a3,t1,512
   1a8a8:	2e069863          	bnez	a3,1ab98 <_vfiprintf_r+0x10d4>
   1a8ac:	41f75d93          	srai	s11,a4,0x1f
   1a8b0:	00070913          	mv	s2,a4
   1a8b4:	000d8693          	mv	a3,s11
   1a8b8:	809ff06f          	j	1a0c0 <_vfiprintf_r+0x5fc>
   1a8bc:	00000d93          	li	s11,0
   1a8c0:	0f010b93          	addi	s7,sp,240
   1a8c4:	a8dff06f          	j	1a350 <_vfiprintf_r+0x88c>
   1a8c8:	00082703          	lw	a4,0(a6)
   1a8cc:	41fcd693          	srai	a3,s9,0x1f
   1a8d0:	00480813          	addi	a6,a6,4
   1a8d4:	01972023          	sw	s9,0(a4)
   1a8d8:	00d72223          	sw	a3,4(a4)
   1a8dc:	ae0ff06f          	j	19bbc <_vfiprintf_r+0xf8>
   1a8e0:	000e8d93          	mv	s11,t4
   1a8e4:	00050b93          	mv	s7,a0
   1a8e8:	a69ff06f          	j	1a350 <_vfiprintf_r+0x88c>
   1a8ec:	fff00d13          	li	s10,-1
   1a8f0:	00058c13          	mv	s8,a1
   1a8f4:	b54ff06f          	j	19c48 <_vfiprintf_r+0x184>
   1a8f8:	00021737          	lui	a4,0x21
   1a8fc:	36870713          	addi	a4,a4,872 # 21368 <__clzsi2+0x74>
   1a900:	000d8313          	mv	t1,s11
   1a904:	00e12223          	sw	a4,4(sp)
   1a908:	02037713          	andi	a4,t1,32
   1a90c:	000b8793          	mv	a5,s7
   1a910:	06070a63          	beqz	a4,1a984 <_vfiprintf_r+0xec0>
   1a914:	00780813          	addi	a6,a6,7
   1a918:	ff887813          	andi	a6,a6,-8
   1a91c:	00082703          	lw	a4,0(a6)
   1a920:	00482583          	lw	a1,4(a6)
   1a924:	00880813          	addi	a6,a6,8
   1a928:	00137693          	andi	a3,t1,1
   1a92c:	00068e63          	beqz	a3,1a948 <_vfiprintf_r+0xe84>
   1a930:	00b766b3          	or	a3,a4,a1
   1a934:	00068a63          	beqz	a3,1a948 <_vfiprintf_r+0xe84>
   1a938:	03000693          	li	a3,48
   1a93c:	02d10e23          	sb	a3,60(sp)
   1a940:	02c10ea3          	sb	a2,61(sp)
   1a944:	00236313          	ori	t1,t1,2
   1a948:	bff37313          	andi	t1,t1,-1025
   1a94c:	fe8ff06f          	j	1a134 <_vfiprintf_r+0x670>
   1a950:	000b8793          	mv	a5,s7
   1a954:	000d8e93          	mv	t4,s11
   1a958:	871ff06f          	j	1a1c8 <_vfiprintf_r+0x704>
   1a95c:	000b8793          	mv	a5,s7
   1a960:	000d8693          	mv	a3,s11
   1a964:	921ff06f          	j	1a284 <_vfiprintf_r+0x7c0>
   1a968:	00021737          	lui	a4,0x21
   1a96c:	35470713          	addi	a4,a4,852 # 21354 <__clzsi2+0x60>
   1a970:	000d8313          	mv	t1,s11
   1a974:	00e12223          	sw	a4,4(sp)
   1a978:	02037713          	andi	a4,t1,32
   1a97c:	000b8793          	mv	a5,s7
   1a980:	f8071ae3          	bnez	a4,1a914 <_vfiprintf_r+0xe50>
   1a984:	01037693          	andi	a3,t1,16
   1a988:	00082703          	lw	a4,0(a6)
   1a98c:	00480813          	addi	a6,a6,4
   1a990:	02069e63          	bnez	a3,1a9cc <_vfiprintf_r+0xf08>
   1a994:	04037693          	andi	a3,t1,64
   1a998:	02068663          	beqz	a3,1a9c4 <_vfiprintf_r+0xf00>
   1a99c:	01071713          	slli	a4,a4,0x10
   1a9a0:	01075713          	srli	a4,a4,0x10
   1a9a4:	00000593          	li	a1,0
   1a9a8:	f81ff06f          	j	1a928 <_vfiprintf_r+0xe64>
   1a9ac:	000b8513          	mv	a0,s7
   1a9b0:	8cdfa0ef          	jal	1527c <strlen>
   1a9b4:	00812303          	lw	t1,8(sp)
   1a9b8:	00c12783          	lw	a5,12(sp)
   1a9bc:	00050e93          	mv	t4,a0
   1a9c0:	e78ff06f          	j	1a038 <_vfiprintf_r+0x574>
   1a9c4:	20037693          	andi	a3,t1,512
   1a9c8:	1a069a63          	bnez	a3,1ab7c <_vfiprintf_r+0x10b8>
   1a9cc:	00000593          	li	a1,0
   1a9d0:	f59ff06f          	j	1a928 <_vfiprintf_r+0xe64>
   1a9d4:	40037713          	andi	a4,t1,1024
   1a9d8:	00000693          	li	a3,0
   1a9dc:	0f010e93          	addi	t4,sp,240
   1a9e0:	01612423          	sw	s6,8(sp)
   1a9e4:	01a12623          	sw	s10,12(sp)
   1a9e8:	03912223          	sw	s9,36(sp)
   1a9ec:	02912423          	sw	s1,40(sp)
   1a9f0:	01812d03          	lw	s10,24(sp)
   1a9f4:	00f12823          	sw	a5,16(sp)
   1a9f8:	00612a23          	sw	t1,20(sp)
   1a9fc:	00068b13          	mv	s6,a3
   1aa00:	00070c93          	mv	s9,a4
   1aa04:	000e8493          	mv	s1,t4
   1aa08:	03012623          	sw	a6,44(sp)
   1aa0c:	0280006f          	j	1aa34 <_vfiprintf_r+0xf70>
   1aa10:	00a00613          	li	a2,10
   1aa14:	00000693          	li	a3,0
   1aa18:	00090513          	mv	a0,s2
   1aa1c:	000d8593          	mv	a1,s11
   1aa20:	391000ef          	jal	1b5b0 <__udivdi3>
   1aa24:	120d8663          	beqz	s11,1ab50 <_vfiprintf_r+0x108c>
   1aa28:	00050913          	mv	s2,a0
   1aa2c:	00058d93          	mv	s11,a1
   1aa30:	000b8493          	mv	s1,s7
   1aa34:	00a00613          	li	a2,10
   1aa38:	00000693          	li	a3,0
   1aa3c:	00090513          	mv	a0,s2
   1aa40:	000d8593          	mv	a1,s11
   1aa44:	130010ef          	jal	1bb74 <__umoddi3>
   1aa48:	03050513          	addi	a0,a0,48
   1aa4c:	fea48fa3          	sb	a0,-1(s1)
   1aa50:	fff48b93          	addi	s7,s1,-1
   1aa54:	001b0b13          	addi	s6,s6,1
   1aa58:	fa0c8ce3          	beqz	s9,1aa10 <_vfiprintf_r+0xf4c>
   1aa5c:	000d4783          	lbu	a5,0(s10)
   1aa60:	fb6798e3          	bne	a5,s6,1aa10 <_vfiprintf_r+0xf4c>
   1aa64:	0ff00793          	li	a5,255
   1aa68:	fafb04e3          	beq	s6,a5,1aa10 <_vfiprintf_r+0xf4c>
   1aa6c:	0a0d9263          	bnez	s11,1ab10 <_vfiprintf_r+0x104c>
   1aa70:	00900793          	li	a5,9
   1aa74:	0927ee63          	bltu	a5,s2,1ab10 <_vfiprintf_r+0x104c>
   1aa78:	01a12c23          	sw	s10,24(sp)
   1aa7c:	00812b03          	lw	s6,8(sp)
   1aa80:	00c12d03          	lw	s10,12(sp)
   1aa84:	01012783          	lw	a5,16(sp)
   1aa88:	01412303          	lw	t1,20(sp)
   1aa8c:	02412c83          	lw	s9,36(sp)
   1aa90:	02812483          	lw	s1,40(sp)
   1aa94:	02c12803          	lw	a6,44(sp)
   1aa98:	c21ff06f          	j	1a6b8 <_vfiprintf_r+0xbf4>
   1aa9c:	00068313          	mv	t1,a3
   1aaa0:	00000693          	li	a3,0
   1aaa4:	f6068c63          	beqz	a3,1a21c <_vfiprintf_r+0x758>
   1aaa8:	bddff06f          	j	1a684 <_vfiprintf_r+0xbc0>
   1aaac:	a14f60ef          	jal	10cc0 <__sinit>
   1aab0:	850ff06f          	j	19b00 <_vfiprintf_r+0x3c>
   1aab4:	001c4703          	lbu	a4,1(s8)
   1aab8:	020ded93          	ori	s11,s11,32
   1aabc:	001c0c13          	addi	s8,s8,1
   1aac0:	980ff06f          	j	19c40 <_vfiprintf_r+0x17c>
   1aac4:	001c4703          	lbu	a4,1(s8)
   1aac8:	200ded93          	ori	s11,s11,512
   1aacc:	001c0c13          	addi	s8,s8,1
   1aad0:	970ff06f          	j	19c40 <_vfiprintf_r+0x17c>
   1aad4:	00082703          	lw	a4,0(a6)
   1aad8:	00480813          	addi	a6,a6,4
   1aadc:	01972023          	sw	s9,0(a4)
   1aae0:	8dcff06f          	j	19bbc <_vfiprintf_r+0xf8>
   1aae4:	00600713          	li	a4,6
   1aae8:	000d0e93          	mv	t4,s10
   1aaec:	07a76863          	bltu	a4,s10,1ab5c <_vfiprintf_r+0x1098>
   1aaf0:	00021bb7          	lui	s7,0x21
   1aaf4:	000e8d93          	mv	s11,t4
   1aaf8:	00090813          	mv	a6,s2
   1aafc:	37cb8b93          	addi	s7,s7,892 # 2137c <__clzsi2+0x88>
   1ab00:	9b8ff06f          	j	19cb8 <_vfiprintf_r+0x1f4>
   1ab04:	00000713          	li	a4,0
   1ab08:	00000593          	li	a1,0
   1ab0c:	b79ff06f          	j	1a684 <_vfiprintf_r+0xbc0>
   1ab10:	01c12783          	lw	a5,28(sp)
   1ab14:	02012583          	lw	a1,32(sp)
   1ab18:	00000b13          	li	s6,0
   1ab1c:	40fb8bb3          	sub	s7,s7,a5
   1ab20:	00078613          	mv	a2,a5
   1ab24:	000b8513          	mv	a0,s7
   1ab28:	b84fa0ef          	jal	14eac <strncpy>
   1ab2c:	001d4783          	lbu	a5,1(s10)
   1ab30:	00a00613          	li	a2,10
   1ab34:	00000693          	li	a3,0
   1ab38:	00f037b3          	snez	a5,a5
   1ab3c:	00090513          	mv	a0,s2
   1ab40:	000d8593          	mv	a1,s11
   1ab44:	00fd0d33          	add	s10,s10,a5
   1ab48:	269000ef          	jal	1b5b0 <__udivdi3>
   1ab4c:	eddff06f          	j	1aa28 <_vfiprintf_r+0xf64>
   1ab50:	00900793          	li	a5,9
   1ab54:	ed27eae3          	bltu	a5,s2,1aa28 <_vfiprintf_r+0xf64>
   1ab58:	f21ff06f          	j	1aa78 <_vfiprintf_r+0xfb4>
   1ab5c:	00600e93          	li	t4,6
   1ab60:	f91ff06f          	j	1aaf0 <_vfiprintf_r+0x102c>
   1ab64:	0ff77713          	zext.b	a4,a4
   1ab68:	00000593          	li	a1,0
   1ab6c:	f34ff06f          	j	1a2a0 <_vfiprintf_r+0x7dc>
   1ab70:	0ff77913          	zext.b	s2,a4
   1ab74:	00000d93          	li	s11,0
   1ab78:	e6cff06f          	j	1a1e4 <_vfiprintf_r+0x720>
   1ab7c:	0ff77713          	zext.b	a4,a4
   1ab80:	00000593          	li	a1,0
   1ab84:	da5ff06f          	j	1a928 <_vfiprintf_r+0xe64>
   1ab88:	00082703          	lw	a4,0(a6)
   1ab8c:	00480813          	addi	a6,a6,4
   1ab90:	01971023          	sh	s9,0(a4)
   1ab94:	828ff06f          	j	19bbc <_vfiprintf_r+0xf8>
   1ab98:	01871913          	slli	s2,a4,0x18
   1ab9c:	41895913          	srai	s2,s2,0x18
   1aba0:	41f95d93          	srai	s11,s2,0x1f
   1aba4:	000d8693          	mv	a3,s11
   1aba8:	d18ff06f          	j	1a0c0 <_vfiprintf_r+0x5fc>
   1abac:	03000713          	li	a4,48
   1abb0:	f88ff06f          	j	1a338 <_vfiprintf_r+0x874>
   1abb4:	fff00b13          	li	s6,-1
   1abb8:	afcff06f          	j	19eb4 <_vfiprintf_r+0x3f0>
   1abbc:	00082d03          	lw	s10,0(a6)
   1abc0:	00480813          	addi	a6,a6,4
   1abc4:	000d5463          	bgez	s10,1abcc <_vfiprintf_r+0x1108>
   1abc8:	fff00d13          	li	s10,-1
   1abcc:	001c4703          	lbu	a4,1(s8)
   1abd0:	00058c13          	mv	s8,a1
   1abd4:	86cff06f          	j	19c40 <_vfiprintf_r+0x17c>

0001abd8 <vfiprintf>:
   1abd8:	00050793          	mv	a5,a0
   1abdc:	f141a503          	lw	a0,-236(gp) # 227d4 <_impure_ptr>
   1abe0:	00060693          	mv	a3,a2
   1abe4:	00058613          	mv	a2,a1
   1abe8:	00078593          	mv	a1,a5
   1abec:	ed9fe06f          	j	19ac4 <_vfiprintf_r>

0001abf0 <__sbprintf>:
   1abf0:	b8010113          	addi	sp,sp,-1152
   1abf4:	00c59783          	lh	a5,12(a1)
   1abf8:	00e5d703          	lhu	a4,14(a1)
   1abfc:	46812c23          	sw	s0,1144(sp)
   1ac00:	00058413          	mv	s0,a1
   1ac04:	000105b7          	lui	a1,0x10
   1ac08:	ffd58593          	addi	a1,a1,-3 # fffd <exit-0x97>
   1ac0c:	06442e03          	lw	t3,100(s0)
   1ac10:	01c42303          	lw	t1,28(s0)
   1ac14:	02442883          	lw	a7,36(s0)
   1ac18:	01071713          	slli	a4,a4,0x10
   1ac1c:	00b7f7b3          	and	a5,a5,a1
   1ac20:	00e7e7b3          	or	a5,a5,a4
   1ac24:	40000813          	li	a6,1024
   1ac28:	00f12a23          	sw	a5,20(sp)
   1ac2c:	00810593          	addi	a1,sp,8
   1ac30:	07010793          	addi	a5,sp,112
   1ac34:	46912a23          	sw	s1,1140(sp)
   1ac38:	47212823          	sw	s2,1136(sp)
   1ac3c:	46112e23          	sw	ra,1148(sp)
   1ac40:	00050913          	mv	s2,a0
   1ac44:	07c12623          	sw	t3,108(sp)
   1ac48:	02612223          	sw	t1,36(sp)
   1ac4c:	03112623          	sw	a7,44(sp)
   1ac50:	00f12423          	sw	a5,8(sp)
   1ac54:	00f12c23          	sw	a5,24(sp)
   1ac58:	01012823          	sw	a6,16(sp)
   1ac5c:	01012e23          	sw	a6,28(sp)
   1ac60:	02012023          	sw	zero,32(sp)
   1ac64:	e61fe0ef          	jal	19ac4 <_vfiprintf_r>
   1ac68:	00050493          	mv	s1,a0
   1ac6c:	02055c63          	bgez	a0,1aca4 <__sbprintf+0xb4>
   1ac70:	01415783          	lhu	a5,20(sp)
   1ac74:	0407f793          	andi	a5,a5,64
   1ac78:	00078863          	beqz	a5,1ac88 <__sbprintf+0x98>
   1ac7c:	00c45783          	lhu	a5,12(s0)
   1ac80:	0407e793          	ori	a5,a5,64
   1ac84:	00f41623          	sh	a5,12(s0)
   1ac88:	47c12083          	lw	ra,1148(sp)
   1ac8c:	47812403          	lw	s0,1144(sp)
   1ac90:	47012903          	lw	s2,1136(sp)
   1ac94:	00048513          	mv	a0,s1
   1ac98:	47412483          	lw	s1,1140(sp)
   1ac9c:	48010113          	addi	sp,sp,1152
   1aca0:	00008067          	ret
   1aca4:	00810593          	addi	a1,sp,8
   1aca8:	00090513          	mv	a0,s2
   1acac:	a0df90ef          	jal	146b8 <_fflush_r>
   1acb0:	fc0500e3          	beqz	a0,1ac70 <__sbprintf+0x80>
   1acb4:	fff00493          	li	s1,-1
   1acb8:	fb9ff06f          	j	1ac70 <__sbprintf+0x80>

0001acbc <__errno>:
   1acbc:	f141a503          	lw	a0,-236(gp) # 227d4 <_impure_ptr>
   1acc0:	00008067          	ret

0001acc4 <abort>:
   1acc4:	ff010113          	addi	sp,sp,-16
   1acc8:	00600513          	li	a0,6
   1accc:	00112623          	sw	ra,12(sp)
   1acd0:	2a8000ef          	jal	1af78 <raise>
   1acd4:	00100513          	li	a0,1
   1acd8:	5f0000ef          	jal	1b2c8 <_exit>

0001acdc <_init_signal_r>:
   1acdc:	11852783          	lw	a5,280(a0)
   1ace0:	00078663          	beqz	a5,1acec <_init_signal_r+0x10>
   1ace4:	00000513          	li	a0,0
   1ace8:	00008067          	ret
   1acec:	ff010113          	addi	sp,sp,-16
   1acf0:	08000593          	li	a1,128
   1acf4:	00812423          	sw	s0,8(sp)
   1acf8:	00112623          	sw	ra,12(sp)
   1acfc:	00050413          	mv	s0,a0
   1ad00:	cfcf50ef          	jal	101fc <_malloc_r>
   1ad04:	10a42c23          	sw	a0,280(s0)
   1ad08:	02050463          	beqz	a0,1ad30 <_init_signal_r+0x54>
   1ad0c:	08050793          	addi	a5,a0,128
   1ad10:	00052023          	sw	zero,0(a0)
   1ad14:	00450513          	addi	a0,a0,4
   1ad18:	fef51ce3          	bne	a0,a5,1ad10 <_init_signal_r+0x34>
   1ad1c:	00000513          	li	a0,0
   1ad20:	00c12083          	lw	ra,12(sp)
   1ad24:	00812403          	lw	s0,8(sp)
   1ad28:	01010113          	addi	sp,sp,16
   1ad2c:	00008067          	ret
   1ad30:	fff00513          	li	a0,-1
   1ad34:	fedff06f          	j	1ad20 <_init_signal_r+0x44>

0001ad38 <_signal_r>:
   1ad38:	fe010113          	addi	sp,sp,-32
   1ad3c:	00912a23          	sw	s1,20(sp)
   1ad40:	00112e23          	sw	ra,28(sp)
   1ad44:	01f00793          	li	a5,31
   1ad48:	00050493          	mv	s1,a0
   1ad4c:	02b7ec63          	bltu	a5,a1,1ad84 <_signal_r+0x4c>
   1ad50:	11852783          	lw	a5,280(a0)
   1ad54:	00812c23          	sw	s0,24(sp)
   1ad58:	00058413          	mv	s0,a1
   1ad5c:	02078c63          	beqz	a5,1ad94 <_signal_r+0x5c>
   1ad60:	00241413          	slli	s0,s0,0x2
   1ad64:	008787b3          	add	a5,a5,s0
   1ad68:	01812403          	lw	s0,24(sp)
   1ad6c:	0007a503          	lw	a0,0(a5)
   1ad70:	00c7a023          	sw	a2,0(a5)
   1ad74:	01c12083          	lw	ra,28(sp)
   1ad78:	01412483          	lw	s1,20(sp)
   1ad7c:	02010113          	addi	sp,sp,32
   1ad80:	00008067          	ret
   1ad84:	01600793          	li	a5,22
   1ad88:	00f52023          	sw	a5,0(a0)
   1ad8c:	fff00513          	li	a0,-1
   1ad90:	fe5ff06f          	j	1ad74 <_signal_r+0x3c>
   1ad94:	08000593          	li	a1,128
   1ad98:	00c12623          	sw	a2,12(sp)
   1ad9c:	c60f50ef          	jal	101fc <_malloc_r>
   1ada0:	10a4ac23          	sw	a0,280(s1)
   1ada4:	00c12603          	lw	a2,12(sp)
   1ada8:	00050793          	mv	a5,a0
   1adac:	00050713          	mv	a4,a0
   1adb0:	08050693          	addi	a3,a0,128
   1adb4:	00050a63          	beqz	a0,1adc8 <_signal_r+0x90>
   1adb8:	00072023          	sw	zero,0(a4)
   1adbc:	00470713          	addi	a4,a4,4
   1adc0:	fed71ce3          	bne	a4,a3,1adb8 <_signal_r+0x80>
   1adc4:	f9dff06f          	j	1ad60 <_signal_r+0x28>
   1adc8:	01812403          	lw	s0,24(sp)
   1adcc:	fff00513          	li	a0,-1
   1add0:	fa5ff06f          	j	1ad74 <_signal_r+0x3c>

0001add4 <_raise_r>:
   1add4:	ff010113          	addi	sp,sp,-16
   1add8:	00912223          	sw	s1,4(sp)
   1addc:	00112623          	sw	ra,12(sp)
   1ade0:	01f00793          	li	a5,31
   1ade4:	00050493          	mv	s1,a0
   1ade8:	0ab7e063          	bltu	a5,a1,1ae88 <_raise_r+0xb4>
   1adec:	11852783          	lw	a5,280(a0)
   1adf0:	00812423          	sw	s0,8(sp)
   1adf4:	00058413          	mv	s0,a1
   1adf8:	04078463          	beqz	a5,1ae40 <_raise_r+0x6c>
   1adfc:	00259713          	slli	a4,a1,0x2
   1ae00:	00e787b3          	add	a5,a5,a4
   1ae04:	0007a703          	lw	a4,0(a5)
   1ae08:	02070c63          	beqz	a4,1ae40 <_raise_r+0x6c>
   1ae0c:	00100693          	li	a3,1
   1ae10:	00d70c63          	beq	a4,a3,1ae28 <_raise_r+0x54>
   1ae14:	fff00693          	li	a3,-1
   1ae18:	04d70863          	beq	a4,a3,1ae68 <_raise_r+0x94>
   1ae1c:	0007a023          	sw	zero,0(a5)
   1ae20:	00058513          	mv	a0,a1
   1ae24:	000700e7          	jalr	a4
   1ae28:	00812403          	lw	s0,8(sp)
   1ae2c:	00000513          	li	a0,0
   1ae30:	00c12083          	lw	ra,12(sp)
   1ae34:	00412483          	lw	s1,4(sp)
   1ae38:	01010113          	addi	sp,sp,16
   1ae3c:	00008067          	ret
   1ae40:	00048513          	mv	a0,s1
   1ae44:	43c000ef          	jal	1b280 <_getpid_r>
   1ae48:	00040613          	mv	a2,s0
   1ae4c:	00812403          	lw	s0,8(sp)
   1ae50:	00c12083          	lw	ra,12(sp)
   1ae54:	00050593          	mv	a1,a0
   1ae58:	00048513          	mv	a0,s1
   1ae5c:	00412483          	lw	s1,4(sp)
   1ae60:	01010113          	addi	sp,sp,16
   1ae64:	3b80006f          	j	1b21c <_kill_r>
   1ae68:	00812403          	lw	s0,8(sp)
   1ae6c:	00c12083          	lw	ra,12(sp)
   1ae70:	01600793          	li	a5,22
   1ae74:	00f52023          	sw	a5,0(a0)
   1ae78:	00412483          	lw	s1,4(sp)
   1ae7c:	00100513          	li	a0,1
   1ae80:	01010113          	addi	sp,sp,16
   1ae84:	00008067          	ret
   1ae88:	01600793          	li	a5,22
   1ae8c:	00f52023          	sw	a5,0(a0)
   1ae90:	fff00513          	li	a0,-1
   1ae94:	f9dff06f          	j	1ae30 <_raise_r+0x5c>

0001ae98 <__sigtramp_r>:
   1ae98:	01f00793          	li	a5,31
   1ae9c:	0cb7ea63          	bltu	a5,a1,1af70 <__sigtramp_r+0xd8>
   1aea0:	11852783          	lw	a5,280(a0)
   1aea4:	ff010113          	addi	sp,sp,-16
   1aea8:	00812423          	sw	s0,8(sp)
   1aeac:	00912223          	sw	s1,4(sp)
   1aeb0:	00112623          	sw	ra,12(sp)
   1aeb4:	00058413          	mv	s0,a1
   1aeb8:	00050493          	mv	s1,a0
   1aebc:	08078063          	beqz	a5,1af3c <__sigtramp_r+0xa4>
   1aec0:	00241713          	slli	a4,s0,0x2
   1aec4:	00e787b3          	add	a5,a5,a4
   1aec8:	0007a703          	lw	a4,0(a5)
   1aecc:	02070c63          	beqz	a4,1af04 <__sigtramp_r+0x6c>
   1aed0:	fff00693          	li	a3,-1
   1aed4:	06d70063          	beq	a4,a3,1af34 <__sigtramp_r+0x9c>
   1aed8:	00100693          	li	a3,1
   1aedc:	04d70063          	beq	a4,a3,1af1c <__sigtramp_r+0x84>
   1aee0:	00040513          	mv	a0,s0
   1aee4:	0007a023          	sw	zero,0(a5)
   1aee8:	000700e7          	jalr	a4
   1aeec:	00000513          	li	a0,0
   1aef0:	00c12083          	lw	ra,12(sp)
   1aef4:	00812403          	lw	s0,8(sp)
   1aef8:	00412483          	lw	s1,4(sp)
   1aefc:	01010113          	addi	sp,sp,16
   1af00:	00008067          	ret
   1af04:	00c12083          	lw	ra,12(sp)
   1af08:	00812403          	lw	s0,8(sp)
   1af0c:	00412483          	lw	s1,4(sp)
   1af10:	00100513          	li	a0,1
   1af14:	01010113          	addi	sp,sp,16
   1af18:	00008067          	ret
   1af1c:	00c12083          	lw	ra,12(sp)
   1af20:	00812403          	lw	s0,8(sp)
   1af24:	00412483          	lw	s1,4(sp)
   1af28:	00300513          	li	a0,3
   1af2c:	01010113          	addi	sp,sp,16
   1af30:	00008067          	ret
   1af34:	00200513          	li	a0,2
   1af38:	fb9ff06f          	j	1aef0 <__sigtramp_r+0x58>
   1af3c:	08000593          	li	a1,128
   1af40:	abcf50ef          	jal	101fc <_malloc_r>
   1af44:	10a4ac23          	sw	a0,280(s1)
   1af48:	00050793          	mv	a5,a0
   1af4c:	00050e63          	beqz	a0,1af68 <__sigtramp_r+0xd0>
   1af50:	00050713          	mv	a4,a0
   1af54:	08050693          	addi	a3,a0,128
   1af58:	00072023          	sw	zero,0(a4)
   1af5c:	00470713          	addi	a4,a4,4
   1af60:	fed71ce3          	bne	a4,a3,1af58 <__sigtramp_r+0xc0>
   1af64:	f5dff06f          	j	1aec0 <__sigtramp_r+0x28>
   1af68:	fff00513          	li	a0,-1
   1af6c:	f85ff06f          	j	1aef0 <__sigtramp_r+0x58>
   1af70:	fff00513          	li	a0,-1
   1af74:	00008067          	ret

0001af78 <raise>:
   1af78:	ff010113          	addi	sp,sp,-16
   1af7c:	00912223          	sw	s1,4(sp)
   1af80:	00112623          	sw	ra,12(sp)
   1af84:	01f00793          	li	a5,31
   1af88:	f141a483          	lw	s1,-236(gp) # 227d4 <_impure_ptr>
   1af8c:	08a7ee63          	bltu	a5,a0,1b028 <raise+0xb0>
   1af90:	1184a783          	lw	a5,280(s1)
   1af94:	00812423          	sw	s0,8(sp)
   1af98:	00050413          	mv	s0,a0
   1af9c:	04078263          	beqz	a5,1afe0 <raise+0x68>
   1afa0:	00251713          	slli	a4,a0,0x2
   1afa4:	00e787b3          	add	a5,a5,a4
   1afa8:	0007a703          	lw	a4,0(a5)
   1afac:	02070a63          	beqz	a4,1afe0 <raise+0x68>
   1afb0:	00100693          	li	a3,1
   1afb4:	00d70a63          	beq	a4,a3,1afc8 <raise+0x50>
   1afb8:	fff00693          	li	a3,-1
   1afbc:	04d70663          	beq	a4,a3,1b008 <raise+0x90>
   1afc0:	0007a023          	sw	zero,0(a5)
   1afc4:	000700e7          	jalr	a4
   1afc8:	00812403          	lw	s0,8(sp)
   1afcc:	00000513          	li	a0,0
   1afd0:	00c12083          	lw	ra,12(sp)
   1afd4:	00412483          	lw	s1,4(sp)
   1afd8:	01010113          	addi	sp,sp,16
   1afdc:	00008067          	ret
   1afe0:	00048513          	mv	a0,s1
   1afe4:	29c000ef          	jal	1b280 <_getpid_r>
   1afe8:	00040613          	mv	a2,s0
   1afec:	00812403          	lw	s0,8(sp)
   1aff0:	00c12083          	lw	ra,12(sp)
   1aff4:	00050593          	mv	a1,a0
   1aff8:	00048513          	mv	a0,s1
   1affc:	00412483          	lw	s1,4(sp)
   1b000:	01010113          	addi	sp,sp,16
   1b004:	2180006f          	j	1b21c <_kill_r>
   1b008:	00812403          	lw	s0,8(sp)
   1b00c:	00c12083          	lw	ra,12(sp)
   1b010:	01600793          	li	a5,22
   1b014:	00f4a023          	sw	a5,0(s1)
   1b018:	00100513          	li	a0,1
   1b01c:	00412483          	lw	s1,4(sp)
   1b020:	01010113          	addi	sp,sp,16
   1b024:	00008067          	ret
   1b028:	01600793          	li	a5,22
   1b02c:	00f4a023          	sw	a5,0(s1)
   1b030:	fff00513          	li	a0,-1
   1b034:	f9dff06f          	j	1afd0 <raise+0x58>

0001b038 <signal>:
   1b038:	ff010113          	addi	sp,sp,-16
   1b03c:	01212023          	sw	s2,0(sp)
   1b040:	00112623          	sw	ra,12(sp)
   1b044:	01f00793          	li	a5,31
   1b048:	f141a903          	lw	s2,-236(gp) # 227d4 <_impure_ptr>
   1b04c:	04a7e263          	bltu	a5,a0,1b090 <signal+0x58>
   1b050:	00812423          	sw	s0,8(sp)
   1b054:	00050413          	mv	s0,a0
   1b058:	11892503          	lw	a0,280(s2)
   1b05c:	00912223          	sw	s1,4(sp)
   1b060:	00058493          	mv	s1,a1
   1b064:	02050e63          	beqz	a0,1b0a0 <signal+0x68>
   1b068:	00241413          	slli	s0,s0,0x2
   1b06c:	008507b3          	add	a5,a0,s0
   1b070:	0007a503          	lw	a0,0(a5)
   1b074:	00812403          	lw	s0,8(sp)
   1b078:	0097a023          	sw	s1,0(a5)
   1b07c:	00412483          	lw	s1,4(sp)
   1b080:	00c12083          	lw	ra,12(sp)
   1b084:	00012903          	lw	s2,0(sp)
   1b088:	01010113          	addi	sp,sp,16
   1b08c:	00008067          	ret
   1b090:	01600793          	li	a5,22
   1b094:	00f92023          	sw	a5,0(s2)
   1b098:	fff00513          	li	a0,-1
   1b09c:	fe5ff06f          	j	1b080 <signal+0x48>
   1b0a0:	08000593          	li	a1,128
   1b0a4:	00090513          	mv	a0,s2
   1b0a8:	954f50ef          	jal	101fc <_malloc_r>
   1b0ac:	10a92c23          	sw	a0,280(s2)
   1b0b0:	00050793          	mv	a5,a0
   1b0b4:	08050713          	addi	a4,a0,128
   1b0b8:	00050a63          	beqz	a0,1b0cc <signal+0x94>
   1b0bc:	0007a023          	sw	zero,0(a5)
   1b0c0:	00478793          	addi	a5,a5,4
   1b0c4:	fef71ce3          	bne	a4,a5,1b0bc <signal+0x84>
   1b0c8:	fa1ff06f          	j	1b068 <signal+0x30>
   1b0cc:	00812403          	lw	s0,8(sp)
   1b0d0:	00412483          	lw	s1,4(sp)
   1b0d4:	fff00513          	li	a0,-1
   1b0d8:	fa9ff06f          	j	1b080 <signal+0x48>

0001b0dc <_init_signal>:
   1b0dc:	ff010113          	addi	sp,sp,-16
   1b0e0:	00812423          	sw	s0,8(sp)
   1b0e4:	f141a403          	lw	s0,-236(gp) # 227d4 <_impure_ptr>
   1b0e8:	00112623          	sw	ra,12(sp)
   1b0ec:	11842783          	lw	a5,280(s0)
   1b0f0:	00078c63          	beqz	a5,1b108 <_init_signal+0x2c>
   1b0f4:	00000513          	li	a0,0
   1b0f8:	00c12083          	lw	ra,12(sp)
   1b0fc:	00812403          	lw	s0,8(sp)
   1b100:	01010113          	addi	sp,sp,16
   1b104:	00008067          	ret
   1b108:	08000593          	li	a1,128
   1b10c:	00040513          	mv	a0,s0
   1b110:	8ecf50ef          	jal	101fc <_malloc_r>
   1b114:	10a42c23          	sw	a0,280(s0)
   1b118:	00050c63          	beqz	a0,1b130 <_init_signal+0x54>
   1b11c:	08050793          	addi	a5,a0,128
   1b120:	00052023          	sw	zero,0(a0)
   1b124:	00450513          	addi	a0,a0,4
   1b128:	fef51ce3          	bne	a0,a5,1b120 <_init_signal+0x44>
   1b12c:	fc9ff06f          	j	1b0f4 <_init_signal+0x18>
   1b130:	fff00513          	li	a0,-1
   1b134:	fc5ff06f          	j	1b0f8 <_init_signal+0x1c>

0001b138 <__sigtramp>:
   1b138:	ff010113          	addi	sp,sp,-16
   1b13c:	00912223          	sw	s1,4(sp)
   1b140:	00112623          	sw	ra,12(sp)
   1b144:	01f00793          	li	a5,31
   1b148:	f141a483          	lw	s1,-236(gp) # 227d4 <_impure_ptr>
   1b14c:	0ca7e463          	bltu	a5,a0,1b214 <__sigtramp+0xdc>
   1b150:	1184a783          	lw	a5,280(s1)
   1b154:	00812423          	sw	s0,8(sp)
   1b158:	00050413          	mv	s0,a0
   1b15c:	08078263          	beqz	a5,1b1e0 <__sigtramp+0xa8>
   1b160:	00241713          	slli	a4,s0,0x2
   1b164:	00e787b3          	add	a5,a5,a4
   1b168:	0007a703          	lw	a4,0(a5)
   1b16c:	02070c63          	beqz	a4,1b1a4 <__sigtramp+0x6c>
   1b170:	fff00693          	li	a3,-1
   1b174:	06d70063          	beq	a4,a3,1b1d4 <__sigtramp+0x9c>
   1b178:	00100693          	li	a3,1
   1b17c:	04d70063          	beq	a4,a3,1b1bc <__sigtramp+0x84>
   1b180:	00040513          	mv	a0,s0
   1b184:	0007a023          	sw	zero,0(a5)
   1b188:	000700e7          	jalr	a4
   1b18c:	00812403          	lw	s0,8(sp)
   1b190:	00000513          	li	a0,0
   1b194:	00c12083          	lw	ra,12(sp)
   1b198:	00412483          	lw	s1,4(sp)
   1b19c:	01010113          	addi	sp,sp,16
   1b1a0:	00008067          	ret
   1b1a4:	00812403          	lw	s0,8(sp)
   1b1a8:	00c12083          	lw	ra,12(sp)
   1b1ac:	00412483          	lw	s1,4(sp)
   1b1b0:	00100513          	li	a0,1
   1b1b4:	01010113          	addi	sp,sp,16
   1b1b8:	00008067          	ret
   1b1bc:	00812403          	lw	s0,8(sp)
   1b1c0:	00c12083          	lw	ra,12(sp)
   1b1c4:	00412483          	lw	s1,4(sp)
   1b1c8:	00300513          	li	a0,3
   1b1cc:	01010113          	addi	sp,sp,16
   1b1d0:	00008067          	ret
   1b1d4:	00812403          	lw	s0,8(sp)
   1b1d8:	00200513          	li	a0,2
   1b1dc:	fb9ff06f          	j	1b194 <__sigtramp+0x5c>
   1b1e0:	08000593          	li	a1,128
   1b1e4:	00048513          	mv	a0,s1
   1b1e8:	814f50ef          	jal	101fc <_malloc_r>
   1b1ec:	10a4ac23          	sw	a0,280(s1)
   1b1f0:	00050793          	mv	a5,a0
   1b1f4:	00050e63          	beqz	a0,1b210 <__sigtramp+0xd8>
   1b1f8:	00050713          	mv	a4,a0
   1b1fc:	08050693          	addi	a3,a0,128
   1b200:	00072023          	sw	zero,0(a4)
   1b204:	00470713          	addi	a4,a4,4
   1b208:	fee69ce3          	bne	a3,a4,1b200 <__sigtramp+0xc8>
   1b20c:	f55ff06f          	j	1b160 <__sigtramp+0x28>
   1b210:	00812403          	lw	s0,8(sp)
   1b214:	fff00513          	li	a0,-1
   1b218:	f7dff06f          	j	1b194 <__sigtramp+0x5c>

0001b21c <_kill_r>:
   1b21c:	ff010113          	addi	sp,sp,-16
   1b220:	00058713          	mv	a4,a1
   1b224:	00812423          	sw	s0,8(sp)
   1b228:	00912223          	sw	s1,4(sp)
   1b22c:	00050413          	mv	s0,a0
   1b230:	00060593          	mv	a1,a2
   1b234:	00070513          	mv	a0,a4
   1b238:	00112623          	sw	ra,12(sp)
   1b23c:	f201a423          	sw	zero,-216(gp) # 227e8 <errno>
   1b240:	160000ef          	jal	1b3a0 <_kill>
   1b244:	fff00793          	li	a5,-1
   1b248:	00f50c63          	beq	a0,a5,1b260 <_kill_r+0x44>
   1b24c:	00c12083          	lw	ra,12(sp)
   1b250:	00812403          	lw	s0,8(sp)
   1b254:	00412483          	lw	s1,4(sp)
   1b258:	01010113          	addi	sp,sp,16
   1b25c:	00008067          	ret
   1b260:	f281a783          	lw	a5,-216(gp) # 227e8 <errno>
   1b264:	fe0784e3          	beqz	a5,1b24c <_kill_r+0x30>
   1b268:	00c12083          	lw	ra,12(sp)
   1b26c:	00f42023          	sw	a5,0(s0)
   1b270:	00812403          	lw	s0,8(sp)
   1b274:	00412483          	lw	s1,4(sp)
   1b278:	01010113          	addi	sp,sp,16
   1b27c:	00008067          	ret

0001b280 <_getpid_r>:
   1b280:	0d80006f          	j	1b358 <_getpid>

0001b284 <_close>:
   1b284:	ff010113          	addi	sp,sp,-16
   1b288:	00112623          	sw	ra,12(sp)
   1b28c:	00812423          	sw	s0,8(sp)
   1b290:	03900893          	li	a7,57
   1b294:	00000073          	ecall
   1b298:	00050413          	mv	s0,a0
   1b29c:	00054c63          	bltz	a0,1b2b4 <_close+0x30>
   1b2a0:	00c12083          	lw	ra,12(sp)
   1b2a4:	00040513          	mv	a0,s0
   1b2a8:	00812403          	lw	s0,8(sp)
   1b2ac:	01010113          	addi	sp,sp,16
   1b2b0:	00008067          	ret
   1b2b4:	40800433          	neg	s0,s0
   1b2b8:	a05ff0ef          	jal	1acbc <__errno>
   1b2bc:	00852023          	sw	s0,0(a0)
   1b2c0:	fff00413          	li	s0,-1
   1b2c4:	fddff06f          	j	1b2a0 <_close+0x1c>

0001b2c8 <_exit>:
   1b2c8:	05d00893          	li	a7,93
   1b2cc:	00000073          	ecall
   1b2d0:	00054463          	bltz	a0,1b2d8 <_exit+0x10>
   1b2d4:	0000006f          	j	1b2d4 <_exit+0xc>
   1b2d8:	ff010113          	addi	sp,sp,-16
   1b2dc:	00812423          	sw	s0,8(sp)
   1b2e0:	00050413          	mv	s0,a0
   1b2e4:	00112623          	sw	ra,12(sp)
   1b2e8:	40800433          	neg	s0,s0
   1b2ec:	9d1ff0ef          	jal	1acbc <__errno>
   1b2f0:	00852023          	sw	s0,0(a0)
   1b2f4:	0000006f          	j	1b2f4 <_exit+0x2c>

0001b2f8 <_fstat>:
   1b2f8:	f7010113          	addi	sp,sp,-144
   1b2fc:	08912223          	sw	s1,132(sp)
   1b300:	08112623          	sw	ra,140(sp)
   1b304:	00058493          	mv	s1,a1
   1b308:	08812423          	sw	s0,136(sp)
   1b30c:	05000893          	li	a7,80
   1b310:	00010593          	mv	a1,sp
   1b314:	00000073          	ecall
   1b318:	00050413          	mv	s0,a0
   1b31c:	02054463          	bltz	a0,1b344 <_fstat+0x4c>
   1b320:	00048513          	mv	a0,s1
   1b324:	00010593          	mv	a1,sp
   1b328:	1e0000ef          	jal	1b508 <_conv_stat>
   1b32c:	08c12083          	lw	ra,140(sp)
   1b330:	00040513          	mv	a0,s0
   1b334:	08812403          	lw	s0,136(sp)
   1b338:	08412483          	lw	s1,132(sp)
   1b33c:	09010113          	addi	sp,sp,144
   1b340:	00008067          	ret
   1b344:	40800433          	neg	s0,s0
   1b348:	975ff0ef          	jal	1acbc <__errno>
   1b34c:	00852023          	sw	s0,0(a0)
   1b350:	fff00413          	li	s0,-1
   1b354:	fcdff06f          	j	1b320 <_fstat+0x28>

0001b358 <_getpid>:
   1b358:	00100513          	li	a0,1
   1b35c:	00008067          	ret

0001b360 <_isatty>:
   1b360:	f9010113          	addi	sp,sp,-112
   1b364:	00810593          	addi	a1,sp,8
   1b368:	06112623          	sw	ra,108(sp)
   1b36c:	f8dff0ef          	jal	1b2f8 <_fstat>
   1b370:	fff00793          	li	a5,-1
   1b374:	00f50e63          	beq	a0,a5,1b390 <_isatty+0x30>
   1b378:	00c12503          	lw	a0,12(sp)
   1b37c:	06c12083          	lw	ra,108(sp)
   1b380:	00d55513          	srli	a0,a0,0xd
   1b384:	00157513          	andi	a0,a0,1
   1b388:	07010113          	addi	sp,sp,112
   1b38c:	00008067          	ret
   1b390:	06c12083          	lw	ra,108(sp)
   1b394:	00000513          	li	a0,0
   1b398:	07010113          	addi	sp,sp,112
   1b39c:	00008067          	ret

0001b3a0 <_kill>:
   1b3a0:	ff010113          	addi	sp,sp,-16
   1b3a4:	00112623          	sw	ra,12(sp)
   1b3a8:	915ff0ef          	jal	1acbc <__errno>
   1b3ac:	00c12083          	lw	ra,12(sp)
   1b3b0:	01600793          	li	a5,22
   1b3b4:	00f52023          	sw	a5,0(a0)
   1b3b8:	fff00513          	li	a0,-1
   1b3bc:	01010113          	addi	sp,sp,16
   1b3c0:	00008067          	ret

0001b3c4 <_lseek>:
   1b3c4:	ff010113          	addi	sp,sp,-16
   1b3c8:	00112623          	sw	ra,12(sp)
   1b3cc:	00812423          	sw	s0,8(sp)
   1b3d0:	03e00893          	li	a7,62
   1b3d4:	00000073          	ecall
   1b3d8:	00050413          	mv	s0,a0
   1b3dc:	00054c63          	bltz	a0,1b3f4 <_lseek+0x30>
   1b3e0:	00c12083          	lw	ra,12(sp)
   1b3e4:	00040513          	mv	a0,s0
   1b3e8:	00812403          	lw	s0,8(sp)
   1b3ec:	01010113          	addi	sp,sp,16
   1b3f0:	00008067          	ret
   1b3f4:	40800433          	neg	s0,s0
   1b3f8:	8c5ff0ef          	jal	1acbc <__errno>
   1b3fc:	00852023          	sw	s0,0(a0)
   1b400:	fff00413          	li	s0,-1
   1b404:	fddff06f          	j	1b3e0 <_lseek+0x1c>

0001b408 <_read>:
   1b408:	ff010113          	addi	sp,sp,-16
   1b40c:	00112623          	sw	ra,12(sp)
   1b410:	00812423          	sw	s0,8(sp)
   1b414:	03f00893          	li	a7,63
   1b418:	00000073          	ecall
   1b41c:	00050413          	mv	s0,a0
   1b420:	00054c63          	bltz	a0,1b438 <_read+0x30>
   1b424:	00c12083          	lw	ra,12(sp)
   1b428:	00040513          	mv	a0,s0
   1b42c:	00812403          	lw	s0,8(sp)
   1b430:	01010113          	addi	sp,sp,16
   1b434:	00008067          	ret
   1b438:	40800433          	neg	s0,s0
   1b43c:	881ff0ef          	jal	1acbc <__errno>
   1b440:	00852023          	sw	s0,0(a0)
   1b444:	fff00413          	li	s0,-1
   1b448:	fddff06f          	j	1b424 <_read+0x1c>

0001b44c <_sbrk>:
   1b44c:	f341a703          	lw	a4,-204(gp) # 227f4 <heap_end.0>
   1b450:	ff010113          	addi	sp,sp,-16
   1b454:	00112623          	sw	ra,12(sp)
   1b458:	00050793          	mv	a5,a0
   1b45c:	02071063          	bnez	a4,1b47c <_sbrk+0x30>
   1b460:	0d600893          	li	a7,214
   1b464:	00000513          	li	a0,0
   1b468:	00000073          	ecall
   1b46c:	fff00613          	li	a2,-1
   1b470:	00050713          	mv	a4,a0
   1b474:	02c50a63          	beq	a0,a2,1b4a8 <_sbrk+0x5c>
   1b478:	f2a1aa23          	sw	a0,-204(gp) # 227f4 <heap_end.0>
   1b47c:	0d600893          	li	a7,214
   1b480:	00e78533          	add	a0,a5,a4
   1b484:	00000073          	ecall
   1b488:	f341a703          	lw	a4,-204(gp) # 227f4 <heap_end.0>
   1b48c:	00e787b3          	add	a5,a5,a4
   1b490:	00f51c63          	bne	a0,a5,1b4a8 <_sbrk+0x5c>
   1b494:	00c12083          	lw	ra,12(sp)
   1b498:	f2a1aa23          	sw	a0,-204(gp) # 227f4 <heap_end.0>
   1b49c:	00070513          	mv	a0,a4
   1b4a0:	01010113          	addi	sp,sp,16
   1b4a4:	00008067          	ret
   1b4a8:	815ff0ef          	jal	1acbc <__errno>
   1b4ac:	00c12083          	lw	ra,12(sp)
   1b4b0:	00c00793          	li	a5,12
   1b4b4:	00f52023          	sw	a5,0(a0)
   1b4b8:	fff00513          	li	a0,-1
   1b4bc:	01010113          	addi	sp,sp,16
   1b4c0:	00008067          	ret

0001b4c4 <_write>:
   1b4c4:	ff010113          	addi	sp,sp,-16
   1b4c8:	00112623          	sw	ra,12(sp)
   1b4cc:	00812423          	sw	s0,8(sp)
   1b4d0:	04000893          	li	a7,64
   1b4d4:	00000073          	ecall
   1b4d8:	00050413          	mv	s0,a0
   1b4dc:	00054c63          	bltz	a0,1b4f4 <_write+0x30>
   1b4e0:	00c12083          	lw	ra,12(sp)
   1b4e4:	00040513          	mv	a0,s0
   1b4e8:	00812403          	lw	s0,8(sp)
   1b4ec:	01010113          	addi	sp,sp,16
   1b4f0:	00008067          	ret
   1b4f4:	40800433          	neg	s0,s0
   1b4f8:	fc4ff0ef          	jal	1acbc <__errno>
   1b4fc:	00852023          	sw	s0,0(a0)
   1b500:	fff00413          	li	s0,-1
   1b504:	fddff06f          	j	1b4e0 <_write+0x1c>

0001b508 <_conv_stat>:
   1b508:	0185d703          	lhu	a4,24(a1)
   1b50c:	0145d783          	lhu	a5,20(a1)
   1b510:	ff010113          	addi	sp,sp,-16
   1b514:	01c5a283          	lw	t0,28(a1)
   1b518:	0205af83          	lw	t6,32(a1)
   1b51c:	0305af03          	lw	t5,48(a1)
   1b520:	0405ae83          	lw	t4,64(a1)
   1b524:	0385ae03          	lw	t3,56(a1)
   1b528:	0485a303          	lw	t1,72(a1)
   1b52c:	04c5a383          	lw	t2,76(a1)
   1b530:	0585a803          	lw	a6,88(a1)
   1b534:	05c5a883          	lw	a7,92(a1)
   1b538:	00812623          	sw	s0,12(sp)
   1b53c:	00912423          	sw	s1,8(sp)
   1b540:	0105a403          	lw	s0,16(a1)
   1b544:	0085a483          	lw	s1,8(a1)
   1b548:	01212223          	sw	s2,4(sp)
   1b54c:	0005a903          	lw	s2,0(a1)
   1b550:	0685a603          	lw	a2,104(a1)
   1b554:	01071713          	slli	a4,a4,0x10
   1b558:	00e7e7b3          	or	a5,a5,a4
   1b55c:	06c5a683          	lw	a3,108(a1)
   1b560:	01251023          	sh	s2,0(a0)
   1b564:	00951123          	sh	s1,2(a0)
   1b568:	00852223          	sw	s0,4(a0)
   1b56c:	00f52423          	sw	a5,8(a0)
   1b570:	00551623          	sh	t0,12(a0)
   1b574:	01f51723          	sh	t6,14(a0)
   1b578:	01e52823          	sw	t5,16(a0)
   1b57c:	05d52623          	sw	t4,76(a0)
   1b580:	05c52423          	sw	t3,72(a0)
   1b584:	00652c23          	sw	t1,24(a0)
   1b588:	00752e23          	sw	t2,28(a0)
   1b58c:	03052423          	sw	a6,40(a0)
   1b590:	03152623          	sw	a7,44(a0)
   1b594:	02c52c23          	sw	a2,56(a0)
   1b598:	00c12403          	lw	s0,12(sp)
   1b59c:	02d52e23          	sw	a3,60(a0)
   1b5a0:	00812483          	lw	s1,8(sp)
   1b5a4:	00412903          	lw	s2,4(sp)
   1b5a8:	01010113          	addi	sp,sp,16
   1b5ac:	00008067          	ret

0001b5b0 <__udivdi3>:
   1b5b0:	fd010113          	addi	sp,sp,-48
   1b5b4:	01412c23          	sw	s4,24(sp)
   1b5b8:	02112623          	sw	ra,44(sp)
   1b5bc:	02812423          	sw	s0,40(sp)
   1b5c0:	02912223          	sw	s1,36(sp)
   1b5c4:	03212023          	sw	s2,32(sp)
   1b5c8:	01312e23          	sw	s3,28(sp)
   1b5cc:	01512a23          	sw	s5,20(sp)
   1b5d0:	01612823          	sw	s6,16(sp)
   1b5d4:	01712623          	sw	s7,12(sp)
   1b5d8:	01812423          	sw	s8,8(sp)
   1b5dc:	01912223          	sw	s9,4(sp)
   1b5e0:	00050a13          	mv	s4,a0
   1b5e4:	38069463          	bnez	a3,1b96c <__udivdi3+0x3bc>
   1b5e8:	000227b7          	lui	a5,0x22
   1b5ec:	00060993          	mv	s3,a2
   1b5f0:	00050493          	mv	s1,a0
   1b5f4:	ab478793          	addi	a5,a5,-1356 # 21ab4 <__clz_tab>
   1b5f8:	12c5f863          	bgeu	a1,a2,1b728 <__udivdi3+0x178>
   1b5fc:	00010737          	lui	a4,0x10
   1b600:	00058913          	mv	s2,a1
   1b604:	10e67863          	bgeu	a2,a4,1b714 <__udivdi3+0x164>
   1b608:	10063713          	sltiu	a4,a2,256
   1b60c:	00173713          	seqz	a4,a4
   1b610:	00371713          	slli	a4,a4,0x3
   1b614:	00e656b3          	srl	a3,a2,a4
   1b618:	00d787b3          	add	a5,a5,a3
   1b61c:	0007c783          	lbu	a5,0(a5)
   1b620:	02000693          	li	a3,32
   1b624:	00e787b3          	add	a5,a5,a4
   1b628:	40f68733          	sub	a4,a3,a5
   1b62c:	00f68c63          	beq	a3,a5,1b644 <__udivdi3+0x94>
   1b630:	00e59933          	sll	s2,a1,a4
   1b634:	00fa57b3          	srl	a5,s4,a5
   1b638:	00e619b3          	sll	s3,a2,a4
   1b63c:	0127e933          	or	s2,a5,s2
   1b640:	00ea14b3          	sll	s1,s4,a4
   1b644:	0109da93          	srli	s5,s3,0x10
   1b648:	000a8593          	mv	a1,s5
   1b64c:	00090513          	mv	a0,s2
   1b650:	01099b13          	slli	s6,s3,0x10
   1b654:	3f5050ef          	jal	21248 <__hidden___udivsi3>
   1b658:	010b5b13          	srli	s6,s6,0x10
   1b65c:	00050593          	mv	a1,a0
   1b660:	00050a13          	mv	s4,a0
   1b664:	000b0513          	mv	a0,s6
   1b668:	3b5050ef          	jal	2121c <__mulsi3>
   1b66c:	00050413          	mv	s0,a0
   1b670:	000a8593          	mv	a1,s5
   1b674:	00090513          	mv	a0,s2
   1b678:	419050ef          	jal	21290 <__umodsi3>
   1b67c:	01051513          	slli	a0,a0,0x10
   1b680:	0104d713          	srli	a4,s1,0x10
   1b684:	00a76733          	or	a4,a4,a0
   1b688:	000a0913          	mv	s2,s4
   1b68c:	00877e63          	bgeu	a4,s0,1b6a8 <__udivdi3+0xf8>
   1b690:	00e98733          	add	a4,s3,a4
   1b694:	fffa0913          	addi	s2,s4,-1
   1b698:	01376863          	bltu	a4,s3,1b6a8 <__udivdi3+0xf8>
   1b69c:	00877663          	bgeu	a4,s0,1b6a8 <__udivdi3+0xf8>
   1b6a0:	ffea0913          	addi	s2,s4,-2
   1b6a4:	01370733          	add	a4,a4,s3
   1b6a8:	40870433          	sub	s0,a4,s0
   1b6ac:	000a8593          	mv	a1,s5
   1b6b0:	00040513          	mv	a0,s0
   1b6b4:	395050ef          	jal	21248 <__hidden___udivsi3>
   1b6b8:	00050593          	mv	a1,a0
   1b6bc:	00050a13          	mv	s4,a0
   1b6c0:	000b0513          	mv	a0,s6
   1b6c4:	359050ef          	jal	2121c <__mulsi3>
   1b6c8:	00050b13          	mv	s6,a0
   1b6cc:	000a8593          	mv	a1,s5
   1b6d0:	00040513          	mv	a0,s0
   1b6d4:	3bd050ef          	jal	21290 <__umodsi3>
   1b6d8:	01049493          	slli	s1,s1,0x10
   1b6dc:	01051513          	slli	a0,a0,0x10
   1b6e0:	0104d493          	srli	s1,s1,0x10
   1b6e4:	00a4e4b3          	or	s1,s1,a0
   1b6e8:	000a0713          	mv	a4,s4
   1b6ec:	0164fc63          	bgeu	s1,s6,1b704 <__udivdi3+0x154>
   1b6f0:	009984b3          	add	s1,s3,s1
   1b6f4:	fffa0713          	addi	a4,s4,-1
   1b6f8:	0134e663          	bltu	s1,s3,1b704 <__udivdi3+0x154>
   1b6fc:	0164f463          	bgeu	s1,s6,1b704 <__udivdi3+0x154>
   1b700:	ffea0713          	addi	a4,s4,-2
   1b704:	01091793          	slli	a5,s2,0x10
   1b708:	00e7e7b3          	or	a5,a5,a4
   1b70c:	00000913          	li	s2,0
   1b710:	1200006f          	j	1b830 <__udivdi3+0x280>
   1b714:	010006b7          	lui	a3,0x1000
   1b718:	01800713          	li	a4,24
   1b71c:	eed67ce3          	bgeu	a2,a3,1b614 <__udivdi3+0x64>
   1b720:	01000713          	li	a4,16
   1b724:	ef1ff06f          	j	1b614 <__udivdi3+0x64>
   1b728:	00000713          	li	a4,0
   1b72c:	00060c63          	beqz	a2,1b744 <__udivdi3+0x194>
   1b730:	00010737          	lui	a4,0x10
   1b734:	12e67c63          	bgeu	a2,a4,1b86c <__udivdi3+0x2bc>
   1b738:	10063713          	sltiu	a4,a2,256
   1b73c:	00173713          	seqz	a4,a4
   1b740:	00371713          	slli	a4,a4,0x3
   1b744:	00e656b3          	srl	a3,a2,a4
   1b748:	00d787b3          	add	a5,a5,a3
   1b74c:	0007c783          	lbu	a5,0(a5)
   1b750:	02000693          	li	a3,32
   1b754:	00e787b3          	add	a5,a5,a4
   1b758:	40f68733          	sub	a4,a3,a5
   1b75c:	12f69263          	bne	a3,a5,1b880 <__udivdi3+0x2d0>
   1b760:	40c58a33          	sub	s4,a1,a2
   1b764:	00100913          	li	s2,1
   1b768:	0109db13          	srli	s6,s3,0x10
   1b76c:	000b0593          	mv	a1,s6
   1b770:	000a0513          	mv	a0,s4
   1b774:	01099b93          	slli	s7,s3,0x10
   1b778:	2d1050ef          	jal	21248 <__hidden___udivsi3>
   1b77c:	010bdb93          	srli	s7,s7,0x10
   1b780:	00050593          	mv	a1,a0
   1b784:	00050c13          	mv	s8,a0
   1b788:	000b8513          	mv	a0,s7
   1b78c:	291050ef          	jal	2121c <__mulsi3>
   1b790:	00050a93          	mv	s5,a0
   1b794:	000b0593          	mv	a1,s6
   1b798:	000a0513          	mv	a0,s4
   1b79c:	2f5050ef          	jal	21290 <__umodsi3>
   1b7a0:	01051513          	slli	a0,a0,0x10
   1b7a4:	0104d713          	srli	a4,s1,0x10
   1b7a8:	00a76733          	or	a4,a4,a0
   1b7ac:	000c0a13          	mv	s4,s8
   1b7b0:	01577e63          	bgeu	a4,s5,1b7cc <__udivdi3+0x21c>
   1b7b4:	00e98733          	add	a4,s3,a4
   1b7b8:	fffc0a13          	addi	s4,s8,-1
   1b7bc:	01376863          	bltu	a4,s3,1b7cc <__udivdi3+0x21c>
   1b7c0:	01577663          	bgeu	a4,s5,1b7cc <__udivdi3+0x21c>
   1b7c4:	ffec0a13          	addi	s4,s8,-2
   1b7c8:	01370733          	add	a4,a4,s3
   1b7cc:	41570433          	sub	s0,a4,s5
   1b7d0:	000b0593          	mv	a1,s6
   1b7d4:	00040513          	mv	a0,s0
   1b7d8:	271050ef          	jal	21248 <__hidden___udivsi3>
   1b7dc:	00050593          	mv	a1,a0
   1b7e0:	00050a93          	mv	s5,a0
   1b7e4:	000b8513          	mv	a0,s7
   1b7e8:	235050ef          	jal	2121c <__mulsi3>
   1b7ec:	00050b93          	mv	s7,a0
   1b7f0:	000b0593          	mv	a1,s6
   1b7f4:	00040513          	mv	a0,s0
   1b7f8:	299050ef          	jal	21290 <__umodsi3>
   1b7fc:	01049493          	slli	s1,s1,0x10
   1b800:	01051513          	slli	a0,a0,0x10
   1b804:	0104d493          	srli	s1,s1,0x10
   1b808:	00a4e4b3          	or	s1,s1,a0
   1b80c:	000a8713          	mv	a4,s5
   1b810:	0174fc63          	bgeu	s1,s7,1b828 <__udivdi3+0x278>
   1b814:	009984b3          	add	s1,s3,s1
   1b818:	fffa8713          	addi	a4,s5,-1
   1b81c:	0134e663          	bltu	s1,s3,1b828 <__udivdi3+0x278>
   1b820:	0174f463          	bgeu	s1,s7,1b828 <__udivdi3+0x278>
   1b824:	ffea8713          	addi	a4,s5,-2
   1b828:	010a1793          	slli	a5,s4,0x10
   1b82c:	00e7e7b3          	or	a5,a5,a4
   1b830:	02c12083          	lw	ra,44(sp)
   1b834:	02812403          	lw	s0,40(sp)
   1b838:	02412483          	lw	s1,36(sp)
   1b83c:	01c12983          	lw	s3,28(sp)
   1b840:	01812a03          	lw	s4,24(sp)
   1b844:	01412a83          	lw	s5,20(sp)
   1b848:	01012b03          	lw	s6,16(sp)
   1b84c:	00c12b83          	lw	s7,12(sp)
   1b850:	00812c03          	lw	s8,8(sp)
   1b854:	00412c83          	lw	s9,4(sp)
   1b858:	00090593          	mv	a1,s2
   1b85c:	00078513          	mv	a0,a5
   1b860:	02012903          	lw	s2,32(sp)
   1b864:	03010113          	addi	sp,sp,48
   1b868:	00008067          	ret
   1b86c:	010006b7          	lui	a3,0x1000
   1b870:	01800713          	li	a4,24
   1b874:	ecd678e3          	bgeu	a2,a3,1b744 <__udivdi3+0x194>
   1b878:	01000713          	li	a4,16
   1b87c:	ec9ff06f          	j	1b744 <__udivdi3+0x194>
   1b880:	00e619b3          	sll	s3,a2,a4
   1b884:	00f5d933          	srl	s2,a1,a5
   1b888:	0109db93          	srli	s7,s3,0x10
   1b88c:	00e595b3          	sll	a1,a1,a4
   1b890:	00fa57b3          	srl	a5,s4,a5
   1b894:	00b7eab3          	or	s5,a5,a1
   1b898:	00ea14b3          	sll	s1,s4,a4
   1b89c:	000b8593          	mv	a1,s7
   1b8a0:	00090513          	mv	a0,s2
   1b8a4:	01099a13          	slli	s4,s3,0x10
   1b8a8:	1a1050ef          	jal	21248 <__hidden___udivsi3>
   1b8ac:	010a5a13          	srli	s4,s4,0x10
   1b8b0:	00050593          	mv	a1,a0
   1b8b4:	00050b13          	mv	s6,a0
   1b8b8:	000a0513          	mv	a0,s4
   1b8bc:	161050ef          	jal	2121c <__mulsi3>
   1b8c0:	00050413          	mv	s0,a0
   1b8c4:	000b8593          	mv	a1,s7
   1b8c8:	00090513          	mv	a0,s2
   1b8cc:	1c5050ef          	jal	21290 <__umodsi3>
   1b8d0:	01051513          	slli	a0,a0,0x10
   1b8d4:	010ad713          	srli	a4,s5,0x10
   1b8d8:	00a76733          	or	a4,a4,a0
   1b8dc:	000b0913          	mv	s2,s6
   1b8e0:	00877e63          	bgeu	a4,s0,1b8fc <__udivdi3+0x34c>
   1b8e4:	00e98733          	add	a4,s3,a4
   1b8e8:	fffb0913          	addi	s2,s6,-1
   1b8ec:	01376863          	bltu	a4,s3,1b8fc <__udivdi3+0x34c>
   1b8f0:	00877663          	bgeu	a4,s0,1b8fc <__udivdi3+0x34c>
   1b8f4:	ffeb0913          	addi	s2,s6,-2
   1b8f8:	01370733          	add	a4,a4,s3
   1b8fc:	40870433          	sub	s0,a4,s0
   1b900:	000b8593          	mv	a1,s7
   1b904:	00040513          	mv	a0,s0
   1b908:	141050ef          	jal	21248 <__hidden___udivsi3>
   1b90c:	00050593          	mv	a1,a0
   1b910:	00050b13          	mv	s6,a0
   1b914:	000a0513          	mv	a0,s4
   1b918:	105050ef          	jal	2121c <__mulsi3>
   1b91c:	00050a13          	mv	s4,a0
   1b920:	000b8593          	mv	a1,s7
   1b924:	00040513          	mv	a0,s0
   1b928:	169050ef          	jal	21290 <__umodsi3>
   1b92c:	010a9793          	slli	a5,s5,0x10
   1b930:	01051513          	slli	a0,a0,0x10
   1b934:	0107d793          	srli	a5,a5,0x10
   1b938:	00a7e7b3          	or	a5,a5,a0
   1b93c:	000b0713          	mv	a4,s6
   1b940:	0147fe63          	bgeu	a5,s4,1b95c <__udivdi3+0x3ac>
   1b944:	00f987b3          	add	a5,s3,a5
   1b948:	fffb0713          	addi	a4,s6,-1
   1b94c:	0137e863          	bltu	a5,s3,1b95c <__udivdi3+0x3ac>
   1b950:	0147f663          	bgeu	a5,s4,1b95c <__udivdi3+0x3ac>
   1b954:	ffeb0713          	addi	a4,s6,-2
   1b958:	013787b3          	add	a5,a5,s3
   1b95c:	01091913          	slli	s2,s2,0x10
   1b960:	41478a33          	sub	s4,a5,s4
   1b964:	00e96933          	or	s2,s2,a4
   1b968:	e01ff06f          	j	1b768 <__udivdi3+0x1b8>
   1b96c:	1ed5ee63          	bltu	a1,a3,1bb68 <__udivdi3+0x5b8>
   1b970:	000107b7          	lui	a5,0x10
   1b974:	04f6f463          	bgeu	a3,a5,1b9bc <__udivdi3+0x40c>
   1b978:	1006b713          	sltiu	a4,a3,256
   1b97c:	00173713          	seqz	a4,a4
   1b980:	00371713          	slli	a4,a4,0x3
   1b984:	000227b7          	lui	a5,0x22
   1b988:	00e6d533          	srl	a0,a3,a4
   1b98c:	ab478793          	addi	a5,a5,-1356 # 21ab4 <__clz_tab>
   1b990:	00a787b3          	add	a5,a5,a0
   1b994:	0007c803          	lbu	a6,0(a5)
   1b998:	02000793          	li	a5,32
   1b99c:	00e80833          	add	a6,a6,a4
   1b9a0:	41078933          	sub	s2,a5,a6
   1b9a4:	03079663          	bne	a5,a6,1b9d0 <__udivdi3+0x420>
   1b9a8:	00100793          	li	a5,1
   1b9ac:	e8b6e2e3          	bltu	a3,a1,1b830 <__udivdi3+0x280>
   1b9b0:	00ca37b3          	sltu	a5,s4,a2
   1b9b4:	0017b793          	seqz	a5,a5
   1b9b8:	e79ff06f          	j	1b830 <__udivdi3+0x280>
   1b9bc:	010007b7          	lui	a5,0x1000
   1b9c0:	01800713          	li	a4,24
   1b9c4:	fcf6f0e3          	bgeu	a3,a5,1b984 <__udivdi3+0x3d4>
   1b9c8:	01000713          	li	a4,16
   1b9cc:	fb9ff06f          	j	1b984 <__udivdi3+0x3d4>
   1b9d0:	012696b3          	sll	a3,a3,s2
   1b9d4:	01065b33          	srl	s6,a2,a6
   1b9d8:	00db6b33          	or	s6,s6,a3
   1b9dc:	0105d4b3          	srl	s1,a1,a6
   1b9e0:	010b5c13          	srli	s8,s6,0x10
   1b9e4:	010a5833          	srl	a6,s4,a6
   1b9e8:	012595b3          	sll	a1,a1,s2
   1b9ec:	00b869b3          	or	s3,a6,a1
   1b9f0:	00048513          	mv	a0,s1
   1b9f4:	000c0593          	mv	a1,s8
   1b9f8:	010b1b93          	slli	s7,s6,0x10
   1b9fc:	01261433          	sll	s0,a2,s2
   1ba00:	010bdb93          	srli	s7,s7,0x10
   1ba04:	045050ef          	jal	21248 <__hidden___udivsi3>
   1ba08:	00050593          	mv	a1,a0
   1ba0c:	00050c93          	mv	s9,a0
   1ba10:	000b8513          	mv	a0,s7
   1ba14:	009050ef          	jal	2121c <__mulsi3>
   1ba18:	00050a93          	mv	s5,a0
   1ba1c:	000c0593          	mv	a1,s8
   1ba20:	00048513          	mv	a0,s1
   1ba24:	06d050ef          	jal	21290 <__umodsi3>
   1ba28:	01051513          	slli	a0,a0,0x10
   1ba2c:	0109d693          	srli	a3,s3,0x10
   1ba30:	00a6e6b3          	or	a3,a3,a0
   1ba34:	000c8493          	mv	s1,s9
   1ba38:	0156fe63          	bgeu	a3,s5,1ba54 <__udivdi3+0x4a4>
   1ba3c:	00db06b3          	add	a3,s6,a3
   1ba40:	fffc8493          	addi	s1,s9,-1
   1ba44:	0166e863          	bltu	a3,s6,1ba54 <__udivdi3+0x4a4>
   1ba48:	0156f663          	bgeu	a3,s5,1ba54 <__udivdi3+0x4a4>
   1ba4c:	ffec8493          	addi	s1,s9,-2
   1ba50:	016686b3          	add	a3,a3,s6
   1ba54:	41568ab3          	sub	s5,a3,s5
   1ba58:	000c0593          	mv	a1,s8
   1ba5c:	000a8513          	mv	a0,s5
   1ba60:	7e8050ef          	jal	21248 <__hidden___udivsi3>
   1ba64:	00050593          	mv	a1,a0
   1ba68:	00050c93          	mv	s9,a0
   1ba6c:	000b8513          	mv	a0,s7
   1ba70:	7ac050ef          	jal	2121c <__mulsi3>
   1ba74:	00050b93          	mv	s7,a0
   1ba78:	000c0593          	mv	a1,s8
   1ba7c:	000a8513          	mv	a0,s5
   1ba80:	011050ef          	jal	21290 <__umodsi3>
   1ba84:	01099713          	slli	a4,s3,0x10
   1ba88:	01051513          	slli	a0,a0,0x10
   1ba8c:	01075713          	srli	a4,a4,0x10
   1ba90:	00a76733          	or	a4,a4,a0
   1ba94:	000c8693          	mv	a3,s9
   1ba98:	01777e63          	bgeu	a4,s7,1bab4 <__udivdi3+0x504>
   1ba9c:	00eb0733          	add	a4,s6,a4
   1baa0:	fffc8693          	addi	a3,s9,-1
   1baa4:	01676863          	bltu	a4,s6,1bab4 <__udivdi3+0x504>
   1baa8:	01777663          	bgeu	a4,s7,1bab4 <__udivdi3+0x504>
   1baac:	ffec8693          	addi	a3,s9,-2
   1bab0:	01670733          	add	a4,a4,s6
   1bab4:	01049793          	slli	a5,s1,0x10
   1bab8:	00010e37          	lui	t3,0x10
   1babc:	00d7e7b3          	or	a5,a5,a3
   1bac0:	fffe0313          	addi	t1,t3,-1 # ffff <exit-0x95>
   1bac4:	0067f8b3          	and	a7,a5,t1
   1bac8:	00647333          	and	t1,s0,t1
   1bacc:	41770733          	sub	a4,a4,s7
   1bad0:	0107de93          	srli	t4,a5,0x10
   1bad4:	01045413          	srli	s0,s0,0x10
   1bad8:	00088513          	mv	a0,a7
   1badc:	00030593          	mv	a1,t1
   1bae0:	73c050ef          	jal	2121c <__mulsi3>
   1bae4:	00050813          	mv	a6,a0
   1bae8:	00040593          	mv	a1,s0
   1baec:	00088513          	mv	a0,a7
   1baf0:	72c050ef          	jal	2121c <__mulsi3>
   1baf4:	00050893          	mv	a7,a0
   1baf8:	00030593          	mv	a1,t1
   1bafc:	000e8513          	mv	a0,t4
   1bb00:	71c050ef          	jal	2121c <__mulsi3>
   1bb04:	00050313          	mv	t1,a0
   1bb08:	00040593          	mv	a1,s0
   1bb0c:	000e8513          	mv	a0,t4
   1bb10:	70c050ef          	jal	2121c <__mulsi3>
   1bb14:	01085693          	srli	a3,a6,0x10
   1bb18:	006888b3          	add	a7,a7,t1
   1bb1c:	011686b3          	add	a3,a3,a7
   1bb20:	00050613          	mv	a2,a0
   1bb24:	0066f463          	bgeu	a3,t1,1bb2c <__udivdi3+0x57c>
   1bb28:	01c50633          	add	a2,a0,t3
   1bb2c:	0106d593          	srli	a1,a3,0x10
   1bb30:	00c58633          	add	a2,a1,a2
   1bb34:	02c76663          	bltu	a4,a2,1bb60 <__udivdi3+0x5b0>
   1bb38:	bcc71ae3          	bne	a4,a2,1b70c <__udivdi3+0x15c>
   1bb3c:	00010637          	lui	a2,0x10
   1bb40:	fff60613          	addi	a2,a2,-1 # ffff <exit-0x95>
   1bb44:	00c6f6b3          	and	a3,a3,a2
   1bb48:	01069693          	slli	a3,a3,0x10
   1bb4c:	00c87833          	and	a6,a6,a2
   1bb50:	012a1733          	sll	a4,s4,s2
   1bb54:	010686b3          	add	a3,a3,a6
   1bb58:	00000913          	li	s2,0
   1bb5c:	ccd77ae3          	bgeu	a4,a3,1b830 <__udivdi3+0x280>
   1bb60:	fff78793          	addi	a5,a5,-1 # ffffff <__BSS_END__+0xfdd4fb>
   1bb64:	ba9ff06f          	j	1b70c <__udivdi3+0x15c>
   1bb68:	00000913          	li	s2,0
   1bb6c:	00000793          	li	a5,0
   1bb70:	cc1ff06f          	j	1b830 <__udivdi3+0x280>

0001bb74 <__umoddi3>:
   1bb74:	fd010113          	addi	sp,sp,-48
   1bb78:	02812423          	sw	s0,40(sp)
   1bb7c:	02912223          	sw	s1,36(sp)
   1bb80:	02112623          	sw	ra,44(sp)
   1bb84:	03212023          	sw	s2,32(sp)
   1bb88:	01312e23          	sw	s3,28(sp)
   1bb8c:	01412c23          	sw	s4,24(sp)
   1bb90:	01512a23          	sw	s5,20(sp)
   1bb94:	01612823          	sw	s6,16(sp)
   1bb98:	01712623          	sw	s7,12(sp)
   1bb9c:	01812423          	sw	s8,8(sp)
   1bba0:	01912223          	sw	s9,4(sp)
   1bba4:	01a12023          	sw	s10,0(sp)
   1bba8:	00050413          	mv	s0,a0
   1bbac:	00058493          	mv	s1,a1
   1bbb0:	24069c63          	bnez	a3,1be08 <__umoddi3+0x294>
   1bbb4:	000227b7          	lui	a5,0x22
   1bbb8:	00060993          	mv	s3,a2
   1bbbc:	ab478793          	addi	a5,a5,-1356 # 21ab4 <__clz_tab>
   1bbc0:	12c5fe63          	bgeu	a1,a2,1bcfc <__umoddi3+0x188>
   1bbc4:	00010737          	lui	a4,0x10
   1bbc8:	12e67063          	bgeu	a2,a4,1bce8 <__umoddi3+0x174>
   1bbcc:	10063713          	sltiu	a4,a2,256
   1bbd0:	00173713          	seqz	a4,a4
   1bbd4:	00371713          	slli	a4,a4,0x3
   1bbd8:	00e656b3          	srl	a3,a2,a4
   1bbdc:	00d787b3          	add	a5,a5,a3
   1bbe0:	0007c783          	lbu	a5,0(a5)
   1bbe4:	00e787b3          	add	a5,a5,a4
   1bbe8:	02000713          	li	a4,32
   1bbec:	40f70933          	sub	s2,a4,a5
   1bbf0:	00f70c63          	beq	a4,a5,1bc08 <__umoddi3+0x94>
   1bbf4:	012594b3          	sll	s1,a1,s2
   1bbf8:	00f557b3          	srl	a5,a0,a5
   1bbfc:	012619b3          	sll	s3,a2,s2
   1bc00:	0097e4b3          	or	s1,a5,s1
   1bc04:	01251433          	sll	s0,a0,s2
   1bc08:	0109da93          	srli	s5,s3,0x10
   1bc0c:	000a8593          	mv	a1,s5
   1bc10:	01099b13          	slli	s6,s3,0x10
   1bc14:	00048513          	mv	a0,s1
   1bc18:	630050ef          	jal	21248 <__hidden___udivsi3>
   1bc1c:	010b5b13          	srli	s6,s6,0x10
   1bc20:	000b0593          	mv	a1,s6
   1bc24:	5f8050ef          	jal	2121c <__mulsi3>
   1bc28:	00050a13          	mv	s4,a0
   1bc2c:	000a8593          	mv	a1,s5
   1bc30:	00048513          	mv	a0,s1
   1bc34:	65c050ef          	jal	21290 <__umodsi3>
   1bc38:	01051513          	slli	a0,a0,0x10
   1bc3c:	01045793          	srli	a5,s0,0x10
   1bc40:	00a7e7b3          	or	a5,a5,a0
   1bc44:	0147fa63          	bgeu	a5,s4,1bc58 <__umoddi3+0xe4>
   1bc48:	00f987b3          	add	a5,s3,a5
   1bc4c:	0137e663          	bltu	a5,s3,1bc58 <__umoddi3+0xe4>
   1bc50:	0147f463          	bgeu	a5,s4,1bc58 <__umoddi3+0xe4>
   1bc54:	013787b3          	add	a5,a5,s3
   1bc58:	414784b3          	sub	s1,a5,s4
   1bc5c:	000a8593          	mv	a1,s5
   1bc60:	00048513          	mv	a0,s1
   1bc64:	5e4050ef          	jal	21248 <__hidden___udivsi3>
   1bc68:	000b0593          	mv	a1,s6
   1bc6c:	5b0050ef          	jal	2121c <__mulsi3>
   1bc70:	00050a13          	mv	s4,a0
   1bc74:	000a8593          	mv	a1,s5
   1bc78:	00048513          	mv	a0,s1
   1bc7c:	614050ef          	jal	21290 <__umodsi3>
   1bc80:	01041413          	slli	s0,s0,0x10
   1bc84:	01051513          	slli	a0,a0,0x10
   1bc88:	01045413          	srli	s0,s0,0x10
   1bc8c:	00a46433          	or	s0,s0,a0
   1bc90:	01447a63          	bgeu	s0,s4,1bca4 <__umoddi3+0x130>
   1bc94:	00898433          	add	s0,s3,s0
   1bc98:	01346663          	bltu	s0,s3,1bca4 <__umoddi3+0x130>
   1bc9c:	01447463          	bgeu	s0,s4,1bca4 <__umoddi3+0x130>
   1bca0:	01340433          	add	s0,s0,s3
   1bca4:	41440433          	sub	s0,s0,s4
   1bca8:	01245533          	srl	a0,s0,s2
   1bcac:	00000593          	li	a1,0
   1bcb0:	02c12083          	lw	ra,44(sp)
   1bcb4:	02812403          	lw	s0,40(sp)
   1bcb8:	02412483          	lw	s1,36(sp)
   1bcbc:	02012903          	lw	s2,32(sp)
   1bcc0:	01c12983          	lw	s3,28(sp)
   1bcc4:	01812a03          	lw	s4,24(sp)
   1bcc8:	01412a83          	lw	s5,20(sp)
   1bccc:	01012b03          	lw	s6,16(sp)
   1bcd0:	00c12b83          	lw	s7,12(sp)
   1bcd4:	00812c03          	lw	s8,8(sp)
   1bcd8:	00412c83          	lw	s9,4(sp)
   1bcdc:	00012d03          	lw	s10,0(sp)
   1bce0:	03010113          	addi	sp,sp,48
   1bce4:	00008067          	ret
   1bce8:	010006b7          	lui	a3,0x1000
   1bcec:	01800713          	li	a4,24
   1bcf0:	eed674e3          	bgeu	a2,a3,1bbd8 <__umoddi3+0x64>
   1bcf4:	01000713          	li	a4,16
   1bcf8:	ee1ff06f          	j	1bbd8 <__umoddi3+0x64>
   1bcfc:	00000713          	li	a4,0
   1bd00:	00060c63          	beqz	a2,1bd18 <__umoddi3+0x1a4>
   1bd04:	00010737          	lui	a4,0x10
   1bd08:	0ee67663          	bgeu	a2,a4,1bdf4 <__umoddi3+0x280>
   1bd0c:	10063713          	sltiu	a4,a2,256
   1bd10:	00173713          	seqz	a4,a4
   1bd14:	00371713          	slli	a4,a4,0x3
   1bd18:	00e656b3          	srl	a3,a2,a4
   1bd1c:	00d787b3          	add	a5,a5,a3
   1bd20:	0007c783          	lbu	a5,0(a5)
   1bd24:	40c584b3          	sub	s1,a1,a2
   1bd28:	00e787b3          	add	a5,a5,a4
   1bd2c:	02000713          	li	a4,32
   1bd30:	40f70933          	sub	s2,a4,a5
   1bd34:	ecf70ae3          	beq	a4,a5,1bc08 <__umoddi3+0x94>
   1bd38:	012619b3          	sll	s3,a2,s2
   1bd3c:	00f5dbb3          	srl	s7,a1,a5
   1bd40:	0109db13          	srli	s6,s3,0x10
   1bd44:	00f557b3          	srl	a5,a0,a5
   1bd48:	012595b3          	sll	a1,a1,s2
   1bd4c:	00b7ea33          	or	s4,a5,a1
   1bd50:	01251433          	sll	s0,a0,s2
   1bd54:	000b0593          	mv	a1,s6
   1bd58:	01099a93          	slli	s5,s3,0x10
   1bd5c:	000b8513          	mv	a0,s7
   1bd60:	4e8050ef          	jal	21248 <__hidden___udivsi3>
   1bd64:	010ada93          	srli	s5,s5,0x10
   1bd68:	000a8593          	mv	a1,s5
   1bd6c:	4b0050ef          	jal	2121c <__mulsi3>
   1bd70:	00050493          	mv	s1,a0
   1bd74:	000b0593          	mv	a1,s6
   1bd78:	000b8513          	mv	a0,s7
   1bd7c:	514050ef          	jal	21290 <__umodsi3>
   1bd80:	01051513          	slli	a0,a0,0x10
   1bd84:	010a5713          	srli	a4,s4,0x10
   1bd88:	00a76733          	or	a4,a4,a0
   1bd8c:	00977a63          	bgeu	a4,s1,1bda0 <__umoddi3+0x22c>
   1bd90:	00e98733          	add	a4,s3,a4
   1bd94:	01376663          	bltu	a4,s3,1bda0 <__umoddi3+0x22c>
   1bd98:	00977463          	bgeu	a4,s1,1bda0 <__umoddi3+0x22c>
   1bd9c:	01370733          	add	a4,a4,s3
   1bda0:	409704b3          	sub	s1,a4,s1
   1bda4:	000b0593          	mv	a1,s6
   1bda8:	00048513          	mv	a0,s1
   1bdac:	49c050ef          	jal	21248 <__hidden___udivsi3>
   1bdb0:	000a8593          	mv	a1,s5
   1bdb4:	468050ef          	jal	2121c <__mulsi3>
   1bdb8:	00050a93          	mv	s5,a0
   1bdbc:	000b0593          	mv	a1,s6
   1bdc0:	00048513          	mv	a0,s1
   1bdc4:	4cc050ef          	jal	21290 <__umodsi3>
   1bdc8:	010a1793          	slli	a5,s4,0x10
   1bdcc:	01051513          	slli	a0,a0,0x10
   1bdd0:	0107d793          	srli	a5,a5,0x10
   1bdd4:	00a7e7b3          	or	a5,a5,a0
   1bdd8:	0157fa63          	bgeu	a5,s5,1bdec <__umoddi3+0x278>
   1bddc:	00f987b3          	add	a5,s3,a5
   1bde0:	0137e663          	bltu	a5,s3,1bdec <__umoddi3+0x278>
   1bde4:	0157f463          	bgeu	a5,s5,1bdec <__umoddi3+0x278>
   1bde8:	013787b3          	add	a5,a5,s3
   1bdec:	415784b3          	sub	s1,a5,s5
   1bdf0:	e19ff06f          	j	1bc08 <__umoddi3+0x94>
   1bdf4:	010006b7          	lui	a3,0x1000
   1bdf8:	01800713          	li	a4,24
   1bdfc:	f0d67ee3          	bgeu	a2,a3,1bd18 <__umoddi3+0x1a4>
   1be00:	01000713          	li	a4,16
   1be04:	f15ff06f          	j	1bd18 <__umoddi3+0x1a4>
   1be08:	ead5e4e3          	bltu	a1,a3,1bcb0 <__umoddi3+0x13c>
   1be0c:	000107b7          	lui	a5,0x10
   1be10:	04f6fe63          	bgeu	a3,a5,1be6c <__umoddi3+0x2f8>
   1be14:	1006b793          	sltiu	a5,a3,256
   1be18:	0017b793          	seqz	a5,a5
   1be1c:	00379793          	slli	a5,a5,0x3
   1be20:	00022737          	lui	a4,0x22
   1be24:	00f6d833          	srl	a6,a3,a5
   1be28:	ab470713          	addi	a4,a4,-1356 # 21ab4 <__clz_tab>
   1be2c:	01070733          	add	a4,a4,a6
   1be30:	00074a83          	lbu	s5,0(a4)
   1be34:	00fa8ab3          	add	s5,s5,a5
   1be38:	02000793          	li	a5,32
   1be3c:	41578a33          	sub	s4,a5,s5
   1be40:	05579063          	bne	a5,s5,1be80 <__umoddi3+0x30c>
   1be44:	00b6e463          	bltu	a3,a1,1be4c <__umoddi3+0x2d8>
   1be48:	00c56c63          	bltu	a0,a2,1be60 <__umoddi3+0x2ec>
   1be4c:	40c50933          	sub	s2,a0,a2
   1be50:	40d586b3          	sub	a3,a1,a3
   1be54:	012534b3          	sltu	s1,a0,s2
   1be58:	00090413          	mv	s0,s2
   1be5c:	409684b3          	sub	s1,a3,s1
   1be60:	00040513          	mv	a0,s0
   1be64:	00048593          	mv	a1,s1
   1be68:	e49ff06f          	j	1bcb0 <__umoddi3+0x13c>
   1be6c:	01000737          	lui	a4,0x1000
   1be70:	01800793          	li	a5,24
   1be74:	fae6f6e3          	bgeu	a3,a4,1be20 <__umoddi3+0x2ac>
   1be78:	01000793          	li	a5,16
   1be7c:	fa5ff06f          	j	1be20 <__umoddi3+0x2ac>
   1be80:	014696b3          	sll	a3,a3,s4
   1be84:	01565bb3          	srl	s7,a2,s5
   1be88:	00dbebb3          	or	s7,s7,a3
   1be8c:	0155d9b3          	srl	s3,a1,s5
   1be90:	01555433          	srl	s0,a0,s5
   1be94:	014595b3          	sll	a1,a1,s4
   1be98:	010bd493          	srli	s1,s7,0x10
   1be9c:	00b46433          	or	s0,s0,a1
   1bea0:	01451b33          	sll	s6,a0,s4
   1bea4:	00048593          	mv	a1,s1
   1bea8:	00098513          	mv	a0,s3
   1beac:	010b9c13          	slli	s8,s7,0x10
   1beb0:	01461933          	sll	s2,a2,s4
   1beb4:	010c5c13          	srli	s8,s8,0x10
   1beb8:	390050ef          	jal	21248 <__hidden___udivsi3>
   1bebc:	00050593          	mv	a1,a0
   1bec0:	00050d13          	mv	s10,a0
   1bec4:	000c0513          	mv	a0,s8
   1bec8:	354050ef          	jal	2121c <__mulsi3>
   1becc:	00050c93          	mv	s9,a0
   1bed0:	00048593          	mv	a1,s1
   1bed4:	00098513          	mv	a0,s3
   1bed8:	3b8050ef          	jal	21290 <__umodsi3>
   1bedc:	01051513          	slli	a0,a0,0x10
   1bee0:	01045793          	srli	a5,s0,0x10
   1bee4:	00a7e7b3          	or	a5,a5,a0
   1bee8:	000d0993          	mv	s3,s10
   1beec:	0197fe63          	bgeu	a5,s9,1bf08 <__umoddi3+0x394>
   1bef0:	00fb87b3          	add	a5,s7,a5
   1bef4:	fffd0993          	addi	s3,s10,-1
   1bef8:	0177e863          	bltu	a5,s7,1bf08 <__umoddi3+0x394>
   1befc:	0197f663          	bgeu	a5,s9,1bf08 <__umoddi3+0x394>
   1bf00:	ffed0993          	addi	s3,s10,-2
   1bf04:	017787b3          	add	a5,a5,s7
   1bf08:	41978cb3          	sub	s9,a5,s9
   1bf0c:	00048593          	mv	a1,s1
   1bf10:	000c8513          	mv	a0,s9
   1bf14:	334050ef          	jal	21248 <__hidden___udivsi3>
   1bf18:	00050593          	mv	a1,a0
   1bf1c:	00050d13          	mv	s10,a0
   1bf20:	000c0513          	mv	a0,s8
   1bf24:	2f8050ef          	jal	2121c <__mulsi3>
   1bf28:	00048593          	mv	a1,s1
   1bf2c:	00050c13          	mv	s8,a0
   1bf30:	000c8513          	mv	a0,s9
   1bf34:	35c050ef          	jal	21290 <__umodsi3>
   1bf38:	01041593          	slli	a1,s0,0x10
   1bf3c:	01051513          	slli	a0,a0,0x10
   1bf40:	0105d593          	srli	a1,a1,0x10
   1bf44:	00a5e5b3          	or	a1,a1,a0
   1bf48:	000d0793          	mv	a5,s10
   1bf4c:	0185fe63          	bgeu	a1,s8,1bf68 <__umoddi3+0x3f4>
   1bf50:	00bb85b3          	add	a1,s7,a1
   1bf54:	fffd0793          	addi	a5,s10,-1
   1bf58:	0175e863          	bltu	a1,s7,1bf68 <__umoddi3+0x3f4>
   1bf5c:	0185f663          	bgeu	a1,s8,1bf68 <__umoddi3+0x3f4>
   1bf60:	ffed0793          	addi	a5,s10,-2
   1bf64:	017585b3          	add	a1,a1,s7
   1bf68:	00010e37          	lui	t3,0x10
   1bf6c:	01099993          	slli	s3,s3,0x10
   1bf70:	00f9e9b3          	or	s3,s3,a5
   1bf74:	fffe0793          	addi	a5,t3,-1 # ffff <exit-0x95>
   1bf78:	00f9f733          	and	a4,s3,a5
   1bf7c:	00f977b3          	and	a5,s2,a5
   1bf80:	418584b3          	sub	s1,a1,s8
   1bf84:	0109d993          	srli	s3,s3,0x10
   1bf88:	01095313          	srli	t1,s2,0x10
   1bf8c:	00070513          	mv	a0,a4
   1bf90:	00078593          	mv	a1,a5
   1bf94:	288050ef          	jal	2121c <__mulsi3>
   1bf98:	00050813          	mv	a6,a0
   1bf9c:	00030593          	mv	a1,t1
   1bfa0:	00070513          	mv	a0,a4
   1bfa4:	278050ef          	jal	2121c <__mulsi3>
   1bfa8:	00050713          	mv	a4,a0
   1bfac:	00078593          	mv	a1,a5
   1bfb0:	00098513          	mv	a0,s3
   1bfb4:	268050ef          	jal	2121c <__mulsi3>
   1bfb8:	00050893          	mv	a7,a0
   1bfbc:	00030593          	mv	a1,t1
   1bfc0:	00098513          	mv	a0,s3
   1bfc4:	258050ef          	jal	2121c <__mulsi3>
   1bfc8:	01085793          	srli	a5,a6,0x10
   1bfcc:	01170733          	add	a4,a4,a7
   1bfd0:	00e787b3          	add	a5,a5,a4
   1bfd4:	00050693          	mv	a3,a0
   1bfd8:	0117f463          	bgeu	a5,a7,1bfe0 <__umoddi3+0x46c>
   1bfdc:	01c506b3          	add	a3,a0,t3
   1bfe0:	0107d713          	srli	a4,a5,0x10
   1bfe4:	00d70733          	add	a4,a4,a3
   1bfe8:	000106b7          	lui	a3,0x10
   1bfec:	fff68693          	addi	a3,a3,-1 # ffff <exit-0x95>
   1bff0:	00d7f7b3          	and	a5,a5,a3
   1bff4:	01079793          	slli	a5,a5,0x10
   1bff8:	00d87833          	and	a6,a6,a3
   1bffc:	010787b3          	add	a5,a5,a6
   1c000:	00e4e663          	bltu	s1,a4,1c00c <__umoddi3+0x498>
   1c004:	00e49e63          	bne	s1,a4,1c020 <__umoddi3+0x4ac>
   1c008:	00fb7c63          	bgeu	s6,a5,1c020 <__umoddi3+0x4ac>
   1c00c:	41278933          	sub	s2,a5,s2
   1c010:	0127b6b3          	sltu	a3,a5,s2
   1c014:	017686b3          	add	a3,a3,s7
   1c018:	00090793          	mv	a5,s2
   1c01c:	40d70733          	sub	a4,a4,a3
   1c020:	40fb07b3          	sub	a5,s6,a5
   1c024:	00fb3b33          	sltu	s6,s6,a5
   1c028:	40e485b3          	sub	a1,s1,a4
   1c02c:	416585b3          	sub	a1,a1,s6
   1c030:	01559ab3          	sll	s5,a1,s5
   1c034:	0147d7b3          	srl	a5,a5,s4
   1c038:	00fae533          	or	a0,s5,a5
   1c03c:	0145d5b3          	srl	a1,a1,s4
   1c040:	c71ff06f          	j	1bcb0 <__umoddi3+0x13c>

0001c044 <__adddf3>:
   1c044:	00100837          	lui	a6,0x100
   1c048:	fff80813          	addi	a6,a6,-1 # fffff <__BSS_END__+0xdd4fb>
   1c04c:	fe010113          	addi	sp,sp,-32
   1c050:	00b878b3          	and	a7,a6,a1
   1c054:	0145d713          	srli	a4,a1,0x14
   1c058:	01d55793          	srli	a5,a0,0x1d
   1c05c:	00d87833          	and	a6,a6,a3
   1c060:	00912a23          	sw	s1,20(sp)
   1c064:	7ff77493          	andi	s1,a4,2047
   1c068:	00389713          	slli	a4,a7,0x3
   1c06c:	0146d893          	srli	a7,a3,0x14
   1c070:	00381813          	slli	a6,a6,0x3
   1c074:	01212823          	sw	s2,16(sp)
   1c078:	00e7e7b3          	or	a5,a5,a4
   1c07c:	7ff8f893          	andi	a7,a7,2047
   1c080:	01d65713          	srli	a4,a2,0x1d
   1c084:	00112e23          	sw	ra,28(sp)
   1c088:	00812c23          	sw	s0,24(sp)
   1c08c:	01312623          	sw	s3,12(sp)
   1c090:	01f5d913          	srli	s2,a1,0x1f
   1c094:	01f6d693          	srli	a3,a3,0x1f
   1c098:	01076733          	or	a4,a4,a6
   1c09c:	00351513          	slli	a0,a0,0x3
   1c0a0:	00361613          	slli	a2,a2,0x3
   1c0a4:	41148833          	sub	a6,s1,a7
   1c0a8:	2ad91a63          	bne	s2,a3,1c35c <__adddf3+0x318>
   1c0ac:	11005c63          	blez	a6,1c1c4 <__adddf3+0x180>
   1c0b0:	04089063          	bnez	a7,1c0f0 <__adddf3+0xac>
   1c0b4:	00c766b3          	or	a3,a4,a2
   1c0b8:	66068063          	beqz	a3,1c718 <__adddf3+0x6d4>
   1c0bc:	fff80593          	addi	a1,a6,-1
   1c0c0:	02059063          	bnez	a1,1c0e0 <__adddf3+0x9c>
   1c0c4:	00c50633          	add	a2,a0,a2
   1c0c8:	00a636b3          	sltu	a3,a2,a0
   1c0cc:	00e78733          	add	a4,a5,a4
   1c0d0:	00060513          	mv	a0,a2
   1c0d4:	00d707b3          	add	a5,a4,a3
   1c0d8:	00100493          	li	s1,1
   1c0dc:	06c0006f          	j	1c148 <__adddf3+0x104>
   1c0e0:	7ff00693          	li	a3,2047
   1c0e4:	02d81063          	bne	a6,a3,1c104 <__adddf3+0xc0>
   1c0e8:	7ff00493          	li	s1,2047
   1c0ec:	1f80006f          	j	1c2e4 <__adddf3+0x2a0>
   1c0f0:	7ff00693          	li	a3,2047
   1c0f4:	1ed48863          	beq	s1,a3,1c2e4 <__adddf3+0x2a0>
   1c0f8:	008006b7          	lui	a3,0x800
   1c0fc:	00d76733          	or	a4,a4,a3
   1c100:	00080593          	mv	a1,a6
   1c104:	03800693          	li	a3,56
   1c108:	0ab6c863          	blt	a3,a1,1c1b8 <__adddf3+0x174>
   1c10c:	01f00693          	li	a3,31
   1c110:	06b6ca63          	blt	a3,a1,1c184 <__adddf3+0x140>
   1c114:	02000813          	li	a6,32
   1c118:	40b80833          	sub	a6,a6,a1
   1c11c:	010716b3          	sll	a3,a4,a6
   1c120:	00b658b3          	srl	a7,a2,a1
   1c124:	01061833          	sll	a6,a2,a6
   1c128:	0116e6b3          	or	a3,a3,a7
   1c12c:	01003833          	snez	a6,a6
   1c130:	0106e6b3          	or	a3,a3,a6
   1c134:	00b755b3          	srl	a1,a4,a1
   1c138:	00a68533          	add	a0,a3,a0
   1c13c:	00f585b3          	add	a1,a1,a5
   1c140:	00d536b3          	sltu	a3,a0,a3
   1c144:	00d587b3          	add	a5,a1,a3
   1c148:	00879713          	slli	a4,a5,0x8
   1c14c:	18075c63          	bgez	a4,1c2e4 <__adddf3+0x2a0>
   1c150:	00148493          	addi	s1,s1,1
   1c154:	7ff00713          	li	a4,2047
   1c158:	5ae48a63          	beq	s1,a4,1c70c <__adddf3+0x6c8>
   1c15c:	ff800737          	lui	a4,0xff800
   1c160:	fff70713          	addi	a4,a4,-1 # ff7fffff <__BSS_END__+0xff7dd4fb>
   1c164:	00e7f733          	and	a4,a5,a4
   1c168:	00155793          	srli	a5,a0,0x1
   1c16c:	00157513          	andi	a0,a0,1
   1c170:	00a7e7b3          	or	a5,a5,a0
   1c174:	01f71513          	slli	a0,a4,0x1f
   1c178:	00f56533          	or	a0,a0,a5
   1c17c:	00175793          	srli	a5,a4,0x1
   1c180:	1640006f          	j	1c2e4 <__adddf3+0x2a0>
   1c184:	fe058693          	addi	a3,a1,-32
   1c188:	02000893          	li	a7,32
   1c18c:	00d756b3          	srl	a3,a4,a3
   1c190:	00000813          	li	a6,0
   1c194:	01158863          	beq	a1,a7,1c1a4 <__adddf3+0x160>
   1c198:	04000813          	li	a6,64
   1c19c:	40b80833          	sub	a6,a6,a1
   1c1a0:	01071833          	sll	a6,a4,a6
   1c1a4:	00c86833          	or	a6,a6,a2
   1c1a8:	01003833          	snez	a6,a6
   1c1ac:	0106e6b3          	or	a3,a3,a6
   1c1b0:	00000593          	li	a1,0
   1c1b4:	f85ff06f          	j	1c138 <__adddf3+0xf4>
   1c1b8:	00c766b3          	or	a3,a4,a2
   1c1bc:	00d036b3          	snez	a3,a3
   1c1c0:	ff1ff06f          	j	1c1b0 <__adddf3+0x16c>
   1c1c4:	0c080a63          	beqz	a6,1c298 <__adddf3+0x254>
   1c1c8:	409886b3          	sub	a3,a7,s1
   1c1cc:	02049463          	bnez	s1,1c1f4 <__adddf3+0x1b0>
   1c1d0:	00a7e5b3          	or	a1,a5,a0
   1c1d4:	50058e63          	beqz	a1,1c6f0 <__adddf3+0x6ac>
   1c1d8:	fff68593          	addi	a1,a3,-1 # 7fffff <__BSS_END__+0x7dd4fb>
   1c1dc:	ee0584e3          	beqz	a1,1c0c4 <__adddf3+0x80>
   1c1e0:	7ff00813          	li	a6,2047
   1c1e4:	03069263          	bne	a3,a6,1c208 <__adddf3+0x1c4>
   1c1e8:	00070793          	mv	a5,a4
   1c1ec:	00060513          	mv	a0,a2
   1c1f0:	ef9ff06f          	j	1c0e8 <__adddf3+0xa4>
   1c1f4:	7ff00593          	li	a1,2047
   1c1f8:	feb888e3          	beq	a7,a1,1c1e8 <__adddf3+0x1a4>
   1c1fc:	008005b7          	lui	a1,0x800
   1c200:	00b7e7b3          	or	a5,a5,a1
   1c204:	00068593          	mv	a1,a3
   1c208:	03800693          	li	a3,56
   1c20c:	08b6c063          	blt	a3,a1,1c28c <__adddf3+0x248>
   1c210:	01f00693          	li	a3,31
   1c214:	04b6c263          	blt	a3,a1,1c258 <__adddf3+0x214>
   1c218:	02000813          	li	a6,32
   1c21c:	40b80833          	sub	a6,a6,a1
   1c220:	010796b3          	sll	a3,a5,a6
   1c224:	00b55333          	srl	t1,a0,a1
   1c228:	01051833          	sll	a6,a0,a6
   1c22c:	0066e6b3          	or	a3,a3,t1
   1c230:	01003833          	snez	a6,a6
   1c234:	0106e6b3          	or	a3,a3,a6
   1c238:	00b7d5b3          	srl	a1,a5,a1
   1c23c:	00c68633          	add	a2,a3,a2
   1c240:	00e585b3          	add	a1,a1,a4
   1c244:	00d636b3          	sltu	a3,a2,a3
   1c248:	00060513          	mv	a0,a2
   1c24c:	00d587b3          	add	a5,a1,a3
   1c250:	00088493          	mv	s1,a7
   1c254:	ef5ff06f          	j	1c148 <__adddf3+0x104>
   1c258:	fe058693          	addi	a3,a1,-32 # 7fffe0 <__BSS_END__+0x7dd4dc>
   1c25c:	02000313          	li	t1,32
   1c260:	00d7d6b3          	srl	a3,a5,a3
   1c264:	00000813          	li	a6,0
   1c268:	00658863          	beq	a1,t1,1c278 <__adddf3+0x234>
   1c26c:	04000813          	li	a6,64
   1c270:	40b80833          	sub	a6,a6,a1
   1c274:	01079833          	sll	a6,a5,a6
   1c278:	00a86833          	or	a6,a6,a0
   1c27c:	01003833          	snez	a6,a6
   1c280:	0106e6b3          	or	a3,a3,a6
   1c284:	00000593          	li	a1,0
   1c288:	fb5ff06f          	j	1c23c <__adddf3+0x1f8>
   1c28c:	00a7e6b3          	or	a3,a5,a0
   1c290:	00d036b3          	snez	a3,a3
   1c294:	ff1ff06f          	j	1c284 <__adddf3+0x240>
   1c298:	00148693          	addi	a3,s1,1
   1c29c:	7fe6f593          	andi	a1,a3,2046
   1c2a0:	08059663          	bnez	a1,1c32c <__adddf3+0x2e8>
   1c2a4:	00a7e6b3          	or	a3,a5,a0
   1c2a8:	06049263          	bnez	s1,1c30c <__adddf3+0x2c8>
   1c2ac:	44068863          	beqz	a3,1c6fc <__adddf3+0x6b8>
   1c2b0:	00c766b3          	or	a3,a4,a2
   1c2b4:	02068863          	beqz	a3,1c2e4 <__adddf3+0x2a0>
   1c2b8:	00c50633          	add	a2,a0,a2
   1c2bc:	00a636b3          	sltu	a3,a2,a0
   1c2c0:	00e78733          	add	a4,a5,a4
   1c2c4:	00d707b3          	add	a5,a4,a3
   1c2c8:	00879713          	slli	a4,a5,0x8
   1c2cc:	00060513          	mv	a0,a2
   1c2d0:	00075a63          	bgez	a4,1c2e4 <__adddf3+0x2a0>
   1c2d4:	ff800737          	lui	a4,0xff800
   1c2d8:	fff70713          	addi	a4,a4,-1 # ff7fffff <__BSS_END__+0xff7dd4fb>
   1c2dc:	00e7f7b3          	and	a5,a5,a4
   1c2e0:	00100493          	li	s1,1
   1c2e4:	00757713          	andi	a4,a0,7
   1c2e8:	44070863          	beqz	a4,1c738 <__adddf3+0x6f4>
   1c2ec:	00f57713          	andi	a4,a0,15
   1c2f0:	00400693          	li	a3,4
   1c2f4:	44d70263          	beq	a4,a3,1c738 <__adddf3+0x6f4>
   1c2f8:	00450713          	addi	a4,a0,4
   1c2fc:	00a736b3          	sltu	a3,a4,a0
   1c300:	00d787b3          	add	a5,a5,a3
   1c304:	00070513          	mv	a0,a4
   1c308:	4300006f          	j	1c738 <__adddf3+0x6f4>
   1c30c:	ec068ee3          	beqz	a3,1c1e8 <__adddf3+0x1a4>
   1c310:	00c76633          	or	a2,a4,a2
   1c314:	dc060ae3          	beqz	a2,1c0e8 <__adddf3+0xa4>
   1c318:	00000913          	li	s2,0
   1c31c:	004007b7          	lui	a5,0x400
   1c320:	00000513          	li	a0,0
   1c324:	7ff00493          	li	s1,2047
   1c328:	4100006f          	j	1c738 <__adddf3+0x6f4>
   1c32c:	7ff00593          	li	a1,2047
   1c330:	3cb68c63          	beq	a3,a1,1c708 <__adddf3+0x6c4>
   1c334:	00c50633          	add	a2,a0,a2
   1c338:	00a63533          	sltu	a0,a2,a0
   1c33c:	00e78733          	add	a4,a5,a4
   1c340:	00a70733          	add	a4,a4,a0
   1c344:	01f71513          	slli	a0,a4,0x1f
   1c348:	00165613          	srli	a2,a2,0x1
   1c34c:	00c56533          	or	a0,a0,a2
   1c350:	00175793          	srli	a5,a4,0x1
   1c354:	00068493          	mv	s1,a3
   1c358:	f8dff06f          	j	1c2e4 <__adddf3+0x2a0>
   1c35c:	0f005c63          	blez	a6,1c454 <__adddf3+0x410>
   1c360:	08089e63          	bnez	a7,1c3fc <__adddf3+0x3b8>
   1c364:	00c766b3          	or	a3,a4,a2
   1c368:	3a068863          	beqz	a3,1c718 <__adddf3+0x6d4>
   1c36c:	fff80693          	addi	a3,a6,-1
   1c370:	02069063          	bnez	a3,1c390 <__adddf3+0x34c>
   1c374:	40c50633          	sub	a2,a0,a2
   1c378:	00c536b3          	sltu	a3,a0,a2
   1c37c:	40e78733          	sub	a4,a5,a4
   1c380:	00060513          	mv	a0,a2
   1c384:	40d707b3          	sub	a5,a4,a3
   1c388:	00100493          	li	s1,1
   1c38c:	0540006f          	j	1c3e0 <__adddf3+0x39c>
   1c390:	7ff00593          	li	a1,2047
   1c394:	d4b80ae3          	beq	a6,a1,1c0e8 <__adddf3+0xa4>
   1c398:	03800593          	li	a1,56
   1c39c:	0ad5c663          	blt	a1,a3,1c448 <__adddf3+0x404>
   1c3a0:	01f00593          	li	a1,31
   1c3a4:	06d5c863          	blt	a1,a3,1c414 <__adddf3+0x3d0>
   1c3a8:	02000813          	li	a6,32
   1c3ac:	40d80833          	sub	a6,a6,a3
   1c3b0:	00d658b3          	srl	a7,a2,a3
   1c3b4:	010715b3          	sll	a1,a4,a6
   1c3b8:	01061833          	sll	a6,a2,a6
   1c3bc:	0115e5b3          	or	a1,a1,a7
   1c3c0:	01003833          	snez	a6,a6
   1c3c4:	0105e633          	or	a2,a1,a6
   1c3c8:	00d756b3          	srl	a3,a4,a3
   1c3cc:	40c50633          	sub	a2,a0,a2
   1c3d0:	00c53733          	sltu	a4,a0,a2
   1c3d4:	40d786b3          	sub	a3,a5,a3
   1c3d8:	00060513          	mv	a0,a2
   1c3dc:	40e687b3          	sub	a5,a3,a4
   1c3e0:	00879713          	slli	a4,a5,0x8
   1c3e4:	f00750e3          	bgez	a4,1c2e4 <__adddf3+0x2a0>
   1c3e8:	00800437          	lui	s0,0x800
   1c3ec:	fff40413          	addi	s0,s0,-1 # 7fffff <__BSS_END__+0x7dd4fb>
   1c3f0:	0087f433          	and	s0,a5,s0
   1c3f4:	00050993          	mv	s3,a0
   1c3f8:	2100006f          	j	1c608 <__adddf3+0x5c4>
   1c3fc:	7ff00693          	li	a3,2047
   1c400:	eed482e3          	beq	s1,a3,1c2e4 <__adddf3+0x2a0>
   1c404:	008006b7          	lui	a3,0x800
   1c408:	00d76733          	or	a4,a4,a3
   1c40c:	00080693          	mv	a3,a6
   1c410:	f89ff06f          	j	1c398 <__adddf3+0x354>
   1c414:	fe068593          	addi	a1,a3,-32 # 7fffe0 <__BSS_END__+0x7dd4dc>
   1c418:	02000893          	li	a7,32
   1c41c:	00b755b3          	srl	a1,a4,a1
   1c420:	00000813          	li	a6,0
   1c424:	01168863          	beq	a3,a7,1c434 <__adddf3+0x3f0>
   1c428:	04000813          	li	a6,64
   1c42c:	40d80833          	sub	a6,a6,a3
   1c430:	01071833          	sll	a6,a4,a6
   1c434:	00c86833          	or	a6,a6,a2
   1c438:	01003833          	snez	a6,a6
   1c43c:	0105e633          	or	a2,a1,a6
   1c440:	00000693          	li	a3,0
   1c444:	f89ff06f          	j	1c3cc <__adddf3+0x388>
   1c448:	00c76633          	or	a2,a4,a2
   1c44c:	00c03633          	snez	a2,a2
   1c450:	ff1ff06f          	j	1c440 <__adddf3+0x3fc>
   1c454:	0e080863          	beqz	a6,1c544 <__adddf3+0x500>
   1c458:	40988833          	sub	a6,a7,s1
   1c45c:	04049263          	bnez	s1,1c4a0 <__adddf3+0x45c>
   1c460:	00a7e5b3          	or	a1,a5,a0
   1c464:	2a058e63          	beqz	a1,1c720 <__adddf3+0x6dc>
   1c468:	fff80593          	addi	a1,a6,-1
   1c46c:	00059e63          	bnez	a1,1c488 <__adddf3+0x444>
   1c470:	40a60533          	sub	a0,a2,a0
   1c474:	40f70733          	sub	a4,a4,a5
   1c478:	00a63633          	sltu	a2,a2,a0
   1c47c:	40c707b3          	sub	a5,a4,a2
   1c480:	00068913          	mv	s2,a3
   1c484:	f05ff06f          	j	1c388 <__adddf3+0x344>
   1c488:	7ff00313          	li	t1,2047
   1c48c:	02681463          	bne	a6,t1,1c4b4 <__adddf3+0x470>
   1c490:	00070793          	mv	a5,a4
   1c494:	00060513          	mv	a0,a2
   1c498:	7ff00493          	li	s1,2047
   1c49c:	0d00006f          	j	1c56c <__adddf3+0x528>
   1c4a0:	7ff00593          	li	a1,2047
   1c4a4:	feb886e3          	beq	a7,a1,1c490 <__adddf3+0x44c>
   1c4a8:	008005b7          	lui	a1,0x800
   1c4ac:	00b7e7b3          	or	a5,a5,a1
   1c4b0:	00080593          	mv	a1,a6
   1c4b4:	03800813          	li	a6,56
   1c4b8:	08b84063          	blt	a6,a1,1c538 <__adddf3+0x4f4>
   1c4bc:	01f00813          	li	a6,31
   1c4c0:	04b84263          	blt	a6,a1,1c504 <__adddf3+0x4c0>
   1c4c4:	02000313          	li	t1,32
   1c4c8:	40b30333          	sub	t1,t1,a1
   1c4cc:	00b55e33          	srl	t3,a0,a1
   1c4d0:	00679833          	sll	a6,a5,t1
   1c4d4:	00651333          	sll	t1,a0,t1
   1c4d8:	01c86833          	or	a6,a6,t3
   1c4dc:	00603333          	snez	t1,t1
   1c4e0:	00686533          	or	a0,a6,t1
   1c4e4:	00b7d5b3          	srl	a1,a5,a1
   1c4e8:	40a60533          	sub	a0,a2,a0
   1c4ec:	40b705b3          	sub	a1,a4,a1
   1c4f0:	00a63633          	sltu	a2,a2,a0
   1c4f4:	40c587b3          	sub	a5,a1,a2
   1c4f8:	00088493          	mv	s1,a7
   1c4fc:	00068913          	mv	s2,a3
   1c500:	ee1ff06f          	j	1c3e0 <__adddf3+0x39c>
   1c504:	fe058813          	addi	a6,a1,-32 # 7fffe0 <__BSS_END__+0x7dd4dc>
   1c508:	02000e13          	li	t3,32
   1c50c:	0107d833          	srl	a6,a5,a6
   1c510:	00000313          	li	t1,0
   1c514:	01c58863          	beq	a1,t3,1c524 <__adddf3+0x4e0>
   1c518:	04000313          	li	t1,64
   1c51c:	40b30333          	sub	t1,t1,a1
   1c520:	00679333          	sll	t1,a5,t1
   1c524:	00a36333          	or	t1,t1,a0
   1c528:	00603333          	snez	t1,t1
   1c52c:	00686533          	or	a0,a6,t1
   1c530:	00000593          	li	a1,0
   1c534:	fb5ff06f          	j	1c4e8 <__adddf3+0x4a4>
   1c538:	00a7e533          	or	a0,a5,a0
   1c53c:	00a03533          	snez	a0,a0
   1c540:	ff1ff06f          	j	1c530 <__adddf3+0x4ec>
   1c544:	00148593          	addi	a1,s1,1
   1c548:	7fe5f593          	andi	a1,a1,2046
   1c54c:	08059663          	bnez	a1,1c5d8 <__adddf3+0x594>
   1c550:	00a7e833          	or	a6,a5,a0
   1c554:	00c765b3          	or	a1,a4,a2
   1c558:	06049063          	bnez	s1,1c5b8 <__adddf3+0x574>
   1c55c:	00081c63          	bnez	a6,1c574 <__adddf3+0x530>
   1c560:	10058e63          	beqz	a1,1c67c <__adddf3+0x638>
   1c564:	00070793          	mv	a5,a4
   1c568:	00060513          	mv	a0,a2
   1c56c:	00068913          	mv	s2,a3
   1c570:	d75ff06f          	j	1c2e4 <__adddf3+0x2a0>
   1c574:	d60588e3          	beqz	a1,1c2e4 <__adddf3+0x2a0>
   1c578:	40c50833          	sub	a6,a0,a2
   1c57c:	010538b3          	sltu	a7,a0,a6
   1c580:	40e785b3          	sub	a1,a5,a4
   1c584:	411585b3          	sub	a1,a1,a7
   1c588:	00859893          	slli	a7,a1,0x8
   1c58c:	0008dc63          	bgez	a7,1c5a4 <__adddf3+0x560>
   1c590:	40a60533          	sub	a0,a2,a0
   1c594:	40f70733          	sub	a4,a4,a5
   1c598:	00a63633          	sltu	a2,a2,a0
   1c59c:	40c707b3          	sub	a5,a4,a2
   1c5a0:	fcdff06f          	j	1c56c <__adddf3+0x528>
   1c5a4:	00b86533          	or	a0,a6,a1
   1c5a8:	18050463          	beqz	a0,1c730 <__adddf3+0x6ec>
   1c5ac:	00058793          	mv	a5,a1
   1c5b0:	00080513          	mv	a0,a6
   1c5b4:	d31ff06f          	j	1c2e4 <__adddf3+0x2a0>
   1c5b8:	00081c63          	bnez	a6,1c5d0 <__adddf3+0x58c>
   1c5bc:	d4058ee3          	beqz	a1,1c318 <__adddf3+0x2d4>
   1c5c0:	00070793          	mv	a5,a4
   1c5c4:	00060513          	mv	a0,a2
   1c5c8:	00068913          	mv	s2,a3
   1c5cc:	b1dff06f          	j	1c0e8 <__adddf3+0xa4>
   1c5d0:	b0058ce3          	beqz	a1,1c0e8 <__adddf3+0xa4>
   1c5d4:	d45ff06f          	j	1c318 <__adddf3+0x2d4>
   1c5d8:	40c505b3          	sub	a1,a0,a2
   1c5dc:	00b53833          	sltu	a6,a0,a1
   1c5e0:	40e78433          	sub	s0,a5,a4
   1c5e4:	41040433          	sub	s0,s0,a6
   1c5e8:	00841813          	slli	a6,s0,0x8
   1c5ec:	00058993          	mv	s3,a1
   1c5f0:	08085063          	bgez	a6,1c670 <__adddf3+0x62c>
   1c5f4:	40a609b3          	sub	s3,a2,a0
   1c5f8:	40f70433          	sub	s0,a4,a5
   1c5fc:	01363633          	sltu	a2,a2,s3
   1c600:	40c40433          	sub	s0,s0,a2
   1c604:	00068913          	mv	s2,a3
   1c608:	06040e63          	beqz	s0,1c684 <__adddf3+0x640>
   1c60c:	00040513          	mv	a0,s0
   1c610:	4e5040ef          	jal	212f4 <__clzsi2>
   1c614:	ff850693          	addi	a3,a0,-8
   1c618:	02000793          	li	a5,32
   1c61c:	40d787b3          	sub	a5,a5,a3
   1c620:	00d41433          	sll	s0,s0,a3
   1c624:	00f9d7b3          	srl	a5,s3,a5
   1c628:	0087e7b3          	or	a5,a5,s0
   1c62c:	00d99433          	sll	s0,s3,a3
   1c630:	0a96c463          	blt	a3,s1,1c6d8 <__adddf3+0x694>
   1c634:	409686b3          	sub	a3,a3,s1
   1c638:	00168613          	addi	a2,a3,1
   1c63c:	01f00713          	li	a4,31
   1c640:	06c74263          	blt	a4,a2,1c6a4 <__adddf3+0x660>
   1c644:	02000713          	li	a4,32
   1c648:	40c70733          	sub	a4,a4,a2
   1c64c:	00e79533          	sll	a0,a5,a4
   1c650:	00c456b3          	srl	a3,s0,a2
   1c654:	00e41733          	sll	a4,s0,a4
   1c658:	00d56533          	or	a0,a0,a3
   1c65c:	00e03733          	snez	a4,a4
   1c660:	00e56533          	or	a0,a0,a4
   1c664:	00c7d7b3          	srl	a5,a5,a2
   1c668:	00000493          	li	s1,0
   1c66c:	c79ff06f          	j	1c2e4 <__adddf3+0x2a0>
   1c670:	0085e5b3          	or	a1,a1,s0
   1c674:	f8059ae3          	bnez	a1,1c608 <__adddf3+0x5c4>
   1c678:	00000493          	li	s1,0
   1c67c:	00000913          	li	s2,0
   1c680:	08c0006f          	j	1c70c <__adddf3+0x6c8>
   1c684:	00098513          	mv	a0,s3
   1c688:	46d040ef          	jal	212f4 <__clzsi2>
   1c68c:	01850693          	addi	a3,a0,24
   1c690:	01f00793          	li	a5,31
   1c694:	f8d7d2e3          	bge	a5,a3,1c618 <__adddf3+0x5d4>
   1c698:	ff850793          	addi	a5,a0,-8
   1c69c:	00f997b3          	sll	a5,s3,a5
   1c6a0:	f91ff06f          	j	1c630 <__adddf3+0x5ec>
   1c6a4:	fe168693          	addi	a3,a3,-31
   1c6a8:	00d7d533          	srl	a0,a5,a3
   1c6ac:	02000693          	li	a3,32
   1c6b0:	00000713          	li	a4,0
   1c6b4:	00d60863          	beq	a2,a3,1c6c4 <__adddf3+0x680>
   1c6b8:	04000713          	li	a4,64
   1c6bc:	40c70733          	sub	a4,a4,a2
   1c6c0:	00e79733          	sll	a4,a5,a4
   1c6c4:	00e46733          	or	a4,s0,a4
   1c6c8:	00e03733          	snez	a4,a4
   1c6cc:	00e56533          	or	a0,a0,a4
   1c6d0:	00000793          	li	a5,0
   1c6d4:	f95ff06f          	j	1c668 <__adddf3+0x624>
   1c6d8:	ff800737          	lui	a4,0xff800
   1c6dc:	fff70713          	addi	a4,a4,-1 # ff7fffff <__BSS_END__+0xff7dd4fb>
   1c6e0:	40d484b3          	sub	s1,s1,a3
   1c6e4:	00e7f7b3          	and	a5,a5,a4
   1c6e8:	00040513          	mv	a0,s0
   1c6ec:	bf9ff06f          	j	1c2e4 <__adddf3+0x2a0>
   1c6f0:	00070793          	mv	a5,a4
   1c6f4:	00060513          	mv	a0,a2
   1c6f8:	c5dff06f          	j	1c354 <__adddf3+0x310>
   1c6fc:	00070793          	mv	a5,a4
   1c700:	00060513          	mv	a0,a2
   1c704:	be1ff06f          	j	1c2e4 <__adddf3+0x2a0>
   1c708:	7ff00493          	li	s1,2047
   1c70c:	00000793          	li	a5,0
   1c710:	00000513          	li	a0,0
   1c714:	0240006f          	j	1c738 <__adddf3+0x6f4>
   1c718:	00080493          	mv	s1,a6
   1c71c:	bc9ff06f          	j	1c2e4 <__adddf3+0x2a0>
   1c720:	00070793          	mv	a5,a4
   1c724:	00060513          	mv	a0,a2
   1c728:	00080493          	mv	s1,a6
   1c72c:	e41ff06f          	j	1c56c <__adddf3+0x528>
   1c730:	00000793          	li	a5,0
   1c734:	00000913          	li	s2,0
   1c738:	00879713          	slli	a4,a5,0x8
   1c73c:	00075e63          	bgez	a4,1c758 <__adddf3+0x714>
   1c740:	00148493          	addi	s1,s1,1
   1c744:	7ff00713          	li	a4,2047
   1c748:	08e48263          	beq	s1,a4,1c7cc <__adddf3+0x788>
   1c74c:	ff800737          	lui	a4,0xff800
   1c750:	fff70713          	addi	a4,a4,-1 # ff7fffff <__BSS_END__+0xff7dd4fb>
   1c754:	00e7f7b3          	and	a5,a5,a4
   1c758:	01d79693          	slli	a3,a5,0x1d
   1c75c:	00355513          	srli	a0,a0,0x3
   1c760:	7ff00713          	li	a4,2047
   1c764:	00a6e6b3          	or	a3,a3,a0
   1c768:	0037d793          	srli	a5,a5,0x3
   1c76c:	00e49e63          	bne	s1,a4,1c788 <__adddf3+0x744>
   1c770:	00f6e6b3          	or	a3,a3,a5
   1c774:	00000793          	li	a5,0
   1c778:	00068863          	beqz	a3,1c788 <__adddf3+0x744>
   1c77c:	000807b7          	lui	a5,0x80
   1c780:	00000693          	li	a3,0
   1c784:	00000913          	li	s2,0
   1c788:	01449713          	slli	a4,s1,0x14
   1c78c:	7ff00637          	lui	a2,0x7ff00
   1c790:	00c79793          	slli	a5,a5,0xc
   1c794:	00c77733          	and	a4,a4,a2
   1c798:	01c12083          	lw	ra,28(sp)
   1c79c:	01812403          	lw	s0,24(sp)
   1c7a0:	00c7d793          	srli	a5,a5,0xc
   1c7a4:	00f767b3          	or	a5,a4,a5
   1c7a8:	01f91713          	slli	a4,s2,0x1f
   1c7ac:	00e7e633          	or	a2,a5,a4
   1c7b0:	01412483          	lw	s1,20(sp)
   1c7b4:	01012903          	lw	s2,16(sp)
   1c7b8:	00c12983          	lw	s3,12(sp)
   1c7bc:	00068513          	mv	a0,a3
   1c7c0:	00060593          	mv	a1,a2
   1c7c4:	02010113          	addi	sp,sp,32
   1c7c8:	00008067          	ret
   1c7cc:	00000793          	li	a5,0
   1c7d0:	00000513          	li	a0,0
   1c7d4:	f85ff06f          	j	1c758 <__adddf3+0x714>

0001c7d8 <__divdf3>:
   1c7d8:	fb010113          	addi	sp,sp,-80
   1c7dc:	05212023          	sw	s2,64(sp)
   1c7e0:	0145d913          	srli	s2,a1,0x14
   1c7e4:	04912223          	sw	s1,68(sp)
   1c7e8:	03312e23          	sw	s3,60(sp)
   1c7ec:	03412c23          	sw	s4,56(sp)
   1c7f0:	03512a23          	sw	s5,52(sp)
   1c7f4:	03712623          	sw	s7,44(sp)
   1c7f8:	00c59493          	slli	s1,a1,0xc
   1c7fc:	04112623          	sw	ra,76(sp)
   1c800:	04812423          	sw	s0,72(sp)
   1c804:	03612823          	sw	s6,48(sp)
   1c808:	03812423          	sw	s8,40(sp)
   1c80c:	03912223          	sw	s9,36(sp)
   1c810:	03a12023          	sw	s10,32(sp)
   1c814:	01b12e23          	sw	s11,28(sp)
   1c818:	7ff97913          	andi	s2,s2,2047
   1c81c:	00050993          	mv	s3,a0
   1c820:	00060b93          	mv	s7,a2
   1c824:	00068a13          	mv	s4,a3
   1c828:	00c4d493          	srli	s1,s1,0xc
   1c82c:	01f5da93          	srli	s5,a1,0x1f
   1c830:	0a090063          	beqz	s2,1c8d0 <__divdf3+0xf8>
   1c834:	7ff00793          	li	a5,2047
   1c838:	10f90063          	beq	s2,a5,1c938 <__divdf3+0x160>
   1c83c:	01d55d13          	srli	s10,a0,0x1d
   1c840:	00349493          	slli	s1,s1,0x3
   1c844:	009d6d33          	or	s10,s10,s1
   1c848:	008007b7          	lui	a5,0x800
   1c84c:	00fd6d33          	or	s10,s10,a5
   1c850:	00351413          	slli	s0,a0,0x3
   1c854:	c0190913          	addi	s2,s2,-1023
   1c858:	00000b13          	li	s6,0
   1c85c:	014a5713          	srli	a4,s4,0x14
   1c860:	00ca1993          	slli	s3,s4,0xc
   1c864:	7ff77713          	andi	a4,a4,2047
   1c868:	00c9d993          	srli	s3,s3,0xc
   1c86c:	01fa5a13          	srli	s4,s4,0x1f
   1c870:	10070263          	beqz	a4,1c974 <__divdf3+0x19c>
   1c874:	7ff00793          	li	a5,2047
   1c878:	16f70663          	beq	a4,a5,1c9e4 <__divdf3+0x20c>
   1c87c:	00399993          	slli	s3,s3,0x3
   1c880:	01dbd793          	srli	a5,s7,0x1d
   1c884:	0137e7b3          	or	a5,a5,s3
   1c888:	008009b7          	lui	s3,0x800
   1c88c:	0137e9b3          	or	s3,a5,s3
   1c890:	003b9693          	slli	a3,s7,0x3
   1c894:	c0170713          	addi	a4,a4,-1023
   1c898:	00000793          	li	a5,0
   1c89c:	40e90933          	sub	s2,s2,a4
   1c8a0:	002b1713          	slli	a4,s6,0x2
   1c8a4:	00f76733          	or	a4,a4,a5
   1c8a8:	fff70713          	addi	a4,a4,-1
   1c8ac:	00e00613          	li	a2,14
   1c8b0:	014ac4b3          	xor	s1,s5,s4
   1c8b4:	16e66463          	bltu	a2,a4,1ca1c <__divdf3+0x244>
   1c8b8:	00022637          	lui	a2,0x22
   1c8bc:	00271713          	slli	a4,a4,0x2
   1c8c0:	a7860613          	addi	a2,a2,-1416 # 21a78 <blanks.1+0x10>
   1c8c4:	00c70733          	add	a4,a4,a2
   1c8c8:	00072703          	lw	a4,0(a4)
   1c8cc:	00070067          	jr	a4
   1c8d0:	00a4ed33          	or	s10,s1,a0
   1c8d4:	060d0e63          	beqz	s10,1c950 <__divdf3+0x178>
   1c8d8:	02048e63          	beqz	s1,1c914 <__divdf3+0x13c>
   1c8dc:	00048513          	mv	a0,s1
   1c8e0:	215040ef          	jal	212f4 <__clzsi2>
   1c8e4:	ff550793          	addi	a5,a0,-11
   1c8e8:	01d00d13          	li	s10,29
   1c8ec:	ff850713          	addi	a4,a0,-8
   1c8f0:	40fd0d33          	sub	s10,s10,a5
   1c8f4:	00e494b3          	sll	s1,s1,a4
   1c8f8:	01a9dd33          	srl	s10,s3,s10
   1c8fc:	009d6d33          	or	s10,s10,s1
   1c900:	00e994b3          	sll	s1,s3,a4
   1c904:	c0d00913          	li	s2,-1011
   1c908:	40a90933          	sub	s2,s2,a0
   1c90c:	00048413          	mv	s0,s1
   1c910:	f49ff06f          	j	1c858 <__divdf3+0x80>
   1c914:	1e1040ef          	jal	212f4 <__clzsi2>
   1c918:	00050d13          	mv	s10,a0
   1c91c:	015d0793          	addi	a5,s10,21
   1c920:	01c00713          	li	a4,28
   1c924:	02050513          	addi	a0,a0,32
   1c928:	fcf750e3          	bge	a4,a5,1c8e8 <__divdf3+0x110>
   1c92c:	ff8d0d13          	addi	s10,s10,-8
   1c930:	01a99d33          	sll	s10,s3,s10
   1c934:	fd1ff06f          	j	1c904 <__divdf3+0x12c>
   1c938:	00a4ed33          	or	s10,s1,a0
   1c93c:	020d1263          	bnez	s10,1c960 <__divdf3+0x188>
   1c940:	00000413          	li	s0,0
   1c944:	7ff00913          	li	s2,2047
   1c948:	00200b13          	li	s6,2
   1c94c:	f11ff06f          	j	1c85c <__divdf3+0x84>
   1c950:	00000413          	li	s0,0
   1c954:	00000913          	li	s2,0
   1c958:	00100b13          	li	s6,1
   1c95c:	f01ff06f          	j	1c85c <__divdf3+0x84>
   1c960:	00050413          	mv	s0,a0
   1c964:	00048d13          	mv	s10,s1
   1c968:	7ff00913          	li	s2,2047
   1c96c:	00300b13          	li	s6,3
   1c970:	eedff06f          	j	1c85c <__divdf3+0x84>
   1c974:	0179e6b3          	or	a3,s3,s7
   1c978:	08068263          	beqz	a3,1c9fc <__divdf3+0x224>
   1c97c:	04098063          	beqz	s3,1c9bc <__divdf3+0x1e4>
   1c980:	00098513          	mv	a0,s3
   1c984:	171040ef          	jal	212f4 <__clzsi2>
   1c988:	ff550713          	addi	a4,a0,-11
   1c98c:	01d00793          	li	a5,29
   1c990:	ff850693          	addi	a3,a0,-8
   1c994:	40e787b3          	sub	a5,a5,a4
   1c998:	00d999b3          	sll	s3,s3,a3
   1c99c:	00fbd7b3          	srl	a5,s7,a5
   1c9a0:	0137e7b3          	or	a5,a5,s3
   1c9a4:	00db99b3          	sll	s3,s7,a3
   1c9a8:	c0d00713          	li	a4,-1011
   1c9ac:	00098693          	mv	a3,s3
   1c9b0:	40a70733          	sub	a4,a4,a0
   1c9b4:	00078993          	mv	s3,a5
   1c9b8:	ee1ff06f          	j	1c898 <__divdf3+0xc0>
   1c9bc:	000b8513          	mv	a0,s7
   1c9c0:	135040ef          	jal	212f4 <__clzsi2>
   1c9c4:	00050793          	mv	a5,a0
   1c9c8:	01578713          	addi	a4,a5,21 # 800015 <__BSS_END__+0x7dd511>
   1c9cc:	01c00693          	li	a3,28
   1c9d0:	02050513          	addi	a0,a0,32
   1c9d4:	fae6dce3          	bge	a3,a4,1c98c <__divdf3+0x1b4>
   1c9d8:	ff878793          	addi	a5,a5,-8
   1c9dc:	00fb97b3          	sll	a5,s7,a5
   1c9e0:	fc9ff06f          	j	1c9a8 <__divdf3+0x1d0>
   1c9e4:	0179e6b3          	or	a3,s3,s7
   1c9e8:	02069263          	bnez	a3,1ca0c <__divdf3+0x234>
   1c9ec:	00000993          	li	s3,0
   1c9f0:	7ff00713          	li	a4,2047
   1c9f4:	00200793          	li	a5,2
   1c9f8:	ea5ff06f          	j	1c89c <__divdf3+0xc4>
   1c9fc:	00000993          	li	s3,0
   1ca00:	00000713          	li	a4,0
   1ca04:	00100793          	li	a5,1
   1ca08:	e95ff06f          	j	1c89c <__divdf3+0xc4>
   1ca0c:	000b8693          	mv	a3,s7
   1ca10:	7ff00713          	li	a4,2047
   1ca14:	00300793          	li	a5,3
   1ca18:	e85ff06f          	j	1c89c <__divdf3+0xc4>
   1ca1c:	01a9e663          	bltu	s3,s10,1ca28 <__divdf3+0x250>
   1ca20:	453d1663          	bne	s10,s3,1ce6c <__divdf3+0x694>
   1ca24:	44d46463          	bltu	s0,a3,1ce6c <__divdf3+0x694>
   1ca28:	01fd1713          	slli	a4,s10,0x1f
   1ca2c:	00145793          	srli	a5,s0,0x1
   1ca30:	01f41d93          	slli	s11,s0,0x1f
   1ca34:	001d5d13          	srli	s10,s10,0x1
   1ca38:	00f76433          	or	s0,a4,a5
   1ca3c:	0186dc13          	srli	s8,a3,0x18
   1ca40:	00899b13          	slli	s6,s3,0x8
   1ca44:	016c6c33          	or	s8,s8,s6
   1ca48:	010b5b13          	srli	s6,s6,0x10
   1ca4c:	000b0593          	mv	a1,s6
   1ca50:	010c1b93          	slli	s7,s8,0x10
   1ca54:	000d0513          	mv	a0,s10
   1ca58:	00869c93          	slli	s9,a3,0x8
   1ca5c:	010bdb93          	srli	s7,s7,0x10
   1ca60:	7e8040ef          	jal	21248 <__hidden___udivsi3>
   1ca64:	00050593          	mv	a1,a0
   1ca68:	00050a93          	mv	s5,a0
   1ca6c:	000b8513          	mv	a0,s7
   1ca70:	7ac040ef          	jal	2121c <__mulsi3>
   1ca74:	00050993          	mv	s3,a0
   1ca78:	000b0593          	mv	a1,s6
   1ca7c:	000d0513          	mv	a0,s10
   1ca80:	011040ef          	jal	21290 <__umodsi3>
   1ca84:	01051513          	slli	a0,a0,0x10
   1ca88:	01045793          	srli	a5,s0,0x10
   1ca8c:	00a7e7b3          	or	a5,a5,a0
   1ca90:	000a8a13          	mv	s4,s5
   1ca94:	0137fe63          	bgeu	a5,s3,1cab0 <__divdf3+0x2d8>
   1ca98:	00fc07b3          	add	a5,s8,a5
   1ca9c:	fffa8a13          	addi	s4,s5,-1
   1caa0:	0187e863          	bltu	a5,s8,1cab0 <__divdf3+0x2d8>
   1caa4:	0137f663          	bgeu	a5,s3,1cab0 <__divdf3+0x2d8>
   1caa8:	ffea8a13          	addi	s4,s5,-2
   1caac:	018787b3          	add	a5,a5,s8
   1cab0:	413789b3          	sub	s3,a5,s3
   1cab4:	000b0593          	mv	a1,s6
   1cab8:	00098513          	mv	a0,s3
   1cabc:	78c040ef          	jal	21248 <__hidden___udivsi3>
   1cac0:	00050593          	mv	a1,a0
   1cac4:	00050d13          	mv	s10,a0
   1cac8:	000b8513          	mv	a0,s7
   1cacc:	750040ef          	jal	2121c <__mulsi3>
   1cad0:	00050a93          	mv	s5,a0
   1cad4:	000b0593          	mv	a1,s6
   1cad8:	00098513          	mv	a0,s3
   1cadc:	7b4040ef          	jal	21290 <__umodsi3>
   1cae0:	01041793          	slli	a5,s0,0x10
   1cae4:	01051513          	slli	a0,a0,0x10
   1cae8:	0107d793          	srli	a5,a5,0x10
   1caec:	00a7e7b3          	or	a5,a5,a0
   1caf0:	000d0713          	mv	a4,s10
   1caf4:	0157fe63          	bgeu	a5,s5,1cb10 <__divdf3+0x338>
   1caf8:	00fc07b3          	add	a5,s8,a5
   1cafc:	fffd0713          	addi	a4,s10,-1
   1cb00:	0187e863          	bltu	a5,s8,1cb10 <__divdf3+0x338>
   1cb04:	0157f663          	bgeu	a5,s5,1cb10 <__divdf3+0x338>
   1cb08:	ffed0713          	addi	a4,s10,-2
   1cb0c:	018787b3          	add	a5,a5,s8
   1cb10:	010a1813          	slli	a6,s4,0x10
   1cb14:	00010eb7          	lui	t4,0x10
   1cb18:	00e86833          	or	a6,a6,a4
   1cb1c:	fffe8a13          	addi	s4,t4,-1 # ffff <exit-0x95>
   1cb20:	014878b3          	and	a7,a6,s4
   1cb24:	010cd693          	srli	a3,s9,0x10
   1cb28:	014cfa33          	and	s4,s9,s4
   1cb2c:	415787b3          	sub	a5,a5,s5
   1cb30:	01085713          	srli	a4,a6,0x10
   1cb34:	00d12623          	sw	a3,12(sp)
   1cb38:	00088513          	mv	a0,a7
   1cb3c:	000a0593          	mv	a1,s4
   1cb40:	6dc040ef          	jal	2121c <__mulsi3>
   1cb44:	00050313          	mv	t1,a0
   1cb48:	010cd593          	srli	a1,s9,0x10
   1cb4c:	00088513          	mv	a0,a7
   1cb50:	6cc040ef          	jal	2121c <__mulsi3>
   1cb54:	00050893          	mv	a7,a0
   1cb58:	000a0593          	mv	a1,s4
   1cb5c:	00070513          	mv	a0,a4
   1cb60:	6bc040ef          	jal	2121c <__mulsi3>
   1cb64:	00050e13          	mv	t3,a0
   1cb68:	010cd593          	srli	a1,s9,0x10
   1cb6c:	00070513          	mv	a0,a4
   1cb70:	6ac040ef          	jal	2121c <__mulsi3>
   1cb74:	01035713          	srli	a4,t1,0x10
   1cb78:	01c888b3          	add	a7,a7,t3
   1cb7c:	01170733          	add	a4,a4,a7
   1cb80:	00050613          	mv	a2,a0
   1cb84:	01c77463          	bgeu	a4,t3,1cb8c <__divdf3+0x3b4>
   1cb88:	01d50633          	add	a2,a0,t4
   1cb8c:	01075693          	srli	a3,a4,0x10
   1cb90:	00c686b3          	add	a3,a3,a2
   1cb94:	00010637          	lui	a2,0x10
   1cb98:	fff60613          	addi	a2,a2,-1 # ffff <exit-0x95>
   1cb9c:	00c77733          	and	a4,a4,a2
   1cba0:	01071713          	slli	a4,a4,0x10
   1cba4:	00c37333          	and	t1,t1,a2
   1cba8:	00670733          	add	a4,a4,t1
   1cbac:	00d7e863          	bltu	a5,a3,1cbbc <__divdf3+0x3e4>
   1cbb0:	00080993          	mv	s3,a6
   1cbb4:	04d79863          	bne	a5,a3,1cc04 <__divdf3+0x42c>
   1cbb8:	04edf663          	bgeu	s11,a4,1cc04 <__divdf3+0x42c>
   1cbbc:	019d8633          	add	a2,s11,s9
   1cbc0:	01b635b3          	sltu	a1,a2,s11
   1cbc4:	01858533          	add	a0,a1,s8
   1cbc8:	00a787b3          	add	a5,a5,a0
   1cbcc:	fff80993          	addi	s3,a6,-1
   1cbd0:	00060d93          	mv	s11,a2
   1cbd4:	00fc6663          	bltu	s8,a5,1cbe0 <__divdf3+0x408>
   1cbd8:	02fc1663          	bne	s8,a5,1cc04 <__divdf3+0x42c>
   1cbdc:	02059463          	bnez	a1,1cc04 <__divdf3+0x42c>
   1cbe0:	00d7e663          	bltu	a5,a3,1cbec <__divdf3+0x414>
   1cbe4:	02f69063          	bne	a3,a5,1cc04 <__divdf3+0x42c>
   1cbe8:	00e67e63          	bgeu	a2,a4,1cc04 <__divdf3+0x42c>
   1cbec:	00cc8633          	add	a2,s9,a2
   1cbf0:	00060d93          	mv	s11,a2
   1cbf4:	01963633          	sltu	a2,a2,s9
   1cbf8:	01860633          	add	a2,a2,s8
   1cbfc:	ffe80993          	addi	s3,a6,-2
   1cc00:	00c787b3          	add	a5,a5,a2
   1cc04:	40ed8d33          	sub	s10,s11,a4
   1cc08:	40d787b3          	sub	a5,a5,a3
   1cc0c:	01adbdb3          	sltu	s11,s11,s10
   1cc10:	41b78433          	sub	s0,a5,s11
   1cc14:	fff00693          	li	a3,-1
   1cc18:	188c0e63          	beq	s8,s0,1cdb4 <__divdf3+0x5dc>
   1cc1c:	000b0593          	mv	a1,s6
   1cc20:	00040513          	mv	a0,s0
   1cc24:	624040ef          	jal	21248 <__hidden___udivsi3>
   1cc28:	00050593          	mv	a1,a0
   1cc2c:	00050a93          	mv	s5,a0
   1cc30:	000b8513          	mv	a0,s7
   1cc34:	5e8040ef          	jal	2121c <__mulsi3>
   1cc38:	00050d93          	mv	s11,a0
   1cc3c:	000b0593          	mv	a1,s6
   1cc40:	00040513          	mv	a0,s0
   1cc44:	64c040ef          	jal	21290 <__umodsi3>
   1cc48:	01051513          	slli	a0,a0,0x10
   1cc4c:	010d5693          	srli	a3,s10,0x10
   1cc50:	00a6e6b3          	or	a3,a3,a0
   1cc54:	000a8413          	mv	s0,s5
   1cc58:	01b6fe63          	bgeu	a3,s11,1cc74 <__divdf3+0x49c>
   1cc5c:	00dc06b3          	add	a3,s8,a3
   1cc60:	fffa8413          	addi	s0,s5,-1
   1cc64:	0186e863          	bltu	a3,s8,1cc74 <__divdf3+0x49c>
   1cc68:	01b6f663          	bgeu	a3,s11,1cc74 <__divdf3+0x49c>
   1cc6c:	ffea8413          	addi	s0,s5,-2
   1cc70:	018686b3          	add	a3,a3,s8
   1cc74:	41b68ab3          	sub	s5,a3,s11
   1cc78:	000b0593          	mv	a1,s6
   1cc7c:	000a8513          	mv	a0,s5
   1cc80:	5c8040ef          	jal	21248 <__hidden___udivsi3>
   1cc84:	00050593          	mv	a1,a0
   1cc88:	00050d93          	mv	s11,a0
   1cc8c:	000b8513          	mv	a0,s7
   1cc90:	58c040ef          	jal	2121c <__mulsi3>
   1cc94:	00050b93          	mv	s7,a0
   1cc98:	000b0593          	mv	a1,s6
   1cc9c:	000a8513          	mv	a0,s5
   1cca0:	5f0040ef          	jal	21290 <__umodsi3>
   1cca4:	010d1793          	slli	a5,s10,0x10
   1cca8:	01051513          	slli	a0,a0,0x10
   1ccac:	0107d793          	srli	a5,a5,0x10
   1ccb0:	00a7e7b3          	or	a5,a5,a0
   1ccb4:	000d8713          	mv	a4,s11
   1ccb8:	0177fe63          	bgeu	a5,s7,1ccd4 <__divdf3+0x4fc>
   1ccbc:	00fc07b3          	add	a5,s8,a5
   1ccc0:	fffd8713          	addi	a4,s11,-1
   1ccc4:	0187e863          	bltu	a5,s8,1ccd4 <__divdf3+0x4fc>
   1ccc8:	0177f663          	bgeu	a5,s7,1ccd4 <__divdf3+0x4fc>
   1cccc:	ffed8713          	addi	a4,s11,-2
   1ccd0:	018787b3          	add	a5,a5,s8
   1ccd4:	01041813          	slli	a6,s0,0x10
   1ccd8:	00e86833          	or	a6,a6,a4
   1ccdc:	01081893          	slli	a7,a6,0x10
   1cce0:	0108d893          	srli	a7,a7,0x10
   1cce4:	417787b3          	sub	a5,a5,s7
   1cce8:	01085713          	srli	a4,a6,0x10
   1ccec:	00088513          	mv	a0,a7
   1ccf0:	000a0593          	mv	a1,s4
   1ccf4:	528040ef          	jal	2121c <__mulsi3>
   1ccf8:	00050313          	mv	t1,a0
   1ccfc:	010cd593          	srli	a1,s9,0x10
   1cd00:	00088513          	mv	a0,a7
   1cd04:	518040ef          	jal	2121c <__mulsi3>
   1cd08:	00050893          	mv	a7,a0
   1cd0c:	000a0593          	mv	a1,s4
   1cd10:	00070513          	mv	a0,a4
   1cd14:	508040ef          	jal	2121c <__mulsi3>
   1cd18:	00050e13          	mv	t3,a0
   1cd1c:	010cd593          	srli	a1,s9,0x10
   1cd20:	00070513          	mv	a0,a4
   1cd24:	4f8040ef          	jal	2121c <__mulsi3>
   1cd28:	01035713          	srli	a4,t1,0x10
   1cd2c:	01c888b3          	add	a7,a7,t3
   1cd30:	01170733          	add	a4,a4,a7
   1cd34:	00050693          	mv	a3,a0
   1cd38:	01c77663          	bgeu	a4,t3,1cd44 <__divdf3+0x56c>
   1cd3c:	00010637          	lui	a2,0x10
   1cd40:	00c506b3          	add	a3,a0,a2
   1cd44:	01075613          	srli	a2,a4,0x10
   1cd48:	00d60633          	add	a2,a2,a3
   1cd4c:	000106b7          	lui	a3,0x10
   1cd50:	fff68693          	addi	a3,a3,-1 # ffff <exit-0x95>
   1cd54:	00d77733          	and	a4,a4,a3
   1cd58:	01071713          	slli	a4,a4,0x10
   1cd5c:	00d37333          	and	t1,t1,a3
   1cd60:	00670733          	add	a4,a4,t1
   1cd64:	00c7e863          	bltu	a5,a2,1cd74 <__divdf3+0x59c>
   1cd68:	24c79463          	bne	a5,a2,1cfb0 <__divdf3+0x7d8>
   1cd6c:	00080693          	mv	a3,a6
   1cd70:	04070263          	beqz	a4,1cdb4 <__divdf3+0x5dc>
   1cd74:	00fc07b3          	add	a5,s8,a5
   1cd78:	fff80693          	addi	a3,a6,-1
   1cd7c:	00078593          	mv	a1,a5
   1cd80:	0387e463          	bltu	a5,s8,1cda8 <__divdf3+0x5d0>
   1cd84:	00c7e663          	bltu	a5,a2,1cd90 <__divdf3+0x5b8>
   1cd88:	22c79263          	bne	a5,a2,1cfac <__divdf3+0x7d4>
   1cd8c:	02ecf063          	bgeu	s9,a4,1cdac <__divdf3+0x5d4>
   1cd90:	001c9513          	slli	a0,s9,0x1
   1cd94:	019535b3          	sltu	a1,a0,s9
   1cd98:	018585b3          	add	a1,a1,s8
   1cd9c:	ffe80693          	addi	a3,a6,-2
   1cda0:	00b785b3          	add	a1,a5,a1
   1cda4:	00050c93          	mv	s9,a0
   1cda8:	00c59463          	bne	a1,a2,1cdb0 <__divdf3+0x5d8>
   1cdac:	01970463          	beq	a4,s9,1cdb4 <__divdf3+0x5dc>
   1cdb0:	0016e693          	ori	a3,a3,1
   1cdb4:	3ff90713          	addi	a4,s2,1023
   1cdb8:	10e05a63          	blez	a4,1cecc <__divdf3+0x6f4>
   1cdbc:	0076f793          	andi	a5,a3,7
   1cdc0:	02078063          	beqz	a5,1cde0 <__divdf3+0x608>
   1cdc4:	00f6f793          	andi	a5,a3,15
   1cdc8:	00400613          	li	a2,4
   1cdcc:	00c78a63          	beq	a5,a2,1cde0 <__divdf3+0x608>
   1cdd0:	00468793          	addi	a5,a3,4
   1cdd4:	00d7b633          	sltu	a2,a5,a3
   1cdd8:	00c989b3          	add	s3,s3,a2
   1cddc:	00078693          	mv	a3,a5
   1cde0:	00799793          	slli	a5,s3,0x7
   1cde4:	0007da63          	bgez	a5,1cdf8 <__divdf3+0x620>
   1cde8:	ff0007b7          	lui	a5,0xff000
   1cdec:	fff78793          	addi	a5,a5,-1 # feffffff <__BSS_END__+0xfefdd4fb>
   1cdf0:	00f9f9b3          	and	s3,s3,a5
   1cdf4:	40090713          	addi	a4,s2,1024
   1cdf8:	7fe00793          	li	a5,2046
   1cdfc:	0ae7c263          	blt	a5,a4,1cea0 <__divdf3+0x6c8>
   1ce00:	0036d693          	srli	a3,a3,0x3
   1ce04:	01d99793          	slli	a5,s3,0x1d
   1ce08:	00d7e6b3          	or	a3,a5,a3
   1ce0c:	0039d593          	srli	a1,s3,0x3
   1ce10:	00c59593          	slli	a1,a1,0xc
   1ce14:	04c12083          	lw	ra,76(sp)
   1ce18:	04812403          	lw	s0,72(sp)
   1ce1c:	00c5d593          	srli	a1,a1,0xc
   1ce20:	01471713          	slli	a4,a4,0x14
   1ce24:	00b76733          	or	a4,a4,a1
   1ce28:	01f49493          	slli	s1,s1,0x1f
   1ce2c:	009767b3          	or	a5,a4,s1
   1ce30:	04012903          	lw	s2,64(sp)
   1ce34:	04412483          	lw	s1,68(sp)
   1ce38:	03c12983          	lw	s3,60(sp)
   1ce3c:	03812a03          	lw	s4,56(sp)
   1ce40:	03412a83          	lw	s5,52(sp)
   1ce44:	03012b03          	lw	s6,48(sp)
   1ce48:	02c12b83          	lw	s7,44(sp)
   1ce4c:	02812c03          	lw	s8,40(sp)
   1ce50:	02412c83          	lw	s9,36(sp)
   1ce54:	02012d03          	lw	s10,32(sp)
   1ce58:	01c12d83          	lw	s11,28(sp)
   1ce5c:	00068513          	mv	a0,a3
   1ce60:	00078593          	mv	a1,a5
   1ce64:	05010113          	addi	sp,sp,80
   1ce68:	00008067          	ret
   1ce6c:	fff90913          	addi	s2,s2,-1
   1ce70:	00000d93          	li	s11,0
   1ce74:	bc9ff06f          	j	1ca3c <__divdf3+0x264>
   1ce78:	000a8493          	mv	s1,s5
   1ce7c:	000d0993          	mv	s3,s10
   1ce80:	00040693          	mv	a3,s0
   1ce84:	000b0793          	mv	a5,s6
   1ce88:	00300713          	li	a4,3
   1ce8c:	0ee78863          	beq	a5,a4,1cf7c <__divdf3+0x7a4>
   1ce90:	00100713          	li	a4,1
   1ce94:	0ee78e63          	beq	a5,a4,1cf90 <__divdf3+0x7b8>
   1ce98:	00200713          	li	a4,2
   1ce9c:	f0e79ce3          	bne	a5,a4,1cdb4 <__divdf3+0x5dc>
   1cea0:	00000593          	li	a1,0
   1cea4:	00000693          	li	a3,0
   1cea8:	7ff00713          	li	a4,2047
   1ceac:	f65ff06f          	j	1ce10 <__divdf3+0x638>
   1ceb0:	000a0493          	mv	s1,s4
   1ceb4:	fd5ff06f          	j	1ce88 <__divdf3+0x6b0>
   1ceb8:	000809b7          	lui	s3,0x80
   1cebc:	00000693          	li	a3,0
   1cec0:	00000493          	li	s1,0
   1cec4:	00300793          	li	a5,3
   1cec8:	fc1ff06f          	j	1ce88 <__divdf3+0x6b0>
   1cecc:	00100593          	li	a1,1
   1ced0:	40e585b3          	sub	a1,a1,a4
   1ced4:	03800793          	li	a5,56
   1ced8:	0ab7cc63          	blt	a5,a1,1cf90 <__divdf3+0x7b8>
   1cedc:	01f00793          	li	a5,31
   1cee0:	06b7c463          	blt	a5,a1,1cf48 <__divdf3+0x770>
   1cee4:	41e90913          	addi	s2,s2,1054
   1cee8:	012997b3          	sll	a5,s3,s2
   1ceec:	00b6d733          	srl	a4,a3,a1
   1cef0:	01269933          	sll	s2,a3,s2
   1cef4:	00e7e7b3          	or	a5,a5,a4
   1cef8:	01203933          	snez	s2,s2
   1cefc:	0127e7b3          	or	a5,a5,s2
   1cf00:	00b9d5b3          	srl	a1,s3,a1
   1cf04:	0077f713          	andi	a4,a5,7
   1cf08:	02070063          	beqz	a4,1cf28 <__divdf3+0x750>
   1cf0c:	00f7f713          	andi	a4,a5,15
   1cf10:	00400693          	li	a3,4
   1cf14:	00d70a63          	beq	a4,a3,1cf28 <__divdf3+0x750>
   1cf18:	00478713          	addi	a4,a5,4
   1cf1c:	00f736b3          	sltu	a3,a4,a5
   1cf20:	00d585b3          	add	a1,a1,a3
   1cf24:	00070793          	mv	a5,a4
   1cf28:	00859713          	slli	a4,a1,0x8
   1cf2c:	06074863          	bltz	a4,1cf9c <__divdf3+0x7c4>
   1cf30:	01d59693          	slli	a3,a1,0x1d
   1cf34:	0037d793          	srli	a5,a5,0x3
   1cf38:	00f6e6b3          	or	a3,a3,a5
   1cf3c:	0035d593          	srli	a1,a1,0x3
   1cf40:	00000713          	li	a4,0
   1cf44:	ecdff06f          	j	1ce10 <__divdf3+0x638>
   1cf48:	fe100793          	li	a5,-31
   1cf4c:	40e787b3          	sub	a5,a5,a4
   1cf50:	02000613          	li	a2,32
   1cf54:	00f9d7b3          	srl	a5,s3,a5
   1cf58:	00000713          	li	a4,0
   1cf5c:	00c58663          	beq	a1,a2,1cf68 <__divdf3+0x790>
   1cf60:	43e90713          	addi	a4,s2,1086
   1cf64:	00e99733          	sll	a4,s3,a4
   1cf68:	00d76733          	or	a4,a4,a3
   1cf6c:	00e03733          	snez	a4,a4
   1cf70:	00e7e7b3          	or	a5,a5,a4
   1cf74:	00000593          	li	a1,0
   1cf78:	f8dff06f          	j	1cf04 <__divdf3+0x72c>
   1cf7c:	000805b7          	lui	a1,0x80
   1cf80:	00000693          	li	a3,0
   1cf84:	7ff00713          	li	a4,2047
   1cf88:	00000493          	li	s1,0
   1cf8c:	e85ff06f          	j	1ce10 <__divdf3+0x638>
   1cf90:	00000593          	li	a1,0
   1cf94:	00000693          	li	a3,0
   1cf98:	fa9ff06f          	j	1cf40 <__divdf3+0x768>
   1cf9c:	00000593          	li	a1,0
   1cfa0:	00000693          	li	a3,0
   1cfa4:	00100713          	li	a4,1
   1cfa8:	e69ff06f          	j	1ce10 <__divdf3+0x638>
   1cfac:	00068813          	mv	a6,a3
   1cfb0:	00080693          	mv	a3,a6
   1cfb4:	dfdff06f          	j	1cdb0 <__divdf3+0x5d8>

0001cfb8 <__eqdf2>:
   1cfb8:	0145d713          	srli	a4,a1,0x14
   1cfbc:	001007b7          	lui	a5,0x100
   1cfc0:	fff78793          	addi	a5,a5,-1 # fffff <__BSS_END__+0xdd4fb>
   1cfc4:	0146d813          	srli	a6,a3,0x14
   1cfc8:	00050313          	mv	t1,a0
   1cfcc:	00050e93          	mv	t4,a0
   1cfd0:	7ff77713          	andi	a4,a4,2047
   1cfd4:	7ff00513          	li	a0,2047
   1cfd8:	00b7f8b3          	and	a7,a5,a1
   1cfdc:	00060f13          	mv	t5,a2
   1cfe0:	00d7f7b3          	and	a5,a5,a3
   1cfe4:	01f5d593          	srli	a1,a1,0x1f
   1cfe8:	7ff87813          	andi	a6,a6,2047
   1cfec:	01f6d693          	srli	a3,a3,0x1f
   1cff0:	00a71c63          	bne	a4,a0,1d008 <__eqdf2+0x50>
   1cff4:	0068ee33          	or	t3,a7,t1
   1cff8:	00100513          	li	a0,1
   1cffc:	000e1463          	bnez	t3,1d004 <__eqdf2+0x4c>
   1d000:	00e80663          	beq	a6,a4,1d00c <__eqdf2+0x54>
   1d004:	00008067          	ret
   1d008:	00a81863          	bne	a6,a0,1d018 <__eqdf2+0x60>
   1d00c:	00c7e633          	or	a2,a5,a2
   1d010:	00100513          	li	a0,1
   1d014:	fe0618e3          	bnez	a2,1d004 <__eqdf2+0x4c>
   1d018:	00100513          	li	a0,1
   1d01c:	ff0714e3          	bne	a4,a6,1d004 <__eqdf2+0x4c>
   1d020:	fef892e3          	bne	a7,a5,1d004 <__eqdf2+0x4c>
   1d024:	ffee90e3          	bne	t4,t5,1d004 <__eqdf2+0x4c>
   1d028:	00d58a63          	beq	a1,a3,1d03c <__eqdf2+0x84>
   1d02c:	fc071ce3          	bnez	a4,1d004 <__eqdf2+0x4c>
   1d030:	0068e8b3          	or	a7,a7,t1
   1d034:	01103533          	snez	a0,a7
   1d038:	00008067          	ret
   1d03c:	00000513          	li	a0,0
   1d040:	00008067          	ret

0001d044 <__gedf2>:
   1d044:	0146d793          	srli	a5,a3,0x14
   1d048:	0145d893          	srli	a7,a1,0x14
   1d04c:	00100737          	lui	a4,0x100
   1d050:	fff70713          	addi	a4,a4,-1 # fffff <__BSS_END__+0xdd4fb>
   1d054:	00050813          	mv	a6,a0
   1d058:	00050e13          	mv	t3,a0
   1d05c:	7ff8f893          	andi	a7,a7,2047
   1d060:	7ff7f513          	andi	a0,a5,2047
   1d064:	7ff00793          	li	a5,2047
   1d068:	00b77333          	and	t1,a4,a1
   1d06c:	00060e93          	mv	t4,a2
   1d070:	00d77733          	and	a4,a4,a3
   1d074:	01f5d593          	srli	a1,a1,0x1f
   1d078:	01f6d693          	srli	a3,a3,0x1f
   1d07c:	00f89663          	bne	a7,a5,1d088 <__gedf2+0x44>
   1d080:	010367b3          	or	a5,t1,a6
   1d084:	06079c63          	bnez	a5,1d0fc <__gedf2+0xb8>
   1d088:	7ff00793          	li	a5,2047
   1d08c:	00f51663          	bne	a0,a5,1d098 <__gedf2+0x54>
   1d090:	00c767b3          	or	a5,a4,a2
   1d094:	06079463          	bnez	a5,1d0fc <__gedf2+0xb8>
   1d098:	00000793          	li	a5,0
   1d09c:	00089663          	bnez	a7,1d0a8 <__gedf2+0x64>
   1d0a0:	01036833          	or	a6,t1,a6
   1d0a4:	00183793          	seqz	a5,a6
   1d0a8:	04051e63          	bnez	a0,1d104 <__gedf2+0xc0>
   1d0ac:	00c76633          	or	a2,a4,a2
   1d0b0:	00078c63          	beqz	a5,1d0c8 <__gedf2+0x84>
   1d0b4:	02060063          	beqz	a2,1d0d4 <__gedf2+0x90>
   1d0b8:	00100513          	li	a0,1
   1d0bc:	00069c63          	bnez	a3,1d0d4 <__gedf2+0x90>
   1d0c0:	fff00513          	li	a0,-1
   1d0c4:	00008067          	ret
   1d0c8:	04061063          	bnez	a2,1d108 <__gedf2+0xc4>
   1d0cc:	fff00513          	li	a0,-1
   1d0d0:	04058463          	beqz	a1,1d118 <__gedf2+0xd4>
   1d0d4:	00008067          	ret
   1d0d8:	fea8c0e3          	blt	a7,a0,1d0b8 <__gedf2+0x74>
   1d0dc:	fe6768e3          	bltu	a4,t1,1d0cc <__gedf2+0x88>
   1d0e0:	00e31863          	bne	t1,a4,1d0f0 <__gedf2+0xac>
   1d0e4:	ffcee4e3          	bltu	t4,t3,1d0cc <__gedf2+0x88>
   1d0e8:	00000513          	li	a0,0
   1d0ec:	ffde74e3          	bgeu	t3,t4,1d0d4 <__gedf2+0x90>
   1d0f0:	00100513          	li	a0,1
   1d0f4:	fe0590e3          	bnez	a1,1d0d4 <__gedf2+0x90>
   1d0f8:	fc9ff06f          	j	1d0c0 <__gedf2+0x7c>
   1d0fc:	ffe00513          	li	a0,-2
   1d100:	00008067          	ret
   1d104:	fa079ae3          	bnez	a5,1d0b8 <__gedf2+0x74>
   1d108:	fcb692e3          	bne	a3,a1,1d0cc <__gedf2+0x88>
   1d10c:	fd1556e3          	bge	a0,a7,1d0d8 <__gedf2+0x94>
   1d110:	fff00513          	li	a0,-1
   1d114:	fc0690e3          	bnez	a3,1d0d4 <__gedf2+0x90>
   1d118:	00100513          	li	a0,1
   1d11c:	00008067          	ret

0001d120 <__ledf2>:
   1d120:	0146d793          	srli	a5,a3,0x14
   1d124:	0145d893          	srli	a7,a1,0x14
   1d128:	00100737          	lui	a4,0x100
   1d12c:	fff70713          	addi	a4,a4,-1 # fffff <__BSS_END__+0xdd4fb>
   1d130:	00050813          	mv	a6,a0
   1d134:	00050e13          	mv	t3,a0
   1d138:	7ff8f893          	andi	a7,a7,2047
   1d13c:	7ff7f513          	andi	a0,a5,2047
   1d140:	7ff00793          	li	a5,2047
   1d144:	00b77333          	and	t1,a4,a1
   1d148:	00060e93          	mv	t4,a2
   1d14c:	00d77733          	and	a4,a4,a3
   1d150:	01f5d593          	srli	a1,a1,0x1f
   1d154:	01f6d693          	srli	a3,a3,0x1f
   1d158:	00f89663          	bne	a7,a5,1d164 <__ledf2+0x44>
   1d15c:	010367b3          	or	a5,t1,a6
   1d160:	06079c63          	bnez	a5,1d1d8 <__ledf2+0xb8>
   1d164:	7ff00793          	li	a5,2047
   1d168:	00f51663          	bne	a0,a5,1d174 <__ledf2+0x54>
   1d16c:	00c767b3          	or	a5,a4,a2
   1d170:	06079463          	bnez	a5,1d1d8 <__ledf2+0xb8>
   1d174:	00000793          	li	a5,0
   1d178:	00089663          	bnez	a7,1d184 <__ledf2+0x64>
   1d17c:	01036833          	or	a6,t1,a6
   1d180:	00183793          	seqz	a5,a6
   1d184:	04051e63          	bnez	a0,1d1e0 <__ledf2+0xc0>
   1d188:	00c76633          	or	a2,a4,a2
   1d18c:	00078c63          	beqz	a5,1d1a4 <__ledf2+0x84>
   1d190:	02060063          	beqz	a2,1d1b0 <__ledf2+0x90>
   1d194:	00100513          	li	a0,1
   1d198:	00069c63          	bnez	a3,1d1b0 <__ledf2+0x90>
   1d19c:	fff00513          	li	a0,-1
   1d1a0:	00008067          	ret
   1d1a4:	04061063          	bnez	a2,1d1e4 <__ledf2+0xc4>
   1d1a8:	fff00513          	li	a0,-1
   1d1ac:	04058463          	beqz	a1,1d1f4 <__ledf2+0xd4>
   1d1b0:	00008067          	ret
   1d1b4:	fea8c0e3          	blt	a7,a0,1d194 <__ledf2+0x74>
   1d1b8:	fe6768e3          	bltu	a4,t1,1d1a8 <__ledf2+0x88>
   1d1bc:	00e31863          	bne	t1,a4,1d1cc <__ledf2+0xac>
   1d1c0:	ffcee4e3          	bltu	t4,t3,1d1a8 <__ledf2+0x88>
   1d1c4:	00000513          	li	a0,0
   1d1c8:	ffde74e3          	bgeu	t3,t4,1d1b0 <__ledf2+0x90>
   1d1cc:	00100513          	li	a0,1
   1d1d0:	fe0590e3          	bnez	a1,1d1b0 <__ledf2+0x90>
   1d1d4:	fc9ff06f          	j	1d19c <__ledf2+0x7c>
   1d1d8:	00200513          	li	a0,2
   1d1dc:	00008067          	ret
   1d1e0:	fa079ae3          	bnez	a5,1d194 <__ledf2+0x74>
   1d1e4:	fcb692e3          	bne	a3,a1,1d1a8 <__ledf2+0x88>
   1d1e8:	fd1556e3          	bge	a0,a7,1d1b4 <__ledf2+0x94>
   1d1ec:	fff00513          	li	a0,-1
   1d1f0:	fc0690e3          	bnez	a3,1d1b0 <__ledf2+0x90>
   1d1f4:	00100513          	li	a0,1
   1d1f8:	00008067          	ret

0001d1fc <__muldf3>:
   1d1fc:	fd010113          	addi	sp,sp,-48
   1d200:	01512a23          	sw	s5,20(sp)
   1d204:	0145da93          	srli	s5,a1,0x14
   1d208:	02812423          	sw	s0,40(sp)
   1d20c:	02912223          	sw	s1,36(sp)
   1d210:	03212023          	sw	s2,32(sp)
   1d214:	01312e23          	sw	s3,28(sp)
   1d218:	01612823          	sw	s6,16(sp)
   1d21c:	00c59493          	slli	s1,a1,0xc
   1d220:	02112623          	sw	ra,44(sp)
   1d224:	01412c23          	sw	s4,24(sp)
   1d228:	01712623          	sw	s7,12(sp)
   1d22c:	7ffafa93          	andi	s5,s5,2047
   1d230:	00050413          	mv	s0,a0
   1d234:	00060b13          	mv	s6,a2
   1d238:	00068913          	mv	s2,a3
   1d23c:	00c4d493          	srli	s1,s1,0xc
   1d240:	01f5d993          	srli	s3,a1,0x1f
   1d244:	300a8e63          	beqz	s5,1d560 <__muldf3+0x364>
   1d248:	7ff00793          	li	a5,2047
   1d24c:	38fa8063          	beq	s5,a5,1d5cc <__muldf3+0x3d0>
   1d250:	00349493          	slli	s1,s1,0x3
   1d254:	01d55793          	srli	a5,a0,0x1d
   1d258:	0097e7b3          	or	a5,a5,s1
   1d25c:	008004b7          	lui	s1,0x800
   1d260:	0097e4b3          	or	s1,a5,s1
   1d264:	00351a13          	slli	s4,a0,0x3
   1d268:	c01a8a93          	addi	s5,s5,-1023
   1d26c:	00000b93          	li	s7,0
   1d270:	01495713          	srli	a4,s2,0x14
   1d274:	00c91413          	slli	s0,s2,0xc
   1d278:	7ff77713          	andi	a4,a4,2047
   1d27c:	00c45413          	srli	s0,s0,0xc
   1d280:	01f95913          	srli	s2,s2,0x1f
   1d284:	38070063          	beqz	a4,1d604 <__muldf3+0x408>
   1d288:	7ff00793          	li	a5,2047
   1d28c:	3ef70463          	beq	a4,a5,1d674 <__muldf3+0x478>
   1d290:	00341413          	slli	s0,s0,0x3
   1d294:	01db5793          	srli	a5,s6,0x1d
   1d298:	0087e7b3          	or	a5,a5,s0
   1d29c:	00800437          	lui	s0,0x800
   1d2a0:	0087e433          	or	s0,a5,s0
   1d2a4:	c0170693          	addi	a3,a4,-1023
   1d2a8:	003b1793          	slli	a5,s6,0x3
   1d2ac:	00000713          	li	a4,0
   1d2b0:	00da8ab3          	add	s5,s5,a3
   1d2b4:	002b9693          	slli	a3,s7,0x2
   1d2b8:	00e6e6b3          	or	a3,a3,a4
   1d2bc:	00a00613          	li	a2,10
   1d2c0:	001a8893          	addi	a7,s5,1
   1d2c4:	4cd64663          	blt	a2,a3,1d790 <__muldf3+0x594>
   1d2c8:	00200613          	li	a2,2
   1d2cc:	0129c833          	xor	a6,s3,s2
   1d2d0:	3cd64e63          	blt	a2,a3,1d6ac <__muldf3+0x4b0>
   1d2d4:	fff68693          	addi	a3,a3,-1
   1d2d8:	00100613          	li	a2,1
   1d2dc:	3ed67a63          	bgeu	a2,a3,1d6d0 <__muldf3+0x4d4>
   1d2e0:	00010937          	lui	s2,0x10
   1d2e4:	fff90713          	addi	a4,s2,-1 # ffff <exit-0x95>
   1d2e8:	010a5293          	srli	t0,s4,0x10
   1d2ec:	00e7ffb3          	and	t6,a5,a4
   1d2f0:	00ea7a33          	and	s4,s4,a4
   1d2f4:	0107df13          	srli	t5,a5,0x10
   1d2f8:	000a0513          	mv	a0,s4
   1d2fc:	000f8593          	mv	a1,t6
   1d300:	71d030ef          	jal	2121c <__mulsi3>
   1d304:	00050793          	mv	a5,a0
   1d308:	000f0593          	mv	a1,t5
   1d30c:	000a0513          	mv	a0,s4
   1d310:	70d030ef          	jal	2121c <__mulsi3>
   1d314:	00050e93          	mv	t4,a0
   1d318:	000f8593          	mv	a1,t6
   1d31c:	00028513          	mv	a0,t0
   1d320:	6fd030ef          	jal	2121c <__mulsi3>
   1d324:	00050393          	mv	t2,a0
   1d328:	000f0593          	mv	a1,t5
   1d32c:	00028513          	mv	a0,t0
   1d330:	6ed030ef          	jal	2121c <__mulsi3>
   1d334:	0107d313          	srli	t1,a5,0x10
   1d338:	007e8eb3          	add	t4,t4,t2
   1d33c:	01d30333          	add	t1,t1,t4
   1d340:	00050e13          	mv	t3,a0
   1d344:	00737463          	bgeu	t1,t2,1d34c <__muldf3+0x150>
   1d348:	01250e33          	add	t3,a0,s2
   1d34c:	01035993          	srli	s3,t1,0x10
   1d350:	00e37333          	and	t1,t1,a4
   1d354:	00e7f7b3          	and	a5,a5,a4
   1d358:	01031313          	slli	t1,t1,0x10
   1d35c:	00e47733          	and	a4,s0,a4
   1d360:	00f30333          	add	t1,t1,a5
   1d364:	01045913          	srli	s2,s0,0x10
   1d368:	000a0513          	mv	a0,s4
   1d36c:	00070593          	mv	a1,a4
   1d370:	6ad030ef          	jal	2121c <__mulsi3>
   1d374:	00050393          	mv	t2,a0
   1d378:	00090593          	mv	a1,s2
   1d37c:	000a0513          	mv	a0,s4
   1d380:	69d030ef          	jal	2121c <__mulsi3>
   1d384:	00050e93          	mv	t4,a0
   1d388:	00070593          	mv	a1,a4
   1d38c:	00028513          	mv	a0,t0
   1d390:	68d030ef          	jal	2121c <__mulsi3>
   1d394:	00050413          	mv	s0,a0
   1d398:	00090593          	mv	a1,s2
   1d39c:	00028513          	mv	a0,t0
   1d3a0:	67d030ef          	jal	2121c <__mulsi3>
   1d3a4:	0103d613          	srli	a2,t2,0x10
   1d3a8:	008e8eb3          	add	t4,t4,s0
   1d3ac:	01d60633          	add	a2,a2,t4
   1d3b0:	00050793          	mv	a5,a0
   1d3b4:	00867663          	bgeu	a2,s0,1d3c0 <__muldf3+0x1c4>
   1d3b8:	000106b7          	lui	a3,0x10
   1d3bc:	00d507b3          	add	a5,a0,a3
   1d3c0:	00010a37          	lui	s4,0x10
   1d3c4:	fffa0e93          	addi	t4,s4,-1 # ffff <exit-0x95>
   1d3c8:	01065293          	srli	t0,a2,0x10
   1d3cc:	00f282b3          	add	t0,t0,a5
   1d3d0:	01d677b3          	and	a5,a2,t4
   1d3d4:	01d3f3b3          	and	t2,t2,t4
   1d3d8:	01079793          	slli	a5,a5,0x10
   1d3dc:	007787b3          	add	a5,a5,t2
   1d3e0:	01d4feb3          	and	t4,s1,t4
   1d3e4:	00f98433          	add	s0,s3,a5
   1d3e8:	000e8513          	mv	a0,t4
   1d3ec:	0104d993          	srli	s3,s1,0x10
   1d3f0:	000f8593          	mv	a1,t6
   1d3f4:	629030ef          	jal	2121c <__mulsi3>
   1d3f8:	00050493          	mv	s1,a0
   1d3fc:	000f0593          	mv	a1,t5
   1d400:	000e8513          	mv	a0,t4
   1d404:	619030ef          	jal	2121c <__mulsi3>
   1d408:	00050393          	mv	t2,a0
   1d40c:	000f8593          	mv	a1,t6
   1d410:	00098513          	mv	a0,s3
   1d414:	609030ef          	jal	2121c <__mulsi3>
   1d418:	00050f93          	mv	t6,a0
   1d41c:	000f0593          	mv	a1,t5
   1d420:	00098513          	mv	a0,s3
   1d424:	5f9030ef          	jal	2121c <__mulsi3>
   1d428:	0104d613          	srli	a2,s1,0x10
   1d42c:	01f383b3          	add	t2,t2,t6
   1d430:	00760633          	add	a2,a2,t2
   1d434:	00050693          	mv	a3,a0
   1d438:	01f67463          	bgeu	a2,t6,1d440 <__muldf3+0x244>
   1d43c:	014506b3          	add	a3,a0,s4
   1d440:	00010a37          	lui	s4,0x10
   1d444:	fffa0393          	addi	t2,s4,-1 # ffff <exit-0x95>
   1d448:	01065f93          	srli	t6,a2,0x10
   1d44c:	00767633          	and	a2,a2,t2
   1d450:	01061613          	slli	a2,a2,0x10
   1d454:	0074f4b3          	and	s1,s1,t2
   1d458:	00df8fb3          	add	t6,t6,a3
   1d45c:	00960f33          	add	t5,a2,s1
   1d460:	000e8513          	mv	a0,t4
   1d464:	00070593          	mv	a1,a4
   1d468:	5b5030ef          	jal	2121c <__mulsi3>
   1d46c:	00050493          	mv	s1,a0
   1d470:	00090593          	mv	a1,s2
   1d474:	000e8513          	mv	a0,t4
   1d478:	5a5030ef          	jal	2121c <__mulsi3>
   1d47c:	00050b13          	mv	s6,a0
   1d480:	00070593          	mv	a1,a4
   1d484:	00098513          	mv	a0,s3
   1d488:	595030ef          	jal	2121c <__mulsi3>
   1d48c:	00050713          	mv	a4,a0
   1d490:	00090593          	mv	a1,s2
   1d494:	00098513          	mv	a0,s3
   1d498:	585030ef          	jal	2121c <__mulsi3>
   1d49c:	0104d593          	srli	a1,s1,0x10
   1d4a0:	00eb0b33          	add	s6,s6,a4
   1d4a4:	016585b3          	add	a1,a1,s6
   1d4a8:	00050e93          	mv	t4,a0
   1d4ac:	00e5f463          	bgeu	a1,a4,1d4b4 <__muldf3+0x2b8>
   1d4b0:	01450eb3          	add	t4,a0,s4
   1d4b4:	0075f733          	and	a4,a1,t2
   1d4b8:	01071713          	slli	a4,a4,0x10
   1d4bc:	0074f4b3          	and	s1,s1,t2
   1d4c0:	008e06b3          	add	a3,t3,s0
   1d4c4:	00970733          	add	a4,a4,s1
   1d4c8:	005702b3          	add	t0,a4,t0
   1d4cc:	00f6b7b3          	sltu	a5,a3,a5
   1d4d0:	00f287b3          	add	a5,t0,a5
   1d4d4:	00e2b633          	sltu	a2,t0,a4
   1d4d8:	0057b2b3          	sltu	t0,a5,t0
   1d4dc:	0105d593          	srli	a1,a1,0x10
   1d4e0:	00566633          	or	a2,a2,t0
   1d4e4:	00b60633          	add	a2,a2,a1
   1d4e8:	01e685b3          	add	a1,a3,t5
   1d4ec:	01f78fb3          	add	t6,a5,t6
   1d4f0:	00d5b6b3          	sltu	a3,a1,a3
   1d4f4:	00df86b3          	add	a3,t6,a3
   1d4f8:	00ffb733          	sltu	a4,t6,a5
   1d4fc:	01f6bfb3          	sltu	t6,a3,t6
   1d500:	00959793          	slli	a5,a1,0x9
   1d504:	01f76733          	or	a4,a4,t6
   1d508:	00c70733          	add	a4,a4,a2
   1d50c:	0067e7b3          	or	a5,a5,t1
   1d510:	01d70733          	add	a4,a4,t4
   1d514:	00f037b3          	snez	a5,a5
   1d518:	0175d593          	srli	a1,a1,0x17
   1d51c:	00971713          	slli	a4,a4,0x9
   1d520:	0176d413          	srli	s0,a3,0x17
   1d524:	00b7e7b3          	or	a5,a5,a1
   1d528:	00969693          	slli	a3,a3,0x9
   1d52c:	00d7e7b3          	or	a5,a5,a3
   1d530:	00771693          	slli	a3,a4,0x7
   1d534:	00876433          	or	s0,a4,s0
   1d538:	0206d063          	bgez	a3,1d558 <__muldf3+0x35c>
   1d53c:	0017d713          	srli	a4,a5,0x1
   1d540:	0017f793          	andi	a5,a5,1
   1d544:	00f76733          	or	a4,a4,a5
   1d548:	01f41793          	slli	a5,s0,0x1f
   1d54c:	00f767b3          	or	a5,a4,a5
   1d550:	00145413          	srli	s0,s0,0x1
   1d554:	00088a93          	mv	s5,a7
   1d558:	000a8893          	mv	a7,s5
   1d55c:	18c0006f          	j	1d6e8 <__muldf3+0x4ec>
   1d560:	00a4ea33          	or	s4,s1,a0
   1d564:	080a0063          	beqz	s4,1d5e4 <__muldf3+0x3e8>
   1d568:	04048063          	beqz	s1,1d5a8 <__muldf3+0x3ac>
   1d56c:	00048513          	mv	a0,s1
   1d570:	585030ef          	jal	212f4 <__clzsi2>
   1d574:	ff550713          	addi	a4,a0,-11
   1d578:	01d00793          	li	a5,29
   1d57c:	ff850693          	addi	a3,a0,-8
   1d580:	40e787b3          	sub	a5,a5,a4
   1d584:	00d494b3          	sll	s1,s1,a3
   1d588:	00f457b3          	srl	a5,s0,a5
   1d58c:	0097e7b3          	or	a5,a5,s1
   1d590:	00d414b3          	sll	s1,s0,a3
   1d594:	c0d00a93          	li	s5,-1011
   1d598:	00048a13          	mv	s4,s1
   1d59c:	40aa8ab3          	sub	s5,s5,a0
   1d5a0:	00078493          	mv	s1,a5
   1d5a4:	cc9ff06f          	j	1d26c <__muldf3+0x70>
   1d5a8:	54d030ef          	jal	212f4 <__clzsi2>
   1d5ac:	00050793          	mv	a5,a0
   1d5b0:	01578713          	addi	a4,a5,21
   1d5b4:	01c00693          	li	a3,28
   1d5b8:	02050513          	addi	a0,a0,32
   1d5bc:	fae6dee3          	bge	a3,a4,1d578 <__muldf3+0x37c>
   1d5c0:	ff878793          	addi	a5,a5,-8
   1d5c4:	00f417b3          	sll	a5,s0,a5
   1d5c8:	fcdff06f          	j	1d594 <__muldf3+0x398>
   1d5cc:	00a4ea33          	or	s4,s1,a0
   1d5d0:	020a1263          	bnez	s4,1d5f4 <__muldf3+0x3f8>
   1d5d4:	00000493          	li	s1,0
   1d5d8:	7ff00a93          	li	s5,2047
   1d5dc:	00200b93          	li	s7,2
   1d5e0:	c91ff06f          	j	1d270 <__muldf3+0x74>
   1d5e4:	00000493          	li	s1,0
   1d5e8:	00000a93          	li	s5,0
   1d5ec:	00100b93          	li	s7,1
   1d5f0:	c81ff06f          	j	1d270 <__muldf3+0x74>
   1d5f4:	00050a13          	mv	s4,a0
   1d5f8:	7ff00a93          	li	s5,2047
   1d5fc:	00300b93          	li	s7,3
   1d600:	c71ff06f          	j	1d270 <__muldf3+0x74>
   1d604:	016467b3          	or	a5,s0,s6
   1d608:	08078263          	beqz	a5,1d68c <__muldf3+0x490>
   1d60c:	04040063          	beqz	s0,1d64c <__muldf3+0x450>
   1d610:	00040513          	mv	a0,s0
   1d614:	4e1030ef          	jal	212f4 <__clzsi2>
   1d618:	ff550693          	addi	a3,a0,-11
   1d61c:	01d00713          	li	a4,29
   1d620:	ff850793          	addi	a5,a0,-8
   1d624:	40d70733          	sub	a4,a4,a3
   1d628:	00f41433          	sll	s0,s0,a5
   1d62c:	00eb5733          	srl	a4,s6,a4
   1d630:	00876733          	or	a4,a4,s0
   1d634:	00fb1433          	sll	s0,s6,a5
   1d638:	c0d00693          	li	a3,-1011
   1d63c:	00040793          	mv	a5,s0
   1d640:	40a686b3          	sub	a3,a3,a0
   1d644:	00070413          	mv	s0,a4
   1d648:	c65ff06f          	j	1d2ac <__muldf3+0xb0>
   1d64c:	000b0513          	mv	a0,s6
   1d650:	4a5030ef          	jal	212f4 <__clzsi2>
   1d654:	00050793          	mv	a5,a0
   1d658:	01578693          	addi	a3,a5,21
   1d65c:	01c00713          	li	a4,28
   1d660:	02050513          	addi	a0,a0,32
   1d664:	fad75ce3          	bge	a4,a3,1d61c <__muldf3+0x420>
   1d668:	ff878793          	addi	a5,a5,-8
   1d66c:	00fb1733          	sll	a4,s6,a5
   1d670:	fc9ff06f          	j	1d638 <__muldf3+0x43c>
   1d674:	016467b3          	or	a5,s0,s6
   1d678:	02079263          	bnez	a5,1d69c <__muldf3+0x4a0>
   1d67c:	00000413          	li	s0,0
   1d680:	7ff00693          	li	a3,2047
   1d684:	00200713          	li	a4,2
   1d688:	c29ff06f          	j	1d2b0 <__muldf3+0xb4>
   1d68c:	00000413          	li	s0,0
   1d690:	00000693          	li	a3,0
   1d694:	00100713          	li	a4,1
   1d698:	c19ff06f          	j	1d2b0 <__muldf3+0xb4>
   1d69c:	000b0793          	mv	a5,s6
   1d6a0:	7ff00693          	li	a3,2047
   1d6a4:	00300713          	li	a4,3
   1d6a8:	c09ff06f          	j	1d2b0 <__muldf3+0xb4>
   1d6ac:	00100613          	li	a2,1
   1d6b0:	00d61633          	sll	a2,a2,a3
   1d6b4:	53067693          	andi	a3,a2,1328
   1d6b8:	0e069663          	bnez	a3,1d7a4 <__muldf3+0x5a8>
   1d6bc:	24067593          	andi	a1,a2,576
   1d6c0:	1a059a63          	bnez	a1,1d874 <__muldf3+0x678>
   1d6c4:	08867613          	andi	a2,a2,136
   1d6c8:	c0060ce3          	beqz	a2,1d2e0 <__muldf3+0xe4>
   1d6cc:	00090813          	mv	a6,s2
   1d6d0:	00200693          	li	a3,2
   1d6d4:	18d70863          	beq	a4,a3,1d864 <__muldf3+0x668>
   1d6d8:	00300693          	li	a3,3
   1d6dc:	1ad70463          	beq	a4,a3,1d884 <__muldf3+0x688>
   1d6e0:	00100693          	li	a3,1
   1d6e4:	1ad70663          	beq	a4,a3,1d890 <__muldf3+0x694>
   1d6e8:	3ff88613          	addi	a2,a7,1023
   1d6ec:	0cc05463          	blez	a2,1d7b4 <__muldf3+0x5b8>
   1d6f0:	0077f713          	andi	a4,a5,7
   1d6f4:	02070063          	beqz	a4,1d714 <__muldf3+0x518>
   1d6f8:	00f7f713          	andi	a4,a5,15
   1d6fc:	00400693          	li	a3,4
   1d700:	00d70a63          	beq	a4,a3,1d714 <__muldf3+0x518>
   1d704:	00478713          	addi	a4,a5,4
   1d708:	00f736b3          	sltu	a3,a4,a5
   1d70c:	00d40433          	add	s0,s0,a3
   1d710:	00070793          	mv	a5,a4
   1d714:	00741713          	slli	a4,s0,0x7
   1d718:	00075a63          	bgez	a4,1d72c <__muldf3+0x530>
   1d71c:	ff000737          	lui	a4,0xff000
   1d720:	fff70713          	addi	a4,a4,-1 # feffffff <__BSS_END__+0xfefdd4fb>
   1d724:	00e47433          	and	s0,s0,a4
   1d728:	40088613          	addi	a2,a7,1024
   1d72c:	7fe00713          	li	a4,2046
   1d730:	12c74a63          	blt	a4,a2,1d864 <__muldf3+0x668>
   1d734:	0037d793          	srli	a5,a5,0x3
   1d738:	01d41693          	slli	a3,s0,0x1d
   1d73c:	00f6e6b3          	or	a3,a3,a5
   1d740:	00345713          	srli	a4,s0,0x3
   1d744:	00c71713          	slli	a4,a4,0xc
   1d748:	02c12083          	lw	ra,44(sp)
   1d74c:	02812403          	lw	s0,40(sp)
   1d750:	01461613          	slli	a2,a2,0x14
   1d754:	00c75713          	srli	a4,a4,0xc
   1d758:	00e66633          	or	a2,a2,a4
   1d75c:	01f81813          	slli	a6,a6,0x1f
   1d760:	010667b3          	or	a5,a2,a6
   1d764:	02412483          	lw	s1,36(sp)
   1d768:	02012903          	lw	s2,32(sp)
   1d76c:	01c12983          	lw	s3,28(sp)
   1d770:	01812a03          	lw	s4,24(sp)
   1d774:	01412a83          	lw	s5,20(sp)
   1d778:	01012b03          	lw	s6,16(sp)
   1d77c:	00c12b83          	lw	s7,12(sp)
   1d780:	00068513          	mv	a0,a3
   1d784:	00078593          	mv	a1,a5
   1d788:	03010113          	addi	sp,sp,48
   1d78c:	00008067          	ret
   1d790:	00f00613          	li	a2,15
   1d794:	0ec68863          	beq	a3,a2,1d884 <__muldf3+0x688>
   1d798:	00b00613          	li	a2,11
   1d79c:	00098813          	mv	a6,s3
   1d7a0:	f2c686e3          	beq	a3,a2,1d6cc <__muldf3+0x4d0>
   1d7a4:	00048413          	mv	s0,s1
   1d7a8:	000a0793          	mv	a5,s4
   1d7ac:	000b8713          	mv	a4,s7
   1d7b0:	f21ff06f          	j	1d6d0 <__muldf3+0x4d4>
   1d7b4:	00100713          	li	a4,1
   1d7b8:	40c70733          	sub	a4,a4,a2
   1d7bc:	03800693          	li	a3,56
   1d7c0:	0ce6c863          	blt	a3,a4,1d890 <__muldf3+0x694>
   1d7c4:	01f00693          	li	a3,31
   1d7c8:	06e6c463          	blt	a3,a4,1d830 <__muldf3+0x634>
   1d7cc:	41e88893          	addi	a7,a7,1054
   1d7d0:	00e7d633          	srl	a2,a5,a4
   1d7d4:	011416b3          	sll	a3,s0,a7
   1d7d8:	011798b3          	sll	a7,a5,a7
   1d7dc:	00c6e6b3          	or	a3,a3,a2
   1d7e0:	011038b3          	snez	a7,a7
   1d7e4:	0116e7b3          	or	a5,a3,a7
   1d7e8:	00e45733          	srl	a4,s0,a4
   1d7ec:	0077f693          	andi	a3,a5,7
   1d7f0:	02068063          	beqz	a3,1d810 <__muldf3+0x614>
   1d7f4:	00f7f693          	andi	a3,a5,15
   1d7f8:	00400613          	li	a2,4
   1d7fc:	00c68a63          	beq	a3,a2,1d810 <__muldf3+0x614>
   1d800:	00478693          	addi	a3,a5,4
   1d804:	00f6b633          	sltu	a2,a3,a5
   1d808:	00c70733          	add	a4,a4,a2
   1d80c:	00068793          	mv	a5,a3
   1d810:	00871693          	slli	a3,a4,0x8
   1d814:	0806c463          	bltz	a3,1d89c <__muldf3+0x6a0>
   1d818:	01d71693          	slli	a3,a4,0x1d
   1d81c:	0037d793          	srli	a5,a5,0x3
   1d820:	00f6e6b3          	or	a3,a3,a5
   1d824:	00375713          	srli	a4,a4,0x3
   1d828:	00000613          	li	a2,0
   1d82c:	f19ff06f          	j	1d744 <__muldf3+0x548>
   1d830:	fe100693          	li	a3,-31
   1d834:	40c686b3          	sub	a3,a3,a2
   1d838:	02000593          	li	a1,32
   1d83c:	00d456b3          	srl	a3,s0,a3
   1d840:	00000613          	li	a2,0
   1d844:	00b70663          	beq	a4,a1,1d850 <__muldf3+0x654>
   1d848:	43e88613          	addi	a2,a7,1086
   1d84c:	00c41633          	sll	a2,s0,a2
   1d850:	00f66633          	or	a2,a2,a5
   1d854:	00c03633          	snez	a2,a2
   1d858:	00c6e7b3          	or	a5,a3,a2
   1d85c:	00000713          	li	a4,0
   1d860:	f8dff06f          	j	1d7ec <__muldf3+0x5f0>
   1d864:	00000713          	li	a4,0
   1d868:	00000693          	li	a3,0
   1d86c:	7ff00613          	li	a2,2047
   1d870:	ed5ff06f          	j	1d744 <__muldf3+0x548>
   1d874:	00080737          	lui	a4,0x80
   1d878:	7ff00613          	li	a2,2047
   1d87c:	00000813          	li	a6,0
   1d880:	ec5ff06f          	j	1d744 <__muldf3+0x548>
   1d884:	00080737          	lui	a4,0x80
   1d888:	00000693          	li	a3,0
   1d88c:	fedff06f          	j	1d878 <__muldf3+0x67c>
   1d890:	00000713          	li	a4,0
   1d894:	00000693          	li	a3,0
   1d898:	f91ff06f          	j	1d828 <__muldf3+0x62c>
   1d89c:	00000713          	li	a4,0
   1d8a0:	00000693          	li	a3,0
   1d8a4:	00100613          	li	a2,1
   1d8a8:	e9dff06f          	j	1d744 <__muldf3+0x548>

0001d8ac <__subdf3>:
   1d8ac:	00100837          	lui	a6,0x100
   1d8b0:	fff80813          	addi	a6,a6,-1 # fffff <__BSS_END__+0xdd4fb>
   1d8b4:	fe010113          	addi	sp,sp,-32
   1d8b8:	00b878b3          	and	a7,a6,a1
   1d8bc:	0145d713          	srli	a4,a1,0x14
   1d8c0:	01d55793          	srli	a5,a0,0x1d
   1d8c4:	00d87833          	and	a6,a6,a3
   1d8c8:	01212823          	sw	s2,16(sp)
   1d8cc:	7ff77913          	andi	s2,a4,2047
   1d8d0:	00389713          	slli	a4,a7,0x3
   1d8d4:	0146d893          	srli	a7,a3,0x14
   1d8d8:	00912a23          	sw	s1,20(sp)
   1d8dc:	00e7e7b3          	or	a5,a5,a4
   1d8e0:	01f5d493          	srli	s1,a1,0x1f
   1d8e4:	01d65713          	srli	a4,a2,0x1d
   1d8e8:	00381813          	slli	a6,a6,0x3
   1d8ec:	00112e23          	sw	ra,28(sp)
   1d8f0:	00812c23          	sw	s0,24(sp)
   1d8f4:	01312623          	sw	s3,12(sp)
   1d8f8:	7ff8f893          	andi	a7,a7,2047
   1d8fc:	7ff00593          	li	a1,2047
   1d900:	00351513          	slli	a0,a0,0x3
   1d904:	01f6d693          	srli	a3,a3,0x1f
   1d908:	01076733          	or	a4,a4,a6
   1d90c:	00361613          	slli	a2,a2,0x3
   1d910:	00b89663          	bne	a7,a1,1d91c <__subdf3+0x70>
   1d914:	00c765b3          	or	a1,a4,a2
   1d918:	00059463          	bnez	a1,1d920 <__subdf3+0x74>
   1d91c:	0016c693          	xori	a3,a3,1
   1d920:	41190833          	sub	a6,s2,a7
   1d924:	2a969a63          	bne	a3,s1,1dbd8 <__subdf3+0x32c>
   1d928:	11005c63          	blez	a6,1da40 <__subdf3+0x194>
   1d92c:	04089063          	bnez	a7,1d96c <__subdf3+0xc0>
   1d930:	00c766b3          	or	a3,a4,a2
   1d934:	66068063          	beqz	a3,1df94 <__subdf3+0x6e8>
   1d938:	fff80593          	addi	a1,a6,-1
   1d93c:	02059063          	bnez	a1,1d95c <__subdf3+0xb0>
   1d940:	00c50633          	add	a2,a0,a2
   1d944:	00a636b3          	sltu	a3,a2,a0
   1d948:	00e78733          	add	a4,a5,a4
   1d94c:	00060513          	mv	a0,a2
   1d950:	00d707b3          	add	a5,a4,a3
   1d954:	00100913          	li	s2,1
   1d958:	06c0006f          	j	1d9c4 <__subdf3+0x118>
   1d95c:	7ff00693          	li	a3,2047
   1d960:	02d81063          	bne	a6,a3,1d980 <__subdf3+0xd4>
   1d964:	7ff00913          	li	s2,2047
   1d968:	1f80006f          	j	1db60 <__subdf3+0x2b4>
   1d96c:	7ff00693          	li	a3,2047
   1d970:	1ed90863          	beq	s2,a3,1db60 <__subdf3+0x2b4>
   1d974:	008006b7          	lui	a3,0x800
   1d978:	00d76733          	or	a4,a4,a3
   1d97c:	00080593          	mv	a1,a6
   1d980:	03800693          	li	a3,56
   1d984:	0ab6c863          	blt	a3,a1,1da34 <__subdf3+0x188>
   1d988:	01f00693          	li	a3,31
   1d98c:	06b6ca63          	blt	a3,a1,1da00 <__subdf3+0x154>
   1d990:	02000813          	li	a6,32
   1d994:	40b80833          	sub	a6,a6,a1
   1d998:	010716b3          	sll	a3,a4,a6
   1d99c:	00b658b3          	srl	a7,a2,a1
   1d9a0:	01061833          	sll	a6,a2,a6
   1d9a4:	0116e6b3          	or	a3,a3,a7
   1d9a8:	01003833          	snez	a6,a6
   1d9ac:	0106e6b3          	or	a3,a3,a6
   1d9b0:	00b755b3          	srl	a1,a4,a1
   1d9b4:	00a68533          	add	a0,a3,a0
   1d9b8:	00f585b3          	add	a1,a1,a5
   1d9bc:	00d536b3          	sltu	a3,a0,a3
   1d9c0:	00d587b3          	add	a5,a1,a3
   1d9c4:	00879713          	slli	a4,a5,0x8
   1d9c8:	18075c63          	bgez	a4,1db60 <__subdf3+0x2b4>
   1d9cc:	00190913          	addi	s2,s2,1
   1d9d0:	7ff00713          	li	a4,2047
   1d9d4:	5ae90a63          	beq	s2,a4,1df88 <__subdf3+0x6dc>
   1d9d8:	ff800737          	lui	a4,0xff800
   1d9dc:	fff70713          	addi	a4,a4,-1 # ff7fffff <__BSS_END__+0xff7dd4fb>
   1d9e0:	00e7f733          	and	a4,a5,a4
   1d9e4:	00155793          	srli	a5,a0,0x1
   1d9e8:	00157513          	andi	a0,a0,1
   1d9ec:	00a7e7b3          	or	a5,a5,a0
   1d9f0:	01f71513          	slli	a0,a4,0x1f
   1d9f4:	00f56533          	or	a0,a0,a5
   1d9f8:	00175793          	srli	a5,a4,0x1
   1d9fc:	1640006f          	j	1db60 <__subdf3+0x2b4>
   1da00:	fe058693          	addi	a3,a1,-32 # 7ffe0 <__BSS_END__+0x5d4dc>
   1da04:	02000893          	li	a7,32
   1da08:	00d756b3          	srl	a3,a4,a3
   1da0c:	00000813          	li	a6,0
   1da10:	01158863          	beq	a1,a7,1da20 <__subdf3+0x174>
   1da14:	04000813          	li	a6,64
   1da18:	40b80833          	sub	a6,a6,a1
   1da1c:	01071833          	sll	a6,a4,a6
   1da20:	00c86833          	or	a6,a6,a2
   1da24:	01003833          	snez	a6,a6
   1da28:	0106e6b3          	or	a3,a3,a6
   1da2c:	00000593          	li	a1,0
   1da30:	f85ff06f          	j	1d9b4 <__subdf3+0x108>
   1da34:	00c766b3          	or	a3,a4,a2
   1da38:	00d036b3          	snez	a3,a3
   1da3c:	ff1ff06f          	j	1da2c <__subdf3+0x180>
   1da40:	0c080a63          	beqz	a6,1db14 <__subdf3+0x268>
   1da44:	412886b3          	sub	a3,a7,s2
   1da48:	02091463          	bnez	s2,1da70 <__subdf3+0x1c4>
   1da4c:	00a7e5b3          	or	a1,a5,a0
   1da50:	50058e63          	beqz	a1,1df6c <__subdf3+0x6c0>
   1da54:	fff68593          	addi	a1,a3,-1 # 7fffff <__BSS_END__+0x7dd4fb>
   1da58:	ee0584e3          	beqz	a1,1d940 <__subdf3+0x94>
   1da5c:	7ff00813          	li	a6,2047
   1da60:	03069263          	bne	a3,a6,1da84 <__subdf3+0x1d8>
   1da64:	00070793          	mv	a5,a4
   1da68:	00060513          	mv	a0,a2
   1da6c:	ef9ff06f          	j	1d964 <__subdf3+0xb8>
   1da70:	7ff00593          	li	a1,2047
   1da74:	feb888e3          	beq	a7,a1,1da64 <__subdf3+0x1b8>
   1da78:	008005b7          	lui	a1,0x800
   1da7c:	00b7e7b3          	or	a5,a5,a1
   1da80:	00068593          	mv	a1,a3
   1da84:	03800693          	li	a3,56
   1da88:	08b6c063          	blt	a3,a1,1db08 <__subdf3+0x25c>
   1da8c:	01f00693          	li	a3,31
   1da90:	04b6c263          	blt	a3,a1,1dad4 <__subdf3+0x228>
   1da94:	02000813          	li	a6,32
   1da98:	40b80833          	sub	a6,a6,a1
   1da9c:	010796b3          	sll	a3,a5,a6
   1daa0:	00b55333          	srl	t1,a0,a1
   1daa4:	01051833          	sll	a6,a0,a6
   1daa8:	0066e6b3          	or	a3,a3,t1
   1daac:	01003833          	snez	a6,a6
   1dab0:	0106e6b3          	or	a3,a3,a6
   1dab4:	00b7d5b3          	srl	a1,a5,a1
   1dab8:	00c68633          	add	a2,a3,a2
   1dabc:	00e585b3          	add	a1,a1,a4
   1dac0:	00d636b3          	sltu	a3,a2,a3
   1dac4:	00060513          	mv	a0,a2
   1dac8:	00d587b3          	add	a5,a1,a3
   1dacc:	00088913          	mv	s2,a7
   1dad0:	ef5ff06f          	j	1d9c4 <__subdf3+0x118>
   1dad4:	fe058693          	addi	a3,a1,-32 # 7fffe0 <__BSS_END__+0x7dd4dc>
   1dad8:	02000313          	li	t1,32
   1dadc:	00d7d6b3          	srl	a3,a5,a3
   1dae0:	00000813          	li	a6,0
   1dae4:	00658863          	beq	a1,t1,1daf4 <__subdf3+0x248>
   1dae8:	04000813          	li	a6,64
   1daec:	40b80833          	sub	a6,a6,a1
   1daf0:	01079833          	sll	a6,a5,a6
   1daf4:	00a86833          	or	a6,a6,a0
   1daf8:	01003833          	snez	a6,a6
   1dafc:	0106e6b3          	or	a3,a3,a6
   1db00:	00000593          	li	a1,0
   1db04:	fb5ff06f          	j	1dab8 <__subdf3+0x20c>
   1db08:	00a7e6b3          	or	a3,a5,a0
   1db0c:	00d036b3          	snez	a3,a3
   1db10:	ff1ff06f          	j	1db00 <__subdf3+0x254>
   1db14:	00190693          	addi	a3,s2,1
   1db18:	7fe6f593          	andi	a1,a3,2046
   1db1c:	08059663          	bnez	a1,1dba8 <__subdf3+0x2fc>
   1db20:	00a7e6b3          	or	a3,a5,a0
   1db24:	06091263          	bnez	s2,1db88 <__subdf3+0x2dc>
   1db28:	44068863          	beqz	a3,1df78 <__subdf3+0x6cc>
   1db2c:	00c766b3          	or	a3,a4,a2
   1db30:	02068863          	beqz	a3,1db60 <__subdf3+0x2b4>
   1db34:	00c50633          	add	a2,a0,a2
   1db38:	00a636b3          	sltu	a3,a2,a0
   1db3c:	00e78733          	add	a4,a5,a4
   1db40:	00d707b3          	add	a5,a4,a3
   1db44:	00879713          	slli	a4,a5,0x8
   1db48:	00060513          	mv	a0,a2
   1db4c:	00075a63          	bgez	a4,1db60 <__subdf3+0x2b4>
   1db50:	ff800737          	lui	a4,0xff800
   1db54:	fff70713          	addi	a4,a4,-1 # ff7fffff <__BSS_END__+0xff7dd4fb>
   1db58:	00e7f7b3          	and	a5,a5,a4
   1db5c:	00100913          	li	s2,1
   1db60:	00757713          	andi	a4,a0,7
   1db64:	44070863          	beqz	a4,1dfb4 <__subdf3+0x708>
   1db68:	00f57713          	andi	a4,a0,15
   1db6c:	00400693          	li	a3,4
   1db70:	44d70263          	beq	a4,a3,1dfb4 <__subdf3+0x708>
   1db74:	00450713          	addi	a4,a0,4
   1db78:	00a736b3          	sltu	a3,a4,a0
   1db7c:	00d787b3          	add	a5,a5,a3
   1db80:	00070513          	mv	a0,a4
   1db84:	4300006f          	j	1dfb4 <__subdf3+0x708>
   1db88:	ec068ee3          	beqz	a3,1da64 <__subdf3+0x1b8>
   1db8c:	00c76633          	or	a2,a4,a2
   1db90:	dc060ae3          	beqz	a2,1d964 <__subdf3+0xb8>
   1db94:	00000493          	li	s1,0
   1db98:	004007b7          	lui	a5,0x400
   1db9c:	00000513          	li	a0,0
   1dba0:	7ff00913          	li	s2,2047
   1dba4:	4100006f          	j	1dfb4 <__subdf3+0x708>
   1dba8:	7ff00593          	li	a1,2047
   1dbac:	3cb68c63          	beq	a3,a1,1df84 <__subdf3+0x6d8>
   1dbb0:	00c50633          	add	a2,a0,a2
   1dbb4:	00a63533          	sltu	a0,a2,a0
   1dbb8:	00e78733          	add	a4,a5,a4
   1dbbc:	00a70733          	add	a4,a4,a0
   1dbc0:	01f71513          	slli	a0,a4,0x1f
   1dbc4:	00165613          	srli	a2,a2,0x1
   1dbc8:	00c56533          	or	a0,a0,a2
   1dbcc:	00175793          	srli	a5,a4,0x1
   1dbd0:	00068913          	mv	s2,a3
   1dbd4:	f8dff06f          	j	1db60 <__subdf3+0x2b4>
   1dbd8:	0f005c63          	blez	a6,1dcd0 <__subdf3+0x424>
   1dbdc:	08089e63          	bnez	a7,1dc78 <__subdf3+0x3cc>
   1dbe0:	00c766b3          	or	a3,a4,a2
   1dbe4:	3a068863          	beqz	a3,1df94 <__subdf3+0x6e8>
   1dbe8:	fff80693          	addi	a3,a6,-1
   1dbec:	02069063          	bnez	a3,1dc0c <__subdf3+0x360>
   1dbf0:	40c50633          	sub	a2,a0,a2
   1dbf4:	00c536b3          	sltu	a3,a0,a2
   1dbf8:	40e78733          	sub	a4,a5,a4
   1dbfc:	00060513          	mv	a0,a2
   1dc00:	40d707b3          	sub	a5,a4,a3
   1dc04:	00100913          	li	s2,1
   1dc08:	0540006f          	j	1dc5c <__subdf3+0x3b0>
   1dc0c:	7ff00593          	li	a1,2047
   1dc10:	d4b80ae3          	beq	a6,a1,1d964 <__subdf3+0xb8>
   1dc14:	03800593          	li	a1,56
   1dc18:	0ad5c663          	blt	a1,a3,1dcc4 <__subdf3+0x418>
   1dc1c:	01f00593          	li	a1,31
   1dc20:	06d5c863          	blt	a1,a3,1dc90 <__subdf3+0x3e4>
   1dc24:	02000813          	li	a6,32
   1dc28:	40d80833          	sub	a6,a6,a3
   1dc2c:	00d658b3          	srl	a7,a2,a3
   1dc30:	010715b3          	sll	a1,a4,a6
   1dc34:	01061833          	sll	a6,a2,a6
   1dc38:	0115e5b3          	or	a1,a1,a7
   1dc3c:	01003833          	snez	a6,a6
   1dc40:	0105e633          	or	a2,a1,a6
   1dc44:	00d756b3          	srl	a3,a4,a3
   1dc48:	40c50633          	sub	a2,a0,a2
   1dc4c:	00c53733          	sltu	a4,a0,a2
   1dc50:	40d786b3          	sub	a3,a5,a3
   1dc54:	00060513          	mv	a0,a2
   1dc58:	40e687b3          	sub	a5,a3,a4
   1dc5c:	00879713          	slli	a4,a5,0x8
   1dc60:	f00750e3          	bgez	a4,1db60 <__subdf3+0x2b4>
   1dc64:	00800437          	lui	s0,0x800
   1dc68:	fff40413          	addi	s0,s0,-1 # 7fffff <__BSS_END__+0x7dd4fb>
   1dc6c:	0087f433          	and	s0,a5,s0
   1dc70:	00050993          	mv	s3,a0
   1dc74:	2100006f          	j	1de84 <__subdf3+0x5d8>
   1dc78:	7ff00693          	li	a3,2047
   1dc7c:	eed902e3          	beq	s2,a3,1db60 <__subdf3+0x2b4>
   1dc80:	008006b7          	lui	a3,0x800
   1dc84:	00d76733          	or	a4,a4,a3
   1dc88:	00080693          	mv	a3,a6
   1dc8c:	f89ff06f          	j	1dc14 <__subdf3+0x368>
   1dc90:	fe068593          	addi	a1,a3,-32 # 7fffe0 <__BSS_END__+0x7dd4dc>
   1dc94:	02000893          	li	a7,32
   1dc98:	00b755b3          	srl	a1,a4,a1
   1dc9c:	00000813          	li	a6,0
   1dca0:	01168863          	beq	a3,a7,1dcb0 <__subdf3+0x404>
   1dca4:	04000813          	li	a6,64
   1dca8:	40d80833          	sub	a6,a6,a3
   1dcac:	01071833          	sll	a6,a4,a6
   1dcb0:	00c86833          	or	a6,a6,a2
   1dcb4:	01003833          	snez	a6,a6
   1dcb8:	0105e633          	or	a2,a1,a6
   1dcbc:	00000693          	li	a3,0
   1dcc0:	f89ff06f          	j	1dc48 <__subdf3+0x39c>
   1dcc4:	00c76633          	or	a2,a4,a2
   1dcc8:	00c03633          	snez	a2,a2
   1dccc:	ff1ff06f          	j	1dcbc <__subdf3+0x410>
   1dcd0:	0e080863          	beqz	a6,1ddc0 <__subdf3+0x514>
   1dcd4:	41288833          	sub	a6,a7,s2
   1dcd8:	04091263          	bnez	s2,1dd1c <__subdf3+0x470>
   1dcdc:	00a7e5b3          	or	a1,a5,a0
   1dce0:	2a058e63          	beqz	a1,1df9c <__subdf3+0x6f0>
   1dce4:	fff80593          	addi	a1,a6,-1
   1dce8:	00059e63          	bnez	a1,1dd04 <__subdf3+0x458>
   1dcec:	40a60533          	sub	a0,a2,a0
   1dcf0:	40f70733          	sub	a4,a4,a5
   1dcf4:	00a63633          	sltu	a2,a2,a0
   1dcf8:	40c707b3          	sub	a5,a4,a2
   1dcfc:	00068493          	mv	s1,a3
   1dd00:	f05ff06f          	j	1dc04 <__subdf3+0x358>
   1dd04:	7ff00313          	li	t1,2047
   1dd08:	02681463          	bne	a6,t1,1dd30 <__subdf3+0x484>
   1dd0c:	00070793          	mv	a5,a4
   1dd10:	00060513          	mv	a0,a2
   1dd14:	7ff00913          	li	s2,2047
   1dd18:	0d00006f          	j	1dde8 <__subdf3+0x53c>
   1dd1c:	7ff00593          	li	a1,2047
   1dd20:	feb886e3          	beq	a7,a1,1dd0c <__subdf3+0x460>
   1dd24:	008005b7          	lui	a1,0x800
   1dd28:	00b7e7b3          	or	a5,a5,a1
   1dd2c:	00080593          	mv	a1,a6
   1dd30:	03800813          	li	a6,56
   1dd34:	08b84063          	blt	a6,a1,1ddb4 <__subdf3+0x508>
   1dd38:	01f00813          	li	a6,31
   1dd3c:	04b84263          	blt	a6,a1,1dd80 <__subdf3+0x4d4>
   1dd40:	02000313          	li	t1,32
   1dd44:	40b30333          	sub	t1,t1,a1
   1dd48:	00b55e33          	srl	t3,a0,a1
   1dd4c:	00679833          	sll	a6,a5,t1
   1dd50:	00651333          	sll	t1,a0,t1
   1dd54:	01c86833          	or	a6,a6,t3
   1dd58:	00603333          	snez	t1,t1
   1dd5c:	00686533          	or	a0,a6,t1
   1dd60:	00b7d5b3          	srl	a1,a5,a1
   1dd64:	40a60533          	sub	a0,a2,a0
   1dd68:	40b705b3          	sub	a1,a4,a1
   1dd6c:	00a63633          	sltu	a2,a2,a0
   1dd70:	40c587b3          	sub	a5,a1,a2
   1dd74:	00088913          	mv	s2,a7
   1dd78:	00068493          	mv	s1,a3
   1dd7c:	ee1ff06f          	j	1dc5c <__subdf3+0x3b0>
   1dd80:	fe058813          	addi	a6,a1,-32 # 7fffe0 <__BSS_END__+0x7dd4dc>
   1dd84:	02000e13          	li	t3,32
   1dd88:	0107d833          	srl	a6,a5,a6
   1dd8c:	00000313          	li	t1,0
   1dd90:	01c58863          	beq	a1,t3,1dda0 <__subdf3+0x4f4>
   1dd94:	04000313          	li	t1,64
   1dd98:	40b30333          	sub	t1,t1,a1
   1dd9c:	00679333          	sll	t1,a5,t1
   1dda0:	00a36333          	or	t1,t1,a0
   1dda4:	00603333          	snez	t1,t1
   1dda8:	00686533          	or	a0,a6,t1
   1ddac:	00000593          	li	a1,0
   1ddb0:	fb5ff06f          	j	1dd64 <__subdf3+0x4b8>
   1ddb4:	00a7e533          	or	a0,a5,a0
   1ddb8:	00a03533          	snez	a0,a0
   1ddbc:	ff1ff06f          	j	1ddac <__subdf3+0x500>
   1ddc0:	00190593          	addi	a1,s2,1
   1ddc4:	7fe5f593          	andi	a1,a1,2046
   1ddc8:	08059663          	bnez	a1,1de54 <__subdf3+0x5a8>
   1ddcc:	00c765b3          	or	a1,a4,a2
   1ddd0:	00a7e833          	or	a6,a5,a0
   1ddd4:	06091063          	bnez	s2,1de34 <__subdf3+0x588>
   1ddd8:	00081c63          	bnez	a6,1ddf0 <__subdf3+0x544>
   1dddc:	10058e63          	beqz	a1,1def8 <__subdf3+0x64c>
   1dde0:	00070793          	mv	a5,a4
   1dde4:	00060513          	mv	a0,a2
   1dde8:	00068493          	mv	s1,a3
   1ddec:	d75ff06f          	j	1db60 <__subdf3+0x2b4>
   1ddf0:	d60588e3          	beqz	a1,1db60 <__subdf3+0x2b4>
   1ddf4:	40c50833          	sub	a6,a0,a2
   1ddf8:	010538b3          	sltu	a7,a0,a6
   1ddfc:	40e785b3          	sub	a1,a5,a4
   1de00:	411585b3          	sub	a1,a1,a7
   1de04:	00859893          	slli	a7,a1,0x8
   1de08:	0008dc63          	bgez	a7,1de20 <__subdf3+0x574>
   1de0c:	40a60533          	sub	a0,a2,a0
   1de10:	40f70733          	sub	a4,a4,a5
   1de14:	00a63633          	sltu	a2,a2,a0
   1de18:	40c707b3          	sub	a5,a4,a2
   1de1c:	fcdff06f          	j	1dde8 <__subdf3+0x53c>
   1de20:	00b86533          	or	a0,a6,a1
   1de24:	18050463          	beqz	a0,1dfac <__subdf3+0x700>
   1de28:	00058793          	mv	a5,a1
   1de2c:	00080513          	mv	a0,a6
   1de30:	d31ff06f          	j	1db60 <__subdf3+0x2b4>
   1de34:	00081c63          	bnez	a6,1de4c <__subdf3+0x5a0>
   1de38:	d4058ee3          	beqz	a1,1db94 <__subdf3+0x2e8>
   1de3c:	00070793          	mv	a5,a4
   1de40:	00060513          	mv	a0,a2
   1de44:	00068493          	mv	s1,a3
   1de48:	b1dff06f          	j	1d964 <__subdf3+0xb8>
   1de4c:	b0058ce3          	beqz	a1,1d964 <__subdf3+0xb8>
   1de50:	d45ff06f          	j	1db94 <__subdf3+0x2e8>
   1de54:	40c505b3          	sub	a1,a0,a2
   1de58:	00b53833          	sltu	a6,a0,a1
   1de5c:	40e78433          	sub	s0,a5,a4
   1de60:	41040433          	sub	s0,s0,a6
   1de64:	00841813          	slli	a6,s0,0x8
   1de68:	00058993          	mv	s3,a1
   1de6c:	08085063          	bgez	a6,1deec <__subdf3+0x640>
   1de70:	40a609b3          	sub	s3,a2,a0
   1de74:	40f70433          	sub	s0,a4,a5
   1de78:	01363633          	sltu	a2,a2,s3
   1de7c:	40c40433          	sub	s0,s0,a2
   1de80:	00068493          	mv	s1,a3
   1de84:	06040e63          	beqz	s0,1df00 <__subdf3+0x654>
   1de88:	00040513          	mv	a0,s0
   1de8c:	468030ef          	jal	212f4 <__clzsi2>
   1de90:	ff850693          	addi	a3,a0,-8
   1de94:	02000793          	li	a5,32
   1de98:	40d787b3          	sub	a5,a5,a3
   1de9c:	00d41433          	sll	s0,s0,a3
   1dea0:	00f9d7b3          	srl	a5,s3,a5
   1dea4:	0087e7b3          	or	a5,a5,s0
   1dea8:	00d99433          	sll	s0,s3,a3
   1deac:	0b26c463          	blt	a3,s2,1df54 <__subdf3+0x6a8>
   1deb0:	412686b3          	sub	a3,a3,s2
   1deb4:	00168613          	addi	a2,a3,1
   1deb8:	01f00713          	li	a4,31
   1debc:	06c74263          	blt	a4,a2,1df20 <__subdf3+0x674>
   1dec0:	02000713          	li	a4,32
   1dec4:	40c70733          	sub	a4,a4,a2
   1dec8:	00e79533          	sll	a0,a5,a4
   1decc:	00c456b3          	srl	a3,s0,a2
   1ded0:	00e41733          	sll	a4,s0,a4
   1ded4:	00d56533          	or	a0,a0,a3
   1ded8:	00e03733          	snez	a4,a4
   1dedc:	00e56533          	or	a0,a0,a4
   1dee0:	00c7d7b3          	srl	a5,a5,a2
   1dee4:	00000913          	li	s2,0
   1dee8:	c79ff06f          	j	1db60 <__subdf3+0x2b4>
   1deec:	0085e5b3          	or	a1,a1,s0
   1def0:	f8059ae3          	bnez	a1,1de84 <__subdf3+0x5d8>
   1def4:	00000913          	li	s2,0
   1def8:	00000493          	li	s1,0
   1defc:	08c0006f          	j	1df88 <__subdf3+0x6dc>
   1df00:	00098513          	mv	a0,s3
   1df04:	3f0030ef          	jal	212f4 <__clzsi2>
   1df08:	01850693          	addi	a3,a0,24
   1df0c:	01f00793          	li	a5,31
   1df10:	f8d7d2e3          	bge	a5,a3,1de94 <__subdf3+0x5e8>
   1df14:	ff850793          	addi	a5,a0,-8
   1df18:	00f997b3          	sll	a5,s3,a5
   1df1c:	f91ff06f          	j	1deac <__subdf3+0x600>
   1df20:	fe168693          	addi	a3,a3,-31
   1df24:	00d7d533          	srl	a0,a5,a3
   1df28:	02000693          	li	a3,32
   1df2c:	00000713          	li	a4,0
   1df30:	00d60863          	beq	a2,a3,1df40 <__subdf3+0x694>
   1df34:	04000713          	li	a4,64
   1df38:	40c70733          	sub	a4,a4,a2
   1df3c:	00e79733          	sll	a4,a5,a4
   1df40:	00e46733          	or	a4,s0,a4
   1df44:	00e03733          	snez	a4,a4
   1df48:	00e56533          	or	a0,a0,a4
   1df4c:	00000793          	li	a5,0
   1df50:	f95ff06f          	j	1dee4 <__subdf3+0x638>
   1df54:	ff800737          	lui	a4,0xff800
   1df58:	fff70713          	addi	a4,a4,-1 # ff7fffff <__BSS_END__+0xff7dd4fb>
   1df5c:	40d90933          	sub	s2,s2,a3
   1df60:	00e7f7b3          	and	a5,a5,a4
   1df64:	00040513          	mv	a0,s0
   1df68:	bf9ff06f          	j	1db60 <__subdf3+0x2b4>
   1df6c:	00070793          	mv	a5,a4
   1df70:	00060513          	mv	a0,a2
   1df74:	c5dff06f          	j	1dbd0 <__subdf3+0x324>
   1df78:	00070793          	mv	a5,a4
   1df7c:	00060513          	mv	a0,a2
   1df80:	be1ff06f          	j	1db60 <__subdf3+0x2b4>
   1df84:	7ff00913          	li	s2,2047
   1df88:	00000793          	li	a5,0
   1df8c:	00000513          	li	a0,0
   1df90:	0240006f          	j	1dfb4 <__subdf3+0x708>
   1df94:	00080913          	mv	s2,a6
   1df98:	bc9ff06f          	j	1db60 <__subdf3+0x2b4>
   1df9c:	00070793          	mv	a5,a4
   1dfa0:	00060513          	mv	a0,a2
   1dfa4:	00080913          	mv	s2,a6
   1dfa8:	e41ff06f          	j	1dde8 <__subdf3+0x53c>
   1dfac:	00000793          	li	a5,0
   1dfb0:	00000493          	li	s1,0
   1dfb4:	00879713          	slli	a4,a5,0x8
   1dfb8:	00075e63          	bgez	a4,1dfd4 <__subdf3+0x728>
   1dfbc:	00190913          	addi	s2,s2,1
   1dfc0:	7ff00713          	li	a4,2047
   1dfc4:	08e90263          	beq	s2,a4,1e048 <__subdf3+0x79c>
   1dfc8:	ff800737          	lui	a4,0xff800
   1dfcc:	fff70713          	addi	a4,a4,-1 # ff7fffff <__BSS_END__+0xff7dd4fb>
   1dfd0:	00e7f7b3          	and	a5,a5,a4
   1dfd4:	01d79693          	slli	a3,a5,0x1d
   1dfd8:	00355513          	srli	a0,a0,0x3
   1dfdc:	7ff00713          	li	a4,2047
   1dfe0:	00a6e6b3          	or	a3,a3,a0
   1dfe4:	0037d793          	srli	a5,a5,0x3
   1dfe8:	00e91e63          	bne	s2,a4,1e004 <__subdf3+0x758>
   1dfec:	00f6e6b3          	or	a3,a3,a5
   1dff0:	00000793          	li	a5,0
   1dff4:	00068863          	beqz	a3,1e004 <__subdf3+0x758>
   1dff8:	000807b7          	lui	a5,0x80
   1dffc:	00000693          	li	a3,0
   1e000:	00000493          	li	s1,0
   1e004:	01491713          	slli	a4,s2,0x14
   1e008:	7ff00637          	lui	a2,0x7ff00
   1e00c:	00c79793          	slli	a5,a5,0xc
   1e010:	00c77733          	and	a4,a4,a2
   1e014:	01c12083          	lw	ra,28(sp)
   1e018:	01812403          	lw	s0,24(sp)
   1e01c:	00c7d793          	srli	a5,a5,0xc
   1e020:	00f767b3          	or	a5,a4,a5
   1e024:	01f49713          	slli	a4,s1,0x1f
   1e028:	00e7e633          	or	a2,a5,a4
   1e02c:	01412483          	lw	s1,20(sp)
   1e030:	01012903          	lw	s2,16(sp)
   1e034:	00c12983          	lw	s3,12(sp)
   1e038:	00068513          	mv	a0,a3
   1e03c:	00060593          	mv	a1,a2
   1e040:	02010113          	addi	sp,sp,32
   1e044:	00008067          	ret
   1e048:	00000793          	li	a5,0
   1e04c:	00000513          	li	a0,0
   1e050:	f85ff06f          	j	1dfd4 <__subdf3+0x728>

0001e054 <__fixdfsi>:
   1e054:	0145d713          	srli	a4,a1,0x14
   1e058:	001006b7          	lui	a3,0x100
   1e05c:	fff68793          	addi	a5,a3,-1 # fffff <__BSS_END__+0xdd4fb>
   1e060:	7ff77713          	andi	a4,a4,2047
   1e064:	3fe00613          	li	a2,1022
   1e068:	00b7f7b3          	and	a5,a5,a1
   1e06c:	01f5d593          	srli	a1,a1,0x1f
   1e070:	04e65e63          	bge	a2,a4,1e0cc <__fixdfsi+0x78>
   1e074:	41d00613          	li	a2,1053
   1e078:	00e65a63          	bge	a2,a4,1e08c <__fixdfsi+0x38>
   1e07c:	80000537          	lui	a0,0x80000
   1e080:	fff50513          	addi	a0,a0,-1 # 7fffffff <__BSS_END__+0x7ffdd4fb>
   1e084:	00a58533          	add	a0,a1,a0
   1e088:	00008067          	ret
   1e08c:	00d7e7b3          	or	a5,a5,a3
   1e090:	43300693          	li	a3,1075
   1e094:	40e686b3          	sub	a3,a3,a4
   1e098:	01f00613          	li	a2,31
   1e09c:	02d64063          	blt	a2,a3,1e0bc <__fixdfsi+0x68>
   1e0a0:	bed70713          	addi	a4,a4,-1043
   1e0a4:	00e797b3          	sll	a5,a5,a4
   1e0a8:	00d55533          	srl	a0,a0,a3
   1e0ac:	00a7e533          	or	a0,a5,a0
   1e0b0:	02058063          	beqz	a1,1e0d0 <__fixdfsi+0x7c>
   1e0b4:	40a00533          	neg	a0,a0
   1e0b8:	00008067          	ret
   1e0bc:	41300693          	li	a3,1043
   1e0c0:	40e68733          	sub	a4,a3,a4
   1e0c4:	00e7d533          	srl	a0,a5,a4
   1e0c8:	fe9ff06f          	j	1e0b0 <__fixdfsi+0x5c>
   1e0cc:	00000513          	li	a0,0
   1e0d0:	00008067          	ret

0001e0d4 <__floatsidf>:
   1e0d4:	ff010113          	addi	sp,sp,-16
   1e0d8:	00112623          	sw	ra,12(sp)
   1e0dc:	00812423          	sw	s0,8(sp)
   1e0e0:	00912223          	sw	s1,4(sp)
   1e0e4:	08050663          	beqz	a0,1e170 <__floatsidf+0x9c>
   1e0e8:	41f55793          	srai	a5,a0,0x1f
   1e0ec:	00a7c433          	xor	s0,a5,a0
   1e0f0:	40f40433          	sub	s0,s0,a5
   1e0f4:	01f55493          	srli	s1,a0,0x1f
   1e0f8:	00040513          	mv	a0,s0
   1e0fc:	1f8030ef          	jal	212f4 <__clzsi2>
   1e100:	41e00713          	li	a4,1054
   1e104:	00a00793          	li	a5,10
   1e108:	40a70733          	sub	a4,a4,a0
   1e10c:	04a7c863          	blt	a5,a0,1e15c <__floatsidf+0x88>
   1e110:	00b00793          	li	a5,11
   1e114:	40a787b3          	sub	a5,a5,a0
   1e118:	01550513          	addi	a0,a0,21
   1e11c:	00f457b3          	srl	a5,s0,a5
   1e120:	00a41433          	sll	s0,s0,a0
   1e124:	00048513          	mv	a0,s1
   1e128:	00c79793          	slli	a5,a5,0xc
   1e12c:	00c7d793          	srli	a5,a5,0xc
   1e130:	01471713          	slli	a4,a4,0x14
   1e134:	01f51513          	slli	a0,a0,0x1f
   1e138:	00f76733          	or	a4,a4,a5
   1e13c:	00c12083          	lw	ra,12(sp)
   1e140:	00a767b3          	or	a5,a4,a0
   1e144:	00040513          	mv	a0,s0
   1e148:	00812403          	lw	s0,8(sp)
   1e14c:	00412483          	lw	s1,4(sp)
   1e150:	00078593          	mv	a1,a5
   1e154:	01010113          	addi	sp,sp,16
   1e158:	00008067          	ret
   1e15c:	ff550513          	addi	a0,a0,-11
   1e160:	00a417b3          	sll	a5,s0,a0
   1e164:	00048513          	mv	a0,s1
   1e168:	00000413          	li	s0,0
   1e16c:	fbdff06f          	j	1e128 <__floatsidf+0x54>
   1e170:	00000713          	li	a4,0
   1e174:	00000793          	li	a5,0
   1e178:	ff1ff06f          	j	1e168 <__floatsidf+0x94>

0001e17c <__eqtf2>:
   1e17c:	00c52783          	lw	a5,12(a0)
   1e180:	0005af03          	lw	t5,0(a1)
   1e184:	0045af83          	lw	t6,4(a1)
   1e188:	0085a283          	lw	t0,8(a1)
   1e18c:	00c5a583          	lw	a1,12(a1)
   1e190:	00008737          	lui	a4,0x8
   1e194:	0107d693          	srli	a3,a5,0x10
   1e198:	fff70713          	addi	a4,a4,-1 # 7fff <exit-0x8095>
   1e19c:	01079813          	slli	a6,a5,0x10
   1e1a0:	01059e93          	slli	t4,a1,0x10
   1e1a4:	01f7d613          	srli	a2,a5,0x1f
   1e1a8:	00e6f6b3          	and	a3,a3,a4
   1e1ac:	0105d793          	srli	a5,a1,0x10
   1e1b0:	00052883          	lw	a7,0(a0)
   1e1b4:	00452303          	lw	t1,4(a0)
   1e1b8:	00852e03          	lw	t3,8(a0)
   1e1bc:	ff010113          	addi	sp,sp,-16
   1e1c0:	01085813          	srli	a6,a6,0x10
   1e1c4:	010ede93          	srli	t4,t4,0x10
   1e1c8:	00e7f7b3          	and	a5,a5,a4
   1e1cc:	01f5d593          	srli	a1,a1,0x1f
   1e1d0:	02e69063          	bne	a3,a4,1e1f0 <__eqtf2+0x74>
   1e1d4:	0068e733          	or	a4,a7,t1
   1e1d8:	01c76733          	or	a4,a4,t3
   1e1dc:	01076733          	or	a4,a4,a6
   1e1e0:	00100513          	li	a0,1
   1e1e4:	04071a63          	bnez	a4,1e238 <__eqtf2+0xbc>
   1e1e8:	04d79863          	bne	a5,a3,1e238 <__eqtf2+0xbc>
   1e1ec:	0080006f          	j	1e1f4 <__eqtf2+0x78>
   1e1f0:	00e79c63          	bne	a5,a4,1e208 <__eqtf2+0x8c>
   1e1f4:	01ff6733          	or	a4,t5,t6
   1e1f8:	00576733          	or	a4,a4,t0
   1e1fc:	01d76733          	or	a4,a4,t4
   1e200:	00100513          	li	a0,1
   1e204:	02071a63          	bnez	a4,1e238 <__eqtf2+0xbc>
   1e208:	00100513          	li	a0,1
   1e20c:	02d79663          	bne	a5,a3,1e238 <__eqtf2+0xbc>
   1e210:	03e89463          	bne	a7,t5,1e238 <__eqtf2+0xbc>
   1e214:	03f31263          	bne	t1,t6,1e238 <__eqtf2+0xbc>
   1e218:	025e1063          	bne	t3,t0,1e238 <__eqtf2+0xbc>
   1e21c:	01d81e63          	bne	a6,t4,1e238 <__eqtf2+0xbc>
   1e220:	02b60063          	beq	a2,a1,1e240 <__eqtf2+0xc4>
   1e224:	00079a63          	bnez	a5,1e238 <__eqtf2+0xbc>
   1e228:	0068e533          	or	a0,a7,t1
   1e22c:	01c56533          	or	a0,a0,t3
   1e230:	01056533          	or	a0,a0,a6
   1e234:	00a03533          	snez	a0,a0
   1e238:	01010113          	addi	sp,sp,16
   1e23c:	00008067          	ret
   1e240:	00000513          	li	a0,0
   1e244:	ff5ff06f          	j	1e238 <__eqtf2+0xbc>

0001e248 <__getf2>:
   1e248:	00c52783          	lw	a5,12(a0)
   1e24c:	00c5a683          	lw	a3,12(a1)
   1e250:	00008737          	lui	a4,0x8
   1e254:	0107d613          	srli	a2,a5,0x10
   1e258:	fff70713          	addi	a4,a4,-1 # 7fff <exit-0x8095>
   1e25c:	01079813          	slli	a6,a5,0x10
   1e260:	01069293          	slli	t0,a3,0x10
   1e264:	00052883          	lw	a7,0(a0)
   1e268:	00452303          	lw	t1,4(a0)
   1e26c:	00852e03          	lw	t3,8(a0)
   1e270:	00e67633          	and	a2,a2,a4
   1e274:	0106d513          	srli	a0,a3,0x10
   1e278:	0005ae83          	lw	t4,0(a1)
   1e27c:	0045af03          	lw	t5,4(a1)
   1e280:	0085af83          	lw	t6,8(a1)
   1e284:	ff010113          	addi	sp,sp,-16
   1e288:	01085813          	srli	a6,a6,0x10
   1e28c:	01f7d793          	srli	a5,a5,0x1f
   1e290:	0102d293          	srli	t0,t0,0x10
   1e294:	00e57533          	and	a0,a0,a4
   1e298:	01f6d693          	srli	a3,a3,0x1f
   1e29c:	00e61a63          	bne	a2,a4,1e2b0 <__getf2+0x68>
   1e2a0:	01136733          	or	a4,t1,a7
   1e2a4:	01c76733          	or	a4,a4,t3
   1e2a8:	01076733          	or	a4,a4,a6
   1e2ac:	0a071463          	bnez	a4,1e354 <__getf2+0x10c>
   1e2b0:	00008737          	lui	a4,0x8
   1e2b4:	fff70713          	addi	a4,a4,-1 # 7fff <exit-0x8095>
   1e2b8:	00e51a63          	bne	a0,a4,1e2cc <__getf2+0x84>
   1e2bc:	01eee733          	or	a4,t4,t5
   1e2c0:	01f76733          	or	a4,a4,t6
   1e2c4:	00576733          	or	a4,a4,t0
   1e2c8:	08071663          	bnez	a4,1e354 <__getf2+0x10c>
   1e2cc:	00000713          	li	a4,0
   1e2d0:	00061a63          	bnez	a2,1e2e4 <__getf2+0x9c>
   1e2d4:	01136733          	or	a4,t1,a7
   1e2d8:	01c76733          	or	a4,a4,t3
   1e2dc:	01076733          	or	a4,a4,a6
   1e2e0:	00173713          	seqz	a4,a4
   1e2e4:	06051c63          	bnez	a0,1e35c <__getf2+0x114>
   1e2e8:	01eee5b3          	or	a1,t4,t5
   1e2ec:	01f5e5b3          	or	a1,a1,t6
   1e2f0:	0055e5b3          	or	a1,a1,t0
   1e2f4:	00070c63          	beqz	a4,1e30c <__getf2+0xc4>
   1e2f8:	02058063          	beqz	a1,1e318 <__getf2+0xd0>
   1e2fc:	00100513          	li	a0,1
   1e300:	00069c63          	bnez	a3,1e318 <__getf2+0xd0>
   1e304:	fff00513          	li	a0,-1
   1e308:	0100006f          	j	1e318 <__getf2+0xd0>
   1e30c:	04059a63          	bnez	a1,1e360 <__getf2+0x118>
   1e310:	fff00513          	li	a0,-1
   1e314:	04078e63          	beqz	a5,1e370 <__getf2+0x128>
   1e318:	01010113          	addi	sp,sp,16
   1e31c:	00008067          	ret
   1e320:	fca64ee3          	blt	a2,a0,1e2fc <__getf2+0xb4>
   1e324:	ff02e6e3          	bltu	t0,a6,1e310 <__getf2+0xc8>
   1e328:	02581063          	bne	a6,t0,1e348 <__getf2+0x100>
   1e32c:	ffcfe2e3          	bltu	t6,t3,1e310 <__getf2+0xc8>
   1e330:	01fe1c63          	bne	t3,t6,1e348 <__getf2+0x100>
   1e334:	fc6f6ee3          	bltu	t5,t1,1e310 <__getf2+0xc8>
   1e338:	01e31863          	bne	t1,t5,1e348 <__getf2+0x100>
   1e33c:	fd1eeae3          	bltu	t4,a7,1e310 <__getf2+0xc8>
   1e340:	00000513          	li	a0,0
   1e344:	fdd8fae3          	bgeu	a7,t4,1e318 <__getf2+0xd0>
   1e348:	00100513          	li	a0,1
   1e34c:	fc0796e3          	bnez	a5,1e318 <__getf2+0xd0>
   1e350:	fb5ff06f          	j	1e304 <__getf2+0xbc>
   1e354:	ffe00513          	li	a0,-2
   1e358:	fc1ff06f          	j	1e318 <__getf2+0xd0>
   1e35c:	fa0710e3          	bnez	a4,1e2fc <__getf2+0xb4>
   1e360:	faf698e3          	bne	a3,a5,1e310 <__getf2+0xc8>
   1e364:	fac55ee3          	bge	a0,a2,1e320 <__getf2+0xd8>
   1e368:	fff00513          	li	a0,-1
   1e36c:	fa0696e3          	bnez	a3,1e318 <__getf2+0xd0>
   1e370:	00100513          	li	a0,1
   1e374:	fa5ff06f          	j	1e318 <__getf2+0xd0>

0001e378 <__letf2>:
   1e378:	00c52783          	lw	a5,12(a0)
   1e37c:	00c5a683          	lw	a3,12(a1)
   1e380:	00008737          	lui	a4,0x8
   1e384:	0107d613          	srli	a2,a5,0x10
   1e388:	fff70713          	addi	a4,a4,-1 # 7fff <exit-0x8095>
   1e38c:	01079813          	slli	a6,a5,0x10
   1e390:	01069293          	slli	t0,a3,0x10
   1e394:	00052883          	lw	a7,0(a0)
   1e398:	00452303          	lw	t1,4(a0)
   1e39c:	00852e03          	lw	t3,8(a0)
   1e3a0:	00e67633          	and	a2,a2,a4
   1e3a4:	0106d513          	srli	a0,a3,0x10
   1e3a8:	0005ae83          	lw	t4,0(a1)
   1e3ac:	0045af03          	lw	t5,4(a1)
   1e3b0:	0085af83          	lw	t6,8(a1)
   1e3b4:	ff010113          	addi	sp,sp,-16
   1e3b8:	01085813          	srli	a6,a6,0x10
   1e3bc:	01f7d793          	srli	a5,a5,0x1f
   1e3c0:	0102d293          	srli	t0,t0,0x10
   1e3c4:	00e57533          	and	a0,a0,a4
   1e3c8:	01f6d693          	srli	a3,a3,0x1f
   1e3cc:	00e61a63          	bne	a2,a4,1e3e0 <__letf2+0x68>
   1e3d0:	01136733          	or	a4,t1,a7
   1e3d4:	01c76733          	or	a4,a4,t3
   1e3d8:	01076733          	or	a4,a4,a6
   1e3dc:	0a071463          	bnez	a4,1e484 <__letf2+0x10c>
   1e3e0:	00008737          	lui	a4,0x8
   1e3e4:	fff70713          	addi	a4,a4,-1 # 7fff <exit-0x8095>
   1e3e8:	00e51a63          	bne	a0,a4,1e3fc <__letf2+0x84>
   1e3ec:	01eee733          	or	a4,t4,t5
   1e3f0:	01f76733          	or	a4,a4,t6
   1e3f4:	00576733          	or	a4,a4,t0
   1e3f8:	08071663          	bnez	a4,1e484 <__letf2+0x10c>
   1e3fc:	00000713          	li	a4,0
   1e400:	00061a63          	bnez	a2,1e414 <__letf2+0x9c>
   1e404:	01136733          	or	a4,t1,a7
   1e408:	01c76733          	or	a4,a4,t3
   1e40c:	01076733          	or	a4,a4,a6
   1e410:	00173713          	seqz	a4,a4
   1e414:	06051c63          	bnez	a0,1e48c <__letf2+0x114>
   1e418:	01eee5b3          	or	a1,t4,t5
   1e41c:	01f5e5b3          	or	a1,a1,t6
   1e420:	0055e5b3          	or	a1,a1,t0
   1e424:	00070c63          	beqz	a4,1e43c <__letf2+0xc4>
   1e428:	02058063          	beqz	a1,1e448 <__letf2+0xd0>
   1e42c:	00100513          	li	a0,1
   1e430:	00069c63          	bnez	a3,1e448 <__letf2+0xd0>
   1e434:	fff00513          	li	a0,-1
   1e438:	0100006f          	j	1e448 <__letf2+0xd0>
   1e43c:	04059a63          	bnez	a1,1e490 <__letf2+0x118>
   1e440:	fff00513          	li	a0,-1
   1e444:	04078e63          	beqz	a5,1e4a0 <__letf2+0x128>
   1e448:	01010113          	addi	sp,sp,16
   1e44c:	00008067          	ret
   1e450:	fca64ee3          	blt	a2,a0,1e42c <__letf2+0xb4>
   1e454:	ff02e6e3          	bltu	t0,a6,1e440 <__letf2+0xc8>
   1e458:	02581063          	bne	a6,t0,1e478 <__letf2+0x100>
   1e45c:	ffcfe2e3          	bltu	t6,t3,1e440 <__letf2+0xc8>
   1e460:	01fe1c63          	bne	t3,t6,1e478 <__letf2+0x100>
   1e464:	fc6f6ee3          	bltu	t5,t1,1e440 <__letf2+0xc8>
   1e468:	01e31863          	bne	t1,t5,1e478 <__letf2+0x100>
   1e46c:	fd1eeae3          	bltu	t4,a7,1e440 <__letf2+0xc8>
   1e470:	00000513          	li	a0,0
   1e474:	fdd8fae3          	bgeu	a7,t4,1e448 <__letf2+0xd0>
   1e478:	00100513          	li	a0,1
   1e47c:	fc0796e3          	bnez	a5,1e448 <__letf2+0xd0>
   1e480:	fb5ff06f          	j	1e434 <__letf2+0xbc>
   1e484:	00200513          	li	a0,2
   1e488:	fc1ff06f          	j	1e448 <__letf2+0xd0>
   1e48c:	fa0710e3          	bnez	a4,1e42c <__letf2+0xb4>
   1e490:	faf698e3          	bne	a3,a5,1e440 <__letf2+0xc8>
   1e494:	fac55ee3          	bge	a0,a2,1e450 <__letf2+0xd8>
   1e498:	fff00513          	li	a0,-1
   1e49c:	fa0696e3          	bnez	a3,1e448 <__letf2+0xd0>
   1e4a0:	00100513          	li	a0,1
   1e4a4:	fa5ff06f          	j	1e448 <__letf2+0xd0>

0001e4a8 <__multf3>:
   1e4a8:	00c5a883          	lw	a7,12(a1)
   1e4ac:	f6010113          	addi	sp,sp,-160
   1e4b0:	0005a703          	lw	a4,0(a1)
   1e4b4:	0085a683          	lw	a3,8(a1)
   1e4b8:	08812c23          	sw	s0,152(sp)
   1e4bc:	00050413          	mv	s0,a0
   1e4c0:	0045a503          	lw	a0,4(a1)
   1e4c4:	09212823          	sw	s2,144(sp)
   1e4c8:	09412423          	sw	s4,136(sp)
   1e4cc:	00c62903          	lw	s2,12(a2) # 7ff0000c <__BSS_END__+0x7fedd508>
   1e4d0:	00062a03          	lw	s4,0(a2)
   1e4d4:	09512223          	sw	s5,132(sp)
   1e4d8:	09612023          	sw	s6,128(sp)
   1e4dc:	00862a83          	lw	s5,8(a2)
   1e4e0:	00462b03          	lw	s6,4(a2)
   1e4e4:	01089793          	slli	a5,a7,0x10
   1e4e8:	00008637          	lui	a2,0x8
   1e4ec:	09312623          	sw	s3,140(sp)
   1e4f0:	0107d793          	srli	a5,a5,0x10
   1e4f4:	0108d993          	srli	s3,a7,0x10
   1e4f8:	fff60613          	addi	a2,a2,-1 # 7fff <exit-0x8095>
   1e4fc:	08912a23          	sw	s1,148(sp)
   1e500:	08112e23          	sw	ra,156(sp)
   1e504:	07712e23          	sw	s7,124(sp)
   1e508:	07812c23          	sw	s8,120(sp)
   1e50c:	07912a23          	sw	s9,116(sp)
   1e510:	07a12823          	sw	s10,112(sp)
   1e514:	07b12623          	sw	s11,108(sp)
   1e518:	04e12023          	sw	a4,64(sp)
   1e51c:	04a12223          	sw	a0,68(sp)
   1e520:	04d12423          	sw	a3,72(sp)
   1e524:	05112623          	sw	a7,76(sp)
   1e528:	00e12823          	sw	a4,16(sp)
   1e52c:	00a12a23          	sw	a0,20(sp)
   1e530:	00d12c23          	sw	a3,24(sp)
   1e534:	00f12e23          	sw	a5,28(sp)
   1e538:	00c9f9b3          	and	s3,s3,a2
   1e53c:	01f8d493          	srli	s1,a7,0x1f
   1e540:	440984e3          	beqz	s3,1f188 <__multf3+0xce0>
   1e544:	56c98ce3          	beq	s3,a2,1f2bc <__multf3+0xe14>
   1e548:	000106b7          	lui	a3,0x10
   1e54c:	00d7e7b3          	or	a5,a5,a3
   1e550:	00f12e23          	sw	a5,28(sp)
   1e554:	01010593          	addi	a1,sp,16
   1e558:	01c10793          	addi	a5,sp,28
   1e55c:	0007a683          	lw	a3,0(a5) # 80000 <__BSS_END__+0x5d4fc>
   1e560:	ffc7a603          	lw	a2,-4(a5)
   1e564:	ffc78793          	addi	a5,a5,-4
   1e568:	00369693          	slli	a3,a3,0x3
   1e56c:	01d65613          	srli	a2,a2,0x1d
   1e570:	00c6e6b3          	or	a3,a3,a2
   1e574:	00d7a223          	sw	a3,4(a5)
   1e578:	fef592e3          	bne	a1,a5,1e55c <__multf3+0xb4>
   1e57c:	ffffc7b7          	lui	a5,0xffffc
   1e580:	00371713          	slli	a4,a4,0x3
   1e584:	00178793          	addi	a5,a5,1 # ffffc001 <__BSS_END__+0xfffd94fd>
   1e588:	00e12823          	sw	a4,16(sp)
   1e58c:	00f989b3          	add	s3,s3,a5
   1e590:	00000b93          	li	s7,0
   1e594:	01091513          	slli	a0,s2,0x10
   1e598:	000087b7          	lui	a5,0x8
   1e59c:	01095813          	srli	a6,s2,0x10
   1e5a0:	01055513          	srli	a0,a0,0x10
   1e5a4:	fff78793          	addi	a5,a5,-1 # 7fff <exit-0x8095>
   1e5a8:	05212623          	sw	s2,76(sp)
   1e5ac:	05412023          	sw	s4,64(sp)
   1e5b0:	05612223          	sw	s6,68(sp)
   1e5b4:	05512423          	sw	s5,72(sp)
   1e5b8:	03412023          	sw	s4,32(sp)
   1e5bc:	03612223          	sw	s6,36(sp)
   1e5c0:	03512423          	sw	s5,40(sp)
   1e5c4:	02a12623          	sw	a0,44(sp)
   1e5c8:	00f87833          	and	a6,a6,a5
   1e5cc:	01f95913          	srli	s2,s2,0x1f
   1e5d0:	50080ae3          	beqz	a6,1f2e4 <__multf3+0xe3c>
   1e5d4:	64f802e3          	beq	a6,a5,1f418 <__multf3+0xf70>
   1e5d8:	000107b7          	lui	a5,0x10
   1e5dc:	00f56533          	or	a0,a0,a5
   1e5e0:	02a12623          	sw	a0,44(sp)
   1e5e4:	02010613          	addi	a2,sp,32
   1e5e8:	02c10793          	addi	a5,sp,44
   1e5ec:	0007a703          	lw	a4,0(a5) # 10000 <exit-0x94>
   1e5f0:	ffc7a683          	lw	a3,-4(a5)
   1e5f4:	ffc78793          	addi	a5,a5,-4
   1e5f8:	00371713          	slli	a4,a4,0x3
   1e5fc:	01d6d693          	srli	a3,a3,0x1d
   1e600:	00d76733          	or	a4,a4,a3
   1e604:	00e7a223          	sw	a4,4(a5)
   1e608:	fef612e3          	bne	a2,a5,1e5ec <__multf3+0x144>
   1e60c:	003a1793          	slli	a5,s4,0x3
   1e610:	02f12023          	sw	a5,32(sp)
   1e614:	ffffc7b7          	lui	a5,0xffffc
   1e618:	00178793          	addi	a5,a5,1 # ffffc001 <__BSS_END__+0xfffd94fd>
   1e61c:	00f80833          	add	a6,a6,a5
   1e620:	00000693          	li	a3,0
   1e624:	002b9793          	slli	a5,s7,0x2
   1e628:	01380833          	add	a6,a6,s3
   1e62c:	00d7e7b3          	or	a5,a5,a3
   1e630:	00a00713          	li	a4,10
   1e634:	00180c13          	addi	s8,a6,1
   1e638:	64f744e3          	blt	a4,a5,1f480 <__multf3+0xfd8>
   1e63c:	00200713          	li	a4,2
   1e640:	0124c8b3          	xor	a7,s1,s2
   1e644:	5ef74ee3          	blt	a4,a5,1f440 <__multf3+0xf98>
   1e648:	fff78793          	addi	a5,a5,-1
   1e64c:	00100713          	li	a4,1
   1e650:	64f774e3          	bgeu	a4,a5,1f498 <__multf3+0xff0>
   1e654:	01012e83          	lw	t4,16(sp)
   1e658:	02012e03          	lw	t3,32(sp)
   1e65c:	000102b7          	lui	t0,0x10
   1e660:	fff28793          	addi	a5,t0,-1 # ffff <exit-0x95>
   1e664:	00fef333          	and	t1,t4,a5
   1e668:	00fe77b3          	and	a5,t3,a5
   1e66c:	010ed393          	srli	t2,t4,0x10
   1e670:	010e5713          	srli	a4,t3,0x10
   1e674:	00030513          	mv	a0,t1
   1e678:	00078593          	mv	a1,a5
   1e67c:	3a1020ef          	jal	2121c <__mulsi3>
   1e680:	00050f93          	mv	t6,a0
   1e684:	00070593          	mv	a1,a4
   1e688:	00030513          	mv	a0,t1
   1e68c:	391020ef          	jal	2121c <__mulsi3>
   1e690:	00050313          	mv	t1,a0
   1e694:	00078593          	mv	a1,a5
   1e698:	00038513          	mv	a0,t2
   1e69c:	381020ef          	jal	2121c <__mulsi3>
   1e6a0:	00050f13          	mv	t5,a0
   1e6a4:	00070593          	mv	a1,a4
   1e6a8:	00038513          	mv	a0,t2
   1e6ac:	371020ef          	jal	2121c <__mulsi3>
   1e6b0:	010fd713          	srli	a4,t6,0x10
   1e6b4:	01e30333          	add	t1,t1,t5
   1e6b8:	00670733          	add	a4,a4,t1
   1e6bc:	00050793          	mv	a5,a0
   1e6c0:	01e77463          	bgeu	a4,t5,1e6c8 <__multf3+0x220>
   1e6c4:	005507b3          	add	a5,a0,t0
   1e6c8:	01075693          	srli	a3,a4,0x10
   1e6cc:	00f687b3          	add	a5,a3,a5
   1e6d0:	000102b7          	lui	t0,0x10
   1e6d4:	04f12223          	sw	a5,68(sp)
   1e6d8:	fff28793          	addi	a5,t0,-1 # ffff <exit-0x95>
   1e6dc:	00fff533          	and	a0,t6,a5
   1e6e0:	02412f83          	lw	t6,36(sp)
   1e6e4:	00f77733          	and	a4,a4,a5
   1e6e8:	01071713          	slli	a4,a4,0x10
   1e6ec:	00a70533          	add	a0,a4,a0
   1e6f0:	00ffff33          	and	t5,t6,a5
   1e6f4:	00fef733          	and	a4,t4,a5
   1e6f8:	04a12023          	sw	a0,64(sp)
   1e6fc:	010ed313          	srli	t1,t4,0x10
   1e700:	010fd493          	srli	s1,t6,0x10
   1e704:	00070513          	mv	a0,a4
   1e708:	000f0593          	mv	a1,t5
   1e70c:	311020ef          	jal	2121c <__mulsi3>
   1e710:	00050393          	mv	t2,a0
   1e714:	00048593          	mv	a1,s1
   1e718:	00070513          	mv	a0,a4
   1e71c:	301020ef          	jal	2121c <__mulsi3>
   1e720:	00050713          	mv	a4,a0
   1e724:	000f0593          	mv	a1,t5
   1e728:	00030513          	mv	a0,t1
   1e72c:	2f1020ef          	jal	2121c <__mulsi3>
   1e730:	00050f13          	mv	t5,a0
   1e734:	00048593          	mv	a1,s1
   1e738:	00030513          	mv	a0,t1
   1e73c:	2e1020ef          	jal	2121c <__mulsi3>
   1e740:	0103d313          	srli	t1,t2,0x10
   1e744:	01e70733          	add	a4,a4,t5
   1e748:	00e30333          	add	t1,t1,a4
   1e74c:	00050b13          	mv	s6,a0
   1e750:	01e37463          	bgeu	t1,t5,1e758 <__multf3+0x2b0>
   1e754:	00550b33          	add	s6,a0,t0
   1e758:	01412283          	lw	t0,20(sp)
   1e75c:	01035493          	srli	s1,t1,0x10
   1e760:	00f37333          	and	t1,t1,a5
   1e764:	00f3f533          	and	a0,t2,a5
   1e768:	00f2ff33          	and	t5,t0,a5
   1e76c:	01031313          	slli	t1,t1,0x10
   1e770:	00fe77b3          	and	a5,t3,a5
   1e774:	00a30333          	add	t1,t1,a0
   1e778:	0102d993          	srli	s3,t0,0x10
   1e77c:	010e5713          	srli	a4,t3,0x10
   1e780:	000f0513          	mv	a0,t5
   1e784:	00078593          	mv	a1,a5
   1e788:	295020ef          	jal	2121c <__mulsi3>
   1e78c:	00050393          	mv	t2,a0
   1e790:	00070593          	mv	a1,a4
   1e794:	000f0513          	mv	a0,t5
   1e798:	285020ef          	jal	2121c <__mulsi3>
   1e79c:	00050f13          	mv	t5,a0
   1e7a0:	00078593          	mv	a1,a5
   1e7a4:	00098513          	mv	a0,s3
   1e7a8:	275020ef          	jal	2121c <__mulsi3>
   1e7ac:	00050913          	mv	s2,a0
   1e7b0:	00070593          	mv	a1,a4
   1e7b4:	00098513          	mv	a0,s3
   1e7b8:	265020ef          	jal	2121c <__mulsi3>
   1e7bc:	0103d793          	srli	a5,t2,0x10
   1e7c0:	012f0f33          	add	t5,t5,s2
   1e7c4:	01e787b3          	add	a5,a5,t5
   1e7c8:	00050713          	mv	a4,a0
   1e7cc:	0127f663          	bgeu	a5,s2,1e7d8 <__multf3+0x330>
   1e7d0:	000106b7          	lui	a3,0x10
   1e7d4:	00d50733          	add	a4,a0,a3
   1e7d8:	000109b7          	lui	s3,0x10
   1e7dc:	fff98593          	addi	a1,s3,-1 # ffff <exit-0x95>
   1e7e0:	0107d913          	srli	s2,a5,0x10
   1e7e4:	00b7f7b3          	and	a5,a5,a1
   1e7e8:	00b3f3b3          	and	t2,t2,a1
   1e7ec:	00b2fab3          	and	s5,t0,a1
   1e7f0:	00bffa33          	and	s4,t6,a1
   1e7f4:	01079793          	slli	a5,a5,0x10
   1e7f8:	00e90933          	add	s2,s2,a4
   1e7fc:	007787b3          	add	a5,a5,t2
   1e800:	010fd713          	srli	a4,t6,0x10
   1e804:	0102d393          	srli	t2,t0,0x10
   1e808:	000a8513          	mv	a0,s5
   1e80c:	000a0593          	mv	a1,s4
   1e810:	20d020ef          	jal	2121c <__mulsi3>
   1e814:	00050f13          	mv	t5,a0
   1e818:	00070593          	mv	a1,a4
   1e81c:	000a8513          	mv	a0,s5
   1e820:	1fd020ef          	jal	2121c <__mulsi3>
   1e824:	00050a93          	mv	s5,a0
   1e828:	000a0593          	mv	a1,s4
   1e82c:	00038513          	mv	a0,t2
   1e830:	1ed020ef          	jal	2121c <__mulsi3>
   1e834:	00050a13          	mv	s4,a0
   1e838:	00070593          	mv	a1,a4
   1e83c:	00038513          	mv	a0,t2
   1e840:	1dd020ef          	jal	2121c <__mulsi3>
   1e844:	010f5713          	srli	a4,t5,0x10
   1e848:	014a8633          	add	a2,s5,s4
   1e84c:	00c70733          	add	a4,a4,a2
   1e850:	00050693          	mv	a3,a0
   1e854:	01477463          	bgeu	a4,s4,1e85c <__multf3+0x3b4>
   1e858:	013506b3          	add	a3,a0,s3
   1e85c:	02812983          	lw	s3,40(sp)
   1e860:	00010a37          	lui	s4,0x10
   1e864:	fffa0593          	addi	a1,s4,-1 # ffff <exit-0x95>
   1e868:	01075393          	srli	t2,a4,0x10
   1e86c:	00b77733          	and	a4,a4,a1
   1e870:	00bf7f33          	and	t5,t5,a1
   1e874:	00befbb3          	and	s7,t4,a1
   1e878:	00b9fab3          	and	s5,s3,a1
   1e87c:	01071713          	slli	a4,a4,0x10
   1e880:	00d383b3          	add	t2,t2,a3
   1e884:	01e70733          	add	a4,a4,t5
   1e888:	010edd13          	srli	s10,t4,0x10
   1e88c:	0109dc93          	srli	s9,s3,0x10
   1e890:	000b8513          	mv	a0,s7
   1e894:	000a8593          	mv	a1,s5
   1e898:	185020ef          	jal	2121c <__mulsi3>
   1e89c:	00050f13          	mv	t5,a0
   1e8a0:	000c8593          	mv	a1,s9
   1e8a4:	000b8513          	mv	a0,s7
   1e8a8:	175020ef          	jal	2121c <__mulsi3>
   1e8ac:	00050b93          	mv	s7,a0
   1e8b0:	000a8593          	mv	a1,s5
   1e8b4:	000d0513          	mv	a0,s10
   1e8b8:	165020ef          	jal	2121c <__mulsi3>
   1e8bc:	00050a93          	mv	s5,a0
   1e8c0:	000c8593          	mv	a1,s9
   1e8c4:	000d0513          	mv	a0,s10
   1e8c8:	155020ef          	jal	2121c <__mulsi3>
   1e8cc:	010f5693          	srli	a3,t5,0x10
   1e8d0:	015b8633          	add	a2,s7,s5
   1e8d4:	00c686b3          	add	a3,a3,a2
   1e8d8:	0156f463          	bgeu	a3,s5,1e8e0 <__multf3+0x438>
   1e8dc:	01450533          	add	a0,a0,s4
   1e8e0:	00010d37          	lui	s10,0x10
   1e8e4:	fffd0a13          	addi	s4,s10,-1 # ffff <exit-0x95>
   1e8e8:	0106d613          	srli	a2,a3,0x10
   1e8ec:	0146f6b3          	and	a3,a3,s4
   1e8f0:	014f7f33          	and	t5,t5,s4
   1e8f4:	01069693          	slli	a3,a3,0x10
   1e8f8:	01e686b3          	add	a3,a3,t5
   1e8fc:	01812f03          	lw	t5,24(sp)
   1e900:	00a60db3          	add	s11,a2,a0
   1e904:	00d12623          	sw	a3,12(sp)
   1e908:	014f7bb3          	and	s7,t5,s4
   1e90c:	014e7a33          	and	s4,t3,s4
   1e910:	010e5c93          	srli	s9,t3,0x10
   1e914:	000b8513          	mv	a0,s7
   1e918:	000a0593          	mv	a1,s4
   1e91c:	101020ef          	jal	2121c <__mulsi3>
   1e920:	00050a93          	mv	s5,a0
   1e924:	000c8593          	mv	a1,s9
   1e928:	000b8513          	mv	a0,s7
   1e92c:	0f1020ef          	jal	2121c <__mulsi3>
   1e930:	00050b93          	mv	s7,a0
   1e934:	000a0593          	mv	a1,s4
   1e938:	010f5513          	srli	a0,t5,0x10
   1e93c:	0e1020ef          	jal	2121c <__mulsi3>
   1e940:	00050a13          	mv	s4,a0
   1e944:	000c8593          	mv	a1,s9
   1e948:	010f5513          	srli	a0,t5,0x10
   1e94c:	0d1020ef          	jal	2121c <__mulsi3>
   1e950:	010ad693          	srli	a3,s5,0x10
   1e954:	014b8bb3          	add	s7,s7,s4
   1e958:	01768bb3          	add	s7,a3,s7
   1e95c:	014bf463          	bgeu	s7,s4,1e964 <__multf3+0x4bc>
   1e960:	01a50533          	add	a0,a0,s10
   1e964:	04412603          	lw	a2,68(sp)
   1e968:	010bd693          	srli	a3,s7,0x10
   1e96c:	00a68533          	add	a0,a3,a0
   1e970:	00660333          	add	t1,a2,t1
   1e974:	00c33633          	sltu	a2,t1,a2
   1e978:	00c484b3          	add	s1,s1,a2
   1e97c:	016484b3          	add	s1,s1,s6
   1e980:	00f307b3          	add	a5,t1,a5
   1e984:	01248933          	add	s2,s1,s2
   1e988:	04f12223          	sw	a5,68(sp)
   1e98c:	0067b7b3          	sltu	a5,a5,t1
   1e990:	00f907b3          	add	a5,s2,a5
   1e994:	009936b3          	sltu	a3,s2,s1
   1e998:	0127b933          	sltu	s2,a5,s2
   1e99c:	00c4b4b3          	sltu	s1,s1,a2
   1e9a0:	00010a37          	lui	s4,0x10
   1e9a4:	00c12603          	lw	a2,12(sp)
   1e9a8:	0126e6b3          	or	a3,a3,s2
   1e9ac:	fffa0593          	addi	a1,s4,-1 # ffff <exit-0x95>
   1e9b0:	009686b3          	add	a3,a3,s1
   1e9b4:	00e78733          	add	a4,a5,a4
   1e9b8:	007683b3          	add	t2,a3,t2
   1e9bc:	00bbfbb3          	and	s7,s7,a1
   1e9c0:	00f737b3          	sltu	a5,a4,a5
   1e9c4:	00c70333          	add	t1,a4,a2
   1e9c8:	00f387b3          	add	a5,t2,a5
   1e9cc:	010b9b93          	slli	s7,s7,0x10
   1e9d0:	00bafab3          	and	s5,s5,a1
   1e9d4:	01b78633          	add	a2,a5,s11
   1e9d8:	015b8ab3          	add	s5,s7,s5
   1e9dc:	00e33733          	sltu	a4,t1,a4
   1e9e0:	00e60733          	add	a4,a2,a4
   1e9e4:	01530ab3          	add	s5,t1,s5
   1e9e8:	00a70533          	add	a0,a4,a0
   1e9ec:	05512423          	sw	s5,72(sp)
   1e9f0:	006abab3          	sltu	s5,s5,t1
   1e9f4:	01550ab3          	add	s5,a0,s5
   1e9f8:	02c12303          	lw	t1,44(sp)
   1e9fc:	00d3b6b3          	sltu	a3,t2,a3
   1ea00:	0077b3b3          	sltu	t2,a5,t2
   1ea04:	00f637b3          	sltu	a5,a2,a5
   1ea08:	00c73633          	sltu	a2,a4,a2
   1ea0c:	00c7e7b3          	or	a5,a5,a2
   1ea10:	0076e6b3          	or	a3,a3,t2
   1ea14:	05512623          	sw	s5,76(sp)
   1ea18:	00e53733          	sltu	a4,a0,a4
   1ea1c:	00aabab3          	sltu	s5,s5,a0
   1ea20:	00f686b3          	add	a3,a3,a5
   1ea24:	01576733          	or	a4,a4,s5
   1ea28:	00d70733          	add	a4,a4,a3
   1ea2c:	010ed493          	srli	s1,t4,0x10
   1ea30:	00b377b3          	and	a5,t1,a1
   1ea34:	00befeb3          	and	t4,t4,a1
   1ea38:	04e12823          	sw	a4,80(sp)
   1ea3c:	000e8513          	mv	a0,t4
   1ea40:	01035713          	srli	a4,t1,0x10
   1ea44:	00078593          	mv	a1,a5
   1ea48:	7d4020ef          	jal	2121c <__mulsi3>
   1ea4c:	00050913          	mv	s2,a0
   1ea50:	00070593          	mv	a1,a4
   1ea54:	000e8513          	mv	a0,t4
   1ea58:	7c4020ef          	jal	2121c <__mulsi3>
   1ea5c:	00050e93          	mv	t4,a0
   1ea60:	00078593          	mv	a1,a5
   1ea64:	00048513          	mv	a0,s1
   1ea68:	7b4020ef          	jal	2121c <__mulsi3>
   1ea6c:	00050393          	mv	t2,a0
   1ea70:	00070593          	mv	a1,a4
   1ea74:	00048513          	mv	a0,s1
   1ea78:	7a4020ef          	jal	2121c <__mulsi3>
   1ea7c:	01095713          	srli	a4,s2,0x10
   1ea80:	007e8eb3          	add	t4,t4,t2
   1ea84:	01d70733          	add	a4,a4,t4
   1ea88:	00050793          	mv	a5,a0
   1ea8c:	00777463          	bgeu	a4,t2,1ea94 <__multf3+0x5ec>
   1ea90:	014507b3          	add	a5,a0,s4
   1ea94:	01075393          	srli	t2,a4,0x10
   1ea98:	000104b7          	lui	s1,0x10
   1ea9c:	01c12e83          	lw	t4,28(sp)
   1eaa0:	00f383b3          	add	t2,t2,a5
   1eaa4:	fff48793          	addi	a5,s1,-1 # ffff <exit-0x95>
   1eaa8:	00f77733          	and	a4,a4,a5
   1eaac:	00f97933          	and	s2,s2,a5
   1eab0:	01071713          	slli	a4,a4,0x10
   1eab4:	01270733          	add	a4,a4,s2
   1eab8:	00fefb33          	and	s6,t4,a5
   1eabc:	010e5913          	srli	s2,t3,0x10
   1eac0:	00fe7e33          	and	t3,t3,a5
   1eac4:	010eda93          	srli	s5,t4,0x10
   1eac8:	000b0513          	mv	a0,s6
   1eacc:	000e0593          	mv	a1,t3
   1ead0:	74c020ef          	jal	2121c <__mulsi3>
   1ead4:	00050a13          	mv	s4,a0
   1ead8:	00090593          	mv	a1,s2
   1eadc:	000b0513          	mv	a0,s6
   1eae0:	73c020ef          	jal	2121c <__mulsi3>
   1eae4:	00050793          	mv	a5,a0
   1eae8:	000e0593          	mv	a1,t3
   1eaec:	000a8513          	mv	a0,s5
   1eaf0:	72c020ef          	jal	2121c <__mulsi3>
   1eaf4:	00050e13          	mv	t3,a0
   1eaf8:	00090593          	mv	a1,s2
   1eafc:	000a8513          	mv	a0,s5
   1eb00:	71c020ef          	jal	2121c <__mulsi3>
   1eb04:	01c787b3          	add	a5,a5,t3
   1eb08:	010a5693          	srli	a3,s4,0x10
   1eb0c:	00d787b3          	add	a5,a5,a3
   1eb10:	01c7f463          	bgeu	a5,t3,1eb18 <__multf3+0x670>
   1eb14:	00950533          	add	a0,a0,s1
   1eb18:	00010937          	lui	s2,0x10
   1eb1c:	fff90693          	addi	a3,s2,-1 # ffff <exit-0x95>
   1eb20:	0107d493          	srli	s1,a5,0x10
   1eb24:	00d7f7b3          	and	a5,a5,a3
   1eb28:	00da7a33          	and	s4,s4,a3
   1eb2c:	0102db13          	srli	s6,t0,0x10
   1eb30:	0109da93          	srli	s5,s3,0x10
   1eb34:	00d2f2b3          	and	t0,t0,a3
   1eb38:	00d9f9b3          	and	s3,s3,a3
   1eb3c:	01079793          	slli	a5,a5,0x10
   1eb40:	00a484b3          	add	s1,s1,a0
   1eb44:	014787b3          	add	a5,a5,s4
   1eb48:	00028513          	mv	a0,t0
   1eb4c:	00098593          	mv	a1,s3
   1eb50:	6cc020ef          	jal	2121c <__mulsi3>
   1eb54:	00050e13          	mv	t3,a0
   1eb58:	000a8593          	mv	a1,s5
   1eb5c:	00028513          	mv	a0,t0
   1eb60:	6bc020ef          	jal	2121c <__mulsi3>
   1eb64:	00050a13          	mv	s4,a0
   1eb68:	00098593          	mv	a1,s3
   1eb6c:	000b0513          	mv	a0,s6
   1eb70:	6ac020ef          	jal	2121c <__mulsi3>
   1eb74:	00050993          	mv	s3,a0
   1eb78:	000a8593          	mv	a1,s5
   1eb7c:	000b0513          	mv	a0,s6
   1eb80:	69c020ef          	jal	2121c <__mulsi3>
   1eb84:	010e5293          	srli	t0,t3,0x10
   1eb88:	013a0a33          	add	s4,s4,s3
   1eb8c:	014282b3          	add	t0,t0,s4
   1eb90:	00050693          	mv	a3,a0
   1eb94:	0132f463          	bgeu	t0,s3,1eb9c <__multf3+0x6f4>
   1eb98:	012506b3          	add	a3,a0,s2
   1eb9c:	0102d913          	srli	s2,t0,0x10
   1eba0:	00010a37          	lui	s4,0x10
   1eba4:	00d90933          	add	s2,s2,a3
   1eba8:	fffa0693          	addi	a3,s4,-1 # ffff <exit-0x95>
   1ebac:	00d2f2b3          	and	t0,t0,a3
   1ebb0:	00de7e33          	and	t3,t3,a3
   1ebb4:	010fdb13          	srli	s6,t6,0x10
   1ebb8:	00df7ab3          	and	s5,t5,a3
   1ebbc:	00dfffb3          	and	t6,t6,a3
   1ebc0:	01029293          	slli	t0,t0,0x10
   1ebc4:	01c282b3          	add	t0,t0,t3
   1ebc8:	000a8513          	mv	a0,s5
   1ebcc:	010f5e13          	srli	t3,t5,0x10
   1ebd0:	000f8593          	mv	a1,t6
   1ebd4:	648020ef          	jal	2121c <__mulsi3>
   1ebd8:	00050993          	mv	s3,a0
   1ebdc:	000b0593          	mv	a1,s6
   1ebe0:	000a8513          	mv	a0,s5
   1ebe4:	638020ef          	jal	2121c <__mulsi3>
   1ebe8:	00050a93          	mv	s5,a0
   1ebec:	000f8593          	mv	a1,t6
   1ebf0:	000e0513          	mv	a0,t3
   1ebf4:	628020ef          	jal	2121c <__mulsi3>
   1ebf8:	00050f93          	mv	t6,a0
   1ebfc:	000b0593          	mv	a1,s6
   1ec00:	000e0513          	mv	a0,t3
   1ec04:	618020ef          	jal	2121c <__mulsi3>
   1ec08:	0109d693          	srli	a3,s3,0x10
   1ec0c:	01fa8633          	add	a2,s5,t6
   1ec10:	00c686b3          	add	a3,a3,a2
   1ec14:	01f6f463          	bgeu	a3,t6,1ec1c <__multf3+0x774>
   1ec18:	01450533          	add	a0,a0,s4
   1ec1c:	00010e37          	lui	t3,0x10
   1ec20:	fffe0613          	addi	a2,t3,-1 # ffff <exit-0x95>
   1ec24:	0106d593          	srli	a1,a3,0x10
   1ec28:	00c6f6b3          	and	a3,a3,a2
   1ec2c:	00c9f9b3          	and	s3,s3,a2
   1ec30:	01069693          	slli	a3,a3,0x10
   1ec34:	00a585b3          	add	a1,a1,a0
   1ec38:	01368533          	add	a0,a3,s3
   1ec3c:	04c12683          	lw	a3,76(sp)
   1ec40:	05012f83          	lw	t6,80(sp)
   1ec44:	02812983          	lw	s3,40(sp)
   1ec48:	00e68733          	add	a4,a3,a4
   1ec4c:	007f83b3          	add	t2,t6,t2
   1ec50:	00d736b3          	sltu	a3,a4,a3
   1ec54:	00d386b3          	add	a3,t2,a3
   1ec58:	00f707b3          	add	a5,a4,a5
   1ec5c:	009684b3          	add	s1,a3,s1
   1ec60:	00e7b733          	sltu	a4,a5,a4
   1ec64:	00e48733          	add	a4,s1,a4
   1ec68:	005782b3          	add	t0,a5,t0
   1ec6c:	01f3bfb3          	sltu	t6,t2,t6
   1ec70:	0076b3b3          	sltu	t2,a3,t2
   1ec74:	00d4b6b3          	sltu	a3,s1,a3
   1ec78:	009734b3          	sltu	s1,a4,s1
   1ec7c:	0096e6b3          	or	a3,a3,s1
   1ec80:	01270933          	add	s2,a4,s2
   1ec84:	007fefb3          	or	t6,t6,t2
   1ec88:	00f2b7b3          	sltu	a5,t0,a5
   1ec8c:	00df8fb3          	add	t6,t6,a3
   1ec90:	00f907b3          	add	a5,s2,a5
   1ec94:	00a286b3          	add	a3,t0,a0
   1ec98:	00b785b3          	add	a1,a5,a1
   1ec9c:	04d12623          	sw	a3,76(sp)
   1eca0:	0056b6b3          	sltu	a3,a3,t0
   1eca4:	00d586b3          	add	a3,a1,a3
   1eca8:	00e93733          	sltu	a4,s2,a4
   1ecac:	0127b933          	sltu	s2,a5,s2
   1ecb0:	01276733          	or	a4,a4,s2
   1ecb4:	04d12823          	sw	a3,80(sp)
   1ecb8:	00f5b7b3          	sltu	a5,a1,a5
   1ecbc:	00b6b6b3          	sltu	a3,a3,a1
   1ecc0:	01f70733          	add	a4,a4,t6
   1ecc4:	00d7e7b3          	or	a5,a5,a3
   1ecc8:	00e787b3          	add	a5,a5,a4
   1eccc:	04f12a23          	sw	a5,84(sp)
   1ecd0:	010f5393          	srli	t2,t5,0x10
   1ecd4:	00c9f7b3          	and	a5,s3,a2
   1ecd8:	00cf7f33          	and	t5,t5,a2
   1ecdc:	0109d713          	srli	a4,s3,0x10
   1ece0:	000f0513          	mv	a0,t5
   1ece4:	00078593          	mv	a1,a5
   1ece8:	534020ef          	jal	2121c <__mulsi3>
   1ecec:	00050f93          	mv	t6,a0
   1ecf0:	00070593          	mv	a1,a4
   1ecf4:	000f0513          	mv	a0,t5
   1ecf8:	524020ef          	jal	2121c <__mulsi3>
   1ecfc:	00050f13          	mv	t5,a0
   1ed00:	00078593          	mv	a1,a5
   1ed04:	00038513          	mv	a0,t2
   1ed08:	514020ef          	jal	2121c <__mulsi3>
   1ed0c:	00050293          	mv	t0,a0
   1ed10:	00070593          	mv	a1,a4
   1ed14:	00038513          	mv	a0,t2
   1ed18:	504020ef          	jal	2121c <__mulsi3>
   1ed1c:	010fd793          	srli	a5,t6,0x10
   1ed20:	005f0f33          	add	t5,t5,t0
   1ed24:	01e787b3          	add	a5,a5,t5
   1ed28:	00050713          	mv	a4,a0
   1ed2c:	0057f463          	bgeu	a5,t0,1ed34 <__multf3+0x88c>
   1ed30:	01c50733          	add	a4,a0,t3
   1ed34:	01412f03          	lw	t5,20(sp)
   1ed38:	0107d913          	srli	s2,a5,0x10
   1ed3c:	000103b7          	lui	t2,0x10
   1ed40:	00e90933          	add	s2,s2,a4
   1ed44:	fff38713          	addi	a4,t2,-1 # ffff <exit-0x95>
   1ed48:	00e7f7b3          	and	a5,a5,a4
   1ed4c:	00efffb3          	and	t6,t6,a4
   1ed50:	010f5493          	srli	s1,t5,0x10
   1ed54:	01079793          	slli	a5,a5,0x10
   1ed58:	00ef7f33          	and	t5,t5,a4
   1ed5c:	00e37733          	and	a4,t1,a4
   1ed60:	01f787b3          	add	a5,a5,t6
   1ed64:	01035293          	srli	t0,t1,0x10
   1ed68:	000f0513          	mv	a0,t5
   1ed6c:	00070593          	mv	a1,a4
   1ed70:	4ac020ef          	jal	2121c <__mulsi3>
   1ed74:	00050e13          	mv	t3,a0
   1ed78:	00028593          	mv	a1,t0
   1ed7c:	000f0513          	mv	a0,t5
   1ed80:	49c020ef          	jal	2121c <__mulsi3>
   1ed84:	00050f13          	mv	t5,a0
   1ed88:	00070593          	mv	a1,a4
   1ed8c:	00048513          	mv	a0,s1
   1ed90:	48c020ef          	jal	2121c <__mulsi3>
   1ed94:	00050f93          	mv	t6,a0
   1ed98:	00028593          	mv	a1,t0
   1ed9c:	00048513          	mv	a0,s1
   1eda0:	47c020ef          	jal	2121c <__mulsi3>
   1eda4:	010e5293          	srli	t0,t3,0x10
   1eda8:	01ff0f33          	add	t5,t5,t6
   1edac:	01e282b3          	add	t0,t0,t5
   1edb0:	00050713          	mv	a4,a0
   1edb4:	01f2f463          	bgeu	t0,t6,1edbc <__multf3+0x914>
   1edb8:	00750733          	add	a4,a0,t2
   1edbc:	0102d493          	srli	s1,t0,0x10
   1edc0:	00e484b3          	add	s1,s1,a4
   1edc4:	00010fb7          	lui	t6,0x10
   1edc8:	02412703          	lw	a4,36(sp)
   1edcc:	ffff8693          	addi	a3,t6,-1 # ffff <exit-0x95>
   1edd0:	00d2f2b3          	and	t0,t0,a3
   1edd4:	00de7e33          	and	t3,t3,a3
   1edd8:	01075a93          	srli	s5,a4,0x10
   1eddc:	00deff33          	and	t5,t4,a3
   1ede0:	00d77733          	and	a4,a4,a3
   1ede4:	01029293          	slli	t0,t0,0x10
   1ede8:	01c282b3          	add	t0,t0,t3
   1edec:	010eda13          	srli	s4,t4,0x10
   1edf0:	000f0513          	mv	a0,t5
   1edf4:	00070593          	mv	a1,a4
   1edf8:	424020ef          	jal	2121c <__mulsi3>
   1edfc:	00050e13          	mv	t3,a0
   1ee00:	000a8593          	mv	a1,s5
   1ee04:	000f0513          	mv	a0,t5
   1ee08:	414020ef          	jal	2121c <__mulsi3>
   1ee0c:	00050f13          	mv	t5,a0
   1ee10:	00070593          	mv	a1,a4
   1ee14:	000a0513          	mv	a0,s4
   1ee18:	404020ef          	jal	2121c <__mulsi3>
   1ee1c:	00050393          	mv	t2,a0
   1ee20:	000a8593          	mv	a1,s5
   1ee24:	000a0513          	mv	a0,s4
   1ee28:	3f4020ef          	jal	2121c <__mulsi3>
   1ee2c:	010e5713          	srli	a4,t3,0x10
   1ee30:	007f0f33          	add	t5,t5,t2
   1ee34:	01e70733          	add	a4,a4,t5
   1ee38:	00050693          	mv	a3,a0
   1ee3c:	00777463          	bgeu	a4,t2,1ee44 <__multf3+0x99c>
   1ee40:	01f506b3          	add	a3,a0,t6
   1ee44:	01812f03          	lw	t5,24(sp)
   1ee48:	01075393          	srli	t2,a4,0x10
   1ee4c:	00010fb7          	lui	t6,0x10
   1ee50:	00d383b3          	add	t2,t2,a3
   1ee54:	ffff8693          	addi	a3,t6,-1 # ffff <exit-0x95>
   1ee58:	00d77733          	and	a4,a4,a3
   1ee5c:	00de7e33          	and	t3,t3,a3
   1ee60:	010f5b13          	srli	s6,t5,0x10
   1ee64:	01035a93          	srli	s5,t1,0x10
   1ee68:	00df7f33          	and	t5,t5,a3
   1ee6c:	00d37333          	and	t1,t1,a3
   1ee70:	01071713          	slli	a4,a4,0x10
   1ee74:	01c70733          	add	a4,a4,t3
   1ee78:	000f0513          	mv	a0,t5
   1ee7c:	00030593          	mv	a1,t1
   1ee80:	39c020ef          	jal	2121c <__mulsi3>
   1ee84:	00050e13          	mv	t3,a0
   1ee88:	000a8593          	mv	a1,s5
   1ee8c:	000f0513          	mv	a0,t5
   1ee90:	38c020ef          	jal	2121c <__mulsi3>
   1ee94:	00050a13          	mv	s4,a0
   1ee98:	00030593          	mv	a1,t1
   1ee9c:	000b0513          	mv	a0,s6
   1eea0:	37c020ef          	jal	2121c <__mulsi3>
   1eea4:	00050313          	mv	t1,a0
   1eea8:	000a8593          	mv	a1,s5
   1eeac:	000b0513          	mv	a0,s6
   1eeb0:	36c020ef          	jal	2121c <__mulsi3>
   1eeb4:	010e5f13          	srli	t5,t3,0x10
   1eeb8:	006a0a33          	add	s4,s4,t1
   1eebc:	014f0f33          	add	t5,t5,s4
   1eec0:	00050693          	mv	a3,a0
   1eec4:	006f7463          	bgeu	t5,t1,1eecc <__multf3+0xa24>
   1eec8:	01f506b3          	add	a3,a0,t6
   1eecc:	010f5f93          	srli	t6,t5,0x10
   1eed0:	00010337          	lui	t1,0x10
   1eed4:	00df8fb3          	add	t6,t6,a3
   1eed8:	fff30693          	addi	a3,t1,-1 # ffff <exit-0x95>
   1eedc:	00df7f33          	and	t5,t5,a3
   1eee0:	00de7e33          	and	t3,t3,a3
   1eee4:	010edb13          	srli	s6,t4,0x10
   1eee8:	0109da93          	srli	s5,s3,0x10
   1eeec:	00defeb3          	and	t4,t4,a3
   1eef0:	00d9f9b3          	and	s3,s3,a3
   1eef4:	010f1f13          	slli	t5,t5,0x10
   1eef8:	01cf0f33          	add	t5,t5,t3
   1eefc:	000e8513          	mv	a0,t4
   1ef00:	00098593          	mv	a1,s3
   1ef04:	318020ef          	jal	2121c <__mulsi3>
   1ef08:	00050a13          	mv	s4,a0
   1ef0c:	000a8593          	mv	a1,s5
   1ef10:	000e8513          	mv	a0,t4
   1ef14:	308020ef          	jal	2121c <__mulsi3>
   1ef18:	00050e13          	mv	t3,a0
   1ef1c:	00098593          	mv	a1,s3
   1ef20:	000b0513          	mv	a0,s6
   1ef24:	2f8020ef          	jal	2121c <__mulsi3>
   1ef28:	00050e93          	mv	t4,a0
   1ef2c:	000a8593          	mv	a1,s5
   1ef30:	000b0513          	mv	a0,s6
   1ef34:	2e8020ef          	jal	2121c <__mulsi3>
   1ef38:	010a5693          	srli	a3,s4,0x10
   1ef3c:	01de0e33          	add	t3,t3,t4
   1ef40:	01c686b3          	add	a3,a3,t3
   1ef44:	00050613          	mv	a2,a0
   1ef48:	01d6f463          	bgeu	a3,t4,1ef50 <__multf3+0xaa8>
   1ef4c:	00650633          	add	a2,a0,t1
   1ef50:	00010e37          	lui	t3,0x10
   1ef54:	fffe0313          	addi	t1,t3,-1 # ffff <exit-0x95>
   1ef58:	0106d593          	srli	a1,a3,0x10
   1ef5c:	0066f6b3          	and	a3,a3,t1
   1ef60:	01069693          	slli	a3,a3,0x10
   1ef64:	006a7a33          	and	s4,s4,t1
   1ef68:	00c585b3          	add	a1,a1,a2
   1ef6c:	01468633          	add	a2,a3,s4
   1ef70:	05012683          	lw	a3,80(sp)
   1ef74:	05412503          	lw	a0,84(sp)
   1ef78:	00f687b3          	add	a5,a3,a5
   1ef7c:	01250933          	add	s2,a0,s2
   1ef80:	00d7b6b3          	sltu	a3,a5,a3
   1ef84:	005782b3          	add	t0,a5,t0
   1ef88:	00d906b3          	add	a3,s2,a3
   1ef8c:	009684b3          	add	s1,a3,s1
   1ef90:	00f2b7b3          	sltu	a5,t0,a5
   1ef94:	00f487b3          	add	a5,s1,a5
   1ef98:	00e28733          	add	a4,t0,a4
   1ef9c:	007783b3          	add	t2,a5,t2
   1efa0:	04e12823          	sw	a4,80(sp)
   1efa4:	00573733          	sltu	a4,a4,t0
   1efa8:	00e38733          	add	a4,t2,a4
   1efac:	00a93533          	sltu	a0,s2,a0
   1efb0:	0126b933          	sltu	s2,a3,s2
   1efb4:	00d4b6b3          	sltu	a3,s1,a3
   1efb8:	0097b4b3          	sltu	s1,a5,s1
   1efbc:	0096e6b3          	or	a3,a3,s1
   1efc0:	01256533          	or	a0,a0,s2
   1efc4:	00f3b7b3          	sltu	a5,t2,a5
   1efc8:	007733b3          	sltu	t2,a4,t2
   1efcc:	00d50533          	add	a0,a0,a3
   1efd0:	0077e7b3          	or	a5,a5,t2
   1efd4:	01e70f33          	add	t5,a4,t5
   1efd8:	00a787b3          	add	a5,a5,a0
   1efdc:	01f78fb3          	add	t6,a5,t6
   1efe0:	00ef3733          	sltu	a4,t5,a4
   1efe4:	00cf06b3          	add	a3,t5,a2
   1efe8:	00ef8733          	add	a4,t6,a4
   1efec:	00b705b3          	add	a1,a4,a1
   1eff0:	04d12a23          	sw	a3,84(sp)
   1eff4:	01e6b6b3          	sltu	a3,a3,t5
   1eff8:	00d586b3          	add	a3,a1,a3
   1effc:	04d12c23          	sw	a3,88(sp)
   1f000:	00ffb7b3          	sltu	a5,t6,a5
   1f004:	00b6b6b3          	sltu	a3,a3,a1
   1f008:	01f73fb3          	sltu	t6,a4,t6
   1f00c:	00e5b733          	sltu	a4,a1,a4
   1f010:	00d76733          	or	a4,a4,a3
   1f014:	01f7e7b3          	or	a5,a5,t6
   1f018:	00e787b3          	add	a5,a5,a4
   1f01c:	04f12e23          	sw	a5,92(sp)
   1f020:	02c12703          	lw	a4,44(sp)
   1f024:	01c12783          	lw	a5,28(sp)
   1f028:	01075f13          	srli	t5,a4,0x10
   1f02c:	0107df93          	srli	t6,a5,0x10
   1f030:	00677733          	and	a4,a4,t1
   1f034:	0067f7b3          	and	a5,a5,t1
   1f038:	00078513          	mv	a0,a5
   1f03c:	00070593          	mv	a1,a4
   1f040:	1dc020ef          	jal	2121c <__mulsi3>
   1f044:	00050e93          	mv	t4,a0
   1f048:	000f0593          	mv	a1,t5
   1f04c:	00078513          	mv	a0,a5
   1f050:	1cc020ef          	jal	2121c <__mulsi3>
   1f054:	00050793          	mv	a5,a0
   1f058:	00070593          	mv	a1,a4
   1f05c:	000f8513          	mv	a0,t6
   1f060:	1bc020ef          	jal	2121c <__mulsi3>
   1f064:	00050713          	mv	a4,a0
   1f068:	000f0593          	mv	a1,t5
   1f06c:	000f8513          	mv	a0,t6
   1f070:	1ac020ef          	jal	2121c <__mulsi3>
   1f074:	00e787b3          	add	a5,a5,a4
   1f078:	010ed693          	srli	a3,t4,0x10
   1f07c:	00d787b3          	add	a5,a5,a3
   1f080:	00e7f463          	bgeu	a5,a4,1f088 <__multf3+0xbe0>
   1f084:	01c50533          	add	a0,a0,t3
   1f088:	05812683          	lw	a3,88(sp)
   1f08c:	0067f733          	and	a4,a5,t1
   1f090:	05c12603          	lw	a2,92(sp)
   1f094:	01071713          	slli	a4,a4,0x10
   1f098:	006efeb3          	and	t4,t4,t1
   1f09c:	01d70733          	add	a4,a4,t4
   1f0a0:	00e68733          	add	a4,a3,a4
   1f0a4:	0107d793          	srli	a5,a5,0x10
   1f0a8:	00d736b3          	sltu	a3,a4,a3
   1f0ac:	00c787b3          	add	a5,a5,a2
   1f0b0:	00d787b3          	add	a5,a5,a3
   1f0b4:	00a78533          	add	a0,a5,a0
   1f0b8:	04e12c23          	sw	a4,88(sp)
   1f0bc:	04012783          	lw	a5,64(sp)
   1f0c0:	04412703          	lw	a4,68(sp)
   1f0c4:	04a12e23          	sw	a0,92(sp)
   1f0c8:	05010593          	addi	a1,sp,80
   1f0cc:	00f76733          	or	a4,a4,a5
   1f0d0:	04812783          	lw	a5,72(sp)
   1f0d4:	00f76733          	or	a4,a4,a5
   1f0d8:	04c12783          	lw	a5,76(sp)
   1f0dc:	00d79793          	slli	a5,a5,0xd
   1f0e0:	00e7e7b3          	or	a5,a5,a4
   1f0e4:	04010713          	addi	a4,sp,64
   1f0e8:	00c72683          	lw	a3,12(a4)
   1f0ec:	01072603          	lw	a2,16(a4)
   1f0f0:	00470713          	addi	a4,a4,4
   1f0f4:	0136d693          	srli	a3,a3,0x13
   1f0f8:	00d61613          	slli	a2,a2,0xd
   1f0fc:	00c6e6b3          	or	a3,a3,a2
   1f100:	fed72e23          	sw	a3,-4(a4)
   1f104:	fee592e3          	bne	a1,a4,1f0e8 <__multf3+0xc40>
   1f108:	04012703          	lw	a4,64(sp)
   1f10c:	00f037b3          	snez	a5,a5
   1f110:	04c12683          	lw	a3,76(sp)
   1f114:	00e7e7b3          	or	a5,a5,a4
   1f118:	04812703          	lw	a4,72(sp)
   1f11c:	02d12e23          	sw	a3,60(sp)
   1f120:	02f12823          	sw	a5,48(sp)
   1f124:	02e12c23          	sw	a4,56(sp)
   1f128:	04412703          	lw	a4,68(sp)
   1f12c:	02e12a23          	sw	a4,52(sp)
   1f130:	00b69713          	slli	a4,a3,0xb
   1f134:	04075663          	bgez	a4,1f180 <__multf3+0xcd8>
   1f138:	01f79793          	slli	a5,a5,0x1f
   1f13c:	03010713          	addi	a4,sp,48
   1f140:	03c10513          	addi	a0,sp,60
   1f144:	00072603          	lw	a2,0(a4)
   1f148:	00472583          	lw	a1,4(a4)
   1f14c:	00470713          	addi	a4,a4,4
   1f150:	00165613          	srli	a2,a2,0x1
   1f154:	01f59593          	slli	a1,a1,0x1f
   1f158:	00b66633          	or	a2,a2,a1
   1f15c:	fec72e23          	sw	a2,-4(a4)
   1f160:	fee512e3          	bne	a0,a4,1f144 <__multf3+0xc9c>
   1f164:	03012703          	lw	a4,48(sp)
   1f168:	00f037b3          	snez	a5,a5
   1f16c:	0016d693          	srli	a3,a3,0x1
   1f170:	00f767b3          	or	a5,a4,a5
   1f174:	02d12e23          	sw	a3,60(sp)
   1f178:	02f12823          	sw	a5,48(sp)
   1f17c:	000c0813          	mv	a6,s8
   1f180:	00080c13          	mv	s8,a6
   1f184:	3700006f          	j	1f4f4 <__multf3+0x104c>
   1f188:	00a76633          	or	a2,a4,a0
   1f18c:	00d66633          	or	a2,a2,a3
   1f190:	00f66633          	or	a2,a2,a5
   1f194:	14060263          	beqz	a2,1f2d8 <__multf3+0xe30>
   1f198:	0a078063          	beqz	a5,1f238 <__multf3+0xd90>
   1f19c:	00078513          	mv	a0,a5
   1f1a0:	154020ef          	jal	212f4 <__clzsi2>
   1f1a4:	ff450613          	addi	a2,a0,-12
   1f1a8:	40565713          	srai	a4,a2,0x5
   1f1ac:	01f67613          	andi	a2,a2,31
   1f1b0:	40e007b3          	neg	a5,a4
   1f1b4:	0a060c63          	beqz	a2,1f26c <__multf3+0xdc4>
   1f1b8:	00279793          	slli	a5,a5,0x2
   1f1bc:	00c78693          	addi	a3,a5,12
   1f1c0:	02000813          	li	a6,32
   1f1c4:	01010313          	addi	t1,sp,16
   1f1c8:	40c80833          	sub	a6,a6,a2
   1f1cc:	00d306b3          	add	a3,t1,a3
   1f1d0:	40f007b3          	neg	a5,a5
   1f1d4:	0cd31263          	bne	t1,a3,1f298 <__multf3+0xdf0>
   1f1d8:	fff70793          	addi	a5,a4,-1
   1f1dc:	00271713          	slli	a4,a4,0x2
   1f1e0:	01010693          	addi	a3,sp,16
   1f1e4:	05070713          	addi	a4,a4,80
   1f1e8:	00d70733          	add	a4,a4,a3
   1f1ec:	01012683          	lw	a3,16(sp)
   1f1f0:	00c696b3          	sll	a3,a3,a2
   1f1f4:	fad72823          	sw	a3,-80(a4)
   1f1f8:	00178793          	addi	a5,a5,1
   1f1fc:	00279793          	slli	a5,a5,0x2
   1f200:	00800693          	li	a3,8
   1f204:	01010713          	addi	a4,sp,16
   1f208:	00d7ea63          	bltu	a5,a3,1f21c <__multf3+0xd74>
   1f20c:	00012823          	sw	zero,16(sp)
   1f210:	00072223          	sw	zero,4(a4)
   1f214:	ff878793          	addi	a5,a5,-8
   1f218:	01810713          	addi	a4,sp,24
   1f21c:	00400693          	li	a3,4
   1f220:	00d7e463          	bltu	a5,a3,1f228 <__multf3+0xd80>
   1f224:	00072023          	sw	zero,0(a4)
   1f228:	ffffc9b7          	lui	s3,0xffffc
   1f22c:	01198993          	addi	s3,s3,17 # ffffc011 <__BSS_END__+0xfffd950d>
   1f230:	40a989b3          	sub	s3,s3,a0
   1f234:	b5cff06f          	j	1e590 <__multf3+0xe8>
   1f238:	00068a63          	beqz	a3,1f24c <__multf3+0xda4>
   1f23c:	00068513          	mv	a0,a3
   1f240:	0b4020ef          	jal	212f4 <__clzsi2>
   1f244:	02050513          	addi	a0,a0,32
   1f248:	f5dff06f          	j	1f1a4 <__multf3+0xcfc>
   1f24c:	00050863          	beqz	a0,1f25c <__multf3+0xdb4>
   1f250:	0a4020ef          	jal	212f4 <__clzsi2>
   1f254:	04050513          	addi	a0,a0,64
   1f258:	f4dff06f          	j	1f1a4 <__multf3+0xcfc>
   1f25c:	00070513          	mv	a0,a4
   1f260:	094020ef          	jal	212f4 <__clzsi2>
   1f264:	06050513          	addi	a0,a0,96
   1f268:	f3dff06f          	j	1f1a4 <__multf3+0xcfc>
   1f26c:	01c10693          	addi	a3,sp,28
   1f270:	00279793          	slli	a5,a5,0x2
   1f274:	00300613          	li	a2,3
   1f278:	00f685b3          	add	a1,a3,a5
   1f27c:	0005a583          	lw	a1,0(a1)
   1f280:	fff60613          	addi	a2,a2,-1
   1f284:	ffc68693          	addi	a3,a3,-4 # fffc <exit-0x98>
   1f288:	00b6a223          	sw	a1,4(a3)
   1f28c:	fee656e3          	bge	a2,a4,1f278 <__multf3+0xdd0>
   1f290:	fff70793          	addi	a5,a4,-1
   1f294:	f65ff06f          	j	1f1f8 <__multf3+0xd50>
   1f298:	0006a583          	lw	a1,0(a3)
   1f29c:	ffc6a883          	lw	a7,-4(a3)
   1f2a0:	00f68e33          	add	t3,a3,a5
   1f2a4:	00c595b3          	sll	a1,a1,a2
   1f2a8:	0108d8b3          	srl	a7,a7,a6
   1f2ac:	0115e5b3          	or	a1,a1,a7
   1f2b0:	00be2023          	sw	a1,0(t3)
   1f2b4:	ffc68693          	addi	a3,a3,-4
   1f2b8:	f1dff06f          	j	1f1d4 <__multf3+0xd2c>
   1f2bc:	00a76733          	or	a4,a4,a0
   1f2c0:	00d76733          	or	a4,a4,a3
   1f2c4:	00f76733          	or	a4,a4,a5
   1f2c8:	00200b93          	li	s7,2
   1f2cc:	ac070463          	beqz	a4,1e594 <__multf3+0xec>
   1f2d0:	00300b93          	li	s7,3
   1f2d4:	ac0ff06f          	j	1e594 <__multf3+0xec>
   1f2d8:	00000993          	li	s3,0
   1f2dc:	00100b93          	li	s7,1
   1f2e0:	ab4ff06f          	j	1e594 <__multf3+0xec>
   1f2e4:	016a67b3          	or	a5,s4,s6
   1f2e8:	0157e7b3          	or	a5,a5,s5
   1f2ec:	00a7e7b3          	or	a5,a5,a0
   1f2f0:	14078263          	beqz	a5,1f434 <__multf3+0xf8c>
   1f2f4:	08050e63          	beqz	a0,1f390 <__multf3+0xee8>
   1f2f8:	7fd010ef          	jal	212f4 <__clzsi2>
   1f2fc:	ff450613          	addi	a2,a0,-12
   1f300:	40565713          	srai	a4,a2,0x5
   1f304:	01f67613          	andi	a2,a2,31
   1f308:	40e007b3          	neg	a5,a4
   1f30c:	0a060e63          	beqz	a2,1f3c8 <__multf3+0xf20>
   1f310:	00279793          	slli	a5,a5,0x2
   1f314:	00c78693          	addi	a3,a5,12
   1f318:	02000813          	li	a6,32
   1f31c:	02010313          	addi	t1,sp,32
   1f320:	40c80833          	sub	a6,a6,a2
   1f324:	00d306b3          	add	a3,t1,a3
   1f328:	40f007b3          	neg	a5,a5
   1f32c:	0cd31463          	bne	t1,a3,1f3f4 <__multf3+0xf4c>
   1f330:	fff70793          	addi	a5,a4,-1
   1f334:	00271713          	slli	a4,a4,0x2
   1f338:	01010693          	addi	a3,sp,16
   1f33c:	05070713          	addi	a4,a4,80
   1f340:	00d70733          	add	a4,a4,a3
   1f344:	02012683          	lw	a3,32(sp)
   1f348:	00c696b3          	sll	a3,a3,a2
   1f34c:	fcd72023          	sw	a3,-64(a4)
   1f350:	00178793          	addi	a5,a5,1
   1f354:	00279793          	slli	a5,a5,0x2
   1f358:	00800693          	li	a3,8
   1f35c:	02010713          	addi	a4,sp,32
   1f360:	00d7ea63          	bltu	a5,a3,1f374 <__multf3+0xecc>
   1f364:	02012023          	sw	zero,32(sp)
   1f368:	00072223          	sw	zero,4(a4)
   1f36c:	ff878793          	addi	a5,a5,-8
   1f370:	02810713          	addi	a4,sp,40
   1f374:	00400693          	li	a3,4
   1f378:	00d7e463          	bltu	a5,a3,1f380 <__multf3+0xed8>
   1f37c:	00072023          	sw	zero,0(a4)
   1f380:	ffffc837          	lui	a6,0xffffc
   1f384:	01180813          	addi	a6,a6,17 # ffffc011 <__BSS_END__+0xfffd950d>
   1f388:	40a80833          	sub	a6,a6,a0
   1f38c:	a94ff06f          	j	1e620 <__multf3+0x178>
   1f390:	000a8a63          	beqz	s5,1f3a4 <__multf3+0xefc>
   1f394:	000a8513          	mv	a0,s5
   1f398:	75d010ef          	jal	212f4 <__clzsi2>
   1f39c:	02050513          	addi	a0,a0,32
   1f3a0:	f5dff06f          	j	1f2fc <__multf3+0xe54>
   1f3a4:	000b0a63          	beqz	s6,1f3b8 <__multf3+0xf10>
   1f3a8:	000b0513          	mv	a0,s6
   1f3ac:	749010ef          	jal	212f4 <__clzsi2>
   1f3b0:	04050513          	addi	a0,a0,64
   1f3b4:	f49ff06f          	j	1f2fc <__multf3+0xe54>
   1f3b8:	000a0513          	mv	a0,s4
   1f3bc:	739010ef          	jal	212f4 <__clzsi2>
   1f3c0:	06050513          	addi	a0,a0,96
   1f3c4:	f39ff06f          	j	1f2fc <__multf3+0xe54>
   1f3c8:	02c10693          	addi	a3,sp,44
   1f3cc:	00279793          	slli	a5,a5,0x2
   1f3d0:	00300613          	li	a2,3
   1f3d4:	00f685b3          	add	a1,a3,a5
   1f3d8:	0005a583          	lw	a1,0(a1)
   1f3dc:	fff60613          	addi	a2,a2,-1
   1f3e0:	ffc68693          	addi	a3,a3,-4
   1f3e4:	00b6a223          	sw	a1,4(a3)
   1f3e8:	fee656e3          	bge	a2,a4,1f3d4 <__multf3+0xf2c>
   1f3ec:	fff70793          	addi	a5,a4,-1
   1f3f0:	f61ff06f          	j	1f350 <__multf3+0xea8>
   1f3f4:	0006a583          	lw	a1,0(a3)
   1f3f8:	ffc6a883          	lw	a7,-4(a3)
   1f3fc:	00f68e33          	add	t3,a3,a5
   1f400:	00c595b3          	sll	a1,a1,a2
   1f404:	0108d8b3          	srl	a7,a7,a6
   1f408:	0115e5b3          	or	a1,a1,a7
   1f40c:	00be2023          	sw	a1,0(t3)
   1f410:	ffc68693          	addi	a3,a3,-4
   1f414:	f19ff06f          	j	1f32c <__multf3+0xe84>
   1f418:	016a67b3          	or	a5,s4,s6
   1f41c:	0157e7b3          	or	a5,a5,s5
   1f420:	00a7e7b3          	or	a5,a5,a0
   1f424:	00200693          	li	a3,2
   1f428:	9e078e63          	beqz	a5,1e624 <__multf3+0x17c>
   1f42c:	00300693          	li	a3,3
   1f430:	9f4ff06f          	j	1e624 <__multf3+0x17c>
   1f434:	00000813          	li	a6,0
   1f438:	00100693          	li	a3,1
   1f43c:	9e8ff06f          	j	1e624 <__multf3+0x17c>
   1f440:	00100713          	li	a4,1
   1f444:	00f717b3          	sll	a5,a4,a5
   1f448:	5307f713          	andi	a4,a5,1328
   1f44c:	06071863          	bnez	a4,1f4bc <__multf3+0x1014>
   1f450:	0887f713          	andi	a4,a5,136
   1f454:	04071063          	bnez	a4,1f494 <__multf3+0xfec>
   1f458:	2407f793          	andi	a5,a5,576
   1f45c:	9e078c63          	beqz	a5,1e654 <__multf3+0x1ac>
   1f460:	000087b7          	lui	a5,0x8
   1f464:	02f12e23          	sw	a5,60(sp)
   1f468:	02012c23          	sw	zero,56(sp)
   1f46c:	02012a23          	sw	zero,52(sp)
   1f470:	02012823          	sw	zero,48(sp)
   1f474:	fff78793          	addi	a5,a5,-1 # 7fff <exit-0x8095>
   1f478:	00000893          	li	a7,0
   1f47c:	13c0006f          	j	1f5b8 <__multf3+0x1110>
   1f480:	00f00713          	li	a4,15
   1f484:	fce78ee3          	beq	a5,a4,1f460 <__multf3+0xfb8>
   1f488:	00b00713          	li	a4,11
   1f48c:	00048893          	mv	a7,s1
   1f490:	02e79663          	bne	a5,a4,1f4bc <__multf3+0x1014>
   1f494:	00090893          	mv	a7,s2
   1f498:	02012783          	lw	a5,32(sp)
   1f49c:	00068b93          	mv	s7,a3
   1f4a0:	02f12823          	sw	a5,48(sp)
   1f4a4:	02412783          	lw	a5,36(sp)
   1f4a8:	02f12a23          	sw	a5,52(sp)
   1f4ac:	02812783          	lw	a5,40(sp)
   1f4b0:	02f12c23          	sw	a5,56(sp)
   1f4b4:	02c12783          	lw	a5,44(sp)
   1f4b8:	0200006f          	j	1f4d8 <__multf3+0x1030>
   1f4bc:	01012783          	lw	a5,16(sp)
   1f4c0:	02f12823          	sw	a5,48(sp)
   1f4c4:	01412783          	lw	a5,20(sp)
   1f4c8:	02f12a23          	sw	a5,52(sp)
   1f4cc:	01812783          	lw	a5,24(sp)
   1f4d0:	02f12c23          	sw	a5,56(sp)
   1f4d4:	01c12783          	lw	a5,28(sp)
   1f4d8:	02f12e23          	sw	a5,60(sp)
   1f4dc:	00200793          	li	a5,2
   1f4e0:	36fb8063          	beq	s7,a5,1f840 <__multf3+0x1398>
   1f4e4:	00300793          	li	a5,3
   1f4e8:	f6fb8ce3          	beq	s7,a5,1f460 <__multf3+0xfb8>
   1f4ec:	00100793          	li	a5,1
   1f4f0:	32fb8e63          	beq	s7,a5,1f82c <__multf3+0x1384>
   1f4f4:	000047b7          	lui	a5,0x4
   1f4f8:	fff78793          	addi	a5,a5,-1 # 3fff <exit-0xc095>
   1f4fc:	00fc07b3          	add	a5,s8,a5
   1f500:	12f05663          	blez	a5,1f62c <__multf3+0x1184>
   1f504:	03012703          	lw	a4,48(sp)
   1f508:	00777693          	andi	a3,a4,7
   1f50c:	04068463          	beqz	a3,1f554 <__multf3+0x10ac>
   1f510:	00f77693          	andi	a3,a4,15
   1f514:	00400613          	li	a2,4
   1f518:	02c68e63          	beq	a3,a2,1f554 <__multf3+0x10ac>
   1f51c:	00470713          	addi	a4,a4,4
   1f520:	00473693          	sltiu	a3,a4,4
   1f524:	02e12823          	sw	a4,48(sp)
   1f528:	03412703          	lw	a4,52(sp)
   1f52c:	00e68733          	add	a4,a3,a4
   1f530:	02e12a23          	sw	a4,52(sp)
   1f534:	00d73733          	sltu	a4,a4,a3
   1f538:	03812683          	lw	a3,56(sp)
   1f53c:	00e68733          	add	a4,a3,a4
   1f540:	02e12c23          	sw	a4,56(sp)
   1f544:	00d73733          	sltu	a4,a4,a3
   1f548:	03c12683          	lw	a3,60(sp)
   1f54c:	00d70733          	add	a4,a4,a3
   1f550:	02e12e23          	sw	a4,60(sp)
   1f554:	03c12703          	lw	a4,60(sp)
   1f558:	00b71693          	slli	a3,a4,0xb
   1f55c:	0006de63          	bgez	a3,1f578 <__multf3+0x10d0>
   1f560:	fff007b7          	lui	a5,0xfff00
   1f564:	fff78793          	addi	a5,a5,-1 # ffefffff <__BSS_END__+0xffedd4fb>
   1f568:	00f77733          	and	a4,a4,a5
   1f56c:	000047b7          	lui	a5,0x4
   1f570:	02e12e23          	sw	a4,60(sp)
   1f574:	00fc07b3          	add	a5,s8,a5
   1f578:	03010713          	addi	a4,sp,48
   1f57c:	03c10593          	addi	a1,sp,60
   1f580:	00072683          	lw	a3,0(a4)
   1f584:	00472603          	lw	a2,4(a4)
   1f588:	00470713          	addi	a4,a4,4
   1f58c:	0036d693          	srli	a3,a3,0x3
   1f590:	01d61613          	slli	a2,a2,0x1d
   1f594:	00c6e6b3          	or	a3,a3,a2
   1f598:	fed72e23          	sw	a3,-4(a4)
   1f59c:	fee592e3          	bne	a1,a4,1f580 <__multf3+0x10d8>
   1f5a0:	000086b7          	lui	a3,0x8
   1f5a4:	ffe68693          	addi	a3,a3,-2 # 7ffe <exit-0x8096>
   1f5a8:	03c12703          	lw	a4,60(sp)
   1f5ac:	28f6ca63          	blt	a3,a5,1f840 <__multf3+0x1398>
   1f5b0:	00375713          	srli	a4,a4,0x3
   1f5b4:	02e12e23          	sw	a4,60(sp)
   1f5b8:	00f89893          	slli	a7,a7,0xf
   1f5bc:	00f8e8b3          	or	a7,a7,a5
   1f5c0:	03012783          	lw	a5,48(sp)
   1f5c4:	03c12703          	lw	a4,60(sp)
   1f5c8:	05111723          	sh	a7,78(sp)
   1f5cc:	00f42023          	sw	a5,0(s0)
   1f5d0:	03412783          	lw	a5,52(sp)
   1f5d4:	04e11623          	sh	a4,76(sp)
   1f5d8:	09c12083          	lw	ra,156(sp)
   1f5dc:	00f42223          	sw	a5,4(s0)
   1f5e0:	03812783          	lw	a5,56(sp)
   1f5e4:	00040513          	mv	a0,s0
   1f5e8:	09412483          	lw	s1,148(sp)
   1f5ec:	00f42423          	sw	a5,8(s0)
   1f5f0:	04c12783          	lw	a5,76(sp)
   1f5f4:	09012903          	lw	s2,144(sp)
   1f5f8:	08c12983          	lw	s3,140(sp)
   1f5fc:	00f42623          	sw	a5,12(s0)
   1f600:	09812403          	lw	s0,152(sp)
   1f604:	08812a03          	lw	s4,136(sp)
   1f608:	08412a83          	lw	s5,132(sp)
   1f60c:	08012b03          	lw	s6,128(sp)
   1f610:	07c12b83          	lw	s7,124(sp)
   1f614:	07812c03          	lw	s8,120(sp)
   1f618:	07412c83          	lw	s9,116(sp)
   1f61c:	07012d03          	lw	s10,112(sp)
   1f620:	06c12d83          	lw	s11,108(sp)
   1f624:	0a010113          	addi	sp,sp,160
   1f628:	00008067          	ret
   1f62c:	00100693          	li	a3,1
   1f630:	40f686b3          	sub	a3,a3,a5
   1f634:	07400793          	li	a5,116
   1f638:	1cd7ca63          	blt	a5,a3,1f80c <__multf3+0x1364>
   1f63c:	03010513          	addi	a0,sp,48
   1f640:	4056d713          	srai	a4,a3,0x5
   1f644:	00050593          	mv	a1,a0
   1f648:	01f6f693          	andi	a3,a3,31
   1f64c:	00000793          	li	a5,0
   1f650:	00000613          	li	a2,0
   1f654:	02e61e63          	bne	a2,a4,1f690 <__multf3+0x11e8>
   1f658:	00300613          	li	a2,3
   1f65c:	40e60633          	sub	a2,a2,a4
   1f660:	00271593          	slli	a1,a4,0x2
   1f664:	04069063          	bnez	a3,1f6a4 <__multf3+0x11fc>
   1f668:	00050813          	mv	a6,a0
   1f66c:	00b80333          	add	t1,a6,a1
   1f670:	00032303          	lw	t1,0(t1)
   1f674:	00168693          	addi	a3,a3,1
   1f678:	00480813          	addi	a6,a6,4
   1f67c:	fe682e23          	sw	t1,-4(a6)
   1f680:	fed656e3          	bge	a2,a3,1f66c <__multf3+0x11c4>
   1f684:	00400693          	li	a3,4
   1f688:	40e68733          	sub	a4,a3,a4
   1f68c:	06c0006f          	j	1f6f8 <__multf3+0x1250>
   1f690:	0005a803          	lw	a6,0(a1)
   1f694:	00160613          	addi	a2,a2,1
   1f698:	00458593          	addi	a1,a1,4
   1f69c:	0107e7b3          	or	a5,a5,a6
   1f6a0:	fb5ff06f          	j	1f654 <__multf3+0x11ac>
   1f6a4:	05058813          	addi	a6,a1,80
   1f6a8:	01010e13          	addi	t3,sp,16
   1f6ac:	01c80833          	add	a6,a6,t3
   1f6b0:	fd082803          	lw	a6,-48(a6)
   1f6b4:	02000313          	li	t1,32
   1f6b8:	40d30333          	sub	t1,t1,a3
   1f6bc:	00681833          	sll	a6,a6,t1
   1f6c0:	0107e7b3          	or	a5,a5,a6
   1f6c4:	00b505b3          	add	a1,a0,a1
   1f6c8:	00050e93          	mv	t4,a0
   1f6cc:	00000e13          	li	t3,0
   1f6d0:	0ece4063          	blt	t3,a2,1f7b0 <__multf3+0x1308>
   1f6d4:	00400593          	li	a1,4
   1f6d8:	00261613          	slli	a2,a2,0x2
   1f6dc:	40e58733          	sub	a4,a1,a4
   1f6e0:	05060613          	addi	a2,a2,80
   1f6e4:	01010593          	addi	a1,sp,16
   1f6e8:	00b60633          	add	a2,a2,a1
   1f6ec:	03c12583          	lw	a1,60(sp)
   1f6f0:	00d5d6b3          	srl	a3,a1,a3
   1f6f4:	fcd62823          	sw	a3,-48(a2)
   1f6f8:	00400693          	li	a3,4
   1f6fc:	40e686b3          	sub	a3,a3,a4
   1f700:	00269693          	slli	a3,a3,0x2
   1f704:	00271713          	slli	a4,a4,0x2
   1f708:	00800613          	li	a2,8
   1f70c:	00e50733          	add	a4,a0,a4
   1f710:	00c6ea63          	bltu	a3,a2,1f724 <__multf3+0x127c>
   1f714:	00072023          	sw	zero,0(a4)
   1f718:	00072223          	sw	zero,4(a4)
   1f71c:	ff868693          	addi	a3,a3,-8
   1f720:	00870713          	addi	a4,a4,8
   1f724:	00400613          	li	a2,4
   1f728:	00c6e463          	bltu	a3,a2,1f730 <__multf3+0x1288>
   1f72c:	00072023          	sw	zero,0(a4)
   1f730:	03012703          	lw	a4,48(sp)
   1f734:	00f037b3          	snez	a5,a5
   1f738:	00e7e7b3          	or	a5,a5,a4
   1f73c:	02f12823          	sw	a5,48(sp)
   1f740:	0077f713          	andi	a4,a5,7
   1f744:	04070463          	beqz	a4,1f78c <__multf3+0x12e4>
   1f748:	00f7f713          	andi	a4,a5,15
   1f74c:	00400693          	li	a3,4
   1f750:	02d70e63          	beq	a4,a3,1f78c <__multf3+0x12e4>
   1f754:	03412703          	lw	a4,52(sp)
   1f758:	00478793          	addi	a5,a5,4 # 4004 <exit-0xc090>
   1f75c:	02f12823          	sw	a5,48(sp)
   1f760:	0047b793          	sltiu	a5,a5,4
   1f764:	00f707b3          	add	a5,a4,a5
   1f768:	02f12a23          	sw	a5,52(sp)
   1f76c:	00e7b7b3          	sltu	a5,a5,a4
   1f770:	03812703          	lw	a4,56(sp)
   1f774:	00f707b3          	add	a5,a4,a5
   1f778:	02f12c23          	sw	a5,56(sp)
   1f77c:	00e7b7b3          	sltu	a5,a5,a4
   1f780:	03c12703          	lw	a4,60(sp)
   1f784:	00e787b3          	add	a5,a5,a4
   1f788:	02f12e23          	sw	a5,60(sp)
   1f78c:	03c12703          	lw	a4,60(sp)
   1f790:	00c71793          	slli	a5,a4,0xc
   1f794:	0407d263          	bgez	a5,1f7d8 <__multf3+0x1330>
   1f798:	02012e23          	sw	zero,60(sp)
   1f79c:	02012c23          	sw	zero,56(sp)
   1f7a0:	02012a23          	sw	zero,52(sp)
   1f7a4:	02012823          	sw	zero,48(sp)
   1f7a8:	00100793          	li	a5,1
   1f7ac:	e0dff06f          	j	1f5b8 <__multf3+0x1110>
   1f7b0:	0005a803          	lw	a6,0(a1)
   1f7b4:	0045af03          	lw	t5,4(a1)
   1f7b8:	00458593          	addi	a1,a1,4
   1f7bc:	00d85833          	srl	a6,a6,a3
   1f7c0:	006f1f33          	sll	t5,t5,t1
   1f7c4:	01e86833          	or	a6,a6,t5
   1f7c8:	010ea023          	sw	a6,0(t4)
   1f7cc:	001e0e13          	addi	t3,t3,1
   1f7d0:	004e8e93          	addi	t4,t4,4
   1f7d4:	efdff06f          	j	1f6d0 <__multf3+0x1228>
   1f7d8:	00c50613          	addi	a2,a0,12
   1f7dc:	00052783          	lw	a5,0(a0)
   1f7e0:	00452683          	lw	a3,4(a0)
   1f7e4:	00450513          	addi	a0,a0,4
   1f7e8:	0037d793          	srli	a5,a5,0x3
   1f7ec:	01d69693          	slli	a3,a3,0x1d
   1f7f0:	00d7e7b3          	or	a5,a5,a3
   1f7f4:	fef52e23          	sw	a5,-4(a0)
   1f7f8:	fea612e3          	bne	a2,a0,1f7dc <__multf3+0x1334>
   1f7fc:	00375713          	srli	a4,a4,0x3
   1f800:	02e12e23          	sw	a4,60(sp)
   1f804:	00000793          	li	a5,0
   1f808:	db1ff06f          	j	1f5b8 <__multf3+0x1110>
   1f80c:	03412703          	lw	a4,52(sp)
   1f810:	03012783          	lw	a5,48(sp)
   1f814:	00e7e7b3          	or	a5,a5,a4
   1f818:	03812703          	lw	a4,56(sp)
   1f81c:	00e7e7b3          	or	a5,a5,a4
   1f820:	03c12703          	lw	a4,60(sp)
   1f824:	00e7e7b3          	or	a5,a5,a4
   1f828:	fc078ee3          	beqz	a5,1f804 <__multf3+0x135c>
   1f82c:	02012e23          	sw	zero,60(sp)
   1f830:	02012c23          	sw	zero,56(sp)
   1f834:	02012a23          	sw	zero,52(sp)
   1f838:	02012823          	sw	zero,48(sp)
   1f83c:	fc9ff06f          	j	1f804 <__multf3+0x135c>
   1f840:	000087b7          	lui	a5,0x8
   1f844:	02012e23          	sw	zero,60(sp)
   1f848:	02012c23          	sw	zero,56(sp)
   1f84c:	02012a23          	sw	zero,52(sp)
   1f850:	02012823          	sw	zero,48(sp)
   1f854:	fff78793          	addi	a5,a5,-1 # 7fff <exit-0x8095>
   1f858:	d61ff06f          	j	1f5b8 <__multf3+0x1110>

0001f85c <__subtf3>:
   1f85c:	f9010113          	addi	sp,sp,-112
   1f860:	0085a703          	lw	a4,8(a1)
   1f864:	05512a23          	sw	s5,84(sp)
   1f868:	00c5aa83          	lw	s5,12(a1)
   1f86c:	0005a783          	lw	a5,0(a1)
   1f870:	0045a683          	lw	a3,4(a1)
   1f874:	02e12c23          	sw	a4,56(sp)
   1f878:	00e12c23          	sw	a4,24(sp)
   1f87c:	010a9713          	slli	a4,s5,0x10
   1f880:	06912223          	sw	s1,100(sp)
   1f884:	01075713          	srli	a4,a4,0x10
   1f888:	001a9493          	slli	s1,s5,0x1
   1f88c:	00462803          	lw	a6,4(a2)
   1f890:	00862583          	lw	a1,8(a2)
   1f894:	06812423          	sw	s0,104(sp)
   1f898:	07212023          	sw	s2,96(sp)
   1f89c:	00062403          	lw	s0,0(a2)
   1f8a0:	00c62903          	lw	s2,12(a2)
   1f8a4:	05412c23          	sw	s4,88(sp)
   1f8a8:	03512e23          	sw	s5,60(sp)
   1f8ac:	00050a13          	mv	s4,a0
   1f8b0:	06112623          	sw	ra,108(sp)
   1f8b4:	05312e23          	sw	s3,92(sp)
   1f8b8:	05612823          	sw	s6,80(sp)
   1f8bc:	05712623          	sw	s7,76(sp)
   1f8c0:	05812423          	sw	s8,72(sp)
   1f8c4:	02f12823          	sw	a5,48(sp)
   1f8c8:	02d12a23          	sw	a3,52(sp)
   1f8cc:	00f12823          	sw	a5,16(sp)
   1f8d0:	00d12a23          	sw	a3,20(sp)
   1f8d4:	00e12e23          	sw	a4,28(sp)
   1f8d8:	0114d493          	srli	s1,s1,0x11
   1f8dc:	01fada93          	srli	s5,s5,0x1f
   1f8e0:	01010513          	addi	a0,sp,16
   1f8e4:	01c10613          	addi	a2,sp,28
   1f8e8:	00062703          	lw	a4,0(a2)
   1f8ec:	ffc62683          	lw	a3,-4(a2)
   1f8f0:	ffc60613          	addi	a2,a2,-4
   1f8f4:	00371713          	slli	a4,a4,0x3
   1f8f8:	01d6d693          	srli	a3,a3,0x1d
   1f8fc:	00d76733          	or	a4,a4,a3
   1f900:	00e62223          	sw	a4,4(a2)
   1f904:	fec512e3          	bne	a0,a2,1f8e8 <__subtf3+0x8c>
   1f908:	01091713          	slli	a4,s2,0x10
   1f90c:	00191b93          	slli	s7,s2,0x1
   1f910:	00379793          	slli	a5,a5,0x3
   1f914:	01075713          	srli	a4,a4,0x10
   1f918:	03012a23          	sw	a6,52(sp)
   1f91c:	03212e23          	sw	s2,60(sp)
   1f920:	03012223          	sw	a6,36(sp)
   1f924:	00f12823          	sw	a5,16(sp)
   1f928:	02812823          	sw	s0,48(sp)
   1f92c:	02b12c23          	sw	a1,56(sp)
   1f930:	02812023          	sw	s0,32(sp)
   1f934:	02b12423          	sw	a1,40(sp)
   1f938:	02e12623          	sw	a4,44(sp)
   1f93c:	011bdb93          	srli	s7,s7,0x11
   1f940:	01f95913          	srli	s2,s2,0x1f
   1f944:	02010813          	addi	a6,sp,32
   1f948:	02c10313          	addi	t1,sp,44
   1f94c:	00032703          	lw	a4,0(t1)
   1f950:	ffc32683          	lw	a3,-4(t1)
   1f954:	ffc30313          	addi	t1,t1,-4
   1f958:	00371713          	slli	a4,a4,0x3
   1f95c:	01d6d693          	srli	a3,a3,0x1d
   1f960:	00d76733          	or	a4,a4,a3
   1f964:	00e32223          	sw	a4,4(t1)
   1f968:	fe6812e3          	bne	a6,t1,1f94c <__subtf3+0xf0>
   1f96c:	00341413          	slli	s0,s0,0x3
   1f970:	00008737          	lui	a4,0x8
   1f974:	02812023          	sw	s0,32(sp)
   1f978:	fff70713          	addi	a4,a4,-1 # 7fff <exit-0x8095>
   1f97c:	02eb9063          	bne	s7,a4,1f99c <__subtf3+0x140>
   1f980:	02812683          	lw	a3,40(sp)
   1f984:	02412703          	lw	a4,36(sp)
   1f988:	00d76733          	or	a4,a4,a3
   1f98c:	02c12683          	lw	a3,44(sp)
   1f990:	00d76733          	or	a4,a4,a3
   1f994:	00876733          	or	a4,a4,s0
   1f998:	00071463          	bnez	a4,1f9a0 <__subtf3+0x144>
   1f99c:	00194913          	xori	s2,s2,1
   1f9a0:	417488b3          	sub	a7,s1,s7
   1f9a4:	0b5914e3          	bne	s2,s5,2024c <__subtf3+0x9f0>
   1f9a8:	45105063          	blez	a7,1fde8 <__subtf3+0x58c>
   1f9ac:	01412903          	lw	s2,20(sp)
   1f9b0:	01812983          	lw	s3,24(sp)
   1f9b4:	01c12b03          	lw	s6,28(sp)
   1f9b8:	0a0b9263          	bnez	s7,1fa5c <__subtf3+0x200>
   1f9bc:	02412683          	lw	a3,36(sp)
   1f9c0:	02812703          	lw	a4,40(sp)
   1f9c4:	02c12583          	lw	a1,44(sp)
   1f9c8:	00e6e633          	or	a2,a3,a4
   1f9cc:	00b66633          	or	a2,a2,a1
   1f9d0:	00866633          	or	a2,a2,s0
   1f9d4:	00061e63          	bnez	a2,1f9f0 <__subtf3+0x194>
   1f9d8:	02f12823          	sw	a5,48(sp)
   1f9dc:	03212a23          	sw	s2,52(sp)
   1f9e0:	03312c23          	sw	s3,56(sp)
   1f9e4:	03612e23          	sw	s6,60(sp)
   1f9e8:	00088493          	mv	s1,a7
   1f9ec:	08c0006f          	j	1fa78 <__subtf3+0x21c>
   1f9f0:	fff88613          	addi	a2,a7,-1
   1f9f4:	04061863          	bnez	a2,1fa44 <__subtf3+0x1e8>
   1f9f8:	00878433          	add	s0,a5,s0
   1f9fc:	01268933          	add	s2,a3,s2
   1fa00:	02812823          	sw	s0,48(sp)
   1fa04:	00f43433          	sltu	s0,s0,a5
   1fa08:	00890433          	add	s0,s2,s0
   1fa0c:	02812a23          	sw	s0,52(sp)
   1fa10:	00d936b3          	sltu	a3,s2,a3
   1fa14:	01243433          	sltu	s0,s0,s2
   1fa18:	013709b3          	add	s3,a4,s3
   1fa1c:	0086e6b3          	or	a3,a3,s0
   1fa20:	00d986b3          	add	a3,s3,a3
   1fa24:	02d12c23          	sw	a3,56(sp)
   1fa28:	00e9b7b3          	sltu	a5,s3,a4
   1fa2c:	0136b6b3          	sltu	a3,a3,s3
   1fa30:	00d7e7b3          	or	a5,a5,a3
   1fa34:	016585b3          	add	a1,a1,s6
   1fa38:	00b787b3          	add	a5,a5,a1
   1fa3c:	00100493          	li	s1,1
   1fa40:	2f80006f          	j	1fd38 <__subtf3+0x4dc>
   1fa44:	00008737          	lui	a4,0x8
   1fa48:	fff70713          	addi	a4,a4,-1 # 7fff <exit-0x8095>
   1fa4c:	00e88463          	beq	a7,a4,1fa54 <__subtf3+0x1f8>
   1fa50:	2a00106f          	j	20cf0 <__subtf3+0x1494>
   1fa54:	02f12823          	sw	a5,48(sp)
   1fa58:	43c0006f          	j	1fe94 <__subtf3+0x638>
   1fa5c:	00008737          	lui	a4,0x8
   1fa60:	fff70713          	addi	a4,a4,-1 # 7fff <exit-0x8095>
   1fa64:	16e49a63          	bne	s1,a4,1fbd8 <__subtf3+0x37c>
   1fa68:	02f12823          	sw	a5,48(sp)
   1fa6c:	03212a23          	sw	s2,52(sp)
   1fa70:	03312c23          	sw	s3,56(sp)
   1fa74:	03612e23          	sw	s6,60(sp)
   1fa78:	03012783          	lw	a5,48(sp)
   1fa7c:	0077f713          	andi	a4,a5,7
   1fa80:	04070463          	beqz	a4,1fac8 <__subtf3+0x26c>
   1fa84:	00f7f713          	andi	a4,a5,15
   1fa88:	00400693          	li	a3,4
   1fa8c:	02d70e63          	beq	a4,a3,1fac8 <__subtf3+0x26c>
   1fa90:	03412703          	lw	a4,52(sp)
   1fa94:	00478793          	addi	a5,a5,4
   1fa98:	02f12823          	sw	a5,48(sp)
   1fa9c:	0047b793          	sltiu	a5,a5,4
   1faa0:	00f707b3          	add	a5,a4,a5
   1faa4:	02f12a23          	sw	a5,52(sp)
   1faa8:	00e7b7b3          	sltu	a5,a5,a4
   1faac:	03812703          	lw	a4,56(sp)
   1fab0:	00f707b3          	add	a5,a4,a5
   1fab4:	02f12c23          	sw	a5,56(sp)
   1fab8:	00e7b7b3          	sltu	a5,a5,a4
   1fabc:	03c12703          	lw	a4,60(sp)
   1fac0:	00e787b3          	add	a5,a5,a4
   1fac4:	02f12e23          	sw	a5,60(sp)
   1fac8:	03c12783          	lw	a5,60(sp)
   1facc:	00c79713          	slli	a4,a5,0xc
   1fad0:	02075463          	bgez	a4,1faf8 <__subtf3+0x29c>
   1fad4:	00008737          	lui	a4,0x8
   1fad8:	00148493          	addi	s1,s1,1
   1fadc:	fff70713          	addi	a4,a4,-1 # 7fff <exit-0x8095>
   1fae0:	00e49463          	bne	s1,a4,1fae8 <__subtf3+0x28c>
   1fae4:	1f80106f          	j	20cdc <__subtf3+0x1480>
   1fae8:	fff80737          	lui	a4,0xfff80
   1faec:	fff70713          	addi	a4,a4,-1 # fff7ffff <__BSS_END__+0xfff5d4fb>
   1faf0:	00e7f7b3          	and	a5,a5,a4
   1faf4:	02f12e23          	sw	a5,60(sp)
   1faf8:	03010793          	addi	a5,sp,48
   1fafc:	03c10613          	addi	a2,sp,60
   1fb00:	0007a703          	lw	a4,0(a5)
   1fb04:	0047a683          	lw	a3,4(a5)
   1fb08:	00478793          	addi	a5,a5,4
   1fb0c:	00375713          	srli	a4,a4,0x3
   1fb10:	01d69693          	slli	a3,a3,0x1d
   1fb14:	00d76733          	or	a4,a4,a3
   1fb18:	fee7ae23          	sw	a4,-4(a5)
   1fb1c:	fec792e3          	bne	a5,a2,1fb00 <__subtf3+0x2a4>
   1fb20:	03c12703          	lw	a4,60(sp)
   1fb24:	000086b7          	lui	a3,0x8
   1fb28:	fff68793          	addi	a5,a3,-1 # 7fff <exit-0x8095>
   1fb2c:	00375713          	srli	a4,a4,0x3
   1fb30:	02e12e23          	sw	a4,60(sp)
   1fb34:	02f49a63          	bne	s1,a5,1fb68 <__subtf3+0x30c>
   1fb38:	03412603          	lw	a2,52(sp)
   1fb3c:	03012783          	lw	a5,48(sp)
   1fb40:	00c7e7b3          	or	a5,a5,a2
   1fb44:	03812603          	lw	a2,56(sp)
   1fb48:	00c7e7b3          	or	a5,a5,a2
   1fb4c:	00e7e7b3          	or	a5,a5,a4
   1fb50:	00078c63          	beqz	a5,1fb68 <__subtf3+0x30c>
   1fb54:	02d12e23          	sw	a3,60(sp)
   1fb58:	02012c23          	sw	zero,56(sp)
   1fb5c:	02012a23          	sw	zero,52(sp)
   1fb60:	02012823          	sw	zero,48(sp)
   1fb64:	00000a93          	li	s5,0
   1fb68:	03c12783          	lw	a5,60(sp)
   1fb6c:	01149493          	slli	s1,s1,0x11
   1fb70:	0114d493          	srli	s1,s1,0x11
   1fb74:	00f11623          	sh	a5,12(sp)
   1fb78:	03012783          	lw	a5,48(sp)
   1fb7c:	00fa9a93          	slli	s5,s5,0xf
   1fb80:	009aeab3          	or	s5,s5,s1
   1fb84:	00fa2023          	sw	a5,0(s4)
   1fb88:	03412783          	lw	a5,52(sp)
   1fb8c:	01511723          	sh	s5,14(sp)
   1fb90:	06c12083          	lw	ra,108(sp)
   1fb94:	00fa2223          	sw	a5,4(s4)
   1fb98:	03812783          	lw	a5,56(sp)
   1fb9c:	06812403          	lw	s0,104(sp)
   1fba0:	06412483          	lw	s1,100(sp)
   1fba4:	00fa2423          	sw	a5,8(s4)
   1fba8:	00c12783          	lw	a5,12(sp)
   1fbac:	06012903          	lw	s2,96(sp)
   1fbb0:	05c12983          	lw	s3,92(sp)
   1fbb4:	00fa2623          	sw	a5,12(s4)
   1fbb8:	05412a83          	lw	s5,84(sp)
   1fbbc:	05012b03          	lw	s6,80(sp)
   1fbc0:	04c12b83          	lw	s7,76(sp)
   1fbc4:	04812c03          	lw	s8,72(sp)
   1fbc8:	000a0513          	mv	a0,s4
   1fbcc:	05812a03          	lw	s4,88(sp)
   1fbd0:	07010113          	addi	sp,sp,112
   1fbd4:	00008067          	ret
   1fbd8:	02c12703          	lw	a4,44(sp)
   1fbdc:	000806b7          	lui	a3,0x80
   1fbe0:	00d76733          	or	a4,a4,a3
   1fbe4:	02e12623          	sw	a4,44(sp)
   1fbe8:	07400713          	li	a4,116
   1fbec:	01175463          	bge	a4,a7,1fbf4 <__subtf3+0x398>
   1fbf0:	10c0106f          	j	20cfc <__subtf3+0x14a0>
   1fbf4:	00088613          	mv	a2,a7
   1fbf8:	40565693          	srai	a3,a2,0x5
   1fbfc:	00030513          	mv	a0,t1
   1fc00:	01f67613          	andi	a2,a2,31
   1fc04:	00000713          	li	a4,0
   1fc08:	00000593          	li	a1,0
   1fc0c:	02d59c63          	bne	a1,a3,1fc44 <__subtf3+0x3e8>
   1fc10:	00300593          	li	a1,3
   1fc14:	40d585b3          	sub	a1,a1,a3
   1fc18:	00269513          	slli	a0,a3,0x2
   1fc1c:	02061e63          	bnez	a2,1fc58 <__subtf3+0x3fc>
   1fc20:	00a308b3          	add	a7,t1,a0
   1fc24:	0008a883          	lw	a7,0(a7)
   1fc28:	00160613          	addi	a2,a2,1
   1fc2c:	00430313          	addi	t1,t1,4
   1fc30:	ff132e23          	sw	a7,-4(t1)
   1fc34:	fec5d6e3          	bge	a1,a2,1fc20 <__subtf3+0x3c4>
   1fc38:	00400613          	li	a2,4
   1fc3c:	40d606b3          	sub	a3,a2,a3
   1fc40:	0600006f          	j	1fca0 <__subtf3+0x444>
   1fc44:	00052883          	lw	a7,0(a0)
   1fc48:	00158593          	addi	a1,a1,1
   1fc4c:	00450513          	addi	a0,a0,4
   1fc50:	01176733          	or	a4,a4,a7
   1fc54:	fb9ff06f          	j	1fc0c <__subtf3+0x3b0>
   1fc58:	04050893          	addi	a7,a0,64
   1fc5c:	002888b3          	add	a7,a7,sp
   1fc60:	fe08a883          	lw	a7,-32(a7)
   1fc64:	02000e13          	li	t3,32
   1fc68:	40ce0e33          	sub	t3,t3,a2
   1fc6c:	01c898b3          	sll	a7,a7,t3
   1fc70:	01176733          	or	a4,a4,a7
   1fc74:	00a80533          	add	a0,a6,a0
   1fc78:	00000e93          	li	t4,0
   1fc7c:	14bec263          	blt	t4,a1,1fdc0 <__subtf3+0x564>
   1fc80:	00400513          	li	a0,4
   1fc84:	40d506b3          	sub	a3,a0,a3
   1fc88:	02c12503          	lw	a0,44(sp)
   1fc8c:	00259593          	slli	a1,a1,0x2
   1fc90:	04058593          	addi	a1,a1,64
   1fc94:	002585b3          	add	a1,a1,sp
   1fc98:	00c55633          	srl	a2,a0,a2
   1fc9c:	fec5a023          	sw	a2,-32(a1)
   1fca0:	00400613          	li	a2,4
   1fca4:	40d60633          	sub	a2,a2,a3
   1fca8:	00261613          	slli	a2,a2,0x2
   1fcac:	00269693          	slli	a3,a3,0x2
   1fcb0:	00800593          	li	a1,8
   1fcb4:	00d806b3          	add	a3,a6,a3
   1fcb8:	00b66a63          	bltu	a2,a1,1fccc <__subtf3+0x470>
   1fcbc:	0006a023          	sw	zero,0(a3) # 80000 <__BSS_END__+0x5d4fc>
   1fcc0:	0006a223          	sw	zero,4(a3)
   1fcc4:	ff860613          	addi	a2,a2,-8
   1fcc8:	00868693          	addi	a3,a3,8
   1fccc:	00400593          	li	a1,4
   1fcd0:	00b66463          	bltu	a2,a1,1fcd8 <__subtf3+0x47c>
   1fcd4:	0006a023          	sw	zero,0(a3)
   1fcd8:	02012683          	lw	a3,32(sp)
   1fcdc:	00e03733          	snez	a4,a4
   1fce0:	00d76733          	or	a4,a4,a3
   1fce4:	02412683          	lw	a3,36(sp)
   1fce8:	02e12023          	sw	a4,32(sp)
   1fcec:	00e78733          	add	a4,a5,a4
   1fcf0:	01268933          	add	s2,a3,s2
   1fcf4:	02e12823          	sw	a4,48(sp)
   1fcf8:	00f73733          	sltu	a4,a4,a5
   1fcfc:	02812783          	lw	a5,40(sp)
   1fd00:	00e90733          	add	a4,s2,a4
   1fd04:	02e12a23          	sw	a4,52(sp)
   1fd08:	00d936b3          	sltu	a3,s2,a3
   1fd0c:	01273733          	sltu	a4,a4,s2
   1fd10:	013789b3          	add	s3,a5,s3
   1fd14:	00e6e733          	or	a4,a3,a4
   1fd18:	00e98733          	add	a4,s3,a4
   1fd1c:	02e12c23          	sw	a4,56(sp)
   1fd20:	00f9b7b3          	sltu	a5,s3,a5
   1fd24:	01373733          	sltu	a4,a4,s3
   1fd28:	00e7e7b3          	or	a5,a5,a4
   1fd2c:	02c12703          	lw	a4,44(sp)
   1fd30:	00eb0733          	add	a4,s6,a4
   1fd34:	00e787b3          	add	a5,a5,a4
   1fd38:	02f12e23          	sw	a5,60(sp)
   1fd3c:	00c79713          	slli	a4,a5,0xc
   1fd40:	d2075ce3          	bgez	a4,1fa78 <__subtf3+0x21c>
   1fd44:	03012683          	lw	a3,48(sp)
   1fd48:	fff80737          	lui	a4,0xfff80
   1fd4c:	fff70713          	addi	a4,a4,-1 # fff7ffff <__BSS_END__+0xfff5d4fb>
   1fd50:	00e7f7b3          	and	a5,a5,a4
   1fd54:	02f12e23          	sw	a5,60(sp)
   1fd58:	00148493          	addi	s1,s1,1
   1fd5c:	01f69693          	slli	a3,a3,0x1f
   1fd60:	03010713          	addi	a4,sp,48
   1fd64:	03c10513          	addi	a0,sp,60
   1fd68:	00072603          	lw	a2,0(a4)
   1fd6c:	00472583          	lw	a1,4(a4)
   1fd70:	00470713          	addi	a4,a4,4
   1fd74:	00165613          	srli	a2,a2,0x1
   1fd78:	01f59593          	slli	a1,a1,0x1f
   1fd7c:	00b66633          	or	a2,a2,a1
   1fd80:	fec72e23          	sw	a2,-4(a4)
   1fd84:	fee512e3          	bne	a0,a4,1fd68 <__subtf3+0x50c>
   1fd88:	03012703          	lw	a4,48(sp)
   1fd8c:	0017d793          	srli	a5,a5,0x1
   1fd90:	02f12e23          	sw	a5,60(sp)
   1fd94:	00d037b3          	snez	a5,a3
   1fd98:	00f767b3          	or	a5,a4,a5
   1fd9c:	02f12823          	sw	a5,48(sp)
   1fda0:	000087b7          	lui	a5,0x8
   1fda4:	fff78793          	addi	a5,a5,-1 # 7fff <exit-0x8095>
   1fda8:	ccf498e3          	bne	s1,a5,1fa78 <__subtf3+0x21c>
   1fdac:	02012e23          	sw	zero,60(sp)
   1fdb0:	02012c23          	sw	zero,56(sp)
   1fdb4:	02012a23          	sw	zero,52(sp)
   1fdb8:	02012823          	sw	zero,48(sp)
   1fdbc:	cbdff06f          	j	1fa78 <__subtf3+0x21c>
   1fdc0:	00052883          	lw	a7,0(a0)
   1fdc4:	00452f03          	lw	t5,4(a0)
   1fdc8:	00450513          	addi	a0,a0,4
   1fdcc:	00c8d8b3          	srl	a7,a7,a2
   1fdd0:	01cf1f33          	sll	t5,t5,t3
   1fdd4:	01e8e8b3          	or	a7,a7,t5
   1fdd8:	01132023          	sw	a7,0(t1)
   1fddc:	001e8e93          	addi	t4,t4,1
   1fde0:	00430313          	addi	t1,t1,4
   1fde4:	e99ff06f          	j	1fc7c <__subtf3+0x420>
   1fde8:	02412903          	lw	s2,36(sp)
   1fdec:	02812983          	lw	s3,40(sp)
   1fdf0:	02c12b03          	lw	s6,44(sp)
   1fdf4:	28088063          	beqz	a7,20074 <__subtf3+0x818>
   1fdf8:	409b85b3          	sub	a1,s7,s1
   1fdfc:	0a049c63          	bnez	s1,1feb4 <__subtf3+0x658>
   1fe00:	01412683          	lw	a3,20(sp)
   1fe04:	01812703          	lw	a4,24(sp)
   1fe08:	01c12883          	lw	a7,28(sp)
   1fe0c:	00e6e833          	or	a6,a3,a4
   1fe10:	01186833          	or	a6,a6,a7
   1fe14:	00f86833          	or	a6,a6,a5
   1fe18:	00081e63          	bnez	a6,1fe34 <__subtf3+0x5d8>
   1fe1c:	02812823          	sw	s0,48(sp)
   1fe20:	03212a23          	sw	s2,52(sp)
   1fe24:	03312c23          	sw	s3,56(sp)
   1fe28:	03612e23          	sw	s6,60(sp)
   1fe2c:	00058493          	mv	s1,a1
   1fe30:	c49ff06f          	j	1fa78 <__subtf3+0x21c>
   1fe34:	fff58813          	addi	a6,a1,-1
   1fe38:	04081663          	bnez	a6,1fe84 <__subtf3+0x628>
   1fe3c:	00878433          	add	s0,a5,s0
   1fe40:	01268933          	add	s2,a3,s2
   1fe44:	02812823          	sw	s0,48(sp)
   1fe48:	00f43433          	sltu	s0,s0,a5
   1fe4c:	00890433          	add	s0,s2,s0
   1fe50:	02812a23          	sw	s0,52(sp)
   1fe54:	00d936b3          	sltu	a3,s2,a3
   1fe58:	01243433          	sltu	s0,s0,s2
   1fe5c:	013709b3          	add	s3,a4,s3
   1fe60:	0086e6b3          	or	a3,a3,s0
   1fe64:	00d986b3          	add	a3,s3,a3
   1fe68:	00e9b7b3          	sltu	a5,s3,a4
   1fe6c:	02d12c23          	sw	a3,56(sp)
   1fe70:	0136b6b3          	sltu	a3,a3,s3
   1fe74:	00d7e7b3          	or	a5,a5,a3
   1fe78:	01688733          	add	a4,a7,s6
   1fe7c:	00e787b3          	add	a5,a5,a4
   1fe80:	bbdff06f          	j	1fa3c <__subtf3+0x1e0>
   1fe84:	000087b7          	lui	a5,0x8
   1fe88:	fff78793          	addi	a5,a5,-1 # 7fff <exit-0x8095>
   1fe8c:	68f592e3          	bne	a1,a5,20d10 <__subtf3+0x14b4>
   1fe90:	02812823          	sw	s0,48(sp)
   1fe94:	03212a23          	sw	s2,52(sp)
   1fe98:	03312c23          	sw	s3,56(sp)
   1fe9c:	03612e23          	sw	s6,60(sp)
   1fea0:	000084b7          	lui	s1,0x8
   1fea4:	fff48493          	addi	s1,s1,-1 # 7fff <exit-0x8095>
   1fea8:	bd1ff06f          	j	1fa78 <__subtf3+0x21c>
   1feac:	00078413          	mv	s0,a5
   1feb0:	fe1ff06f          	j	1fe90 <__subtf3+0x634>
   1feb4:	000087b7          	lui	a5,0x8
   1feb8:	fff78793          	addi	a5,a5,-1 # 7fff <exit-0x8095>
   1febc:	fcfb8ae3          	beq	s7,a5,1fe90 <__subtf3+0x634>
   1fec0:	01c12783          	lw	a5,28(sp)
   1fec4:	00080737          	lui	a4,0x80
   1fec8:	00e7e7b3          	or	a5,a5,a4
   1fecc:	00f12e23          	sw	a5,28(sp)
   1fed0:	07400793          	li	a5,116
   1fed4:	64b7c2e3          	blt	a5,a1,20d18 <__subtf3+0x14bc>
   1fed8:	00058813          	mv	a6,a1
   1fedc:	41f85713          	srai	a4,a6,0x1f
   1fee0:	01f77713          	andi	a4,a4,31
   1fee4:	01070733          	add	a4,a4,a6
   1fee8:	40575713          	srai	a4,a4,0x5
   1feec:	00060693          	mv	a3,a2
   1fef0:	00000493          	li	s1,0
   1fef4:	00000793          	li	a5,0
   1fef8:	02e7ce63          	blt	a5,a4,1ff34 <__subtf3+0x6d8>
   1fefc:	00300793          	li	a5,3
   1ff00:	01f87893          	andi	a7,a6,31
   1ff04:	40e787b3          	sub	a5,a5,a4
   1ff08:	00271593          	slli	a1,a4,0x2
   1ff0c:	02089e63          	bnez	a7,1ff48 <__subtf3+0x6ec>
   1ff10:	00b606b3          	add	a3,a2,a1
   1ff14:	0006a683          	lw	a3,0(a3)
   1ff18:	00188893          	addi	a7,a7,1
   1ff1c:	00460613          	addi	a2,a2,4
   1ff20:	fed62e23          	sw	a3,-4(a2)
   1ff24:	ff17d6e3          	bge	a5,a7,1ff10 <__subtf3+0x6b4>
   1ff28:	00400793          	li	a5,4
   1ff2c:	40e78733          	sub	a4,a5,a4
   1ff30:	0900006f          	j	1ffc0 <__subtf3+0x764>
   1ff34:	0006a583          	lw	a1,0(a3)
   1ff38:	00178793          	addi	a5,a5,1
   1ff3c:	00468693          	addi	a3,a3,4
   1ff40:	00b4e4b3          	or	s1,s1,a1
   1ff44:	fb5ff06f          	j	1fef8 <__subtf3+0x69c>
   1ff48:	800006b7          	lui	a3,0x80000
   1ff4c:	01f68693          	addi	a3,a3,31 # 8000001f <__BSS_END__+0x7ffdd51b>
   1ff50:	00d876b3          	and	a3,a6,a3
   1ff54:	0006d863          	bgez	a3,1ff64 <__subtf3+0x708>
   1ff58:	fff68693          	addi	a3,a3,-1
   1ff5c:	fe06e693          	ori	a3,a3,-32
   1ff60:	00168693          	addi	a3,a3,1
   1ff64:	02000813          	li	a6,32
   1ff68:	40d80833          	sub	a6,a6,a3
   1ff6c:	00070693          	mv	a3,a4
   1ff70:	00075463          	bgez	a4,1ff78 <__subtf3+0x71c>
   1ff74:	00000693          	li	a3,0
   1ff78:	00269693          	slli	a3,a3,0x2
   1ff7c:	04068693          	addi	a3,a3,64
   1ff80:	002686b3          	add	a3,a3,sp
   1ff84:	fd06a683          	lw	a3,-48(a3)
   1ff88:	00000313          	li	t1,0
   1ff8c:	010696b3          	sll	a3,a3,a6
   1ff90:	00d4e4b3          	or	s1,s1,a3
   1ff94:	00b506b3          	add	a3,a0,a1
   1ff98:	00468693          	addi	a3,a3,4
   1ff9c:	0af34a63          	blt	t1,a5,20050 <__subtf3+0x7f4>
   1ffa0:	00400693          	li	a3,4
   1ffa4:	40e68733          	sub	a4,a3,a4
   1ffa8:	01c12683          	lw	a3,28(sp)
   1ffac:	00279793          	slli	a5,a5,0x2
   1ffb0:	04078793          	addi	a5,a5,64
   1ffb4:	002787b3          	add	a5,a5,sp
   1ffb8:	0116d6b3          	srl	a3,a3,a7
   1ffbc:	fcd7a823          	sw	a3,-48(a5)
   1ffc0:	00572793          	slti	a5,a4,5
   1ffc4:	00000613          	li	a2,0
   1ffc8:	00078863          	beqz	a5,1ffd8 <__subtf3+0x77c>
   1ffcc:	00400613          	li	a2,4
   1ffd0:	40e60633          	sub	a2,a2,a4
   1ffd4:	00261613          	slli	a2,a2,0x2
   1ffd8:	00271713          	slli	a4,a4,0x2
   1ffdc:	00e50533          	add	a0,a0,a4
   1ffe0:	00000593          	li	a1,0
   1ffe4:	b4cf10ef          	jal	11330 <memset>
   1ffe8:	01012703          	lw	a4,16(sp)
   1ffec:	009037b3          	snez	a5,s1
   1fff0:	00e7e7b3          	or	a5,a5,a4
   1fff4:	01412683          	lw	a3,20(sp)
   1fff8:	00f12823          	sw	a5,16(sp)
   1fffc:	00f407b3          	add	a5,s0,a5
   20000:	01268933          	add	s2,a3,s2
   20004:	02f12823          	sw	a5,48(sp)
   20008:	0087b7b3          	sltu	a5,a5,s0
   2000c:	00f90733          	add	a4,s2,a5
   20010:	01812783          	lw	a5,24(sp)
   20014:	02e12a23          	sw	a4,52(sp)
   20018:	00d936b3          	sltu	a3,s2,a3
   2001c:	01273733          	sltu	a4,a4,s2
   20020:	013789b3          	add	s3,a5,s3
   20024:	00e6e733          	or	a4,a3,a4
   20028:	00e98733          	add	a4,s3,a4
   2002c:	02e12c23          	sw	a4,56(sp)
   20030:	00f9b7b3          	sltu	a5,s3,a5
   20034:	01373733          	sltu	a4,a4,s3
   20038:	00e7e7b3          	or	a5,a5,a4
   2003c:	01c12703          	lw	a4,28(sp)
   20040:	000b8493          	mv	s1,s7
   20044:	00eb0733          	add	a4,s6,a4
   20048:	00e787b3          	add	a5,a5,a4
   2004c:	cedff06f          	j	1fd38 <__subtf3+0x4dc>
   20050:	ffc6a583          	lw	a1,-4(a3)
   20054:	0006ae03          	lw	t3,0(a3)
   20058:	00130313          	addi	t1,t1,1
   2005c:	0115d5b3          	srl	a1,a1,a7
   20060:	010e1e33          	sll	t3,t3,a6
   20064:	01c5e5b3          	or	a1,a1,t3
   20068:	00b62023          	sw	a1,0(a2)
   2006c:	00460613          	addi	a2,a2,4
   20070:	f29ff06f          	j	1ff98 <__subtf3+0x73c>
   20074:	00148813          	addi	a6,s1,1
   20078:	01181893          	slli	a7,a6,0x11
   2007c:	0128d893          	srli	a7,a7,0x12
   20080:	01412683          	lw	a3,20(sp)
   20084:	01812703          	lw	a4,24(sp)
   20088:	01c12603          	lw	a2,28(sp)
   2008c:	03010593          	addi	a1,sp,48
   20090:	03c10513          	addi	a0,sp,60
   20094:	10089e63          	bnez	a7,201b0 <__subtf3+0x954>
   20098:	00e6e833          	or	a6,a3,a4
   2009c:	00c86833          	or	a6,a6,a2
   200a0:	00f86833          	or	a6,a6,a5
   200a4:	0a049863          	bnez	s1,20154 <__subtf3+0x8f8>
   200a8:	00081e63          	bnez	a6,200c4 <__subtf3+0x868>
   200ac:	02812823          	sw	s0,48(sp)
   200b0:	03212a23          	sw	s2,52(sp)
   200b4:	03312c23          	sw	s3,56(sp)
   200b8:	03612e23          	sw	s6,60(sp)
   200bc:	00000493          	li	s1,0
   200c0:	9b9ff06f          	j	1fa78 <__subtf3+0x21c>
   200c4:	013965b3          	or	a1,s2,s3
   200c8:	0165e5b3          	or	a1,a1,s6
   200cc:	0085e5b3          	or	a1,a1,s0
   200d0:	00059c63          	bnez	a1,200e8 <__subtf3+0x88c>
   200d4:	02f12823          	sw	a5,48(sp)
   200d8:	02d12a23          	sw	a3,52(sp)
   200dc:	02e12c23          	sw	a4,56(sp)
   200e0:	02c12e23          	sw	a2,60(sp)
   200e4:	995ff06f          	j	1fa78 <__subtf3+0x21c>
   200e8:	00878433          	add	s0,a5,s0
   200ec:	01268933          	add	s2,a3,s2
   200f0:	02812823          	sw	s0,48(sp)
   200f4:	00f43433          	sltu	s0,s0,a5
   200f8:	00890433          	add	s0,s2,s0
   200fc:	02812a23          	sw	s0,52(sp)
   20100:	00d936b3          	sltu	a3,s2,a3
   20104:	01243433          	sltu	s0,s0,s2
   20108:	013709b3          	add	s3,a4,s3
   2010c:	0086e6b3          	or	a3,a3,s0
   20110:	00d986b3          	add	a3,s3,a3
   20114:	02d12c23          	sw	a3,56(sp)
   20118:	00e9b733          	sltu	a4,s3,a4
   2011c:	0136b6b3          	sltu	a3,a3,s3
   20120:	00d76733          	or	a4,a4,a3
   20124:	01660633          	add	a2,a2,s6
   20128:	00c70733          	add	a4,a4,a2
   2012c:	00c71793          	slli	a5,a4,0xc
   20130:	0007c663          	bltz	a5,2013c <__subtf3+0x8e0>
   20134:	02e12e23          	sw	a4,60(sp)
   20138:	941ff06f          	j	1fa78 <__subtf3+0x21c>
   2013c:	fff807b7          	lui	a5,0xfff80
   20140:	fff78793          	addi	a5,a5,-1 # fff7ffff <__BSS_END__+0xfff5d4fb>
   20144:	00f77733          	and	a4,a4,a5
   20148:	02e12e23          	sw	a4,60(sp)
   2014c:	00100493          	li	s1,1
   20150:	929ff06f          	j	1fa78 <__subtf3+0x21c>
   20154:	1a080663          	beqz	a6,20300 <__subtf3+0xaa4>
   20158:	01396933          	or	s2,s2,s3
   2015c:	01696933          	or	s2,s2,s6
   20160:	00896933          	or	s2,s2,s0
   20164:	1a090263          	beqz	s2,20308 <__subtf3+0xaac>
   20168:	000087b7          	lui	a5,0x8
   2016c:	02f12e23          	sw	a5,60(sp)
   20170:	02012c23          	sw	zero,56(sp)
   20174:	02012a23          	sw	zero,52(sp)
   20178:	02012823          	sw	zero,48(sp)
   2017c:	00050793          	mv	a5,a0
   20180:	0007a703          	lw	a4,0(a5) # 8000 <exit-0x8094>
   20184:	ffc7a683          	lw	a3,-4(a5)
   20188:	ffc78793          	addi	a5,a5,-4
   2018c:	00371713          	slli	a4,a4,0x3
   20190:	01d6d693          	srli	a3,a3,0x1d
   20194:	00d76733          	or	a4,a4,a3
   20198:	00e7a223          	sw	a4,4(a5)
   2019c:	fef592e3          	bne	a1,a5,20180 <__subtf3+0x924>
   201a0:	000084b7          	lui	s1,0x8
   201a4:	fff48493          	addi	s1,s1,-1 # 7fff <exit-0x8095>
   201a8:	00000a93          	li	s5,0
   201ac:	8cdff06f          	j	1fa78 <__subtf3+0x21c>
   201b0:	00878433          	add	s0,a5,s0
   201b4:	01268933          	add	s2,a3,s2
   201b8:	02812823          	sw	s0,48(sp)
   201bc:	00f43433          	sltu	s0,s0,a5
   201c0:	00890433          	add	s0,s2,s0
   201c4:	02812a23          	sw	s0,52(sp)
   201c8:	00d936b3          	sltu	a3,s2,a3
   201cc:	01243433          	sltu	s0,s0,s2
   201d0:	013709b3          	add	s3,a4,s3
   201d4:	0086e6b3          	or	a3,a3,s0
   201d8:	00d986b3          	add	a3,s3,a3
   201dc:	02d12c23          	sw	a3,56(sp)
   201e0:	00e9b733          	sltu	a4,s3,a4
   201e4:	0136b6b3          	sltu	a3,a3,s3
   201e8:	00d76733          	or	a4,a4,a3
   201ec:	01660633          	add	a2,a2,s6
   201f0:	00c70733          	add	a4,a4,a2
   201f4:	02e12e23          	sw	a4,60(sp)
   201f8:	00058793          	mv	a5,a1
   201fc:	0007a683          	lw	a3,0(a5)
   20200:	0047a603          	lw	a2,4(a5)
   20204:	00478793          	addi	a5,a5,4
   20208:	0016d693          	srli	a3,a3,0x1
   2020c:	01f61613          	slli	a2,a2,0x1f
   20210:	00c6e6b3          	or	a3,a3,a2
   20214:	fed7ae23          	sw	a3,-4(a5)
   20218:	fef512e3          	bne	a0,a5,201fc <__subtf3+0x9a0>
   2021c:	000087b7          	lui	a5,0x8
   20220:	fff78793          	addi	a5,a5,-1 # 7fff <exit-0x8095>
   20224:	00f80a63          	beq	a6,a5,20238 <__subtf3+0x9dc>
   20228:	00175713          	srli	a4,a4,0x1
   2022c:	02e12e23          	sw	a4,60(sp)
   20230:	00080493          	mv	s1,a6
   20234:	845ff06f          	j	1fa78 <__subtf3+0x21c>
   20238:	02012e23          	sw	zero,60(sp)
   2023c:	02012c23          	sw	zero,56(sp)
   20240:	02012a23          	sw	zero,52(sp)
   20244:	02012823          	sw	zero,48(sp)
   20248:	fe9ff06f          	j	20230 <__subtf3+0x9d4>
   2024c:	29105a63          	blez	a7,204e0 <__subtf3+0xc84>
   20250:	01412903          	lw	s2,20(sp)
   20254:	01812983          	lw	s3,24(sp)
   20258:	01c12b03          	lw	s6,28(sp)
   2025c:	0a0b9e63          	bnez	s7,20318 <__subtf3+0xabc>
   20260:	02412e03          	lw	t3,36(sp)
   20264:	02812503          	lw	a0,40(sp)
   20268:	02c12683          	lw	a3,44(sp)
   2026c:	00ae6733          	or	a4,t3,a0
   20270:	00d76733          	or	a4,a4,a3
   20274:	00876733          	or	a4,a4,s0
   20278:	f6070063          	beqz	a4,1f9d8 <__subtf3+0x17c>
   2027c:	fff88e93          	addi	t4,a7,-1
   20280:	040e9c63          	bnez	t4,202d8 <__subtf3+0xa7c>
   20284:	40878733          	sub	a4,a5,s0
   20288:	41c90633          	sub	a2,s2,t3
   2028c:	00e7b5b3          	sltu	a1,a5,a4
   20290:	00c93833          	sltu	a6,s2,a2
   20294:	40b60633          	sub	a2,a2,a1
   20298:	00000593          	li	a1,0
   2029c:	00e7f663          	bgeu	a5,a4,202a8 <__subtf3+0xa4c>
   202a0:	412e0e33          	sub	t3,t3,s2
   202a4:	001e3593          	seqz	a1,t3
   202a8:	0105e7b3          	or	a5,a1,a6
   202ac:	40a985b3          	sub	a1,s3,a0
   202b0:	00b9b833          	sltu	a6,s3,a1
   202b4:	40f585b3          	sub	a1,a1,a5
   202b8:	00078663          	beqz	a5,202c4 <__subtf3+0xa68>
   202bc:	41350533          	sub	a0,a0,s3
   202c0:	00153e93          	seqz	t4,a0
   202c4:	40db07b3          	sub	a5,s6,a3
   202c8:	010ee6b3          	or	a3,t4,a6
   202cc:	40d787b3          	sub	a5,a5,a3
   202d0:	00100493          	li	s1,1
   202d4:	1b80006f          	j	2048c <__subtf3+0xc30>
   202d8:	00008737          	lui	a4,0x8
   202dc:	fff70713          	addi	a4,a4,-1 # 7fff <exit-0x8095>
   202e0:	f6e88a63          	beq	a7,a4,1fa54 <__subtf3+0x1f8>
   202e4:	07400713          	li	a4,116
   202e8:	05d75c63          	bge	a4,t4,20340 <__subtf3+0xae4>
   202ec:	02012623          	sw	zero,44(sp)
   202f0:	02012423          	sw	zero,40(sp)
   202f4:	02012223          	sw	zero,36(sp)
   202f8:	00100713          	li	a4,1
   202fc:	1300006f          	j	2042c <__subtf3+0xbd0>
   20300:	00040793          	mv	a5,s0
   20304:	f50ff06f          	j	1fa54 <__subtf3+0x1f8>
   20308:	00068913          	mv	s2,a3
   2030c:	00070993          	mv	s3,a4
   20310:	00060b13          	mv	s6,a2
   20314:	f40ff06f          	j	1fa54 <__subtf3+0x1f8>
   20318:	00008737          	lui	a4,0x8
   2031c:	fff70713          	addi	a4,a4,-1 # 7fff <exit-0x8095>
   20320:	b8e486e3          	beq	s1,a4,1feac <__subtf3+0x650>
   20324:	02c12703          	lw	a4,44(sp)
   20328:	000806b7          	lui	a3,0x80
   2032c:	00d76733          	or	a4,a4,a3
   20330:	02e12623          	sw	a4,44(sp)
   20334:	07400713          	li	a4,116
   20338:	fb174ae3          	blt	a4,a7,202ec <__subtf3+0xa90>
   2033c:	00088e93          	mv	t4,a7
   20340:	405ed693          	srai	a3,t4,0x5
   20344:	00030593          	mv	a1,t1
   20348:	01fefe93          	andi	t4,t4,31
   2034c:	00000713          	li	a4,0
   20350:	00000613          	li	a2,0
   20354:	02d61c63          	bne	a2,a3,2038c <__subtf3+0xb30>
   20358:	00300613          	li	a2,3
   2035c:	40d60633          	sub	a2,a2,a3
   20360:	00269593          	slli	a1,a3,0x2
   20364:	020e9e63          	bnez	t4,203a0 <__subtf3+0xb44>
   20368:	00b30533          	add	a0,t1,a1
   2036c:	00052503          	lw	a0,0(a0)
   20370:	001e8e93          	addi	t4,t4,1
   20374:	00430313          	addi	t1,t1,4
   20378:	fea32e23          	sw	a0,-4(t1)
   2037c:	ffd656e3          	bge	a2,t4,20368 <__subtf3+0xb0c>
   20380:	00400613          	li	a2,4
   20384:	40d606b3          	sub	a3,a2,a3
   20388:	0600006f          	j	203e8 <__subtf3+0xb8c>
   2038c:	0005a503          	lw	a0,0(a1)
   20390:	00160613          	addi	a2,a2,1
   20394:	00458593          	addi	a1,a1,4
   20398:	00a76733          	or	a4,a4,a0
   2039c:	fb9ff06f          	j	20354 <__subtf3+0xaf8>
   203a0:	04058513          	addi	a0,a1,64
   203a4:	00250533          	add	a0,a0,sp
   203a8:	fe052503          	lw	a0,-32(a0)
   203ac:	02000893          	li	a7,32
   203b0:	41d888b3          	sub	a7,a7,t4
   203b4:	01151533          	sll	a0,a0,a7
   203b8:	00a76733          	or	a4,a4,a0
   203bc:	00b805b3          	add	a1,a6,a1
   203c0:	00000e13          	li	t3,0
   203c4:	0ece4a63          	blt	t3,a2,204b8 <__subtf3+0xc5c>
   203c8:	00400593          	li	a1,4
   203cc:	40d586b3          	sub	a3,a1,a3
   203d0:	02c12583          	lw	a1,44(sp)
   203d4:	00261613          	slli	a2,a2,0x2
   203d8:	04060613          	addi	a2,a2,64
   203dc:	00260633          	add	a2,a2,sp
   203e0:	01d5d5b3          	srl	a1,a1,t4
   203e4:	feb62023          	sw	a1,-32(a2)
   203e8:	00400613          	li	a2,4
   203ec:	40d60633          	sub	a2,a2,a3
   203f0:	00261613          	slli	a2,a2,0x2
   203f4:	00269693          	slli	a3,a3,0x2
   203f8:	00800593          	li	a1,8
   203fc:	00d806b3          	add	a3,a6,a3
   20400:	00b66a63          	bltu	a2,a1,20414 <__subtf3+0xbb8>
   20404:	0006a023          	sw	zero,0(a3) # 80000 <__BSS_END__+0x5d4fc>
   20408:	0006a223          	sw	zero,4(a3)
   2040c:	ff860613          	addi	a2,a2,-8
   20410:	00868693          	addi	a3,a3,8
   20414:	00400593          	li	a1,4
   20418:	00b66463          	bltu	a2,a1,20420 <__subtf3+0xbc4>
   2041c:	0006a023          	sw	zero,0(a3)
   20420:	02012683          	lw	a3,32(sp)
   20424:	00e03733          	snez	a4,a4
   20428:	00d76733          	or	a4,a4,a3
   2042c:	02412583          	lw	a1,36(sp)
   20430:	02e12023          	sw	a4,32(sp)
   20434:	40e78733          	sub	a4,a5,a4
   20438:	40b90633          	sub	a2,s2,a1
   2043c:	00e7b6b3          	sltu	a3,a5,a4
   20440:	00c93533          	sltu	a0,s2,a2
   20444:	40d60633          	sub	a2,a2,a3
   20448:	00000693          	li	a3,0
   2044c:	00e7f663          	bgeu	a5,a4,20458 <__subtf3+0xbfc>
   20450:	412585b3          	sub	a1,a1,s2
   20454:	0015b693          	seqz	a3,a1
   20458:	00a6e7b3          	or	a5,a3,a0
   2045c:	02812503          	lw	a0,40(sp)
   20460:	00000693          	li	a3,0
   20464:	40a985b3          	sub	a1,s3,a0
   20468:	00b9b833          	sltu	a6,s3,a1
   2046c:	40f585b3          	sub	a1,a1,a5
   20470:	00078663          	beqz	a5,2047c <__subtf3+0xc20>
   20474:	41350533          	sub	a0,a0,s3
   20478:	00153693          	seqz	a3,a0
   2047c:	02c12783          	lw	a5,44(sp)
   20480:	0106e6b3          	or	a3,a3,a6
   20484:	40fb07b3          	sub	a5,s6,a5
   20488:	40d787b3          	sub	a5,a5,a3
   2048c:	02e12823          	sw	a4,48(sp)
   20490:	02f12e23          	sw	a5,60(sp)
   20494:	02b12c23          	sw	a1,56(sp)
   20498:	02c12a23          	sw	a2,52(sp)
   2049c:	00c79713          	slli	a4,a5,0xc
   204a0:	dc075c63          	bgez	a4,1fa78 <__subtf3+0x21c>
   204a4:	00080737          	lui	a4,0x80
   204a8:	fff70713          	addi	a4,a4,-1 # 7ffff <__BSS_END__+0x5d4fb>
   204ac:	00e7f7b3          	and	a5,a5,a4
   204b0:	02f12e23          	sw	a5,60(sp)
   204b4:	58c0006f          	j	20a40 <__subtf3+0x11e4>
   204b8:	0005a503          	lw	a0,0(a1)
   204bc:	0045af03          	lw	t5,4(a1)
   204c0:	00458593          	addi	a1,a1,4
   204c4:	01d55533          	srl	a0,a0,t4
   204c8:	011f1f33          	sll	t5,t5,a7
   204cc:	01e56533          	or	a0,a0,t5
   204d0:	00a32023          	sw	a0,0(t1)
   204d4:	001e0e13          	addi	t3,t3,1
   204d8:	00430313          	addi	t1,t1,4
   204dc:	ee9ff06f          	j	203c4 <__subtf3+0xb68>
   204e0:	02412c03          	lw	s8,36(sp)
   204e4:	02812983          	lw	s3,40(sp)
   204e8:	02c12b03          	lw	s6,44(sp)
   204ec:	2a088263          	beqz	a7,20790 <__subtf3+0xf34>
   204f0:	409b8333          	sub	t1,s7,s1
   204f4:	0a049e63          	bnez	s1,205b0 <__subtf3+0xd54>
   204f8:	01412583          	lw	a1,20(sp)
   204fc:	01812803          	lw	a6,24(sp)
   20500:	01c12683          	lw	a3,28(sp)
   20504:	0105e8b3          	or	a7,a1,a6
   20508:	00d8e8b3          	or	a7,a7,a3
   2050c:	00f8e8b3          	or	a7,a7,a5
   20510:	02089063          	bnez	a7,20530 <__subtf3+0xcd4>
   20514:	02812823          	sw	s0,48(sp)
   20518:	03812a23          	sw	s8,52(sp)
   2051c:	03312c23          	sw	s3,56(sp)
   20520:	03612e23          	sw	s6,60(sp)
   20524:	00030493          	mv	s1,t1
   20528:	00090a93          	mv	s5,s2
   2052c:	d4cff06f          	j	1fa78 <__subtf3+0x21c>
   20530:	fff30893          	addi	a7,t1,-1
   20534:	04089c63          	bnez	a7,2058c <__subtf3+0xd30>
   20538:	40f40733          	sub	a4,s0,a5
   2053c:	40bc0633          	sub	a2,s8,a1
   20540:	00e437b3          	sltu	a5,s0,a4
   20544:	00cc3533          	sltu	a0,s8,a2
   20548:	40f60633          	sub	a2,a2,a5
   2054c:	00000793          	li	a5,0
   20550:	00e47663          	bgeu	s0,a4,2055c <__subtf3+0xd00>
   20554:	418585b3          	sub	a1,a1,s8
   20558:	0015b793          	seqz	a5,a1
   2055c:	00a7e7b3          	or	a5,a5,a0
   20560:	410985b3          	sub	a1,s3,a6
   20564:	00b9b533          	sltu	a0,s3,a1
   20568:	40f585b3          	sub	a1,a1,a5
   2056c:	00078663          	beqz	a5,20578 <__subtf3+0xd1c>
   20570:	41380833          	sub	a6,a6,s3
   20574:	00183893          	seqz	a7,a6
   20578:	40db07b3          	sub	a5,s6,a3
   2057c:	00a8e6b3          	or	a3,a7,a0
   20580:	40d787b3          	sub	a5,a5,a3
   20584:	00090a93          	mv	s5,s2
   20588:	d49ff06f          	j	202d0 <__subtf3+0xa74>
   2058c:	000087b7          	lui	a5,0x8
   20590:	fff78793          	addi	a5,a5,-1 # 7fff <exit-0x8095>
   20594:	78f31c63          	bne	t1,a5,20d2c <__subtf3+0x14d0>
   20598:	02812823          	sw	s0,48(sp)
   2059c:	03812a23          	sw	s8,52(sp)
   205a0:	03312c23          	sw	s3,56(sp)
   205a4:	03612e23          	sw	s6,60(sp)
   205a8:	00090a93          	mv	s5,s2
   205ac:	8f5ff06f          	j	1fea0 <__subtf3+0x644>
   205b0:	000087b7          	lui	a5,0x8
   205b4:	fff78793          	addi	a5,a5,-1 # 7fff <exit-0x8095>
   205b8:	fefb80e3          	beq	s7,a5,20598 <__subtf3+0xd3c>
   205bc:	01c12783          	lw	a5,28(sp)
   205c0:	00080737          	lui	a4,0x80
   205c4:	00e7e7b3          	or	a5,a5,a4
   205c8:	00f12e23          	sw	a5,28(sp)
   205cc:	07400793          	li	a5,116
   205d0:	1a67c663          	blt	a5,t1,2077c <__subtf3+0xf20>
   205d4:	41f35793          	srai	a5,t1,0x1f
   205d8:	01f7f793          	andi	a5,a5,31
   205dc:	006787b3          	add	a5,a5,t1
   205e0:	4057d793          	srai	a5,a5,0x5
   205e4:	00060693          	mv	a3,a2
   205e8:	00000493          	li	s1,0
   205ec:	00000713          	li	a4,0
   205f0:	02f74e63          	blt	a4,a5,2062c <__subtf3+0xdd0>
   205f4:	00300713          	li	a4,3
   205f8:	01f37e13          	andi	t3,t1,31
   205fc:	40f708b3          	sub	a7,a4,a5
   20600:	00279693          	slli	a3,a5,0x2
   20604:	020e1e63          	bnez	t3,20640 <__subtf3+0xde4>
   20608:	00d60733          	add	a4,a2,a3
   2060c:	00072703          	lw	a4,0(a4) # 80000 <__BSS_END__+0x5d4fc>
   20610:	001e0e13          	addi	t3,t3,1
   20614:	00460613          	addi	a2,a2,4
   20618:	fee62e23          	sw	a4,-4(a2)
   2061c:	ffc8d6e3          	bge	a7,t3,20608 <__subtf3+0xdac>
   20620:	00400713          	li	a4,4
   20624:	40f707b3          	sub	a5,a4,a5
   20628:	0900006f          	j	206b8 <__subtf3+0xe5c>
   2062c:	0006a583          	lw	a1,0(a3)
   20630:	00170713          	addi	a4,a4,1
   20634:	00468693          	addi	a3,a3,4
   20638:	00b4e4b3          	or	s1,s1,a1
   2063c:	fb5ff06f          	j	205f0 <__subtf3+0xd94>
   20640:	80000737          	lui	a4,0x80000
   20644:	01f70713          	addi	a4,a4,31 # 8000001f <__BSS_END__+0x7ffdd51b>
   20648:	00e37733          	and	a4,t1,a4
   2064c:	00075863          	bgez	a4,2065c <__subtf3+0xe00>
   20650:	fff70713          	addi	a4,a4,-1
   20654:	fe076713          	ori	a4,a4,-32
   20658:	00170713          	addi	a4,a4,1
   2065c:	02000813          	li	a6,32
   20660:	40e80833          	sub	a6,a6,a4
   20664:	00078593          	mv	a1,a5
   20668:	0007d463          	bgez	a5,20670 <__subtf3+0xe14>
   2066c:	00000593          	li	a1,0
   20670:	00259593          	slli	a1,a1,0x2
   20674:	04058713          	addi	a4,a1,64
   20678:	002705b3          	add	a1,a4,sp
   2067c:	fd05a703          	lw	a4,-48(a1)
   20680:	00d506b3          	add	a3,a0,a3
   20684:	01071733          	sll	a4,a4,a6
   20688:	00e4e4b3          	or	s1,s1,a4
   2068c:	00000713          	li	a4,0
   20690:	00468693          	addi	a3,a3,4
   20694:	0d174263          	blt	a4,a7,20758 <__subtf3+0xefc>
   20698:	01c12683          	lw	a3,28(sp)
   2069c:	00400713          	li	a4,4
   206a0:	40f707b3          	sub	a5,a4,a5
   206a4:	00289713          	slli	a4,a7,0x2
   206a8:	04070713          	addi	a4,a4,64
   206ac:	00270733          	add	a4,a4,sp
   206b0:	01c6d6b3          	srl	a3,a3,t3
   206b4:	fcd72823          	sw	a3,-48(a4)
   206b8:	0057a713          	slti	a4,a5,5
   206bc:	00000613          	li	a2,0
   206c0:	00070863          	beqz	a4,206d0 <__subtf3+0xe74>
   206c4:	00400613          	li	a2,4
   206c8:	40f60633          	sub	a2,a2,a5
   206cc:	00261613          	slli	a2,a2,0x2
   206d0:	00279793          	slli	a5,a5,0x2
   206d4:	00f50533          	add	a0,a0,a5
   206d8:	00000593          	li	a1,0
   206dc:	c55f00ef          	jal	11330 <memset>
   206e0:	01012783          	lw	a5,16(sp)
   206e4:	00903733          	snez	a4,s1
   206e8:	00f76733          	or	a4,a4,a5
   206ec:	01412683          	lw	a3,20(sp)
   206f0:	00e12823          	sw	a4,16(sp)
   206f4:	40e40733          	sub	a4,s0,a4
   206f8:	40dc0633          	sub	a2,s8,a3
   206fc:	00e437b3          	sltu	a5,s0,a4
   20700:	00cc35b3          	sltu	a1,s8,a2
   20704:	40f60633          	sub	a2,a2,a5
   20708:	00000793          	li	a5,0
   2070c:	00e47663          	bgeu	s0,a4,20718 <__subtf3+0xebc>
   20710:	418686b3          	sub	a3,a3,s8
   20714:	0016b793          	seqz	a5,a3
   20718:	01812503          	lw	a0,24(sp)
   2071c:	00b7e7b3          	or	a5,a5,a1
   20720:	00000693          	li	a3,0
   20724:	40a985b3          	sub	a1,s3,a0
   20728:	00b9b833          	sltu	a6,s3,a1
   2072c:	40f585b3          	sub	a1,a1,a5
   20730:	00078663          	beqz	a5,2073c <__subtf3+0xee0>
   20734:	41350533          	sub	a0,a0,s3
   20738:	00153693          	seqz	a3,a0
   2073c:	01c12783          	lw	a5,28(sp)
   20740:	0106e6b3          	or	a3,a3,a6
   20744:	000b8493          	mv	s1,s7
   20748:	40fb07b3          	sub	a5,s6,a5
   2074c:	40d787b3          	sub	a5,a5,a3
   20750:	00090a93          	mv	s5,s2
   20754:	d39ff06f          	j	2048c <__subtf3+0xc30>
   20758:	ffc6a583          	lw	a1,-4(a3)
   2075c:	0006a303          	lw	t1,0(a3)
   20760:	00170713          	addi	a4,a4,1
   20764:	01c5d5b3          	srl	a1,a1,t3
   20768:	01031333          	sll	t1,t1,a6
   2076c:	0065e5b3          	or	a1,a1,t1
   20770:	00b62023          	sw	a1,0(a2)
   20774:	00460613          	addi	a2,a2,4
   20778:	f19ff06f          	j	20690 <__subtf3+0xe34>
   2077c:	00012e23          	sw	zero,28(sp)
   20780:	00012c23          	sw	zero,24(sp)
   20784:	00012a23          	sw	zero,20(sp)
   20788:	00100713          	li	a4,1
   2078c:	f61ff06f          	j	206ec <__subtf3+0xe90>
   20790:	00148593          	addi	a1,s1,1
   20794:	01159513          	slli	a0,a1,0x11
   20798:	01255513          	srli	a0,a0,0x12
   2079c:	01412683          	lw	a3,20(sp)
   207a0:	01812603          	lw	a2,24(sp)
   207a4:	01c12703          	lw	a4,28(sp)
   207a8:	00008837          	lui	a6,0x8
   207ac:	1c051e63          	bnez	a0,20988 <__subtf3+0x112c>
   207b0:	013c6533          	or	a0,s8,s3
   207b4:	00c6e5b3          	or	a1,a3,a2
   207b8:	01656533          	or	a0,a0,s6
   207bc:	00e5e5b3          	or	a1,a1,a4
   207c0:	00856533          	or	a0,a0,s0
   207c4:	00f5e5b3          	or	a1,a1,a5
   207c8:	10049863          	bnez	s1,208d8 <__subtf3+0x107c>
   207cc:	02059263          	bnez	a1,207f0 <__subtf3+0xf94>
   207d0:	02812823          	sw	s0,48(sp)
   207d4:	03812a23          	sw	s8,52(sp)
   207d8:	03312c23          	sw	s3,56(sp)
   207dc:	03612e23          	sw	s6,60(sp)
   207e0:	00090a93          	mv	s5,s2
   207e4:	a8051a63          	bnez	a0,1fa78 <__subtf3+0x21c>
   207e8:	00000493          	li	s1,0
   207ec:	9bdff06f          	j	201a8 <__subtf3+0x94c>
   207f0:	00051c63          	bnez	a0,20808 <__subtf3+0xfac>
   207f4:	02f12823          	sw	a5,48(sp)
   207f8:	02d12a23          	sw	a3,52(sp)
   207fc:	02c12c23          	sw	a2,56(sp)
   20800:	02e12e23          	sw	a4,60(sp)
   20804:	8b9ff06f          	j	200bc <__subtf3+0x860>
   20808:	40878533          	sub	a0,a5,s0
   2080c:	41868e33          	sub	t3,a3,s8
   20810:	00a7b833          	sltu	a6,a5,a0
   20814:	01c6b8b3          	sltu	a7,a3,t3
   20818:	410e0833          	sub	a6,t3,a6
   2081c:	00000593          	li	a1,0
   20820:	00a7f463          	bgeu	a5,a0,20828 <__subtf3+0xfcc>
   20824:	001e3593          	seqz	a1,t3
   20828:	0115e5b3          	or	a1,a1,a7
   2082c:	413608b3          	sub	a7,a2,s3
   20830:	01163f33          	sltu	t5,a2,a7
   20834:	40b88eb3          	sub	t4,a7,a1
   20838:	00000313          	li	t1,0
   2083c:	00058463          	beqz	a1,20844 <__subtf3+0xfe8>
   20840:	0018b313          	seqz	t1,a7
   20844:	01e36333          	or	t1,t1,t5
   20848:	416705b3          	sub	a1,a4,s6
   2084c:	406585b3          	sub	a1,a1,t1
   20850:	02b12e23          	sw	a1,60(sp)
   20854:	03d12c23          	sw	t4,56(sp)
   20858:	03012a23          	sw	a6,52(sp)
   2085c:	02a12823          	sw	a0,48(sp)
   20860:	00c59313          	slli	t1,a1,0xc
   20864:	06035063          	bgez	t1,208c4 <__subtf3+0x1068>
   20868:	40f407b3          	sub	a5,s0,a5
   2086c:	40dc06b3          	sub	a3,s8,a3
   20870:	00f435b3          	sltu	a1,s0,a5
   20874:	00dc3c33          	sltu	s8,s8,a3
   20878:	40b686b3          	sub	a3,a3,a1
   2087c:	00000593          	li	a1,0
   20880:	00f47463          	bgeu	s0,a5,20888 <__subtf3+0x102c>
   20884:	001e3593          	seqz	a1,t3
   20888:	40c98633          	sub	a2,s3,a2
   2088c:	0185ec33          	or	s8,a1,s8
   20890:	00c9b9b3          	sltu	s3,s3,a2
   20894:	00000513          	li	a0,0
   20898:	41860633          	sub	a2,a2,s8
   2089c:	000c0463          	beqz	s8,208a4 <__subtf3+0x1048>
   208a0:	0018b513          	seqz	a0,a7
   208a4:	40eb0733          	sub	a4,s6,a4
   208a8:	01356533          	or	a0,a0,s3
   208ac:	40a70733          	sub	a4,a4,a0
   208b0:	02e12e23          	sw	a4,60(sp)
   208b4:	02c12c23          	sw	a2,56(sp)
   208b8:	02d12a23          	sw	a3,52(sp)
   208bc:	02f12823          	sw	a5,48(sp)
   208c0:	c69ff06f          	j	20528 <__subtf3+0xccc>
   208c4:	01056533          	or	a0,a0,a6
   208c8:	01d56533          	or	a0,a0,t4
   208cc:	00b56533          	or	a0,a0,a1
   208d0:	f0050ce3          	beqz	a0,207e8 <__subtf3+0xf8c>
   208d4:	fe8ff06f          	j	200bc <__subtf3+0x860>
   208d8:	03010893          	addi	a7,sp,48
   208dc:	04059e63          	bnez	a1,20938 <__subtf3+0x10dc>
   208e0:	02051e63          	bnez	a0,2091c <__subtf3+0x10c0>
   208e4:	03012e23          	sw	a6,60(sp)
   208e8:	02012c23          	sw	zero,56(sp)
   208ec:	02012a23          	sw	zero,52(sp)
   208f0:	02012823          	sw	zero,48(sp)
   208f4:	03c10793          	addi	a5,sp,60
   208f8:	0007a703          	lw	a4,0(a5)
   208fc:	ffc7a683          	lw	a3,-4(a5)
   20900:	ffc78793          	addi	a5,a5,-4
   20904:	00371713          	slli	a4,a4,0x3
   20908:	01d6d693          	srli	a3,a3,0x1d
   2090c:	00d76733          	or	a4,a4,a3
   20910:	00e7a223          	sw	a4,4(a5)
   20914:	fef892e3          	bne	a7,a5,208f8 <__subtf3+0x109c>
   20918:	889ff06f          	j	201a0 <__subtf3+0x944>
   2091c:	02812823          	sw	s0,48(sp)
   20920:	03812a23          	sw	s8,52(sp)
   20924:	03312c23          	sw	s3,56(sp)
   20928:	03612e23          	sw	s6,60(sp)
   2092c:	00090a93          	mv	s5,s2
   20930:	fff80493          	addi	s1,a6,-1 # 7fff <exit-0x8095>
   20934:	944ff06f          	j	1fa78 <__subtf3+0x21c>
   20938:	00051c63          	bnez	a0,20950 <__subtf3+0x10f4>
   2093c:	02f12823          	sw	a5,48(sp)
   20940:	02d12a23          	sw	a3,52(sp)
   20944:	02c12c23          	sw	a2,56(sp)
   20948:	02e12e23          	sw	a4,60(sp)
   2094c:	fe5ff06f          	j	20930 <__subtf3+0x10d4>
   20950:	03012e23          	sw	a6,60(sp)
   20954:	02012c23          	sw	zero,56(sp)
   20958:	02012a23          	sw	zero,52(sp)
   2095c:	02012823          	sw	zero,48(sp)
   20960:	03c10793          	addi	a5,sp,60
   20964:	0007a703          	lw	a4,0(a5)
   20968:	ffc7a683          	lw	a3,-4(a5)
   2096c:	ffc78793          	addi	a5,a5,-4
   20970:	00371713          	slli	a4,a4,0x3
   20974:	01d6d693          	srli	a3,a3,0x1d
   20978:	00d76733          	or	a4,a4,a3
   2097c:	00e7a223          	sw	a4,4(a5)
   20980:	fef892e3          	bne	a7,a5,20964 <__subtf3+0x1108>
   20984:	81dff06f          	j	201a0 <__subtf3+0x944>
   20988:	40878533          	sub	a0,a5,s0
   2098c:	41868eb3          	sub	t4,a3,s8
   20990:	00a7b833          	sltu	a6,a5,a0
   20994:	01d6b333          	sltu	t1,a3,t4
   20998:	410e8833          	sub	a6,t4,a6
   2099c:	00000593          	li	a1,0
   209a0:	00a7f463          	bgeu	a5,a0,209a8 <__subtf3+0x114c>
   209a4:	001eb593          	seqz	a1,t4
   209a8:	0065e5b3          	or	a1,a1,t1
   209ac:	41360333          	sub	t1,a2,s3
   209b0:	00663fb3          	sltu	t6,a2,t1
   209b4:	40b30f33          	sub	t5,t1,a1
   209b8:	00000e13          	li	t3,0
   209bc:	00058463          	beqz	a1,209c4 <__subtf3+0x1168>
   209c0:	00133e13          	seqz	t3,t1
   209c4:	01fe6e33          	or	t3,t3,t6
   209c8:	416705b3          	sub	a1,a4,s6
   209cc:	41c585b3          	sub	a1,a1,t3
   209d0:	02b12e23          	sw	a1,60(sp)
   209d4:	03e12c23          	sw	t5,56(sp)
   209d8:	03012a23          	sw	a6,52(sp)
   209dc:	02a12823          	sw	a0,48(sp)
   209e0:	00c59e13          	slli	t3,a1,0xc
   209e4:	160e5863          	bgez	t3,20b54 <__subtf3+0x12f8>
   209e8:	40f407b3          	sub	a5,s0,a5
   209ec:	40dc06b3          	sub	a3,s8,a3
   209f0:	00f435b3          	sltu	a1,s0,a5
   209f4:	00dc3c33          	sltu	s8,s8,a3
   209f8:	40b686b3          	sub	a3,a3,a1
   209fc:	00000593          	li	a1,0
   20a00:	00f47463          	bgeu	s0,a5,20a08 <__subtf3+0x11ac>
   20a04:	001eb593          	seqz	a1,t4
   20a08:	40c98633          	sub	a2,s3,a2
   20a0c:	0185ec33          	or	s8,a1,s8
   20a10:	00c9b9b3          	sltu	s3,s3,a2
   20a14:	41860633          	sub	a2,a2,s8
   20a18:	000c0463          	beqz	s8,20a20 <__subtf3+0x11c4>
   20a1c:	00133893          	seqz	a7,t1
   20a20:	40eb05b3          	sub	a1,s6,a4
   20a24:	0138e733          	or	a4,a7,s3
   20a28:	40e58733          	sub	a4,a1,a4
   20a2c:	02e12e23          	sw	a4,60(sp)
   20a30:	02c12c23          	sw	a2,56(sp)
   20a34:	02d12a23          	sw	a3,52(sp)
   20a38:	02f12823          	sw	a5,48(sp)
   20a3c:	00090a93          	mv	s5,s2
   20a40:	03c12503          	lw	a0,60(sp)
   20a44:	12050263          	beqz	a0,20b68 <__subtf3+0x130c>
   20a48:	0ad000ef          	jal	212f4 <__clzsi2>
   20a4c:	ff450513          	addi	a0,a0,-12
   20a50:	41f55793          	srai	a5,a0,0x1f
   20a54:	01f7f793          	andi	a5,a5,31
   20a58:	00a787b3          	add	a5,a5,a0
   20a5c:	4057d793          	srai	a5,a5,0x5
   20a60:	01f57593          	andi	a1,a0,31
   20a64:	40f006b3          	neg	a3,a5
   20a68:	12058c63          	beqz	a1,20ba0 <__subtf3+0x1344>
   20a6c:	80000737          	lui	a4,0x80000
   20a70:	01f70713          	addi	a4,a4,31 # 8000001f <__BSS_END__+0x7ffdd51b>
   20a74:	00e57733          	and	a4,a0,a4
   20a78:	00075863          	bgez	a4,20a88 <__subtf3+0x122c>
   20a7c:	fff70713          	addi	a4,a4,-1
   20a80:	fe076713          	ori	a4,a4,-32
   20a84:	00170713          	addi	a4,a4,1
   20a88:	00269693          	slli	a3,a3,0x2
   20a8c:	02000813          	li	a6,32
   20a90:	40e80833          	sub	a6,a6,a4
   20a94:	03010313          	addi	t1,sp,48
   20a98:	00c68713          	addi	a4,a3,12
   20a9c:	00e30733          	add	a4,t1,a4
   20aa0:	40d006b3          	neg	a3,a3
   20aa4:	12e31463          	bne	t1,a4,20bcc <__subtf3+0x1370>
   20aa8:	03012683          	lw	a3,48(sp)
   20aac:	fff78713          	addi	a4,a5,-1
   20ab0:	00279793          	slli	a5,a5,0x2
   20ab4:	04078793          	addi	a5,a5,64
   20ab8:	002787b3          	add	a5,a5,sp
   20abc:	00b696b3          	sll	a3,a3,a1
   20ac0:	fed7a823          	sw	a3,-16(a5)
   20ac4:	00170713          	addi	a4,a4,1
   20ac8:	03010793          	addi	a5,sp,48
   20acc:	00271713          	slli	a4,a4,0x2
   20ad0:	00800693          	li	a3,8
   20ad4:	00078893          	mv	a7,a5
   20ad8:	00d76a63          	bltu	a4,a3,20aec <__subtf3+0x1290>
   20adc:	02012823          	sw	zero,48(sp)
   20ae0:	0007a223          	sw	zero,4(a5)
   20ae4:	ff870713          	addi	a4,a4,-8
   20ae8:	03810793          	addi	a5,sp,56
   20aec:	00400693          	li	a3,4
   20af0:	00d76463          	bltu	a4,a3,20af8 <__subtf3+0x129c>
   20af4:	0007a023          	sw	zero,0(a5)
   20af8:	1c954463          	blt	a0,s1,20cc0 <__subtf3+0x1464>
   20afc:	40950533          	sub	a0,a0,s1
   20b00:	00150513          	addi	a0,a0,1
   20b04:	40555793          	srai	a5,a0,0x5
   20b08:	00088613          	mv	a2,a7
   20b0c:	01f57513          	andi	a0,a0,31
   20b10:	00088693          	mv	a3,a7
   20b14:	00000313          	li	t1,0
   20b18:	00000713          	li	a4,0
   20b1c:	0cf71a63          	bne	a4,a5,20bf0 <__subtf3+0x1394>
   20b20:	00300713          	li	a4,3
   20b24:	40f70733          	sub	a4,a4,a5
   20b28:	00279693          	slli	a3,a5,0x2
   20b2c:	0c051c63          	bnez	a0,20c04 <__subtf3+0x13a8>
   20b30:	00d605b3          	add	a1,a2,a3
   20b34:	0005a583          	lw	a1,0(a1)
   20b38:	00150513          	addi	a0,a0,1
   20b3c:	00460613          	addi	a2,a2,4
   20b40:	feb62e23          	sw	a1,-4(a2)
   20b44:	fea756e3          	bge	a4,a0,20b30 <__subtf3+0x12d4>
   20b48:	00400713          	li	a4,4
   20b4c:	40f707b3          	sub	a5,a4,a5
   20b50:	1000006f          	j	20c50 <__subtf3+0x13f4>
   20b54:	01056533          	or	a0,a0,a6
   20b58:	01e56533          	or	a0,a0,t5
   20b5c:	00b56533          	or	a0,a0,a1
   20b60:	c80504e3          	beqz	a0,207e8 <__subtf3+0xf8c>
   20b64:	eddff06f          	j	20a40 <__subtf3+0x11e4>
   20b68:	03812503          	lw	a0,56(sp)
   20b6c:	00050863          	beqz	a0,20b7c <__subtf3+0x1320>
   20b70:	784000ef          	jal	212f4 <__clzsi2>
   20b74:	02050513          	addi	a0,a0,32
   20b78:	ed5ff06f          	j	20a4c <__subtf3+0x11f0>
   20b7c:	03412503          	lw	a0,52(sp)
   20b80:	00050863          	beqz	a0,20b90 <__subtf3+0x1334>
   20b84:	770000ef          	jal	212f4 <__clzsi2>
   20b88:	04050513          	addi	a0,a0,64
   20b8c:	ec1ff06f          	j	20a4c <__subtf3+0x11f0>
   20b90:	03012503          	lw	a0,48(sp)
   20b94:	760000ef          	jal	212f4 <__clzsi2>
   20b98:	06050513          	addi	a0,a0,96
   20b9c:	eb1ff06f          	j	20a4c <__subtf3+0x11f0>
   20ba0:	03c10713          	addi	a4,sp,60
   20ba4:	00269693          	slli	a3,a3,0x2
   20ba8:	00300613          	li	a2,3
   20bac:	00d705b3          	add	a1,a4,a3
   20bb0:	0005a583          	lw	a1,0(a1)
   20bb4:	fff60613          	addi	a2,a2,-1
   20bb8:	ffc70713          	addi	a4,a4,-4
   20bbc:	00b72223          	sw	a1,4(a4)
   20bc0:	fef656e3          	bge	a2,a5,20bac <__subtf3+0x1350>
   20bc4:	fff78713          	addi	a4,a5,-1
   20bc8:	efdff06f          	j	20ac4 <__subtf3+0x1268>
   20bcc:	00072603          	lw	a2,0(a4)
   20bd0:	ffc72883          	lw	a7,-4(a4)
   20bd4:	00d70e33          	add	t3,a4,a3
   20bd8:	00b61633          	sll	a2,a2,a1
   20bdc:	0108d8b3          	srl	a7,a7,a6
   20be0:	01166633          	or	a2,a2,a7
   20be4:	00ce2023          	sw	a2,0(t3)
   20be8:	ffc70713          	addi	a4,a4,-4
   20bec:	eb9ff06f          	j	20aa4 <__subtf3+0x1248>
   20bf0:	0006a583          	lw	a1,0(a3)
   20bf4:	00170713          	addi	a4,a4,1
   20bf8:	00468693          	addi	a3,a3,4
   20bfc:	00b36333          	or	t1,t1,a1
   20c00:	f1dff06f          	j	20b1c <__subtf3+0x12c0>
   20c04:	04068593          	addi	a1,a3,64
   20c08:	002585b3          	add	a1,a1,sp
   20c0c:	ff05a583          	lw	a1,-16(a1)
   20c10:	02000813          	li	a6,32
   20c14:	40a80833          	sub	a6,a6,a0
   20c18:	010595b3          	sll	a1,a1,a6
   20c1c:	00b36333          	or	t1,t1,a1
   20c20:	00d886b3          	add	a3,a7,a3
   20c24:	00000e13          	li	t3,0
   20c28:	00468693          	addi	a3,a3,4
   20c2c:	06ee4863          	blt	t3,a4,20c9c <__subtf3+0x1440>
   20c30:	00400693          	li	a3,4
   20c34:	40f687b3          	sub	a5,a3,a5
   20c38:	03c12683          	lw	a3,60(sp)
   20c3c:	00271713          	slli	a4,a4,0x2
   20c40:	04070713          	addi	a4,a4,64
   20c44:	00270733          	add	a4,a4,sp
   20c48:	00a6d533          	srl	a0,a3,a0
   20c4c:	fea72823          	sw	a0,-16(a4)
   20c50:	00400713          	li	a4,4
   20c54:	40f70733          	sub	a4,a4,a5
   20c58:	00271713          	slli	a4,a4,0x2
   20c5c:	00279793          	slli	a5,a5,0x2
   20c60:	00800693          	li	a3,8
   20c64:	00f887b3          	add	a5,a7,a5
   20c68:	00d76a63          	bltu	a4,a3,20c7c <__subtf3+0x1420>
   20c6c:	0007a023          	sw	zero,0(a5)
   20c70:	0007a223          	sw	zero,4(a5)
   20c74:	ff870713          	addi	a4,a4,-8
   20c78:	00878793          	addi	a5,a5,8
   20c7c:	00400693          	li	a3,4
   20c80:	00d76463          	bltu	a4,a3,20c88 <__subtf3+0x142c>
   20c84:	0007a023          	sw	zero,0(a5)
   20c88:	03012703          	lw	a4,48(sp)
   20c8c:	006037b3          	snez	a5,t1
   20c90:	00f767b3          	or	a5,a4,a5
   20c94:	02f12823          	sw	a5,48(sp)
   20c98:	c24ff06f          	j	200bc <__subtf3+0x860>
   20c9c:	ffc6a583          	lw	a1,-4(a3)
   20ca0:	0006ae83          	lw	t4,0(a3)
   20ca4:	001e0e13          	addi	t3,t3,1
   20ca8:	00a5d5b3          	srl	a1,a1,a0
   20cac:	010e9eb3          	sll	t4,t4,a6
   20cb0:	01d5e5b3          	or	a1,a1,t4
   20cb4:	00b62023          	sw	a1,0(a2)
   20cb8:	00460613          	addi	a2,a2,4
   20cbc:	f6dff06f          	j	20c28 <__subtf3+0x13cc>
   20cc0:	03c12783          	lw	a5,60(sp)
   20cc4:	fff80737          	lui	a4,0xfff80
   20cc8:	fff70713          	addi	a4,a4,-1 # fff7ffff <__BSS_END__+0xfff5d4fb>
   20ccc:	00e7f7b3          	and	a5,a5,a4
   20cd0:	40a484b3          	sub	s1,s1,a0
   20cd4:	02f12e23          	sw	a5,60(sp)
   20cd8:	da1fe06f          	j	1fa78 <__subtf3+0x21c>
   20cdc:	02012e23          	sw	zero,60(sp)
   20ce0:	02012c23          	sw	zero,56(sp)
   20ce4:	02012a23          	sw	zero,52(sp)
   20ce8:	02012823          	sw	zero,48(sp)
   20cec:	e0dfe06f          	j	1faf8 <__subtf3+0x29c>
   20cf0:	07400713          	li	a4,116
   20cf4:	00c74463          	blt	a4,a2,20cfc <__subtf3+0x14a0>
   20cf8:	f01fe06f          	j	1fbf8 <__subtf3+0x39c>
   20cfc:	02012623          	sw	zero,44(sp)
   20d00:	02012423          	sw	zero,40(sp)
   20d04:	02012223          	sw	zero,36(sp)
   20d08:	00100713          	li	a4,1
   20d0c:	fd9fe06f          	j	1fce4 <__subtf3+0x488>
   20d10:	07400793          	li	a5,116
   20d14:	9d07d463          	bge	a5,a6,1fedc <__subtf3+0x680>
   20d18:	00012e23          	sw	zero,28(sp)
   20d1c:	00012c23          	sw	zero,24(sp)
   20d20:	00012a23          	sw	zero,20(sp)
   20d24:	00100793          	li	a5,1
   20d28:	accff06f          	j	1fff4 <__subtf3+0x798>
   20d2c:	07400793          	li	a5,116
   20d30:	a517c6e3          	blt	a5,a7,2077c <__subtf3+0xf20>
   20d34:	00088313          	mv	t1,a7
   20d38:	89dff06f          	j	205d4 <__subtf3+0xd78>

00020d3c <__unordtf2>:
   20d3c:	00052703          	lw	a4,0(a0)
   20d40:	00452e83          	lw	t4,4(a0)
   20d44:	00852e03          	lw	t3,8(a0)
   20d48:	00c52503          	lw	a0,12(a0)
   20d4c:	00c5a603          	lw	a2,12(a1)
   20d50:	000086b7          	lui	a3,0x8
   20d54:	fff68693          	addi	a3,a3,-1 # 7fff <exit-0x8095>
   20d58:	01055813          	srli	a6,a0,0x10
   20d5c:	0005a783          	lw	a5,0(a1)
   20d60:	0045a303          	lw	t1,4(a1)
   20d64:	0085a883          	lw	a7,8(a1)
   20d68:	00d87833          	and	a6,a6,a3
   20d6c:	01065593          	srli	a1,a2,0x10
   20d70:	ff010113          	addi	sp,sp,-16
   20d74:	00d5f5b3          	and	a1,a1,a3
   20d78:	02d81063          	bne	a6,a3,20d98 <__unordtf2+0x5c>
   20d7c:	01d76733          	or	a4,a4,t4
   20d80:	01051513          	slli	a0,a0,0x10
   20d84:	01055513          	srli	a0,a0,0x10
   20d88:	01c76733          	or	a4,a4,t3
   20d8c:	00a76733          	or	a4,a4,a0
   20d90:	00100513          	li	a0,1
   20d94:	02071663          	bnez	a4,20dc0 <__unordtf2+0x84>
   20d98:	00008737          	lui	a4,0x8
   20d9c:	fff70713          	addi	a4,a4,-1 # 7fff <exit-0x8095>
   20da0:	00000513          	li	a0,0
   20da4:	00e59e63          	bne	a1,a4,20dc0 <__unordtf2+0x84>
   20da8:	0067e533          	or	a0,a5,t1
   20dac:	01061613          	slli	a2,a2,0x10
   20db0:	01156533          	or	a0,a0,a7
   20db4:	01065613          	srli	a2,a2,0x10
   20db8:	00c56533          	or	a0,a0,a2
   20dbc:	00a03533          	snez	a0,a0
   20dc0:	01010113          	addi	sp,sp,16
   20dc4:	00008067          	ret

00020dc8 <__fixtfsi>:
   20dc8:	00052703          	lw	a4,0(a0)
   20dcc:	00452683          	lw	a3,4(a0)
   20dd0:	00c52783          	lw	a5,12(a0)
   20dd4:	00852583          	lw	a1,8(a0)
   20dd8:	fe010113          	addi	sp,sp,-32
   20ddc:	00e12023          	sw	a4,0(sp)
   20de0:	00d12223          	sw	a3,4(sp)
   20de4:	00e12823          	sw	a4,16(sp)
   20de8:	00179693          	slli	a3,a5,0x1
   20dec:	00004737          	lui	a4,0x4
   20df0:	00b12423          	sw	a1,8(sp)
   20df4:	00f12623          	sw	a5,12(sp)
   20df8:	00b12c23          	sw	a1,24(sp)
   20dfc:	0116d693          	srli	a3,a3,0x11
   20e00:	ffe70713          	addi	a4,a4,-2 # 3ffe <exit-0xc096>
   20e04:	00000513          	li	a0,0
   20e08:	02d75063          	bge	a4,a3,20e28 <__fixtfsi+0x60>
   20e0c:	00004737          	lui	a4,0x4
   20e10:	01d70713          	addi	a4,a4,29 # 401d <exit-0xc077>
   20e14:	01f7d813          	srli	a6,a5,0x1f
   20e18:	00d75c63          	bge	a4,a3,20e30 <__fixtfsi+0x68>
   20e1c:	80000537          	lui	a0,0x80000
   20e20:	fff50513          	addi	a0,a0,-1 # 7fffffff <__BSS_END__+0x7ffdd4fb>
   20e24:	00a80533          	add	a0,a6,a0
   20e28:	02010113          	addi	sp,sp,32
   20e2c:	00008067          	ret
   20e30:	01079793          	slli	a5,a5,0x10
   20e34:	00010737          	lui	a4,0x10
   20e38:	0107d793          	srli	a5,a5,0x10
   20e3c:	00e7e7b3          	or	a5,a5,a4
   20e40:	00004737          	lui	a4,0x4
   20e44:	06f70713          	addi	a4,a4,111 # 406f <exit-0xc025>
   20e48:	40d70733          	sub	a4,a4,a3
   20e4c:	40575613          	srai	a2,a4,0x5
   20e50:	00f12e23          	sw	a5,28(sp)
   20e54:	01f77713          	andi	a4,a4,31
   20e58:	02071463          	bnez	a4,20e80 <__fixtfsi+0xb8>
   20e5c:	00261613          	slli	a2,a2,0x2
   20e60:	02060793          	addi	a5,a2,32
   20e64:	00278633          	add	a2,a5,sp
   20e68:	ff062783          	lw	a5,-16(a2)
   20e6c:	00f12823          	sw	a5,16(sp)
   20e70:	01012503          	lw	a0,16(sp)
   20e74:	fa080ae3          	beqz	a6,20e28 <__fixtfsi+0x60>
   20e78:	40a00533          	neg	a0,a0
   20e7c:	fadff06f          	j	20e28 <__fixtfsi+0x60>
   20e80:	00200513          	li	a0,2
   20e84:	00000693          	li	a3,0
   20e88:	02a61063          	bne	a2,a0,20ea8 <__fixtfsi+0xe0>
   20e8c:	02000693          	li	a3,32
   20e90:	40e686b3          	sub	a3,a3,a4
   20e94:	00d796b3          	sll	a3,a5,a3
   20e98:	00e5d5b3          	srl	a1,a1,a4
   20e9c:	00b6e6b3          	or	a3,a3,a1
   20ea0:	00d12823          	sw	a3,16(sp)
   20ea4:	00100693          	li	a3,1
   20ea8:	00269693          	slli	a3,a3,0x2
   20eac:	02068693          	addi	a3,a3,32
   20eb0:	002686b3          	add	a3,a3,sp
   20eb4:	00e7d7b3          	srl	a5,a5,a4
   20eb8:	fef6a823          	sw	a5,-16(a3)
   20ebc:	fb5ff06f          	j	20e70 <__fixtfsi+0xa8>

00020ec0 <__floatsitf>:
   20ec0:	fd010113          	addi	sp,sp,-48
   20ec4:	02912223          	sw	s1,36(sp)
   20ec8:	02112623          	sw	ra,44(sp)
   20ecc:	02812423          	sw	s0,40(sp)
   20ed0:	03212023          	sw	s2,32(sp)
   20ed4:	00050493          	mv	s1,a0
   20ed8:	12058263          	beqz	a1,20ffc <__floatsitf+0x13c>
   20edc:	41f5d793          	srai	a5,a1,0x1f
   20ee0:	00b7c433          	xor	s0,a5,a1
   20ee4:	40f40433          	sub	s0,s0,a5
   20ee8:	00040513          	mv	a0,s0
   20eec:	01f5d913          	srli	s2,a1,0x1f
   20ef0:	404000ef          	jal	212f4 <__clzsi2>
   20ef4:	00004737          	lui	a4,0x4
   20ef8:	01e70713          	addi	a4,a4,30 # 401e <exit-0xc076>
   20efc:	05150793          	addi	a5,a0,81
   20f00:	40a70633          	sub	a2,a4,a0
   20f04:	00812823          	sw	s0,16(sp)
   20f08:	4057d713          	srai	a4,a5,0x5
   20f0c:	00012a23          	sw	zero,20(sp)
   20f10:	00012c23          	sw	zero,24(sp)
   20f14:	00012e23          	sw	zero,28(sp)
   20f18:	01f7f793          	andi	a5,a5,31
   20f1c:	02078c63          	beqz	a5,20f54 <__floatsitf+0x94>
   20f20:	00200693          	li	a3,2
   20f24:	0cd71863          	bne	a4,a3,20ff4 <__floatsitf+0x134>
   20f28:	02000693          	li	a3,32
   20f2c:	40f686b3          	sub	a3,a3,a5
   20f30:	00d456b3          	srl	a3,s0,a3
   20f34:	00d12e23          	sw	a3,28(sp)
   20f38:	fff70693          	addi	a3,a4,-1
   20f3c:	00271713          	slli	a4,a4,0x2
   20f40:	02070713          	addi	a4,a4,32
   20f44:	00270733          	add	a4,a4,sp
   20f48:	00f41433          	sll	s0,s0,a5
   20f4c:	fe872823          	sw	s0,-16(a4)
   20f50:	0340006f          	j	20f84 <__floatsitf+0xc4>
   20f54:	00300793          	li	a5,3
   20f58:	40e787b3          	sub	a5,a5,a4
   20f5c:	00279793          	slli	a5,a5,0x2
   20f60:	02078793          	addi	a5,a5,32
   20f64:	002787b3          	add	a5,a5,sp
   20f68:	ff07a783          	lw	a5,-16(a5)
   20f6c:	00200693          	li	a3,2
   20f70:	00f12e23          	sw	a5,28(sp)
   20f74:	00200793          	li	a5,2
   20f78:	00f71663          	bne	a4,a5,20f84 <__floatsitf+0xc4>
   20f7c:	00812c23          	sw	s0,24(sp)
   20f80:	00100693          	li	a3,1
   20f84:	00269693          	slli	a3,a3,0x2
   20f88:	00012823          	sw	zero,16(sp)
   20f8c:	00012a23          	sw	zero,20(sp)
   20f90:	ffc68693          	addi	a3,a3,-4
   20f94:	00400793          	li	a5,4
   20f98:	00f6e463          	bltu	a3,a5,20fa0 <__floatsitf+0xe0>
   20f9c:	00012c23          	sw	zero,24(sp)
   20fa0:	00090593          	mv	a1,s2
   20fa4:	01c12783          	lw	a5,28(sp)
   20fa8:	00f59413          	slli	s0,a1,0xf
   20fac:	00c46433          	or	s0,s0,a2
   20fb0:	00f11623          	sh	a5,12(sp)
   20fb4:	01012783          	lw	a5,16(sp)
   20fb8:	00811723          	sh	s0,14(sp)
   20fbc:	02c12083          	lw	ra,44(sp)
   20fc0:	00f4a023          	sw	a5,0(s1)
   20fc4:	01412783          	lw	a5,20(sp)
   20fc8:	02812403          	lw	s0,40(sp)
   20fcc:	02012903          	lw	s2,32(sp)
   20fd0:	00f4a223          	sw	a5,4(s1)
   20fd4:	01812783          	lw	a5,24(sp)
   20fd8:	00048513          	mv	a0,s1
   20fdc:	00f4a423          	sw	a5,8(s1)
   20fe0:	00c12783          	lw	a5,12(sp)
   20fe4:	00f4a623          	sw	a5,12(s1)
   20fe8:	02412483          	lw	s1,36(sp)
   20fec:	03010113          	addi	sp,sp,48
   20ff0:	00008067          	ret
   20ff4:	00300713          	li	a4,3
   20ff8:	f41ff06f          	j	20f38 <__floatsitf+0x78>
   20ffc:	00012e23          	sw	zero,28(sp)
   21000:	00012c23          	sw	zero,24(sp)
   21004:	00012a23          	sw	zero,20(sp)
   21008:	00012823          	sw	zero,16(sp)
   2100c:	00000613          	li	a2,0
   21010:	f95ff06f          	j	20fa4 <__floatsitf+0xe4>

00021014 <__extenddftf2>:
   21014:	01465713          	srli	a4,a2,0x14
   21018:	00c61793          	slli	a5,a2,0xc
   2101c:	7ff77713          	andi	a4,a4,2047
   21020:	fd010113          	addi	sp,sp,-48
   21024:	00c7d793          	srli	a5,a5,0xc
   21028:	00170693          	addi	a3,a4,1
   2102c:	02812423          	sw	s0,40(sp)
   21030:	02912223          	sw	s1,36(sp)
   21034:	03212023          	sw	s2,32(sp)
   21038:	02112623          	sw	ra,44(sp)
   2103c:	00b12823          	sw	a1,16(sp)
   21040:	00f12a23          	sw	a5,20(sp)
   21044:	00012e23          	sw	zero,28(sp)
   21048:	00012c23          	sw	zero,24(sp)
   2104c:	7fe6f693          	andi	a3,a3,2046
   21050:	00050913          	mv	s2,a0
   21054:	00058413          	mv	s0,a1
   21058:	01f65493          	srli	s1,a2,0x1f
   2105c:	08068263          	beqz	a3,210e0 <__extenddftf2+0xcc>
   21060:	000046b7          	lui	a3,0x4
   21064:	c0068693          	addi	a3,a3,-1024 # 3c00 <exit-0xc494>
   21068:	00d70733          	add	a4,a4,a3
   2106c:	0047d693          	srli	a3,a5,0x4
   21070:	00d12e23          	sw	a3,28(sp)
   21074:	01c79793          	slli	a5,a5,0x1c
   21078:	0045d693          	srli	a3,a1,0x4
   2107c:	00d7e7b3          	or	a5,a5,a3
   21080:	01c59413          	slli	s0,a1,0x1c
   21084:	00f12c23          	sw	a5,24(sp)
   21088:	00812a23          	sw	s0,20(sp)
   2108c:	00012823          	sw	zero,16(sp)
   21090:	01c12783          	lw	a5,28(sp)
   21094:	00f49493          	slli	s1,s1,0xf
   21098:	00e4e4b3          	or	s1,s1,a4
   2109c:	00f11623          	sh	a5,12(sp)
   210a0:	01012783          	lw	a5,16(sp)
   210a4:	00911723          	sh	s1,14(sp)
   210a8:	02c12083          	lw	ra,44(sp)
   210ac:	00f92023          	sw	a5,0(s2)
   210b0:	01412783          	lw	a5,20(sp)
   210b4:	02812403          	lw	s0,40(sp)
   210b8:	02412483          	lw	s1,36(sp)
   210bc:	00f92223          	sw	a5,4(s2)
   210c0:	01812783          	lw	a5,24(sp)
   210c4:	00090513          	mv	a0,s2
   210c8:	00f92423          	sw	a5,8(s2)
   210cc:	00c12783          	lw	a5,12(sp)
   210d0:	00f92623          	sw	a5,12(s2)
   210d4:	02012903          	lw	s2,32(sp)
   210d8:	03010113          	addi	sp,sp,48
   210dc:	00008067          	ret
   210e0:	00b7e533          	or	a0,a5,a1
   210e4:	0e071e63          	bnez	a4,211e0 <__extenddftf2+0x1cc>
   210e8:	fa0504e3          	beqz	a0,21090 <__extenddftf2+0x7c>
   210ec:	04078e63          	beqz	a5,21148 <__extenddftf2+0x134>
   210f0:	00078513          	mv	a0,a5
   210f4:	200000ef          	jal	212f4 <__clzsi2>
   210f8:	03150693          	addi	a3,a0,49
   210fc:	4056d713          	srai	a4,a3,0x5
   21100:	01f6f693          	andi	a3,a3,31
   21104:	40e007b3          	neg	a5,a4
   21108:	04068663          	beqz	a3,21154 <__extenddftf2+0x140>
   2110c:	00279793          	slli	a5,a5,0x2
   21110:	00c78613          	addi	a2,a5,12
   21114:	02000813          	li	a6,32
   21118:	01010313          	addi	t1,sp,16
   2111c:	40d80833          	sub	a6,a6,a3
   21120:	00c30633          	add	a2,t1,a2
   21124:	40f007b3          	neg	a5,a5
   21128:	08c31a63          	bne	t1,a2,211bc <__extenddftf2+0x1a8>
   2112c:	fff70793          	addi	a5,a4,-1
   21130:	00271713          	slli	a4,a4,0x2
   21134:	02070713          	addi	a4,a4,32
   21138:	00270733          	add	a4,a4,sp
   2113c:	00d416b3          	sll	a3,s0,a3
   21140:	fed72823          	sw	a3,-16(a4)
   21144:	0380006f          	j	2117c <__extenddftf2+0x168>
   21148:	1ac000ef          	jal	212f4 <__clzsi2>
   2114c:	02050513          	addi	a0,a0,32
   21150:	fa9ff06f          	j	210f8 <__extenddftf2+0xe4>
   21154:	01c10693          	addi	a3,sp,28
   21158:	00279793          	slli	a5,a5,0x2
   2115c:	00300613          	li	a2,3
   21160:	00f685b3          	add	a1,a3,a5
   21164:	0005a583          	lw	a1,0(a1)
   21168:	fff60613          	addi	a2,a2,-1
   2116c:	ffc68693          	addi	a3,a3,-4
   21170:	00b6a223          	sw	a1,4(a3)
   21174:	fee656e3          	bge	a2,a4,21160 <__extenddftf2+0x14c>
   21178:	fff70793          	addi	a5,a4,-1
   2117c:	00178793          	addi	a5,a5,1
   21180:	00279793          	slli	a5,a5,0x2
   21184:	00800693          	li	a3,8
   21188:	01010713          	addi	a4,sp,16
   2118c:	00d7ea63          	bltu	a5,a3,211a0 <__extenddftf2+0x18c>
   21190:	00012823          	sw	zero,16(sp)
   21194:	00072223          	sw	zero,4(a4)
   21198:	ff878793          	addi	a5,a5,-8
   2119c:	01810713          	addi	a4,sp,24
   211a0:	00400693          	li	a3,4
   211a4:	00d7e463          	bltu	a5,a3,211ac <__extenddftf2+0x198>
   211a8:	00072023          	sw	zero,0(a4)
   211ac:	00004737          	lui	a4,0x4
   211b0:	c0c70713          	addi	a4,a4,-1012 # 3c0c <exit-0xc488>
   211b4:	40a70733          	sub	a4,a4,a0
   211b8:	ed9ff06f          	j	21090 <__extenddftf2+0x7c>
   211bc:	00062583          	lw	a1,0(a2)
   211c0:	ffc62883          	lw	a7,-4(a2)
   211c4:	00f60e33          	add	t3,a2,a5
   211c8:	00d595b3          	sll	a1,a1,a3
   211cc:	0108d8b3          	srl	a7,a7,a6
   211d0:	0115e5b3          	or	a1,a1,a7
   211d4:	00be2023          	sw	a1,0(t3)
   211d8:	ffc60613          	addi	a2,a2,-4
   211dc:	f4dff06f          	j	21128 <__extenddftf2+0x114>
   211e0:	02050863          	beqz	a0,21210 <__extenddftf2+0x1fc>
   211e4:	01c79713          	slli	a4,a5,0x1c
   211e8:	0045d693          	srli	a3,a1,0x4
   211ec:	00d76733          	or	a4,a4,a3
   211f0:	00e12c23          	sw	a4,24(sp)
   211f4:	0047d793          	srli	a5,a5,0x4
   211f8:	00008737          	lui	a4,0x8
   211fc:	01c59413          	slli	s0,a1,0x1c
   21200:	00e7e7b3          	or	a5,a5,a4
   21204:	00812a23          	sw	s0,20(sp)
   21208:	00012823          	sw	zero,16(sp)
   2120c:	00f12e23          	sw	a5,28(sp)
   21210:	00008737          	lui	a4,0x8
   21214:	fff70713          	addi	a4,a4,-1 # 7fff <exit-0x8095>
   21218:	e79ff06f          	j	21090 <__extenddftf2+0x7c>

0002121c <__mulsi3>:
   2121c:	00050613          	mv	a2,a0
   21220:	00000513          	li	a0,0
   21224:	0015f693          	andi	a3,a1,1
   21228:	00068463          	beqz	a3,21230 <__mulsi3+0x14>
   2122c:	00c50533          	add	a0,a0,a2
   21230:	0015d593          	srli	a1,a1,0x1
   21234:	00161613          	slli	a2,a2,0x1
   21238:	fe0596e3          	bnez	a1,21224 <__mulsi3+0x8>
   2123c:	00008067          	ret

00021240 <__divsi3>:
   21240:	06054063          	bltz	a0,212a0 <__umodsi3+0x10>
   21244:	0605c663          	bltz	a1,212b0 <__umodsi3+0x20>

00021248 <__hidden___udivsi3>:
   21248:	00058613          	mv	a2,a1
   2124c:	00050593          	mv	a1,a0
   21250:	fff00513          	li	a0,-1
   21254:	02060c63          	beqz	a2,2128c <__hidden___udivsi3+0x44>
   21258:	00100693          	li	a3,1
   2125c:	00b67a63          	bgeu	a2,a1,21270 <__hidden___udivsi3+0x28>
   21260:	00c05863          	blez	a2,21270 <__hidden___udivsi3+0x28>
   21264:	00161613          	slli	a2,a2,0x1
   21268:	00169693          	slli	a3,a3,0x1
   2126c:	feb66ae3          	bltu	a2,a1,21260 <__hidden___udivsi3+0x18>
   21270:	00000513          	li	a0,0
   21274:	00c5e663          	bltu	a1,a2,21280 <__hidden___udivsi3+0x38>
   21278:	40c585b3          	sub	a1,a1,a2
   2127c:	00d56533          	or	a0,a0,a3
   21280:	0016d693          	srli	a3,a3,0x1
   21284:	00165613          	srli	a2,a2,0x1
   21288:	fe0696e3          	bnez	a3,21274 <__hidden___udivsi3+0x2c>
   2128c:	00008067          	ret

00021290 <__umodsi3>:
   21290:	00008293          	mv	t0,ra
   21294:	fb5ff0ef          	jal	21248 <__hidden___udivsi3>
   21298:	00058513          	mv	a0,a1
   2129c:	00028067          	jr	t0
   212a0:	40a00533          	neg	a0,a0
   212a4:	00b04863          	bgtz	a1,212b4 <__umodsi3+0x24>
   212a8:	40b005b3          	neg	a1,a1
   212ac:	f9dff06f          	j	21248 <__hidden___udivsi3>
   212b0:	40b005b3          	neg	a1,a1
   212b4:	00008293          	mv	t0,ra
   212b8:	f91ff0ef          	jal	21248 <__hidden___udivsi3>
   212bc:	40a00533          	neg	a0,a0
   212c0:	00028067          	jr	t0

000212c4 <__modsi3>:
   212c4:	00008293          	mv	t0,ra
   212c8:	0005ca63          	bltz	a1,212dc <__modsi3+0x18>
   212cc:	00054c63          	bltz	a0,212e4 <__modsi3+0x20>
   212d0:	f79ff0ef          	jal	21248 <__hidden___udivsi3>
   212d4:	00058513          	mv	a0,a1
   212d8:	00028067          	jr	t0
   212dc:	40b005b3          	neg	a1,a1
   212e0:	fe0558e3          	bgez	a0,212d0 <__modsi3+0xc>
   212e4:	40a00533          	neg	a0,a0
   212e8:	f61ff0ef          	jal	21248 <__hidden___udivsi3>
   212ec:	40b00533          	neg	a0,a1
   212f0:	00028067          	jr	t0

000212f4 <__clzsi2>:
   212f4:	000107b7          	lui	a5,0x10
   212f8:	02f57a63          	bgeu	a0,a5,2132c <__clzsi2+0x38>
   212fc:	10053793          	sltiu	a5,a0,256
   21300:	0017b793          	seqz	a5,a5
   21304:	00379793          	slli	a5,a5,0x3
   21308:	00022737          	lui	a4,0x22
   2130c:	02000693          	li	a3,32
   21310:	40f686b3          	sub	a3,a3,a5
   21314:	00f55533          	srl	a0,a0,a5
   21318:	ab470793          	addi	a5,a4,-1356 # 21ab4 <__clz_tab>
   2131c:	00a787b3          	add	a5,a5,a0
   21320:	0007c503          	lbu	a0,0(a5) # 10000 <exit-0x94>
   21324:	40a68533          	sub	a0,a3,a0
   21328:	00008067          	ret
   2132c:	01000737          	lui	a4,0x1000
   21330:	01800793          	li	a5,24
   21334:	fce57ae3          	bgeu	a0,a4,21308 <__clzsi2+0x14>
   21338:	01000793          	li	a5,16
   2133c:	fcdff06f          	j	21308 <__clzsi2+0x14>
