
./program/a.out:     file format elf32-littleriscv


Disassembly of section .text:

00010094 <exit>:
   10094:	ff010113          	addi	sp,sp,-16
   10098:	00000593          	li	a1,0
   1009c:	00812423          	sw	s0,8(sp)
   100a0:	00112623          	sw	ra,12(sp)
   100a4:	00050413          	mv	s0,a0
   100a8:	301000ef          	jal	ra,10ba8 <__call_exitprocs>
   100ac:	f181a783          	lw	a5,-232(gp) # 239e0 <__stdio_exit_handler>
   100b0:	00078463          	beqz	a5,100b8 <exit+0x24>
   100b4:	000780e7          	jalr	a5
   100b8:	00040513          	mv	a0,s0
   100bc:	08d0b0ef          	jal	ra,1b948 <_exit>

000100c0 <register_fini>:
   100c0:	00000793          	li	a5,0
   100c4:	00078863          	beqz	a5,100d4 <register_fini+0x14>
   100c8:	00016537          	lui	a0,0x16
   100cc:	67c50513          	addi	a0,a0,1660 # 1667c <__libc_fini_array>
   100d0:	40d0006f          	j	10cdc <atexit>
   100d4:	00008067          	ret

000100d8 <_start>:
   100d8:	00014197          	auipc	gp,0x14
   100dc:	9f018193          	addi	gp,gp,-1552 # 23ac8 <__global_pointer$>
   100e0:	f1818513          	addi	a0,gp,-232 # 239e0 <__stdio_exit_handler>
   100e4:	24418613          	addi	a2,gp,580 # 23d0c <__BSS_END__>
   100e8:	40a60633          	sub	a2,a2,a0
   100ec:	00000593          	li	a1,0
   100f0:	1dd000ef          	jal	ra,10acc <memset>
   100f4:	00001517          	auipc	a0,0x1
   100f8:	be850513          	addi	a0,a0,-1048 # 10cdc <atexit>
   100fc:	00050863          	beqz	a0,1010c <_start+0x34>
   10100:	00006517          	auipc	a0,0x6
   10104:	57c50513          	addi	a0,a0,1404 # 1667c <__libc_fini_array>
   10108:	3d5000ef          	jal	ra,10cdc <atexit>
   1010c:	125000ef          	jal	ra,10a30 <__libc_init_array>
   10110:	00012503          	lw	a0,0(sp)
   10114:	00410593          	addi	a1,sp,4
   10118:	00000613          	li	a2,0
   1011c:	06c000ef          	jal	ra,10188 <main>
   10120:	f75ff06f          	j	10094 <exit>

00010124 <__do_global_dtors_aux>:
   10124:	ff010113          	addi	sp,sp,-16
   10128:	00812423          	sw	s0,8(sp)
   1012c:	f381c783          	lbu	a5,-200(gp) # 23a00 <completed.1>
   10130:	00112623          	sw	ra,12(sp)
   10134:	02079263          	bnez	a5,10158 <__do_global_dtors_aux+0x34>
   10138:	00000793          	li	a5,0
   1013c:	00078a63          	beqz	a5,10150 <__do_global_dtors_aux+0x2c>
   10140:	00023537          	lui	a0,0x23
   10144:	20850513          	addi	a0,a0,520 # 23208 <__EH_FRAME_BEGIN__>
   10148:	00000097          	auipc	ra,0x0
   1014c:	000000e7          	jalr	zero # 0 <exit-0x10094>
   10150:	00100793          	li	a5,1
   10154:	f2f18c23          	sb	a5,-200(gp) # 23a00 <completed.1>
   10158:	00c12083          	lw	ra,12(sp)
   1015c:	00812403          	lw	s0,8(sp)
   10160:	01010113          	addi	sp,sp,16
   10164:	00008067          	ret

00010168 <frame_dummy>:
   10168:	00000793          	li	a5,0
   1016c:	00078c63          	beqz	a5,10184 <frame_dummy+0x1c>
   10170:	00023537          	lui	a0,0x23
   10174:	f3c18593          	addi	a1,gp,-196 # 23a04 <object.0>
   10178:	20850513          	addi	a0,a0,520 # 23208 <__EH_FRAME_BEGIN__>
   1017c:	00000317          	auipc	t1,0x0
   10180:	00000067          	jr	zero # 0 <exit-0x10094>
   10184:	00008067          	ret

00010188 <main>:
   10188:	fe010113          	addi	sp,sp,-32
   1018c:	00112e23          	sw	ra,28(sp)
   10190:	00812c23          	sw	s0,24(sp)
   10194:	02010413          	addi	s0,sp,32
   10198:	fe042623          	sw	zero,-20(s0)
   1019c:	fec42583          	lw	a1,-20(s0)
   101a0:	000227b7          	lui	a5,0x22
   101a4:	9c078513          	addi	a0,a5,-1600 # 219c0 <__clzsi2+0x4c>
   101a8:	478000ef          	jal	ra,10620 <printf>
   101ac:	00000793          	li	a5,0
   101b0:	00078513          	mv	a0,a5
   101b4:	01c12083          	lw	ra,28(sp)
   101b8:	01812403          	lw	s0,24(sp)
   101bc:	02010113          	addi	sp,sp,32
   101c0:	00008067          	ret

000101c4 <__fp_lock>:
   101c4:	00000513          	li	a0,0
   101c8:	00008067          	ret

000101cc <stdio_exit_handler>:
   101cc:	00023637          	lui	a2,0x23
   101d0:	000155b7          	lui	a1,0x15
   101d4:	00023537          	lui	a0,0x23
   101d8:	2c860613          	addi	a2,a2,712 # 232c8 <__sglue>
   101dc:	75c58593          	addi	a1,a1,1884 # 1575c <_fclose_r>
   101e0:	2d850513          	addi	a0,a0,728 # 232d8 <_impure_data>
   101e4:	3480006f          	j	1052c <_fwalk_sglue>

000101e8 <cleanup_stdio>:
   101e8:	00452583          	lw	a1,4(a0)
   101ec:	ff010113          	addi	sp,sp,-16
   101f0:	00812423          	sw	s0,8(sp)
   101f4:	00112623          	sw	ra,12(sp)
   101f8:	f5418793          	addi	a5,gp,-172 # 23a1c <__sf>
   101fc:	00050413          	mv	s0,a0
   10200:	00f58463          	beq	a1,a5,10208 <cleanup_stdio+0x20>
   10204:	558050ef          	jal	ra,1575c <_fclose_r>
   10208:	00842583          	lw	a1,8(s0)
   1020c:	fbc18793          	addi	a5,gp,-68 # 23a84 <__sf+0x68>
   10210:	00f58663          	beq	a1,a5,1021c <cleanup_stdio+0x34>
   10214:	00040513          	mv	a0,s0
   10218:	544050ef          	jal	ra,1575c <_fclose_r>
   1021c:	00c42583          	lw	a1,12(s0)
   10220:	02418793          	addi	a5,gp,36 # 23aec <__global_pointer$+0x24>
   10224:	00f58c63          	beq	a1,a5,1023c <cleanup_stdio+0x54>
   10228:	00040513          	mv	a0,s0
   1022c:	00812403          	lw	s0,8(sp)
   10230:	00c12083          	lw	ra,12(sp)
   10234:	01010113          	addi	sp,sp,16
   10238:	5240506f          	j	1575c <_fclose_r>
   1023c:	00c12083          	lw	ra,12(sp)
   10240:	00812403          	lw	s0,8(sp)
   10244:	01010113          	addi	sp,sp,16
   10248:	00008067          	ret

0001024c <__fp_unlock>:
   1024c:	00000513          	li	a0,0
   10250:	00008067          	ret

00010254 <global_stdio_init.part.0>:
   10254:	fe010113          	addi	sp,sp,-32
   10258:	000107b7          	lui	a5,0x10
   1025c:	00812c23          	sw	s0,24(sp)
   10260:	1cc78793          	addi	a5,a5,460 # 101cc <stdio_exit_handler>
   10264:	f5418413          	addi	s0,gp,-172 # 23a1c <__sf>
   10268:	00112e23          	sw	ra,28(sp)
   1026c:	00912a23          	sw	s1,20(sp)
   10270:	01212823          	sw	s2,16(sp)
   10274:	01312623          	sw	s3,12(sp)
   10278:	01412423          	sw	s4,8(sp)
   1027c:	f0f1ac23          	sw	a5,-232(gp) # 239e0 <__stdio_exit_handler>
   10280:	00800613          	li	a2,8
   10284:	00400793          	li	a5,4
   10288:	00000593          	li	a1,0
   1028c:	fb018513          	addi	a0,gp,-80 # 23a78 <__sf+0x5c>
   10290:	00f42623          	sw	a5,12(s0)
   10294:	00042023          	sw	zero,0(s0)
   10298:	00042223          	sw	zero,4(s0)
   1029c:	00042423          	sw	zero,8(s0)
   102a0:	06042223          	sw	zero,100(s0)
   102a4:	00042823          	sw	zero,16(s0)
   102a8:	00042a23          	sw	zero,20(s0)
   102ac:	00042c23          	sw	zero,24(s0)
   102b0:	01d000ef          	jal	ra,10acc <memset>
   102b4:	000107b7          	lui	a5,0x10
   102b8:	00010a37          	lui	s4,0x10
   102bc:	000109b7          	lui	s3,0x10
   102c0:	00010937          	lui	s2,0x10
   102c4:	000104b7          	lui	s1,0x10
   102c8:	66ca0a13          	addi	s4,s4,1644 # 1066c <__sread>
   102cc:	6d098993          	addi	s3,s3,1744 # 106d0 <__swrite>
   102d0:	75890913          	addi	s2,s2,1880 # 10758 <__sseek>
   102d4:	7d048493          	addi	s1,s1,2000 # 107d0 <__sclose>
   102d8:	00978793          	addi	a5,a5,9 # 10009 <exit-0x8b>
   102dc:	00800613          	li	a2,8
   102e0:	00000593          	li	a1,0
   102e4:	01818513          	addi	a0,gp,24 # 23ae0 <__global_pointer$+0x18>
   102e8:	03442023          	sw	s4,32(s0)
   102ec:	03342223          	sw	s3,36(s0)
   102f0:	03242423          	sw	s2,40(s0)
   102f4:	02942623          	sw	s1,44(s0)
   102f8:	06f42a23          	sw	a5,116(s0)
   102fc:	00842e23          	sw	s0,28(s0)
   10300:	06042423          	sw	zero,104(s0)
   10304:	06042623          	sw	zero,108(s0)
   10308:	06042823          	sw	zero,112(s0)
   1030c:	0c042623          	sw	zero,204(s0)
   10310:	06042c23          	sw	zero,120(s0)
   10314:	06042e23          	sw	zero,124(s0)
   10318:	08042023          	sw	zero,128(s0)
   1031c:	7b0000ef          	jal	ra,10acc <memset>
   10320:	000207b7          	lui	a5,0x20
   10324:	01278793          	addi	a5,a5,18 # 20012 <__subtf3+0x136>
   10328:	fbc18713          	addi	a4,gp,-68 # 23a84 <__sf+0x68>
   1032c:	00800613          	li	a2,8
   10330:	00000593          	li	a1,0
   10334:	08018513          	addi	a0,gp,128 # 23b48 <__global_pointer$+0x80>
   10338:	09442423          	sw	s4,136(s0)
   1033c:	09342623          	sw	s3,140(s0)
   10340:	09242823          	sw	s2,144(s0)
   10344:	08942a23          	sw	s1,148(s0)
   10348:	0cf42e23          	sw	a5,220(s0)
   1034c:	08e42223          	sw	a4,132(s0)
   10350:	0c042823          	sw	zero,208(s0)
   10354:	0c042a23          	sw	zero,212(s0)
   10358:	0c042c23          	sw	zero,216(s0)
   1035c:	12042a23          	sw	zero,308(s0)
   10360:	0e042023          	sw	zero,224(s0)
   10364:	0e042223          	sw	zero,228(s0)
   10368:	0e042423          	sw	zero,232(s0)
   1036c:	760000ef          	jal	ra,10acc <memset>
   10370:	02418793          	addi	a5,gp,36 # 23aec <__global_pointer$+0x24>
   10374:	0f442823          	sw	s4,240(s0)
   10378:	0f342a23          	sw	s3,244(s0)
   1037c:	0f242c23          	sw	s2,248(s0)
   10380:	0e942e23          	sw	s1,252(s0)
   10384:	01c12083          	lw	ra,28(sp)
   10388:	0ef42623          	sw	a5,236(s0)
   1038c:	01812403          	lw	s0,24(sp)
   10390:	01412483          	lw	s1,20(sp)
   10394:	01012903          	lw	s2,16(sp)
   10398:	00c12983          	lw	s3,12(sp)
   1039c:	00812a03          	lw	s4,8(sp)
   103a0:	02010113          	addi	sp,sp,32
   103a4:	00008067          	ret

000103a8 <__sfp>:
   103a8:	f181a783          	lw	a5,-232(gp) # 239e0 <__stdio_exit_handler>
   103ac:	fe010113          	addi	sp,sp,-32
   103b0:	01312623          	sw	s3,12(sp)
   103b4:	00112e23          	sw	ra,28(sp)
   103b8:	00812c23          	sw	s0,24(sp)
   103bc:	00912a23          	sw	s1,20(sp)
   103c0:	01212823          	sw	s2,16(sp)
   103c4:	00050993          	mv	s3,a0
   103c8:	0e078863          	beqz	a5,104b8 <__sfp+0x110>
   103cc:	00023937          	lui	s2,0x23
   103d0:	2c890913          	addi	s2,s2,712 # 232c8 <__sglue>
   103d4:	fff00493          	li	s1,-1
   103d8:	00492783          	lw	a5,4(s2)
   103dc:	00892403          	lw	s0,8(s2)
   103e0:	fff78793          	addi	a5,a5,-1
   103e4:	0007d863          	bgez	a5,103f4 <__sfp+0x4c>
   103e8:	0800006f          	j	10468 <__sfp+0xc0>
   103ec:	06840413          	addi	s0,s0,104
   103f0:	06978c63          	beq	a5,s1,10468 <__sfp+0xc0>
   103f4:	00c41703          	lh	a4,12(s0)
   103f8:	fff78793          	addi	a5,a5,-1
   103fc:	fe0718e3          	bnez	a4,103ec <__sfp+0x44>
   10400:	ffff07b7          	lui	a5,0xffff0
   10404:	00178793          	addi	a5,a5,1 # ffff0001 <__BSS_END__+0xfffcc2f5>
   10408:	00f42623          	sw	a5,12(s0)
   1040c:	06042223          	sw	zero,100(s0)
   10410:	00042023          	sw	zero,0(s0)
   10414:	00042423          	sw	zero,8(s0)
   10418:	00042223          	sw	zero,4(s0)
   1041c:	00042823          	sw	zero,16(s0)
   10420:	00042a23          	sw	zero,20(s0)
   10424:	00042c23          	sw	zero,24(s0)
   10428:	00800613          	li	a2,8
   1042c:	00000593          	li	a1,0
   10430:	05c40513          	addi	a0,s0,92
   10434:	698000ef          	jal	ra,10acc <memset>
   10438:	02042823          	sw	zero,48(s0)
   1043c:	02042a23          	sw	zero,52(s0)
   10440:	04042223          	sw	zero,68(s0)
   10444:	04042423          	sw	zero,72(s0)
   10448:	01c12083          	lw	ra,28(sp)
   1044c:	00040513          	mv	a0,s0
   10450:	01812403          	lw	s0,24(sp)
   10454:	01412483          	lw	s1,20(sp)
   10458:	01012903          	lw	s2,16(sp)
   1045c:	00c12983          	lw	s3,12(sp)
   10460:	02010113          	addi	sp,sp,32
   10464:	00008067          	ret
   10468:	00092403          	lw	s0,0(s2)
   1046c:	00040663          	beqz	s0,10478 <__sfp+0xd0>
   10470:	00040913          	mv	s2,s0
   10474:	f65ff06f          	j	103d8 <__sfp+0x30>
   10478:	1ac00593          	li	a1,428
   1047c:	00098513          	mv	a0,s3
   10480:	4ad000ef          	jal	ra,1112c <_malloc_r>
   10484:	00050413          	mv	s0,a0
   10488:	02050c63          	beqz	a0,104c0 <__sfp+0x118>
   1048c:	00c50513          	addi	a0,a0,12
   10490:	00400793          	li	a5,4
   10494:	00042023          	sw	zero,0(s0)
   10498:	00f42223          	sw	a5,4(s0)
   1049c:	00a42423          	sw	a0,8(s0)
   104a0:	1a000613          	li	a2,416
   104a4:	00000593          	li	a1,0
   104a8:	624000ef          	jal	ra,10acc <memset>
   104ac:	00892023          	sw	s0,0(s2)
   104b0:	00040913          	mv	s2,s0
   104b4:	f25ff06f          	j	103d8 <__sfp+0x30>
   104b8:	d9dff0ef          	jal	ra,10254 <global_stdio_init.part.0>
   104bc:	f11ff06f          	j	103cc <__sfp+0x24>
   104c0:	00092023          	sw	zero,0(s2)
   104c4:	00c00793          	li	a5,12
   104c8:	00f9a023          	sw	a5,0(s3)
   104cc:	f7dff06f          	j	10448 <__sfp+0xa0>

000104d0 <__sinit>:
   104d0:	03452783          	lw	a5,52(a0)
   104d4:	00078463          	beqz	a5,104dc <__sinit+0xc>
   104d8:	00008067          	ret
   104dc:	f181a703          	lw	a4,-232(gp) # 239e0 <__stdio_exit_handler>
   104e0:	000107b7          	lui	a5,0x10
   104e4:	1e878793          	addi	a5,a5,488 # 101e8 <cleanup_stdio>
   104e8:	02f52a23          	sw	a5,52(a0)
   104ec:	fe0716e3          	bnez	a4,104d8 <__sinit+0x8>
   104f0:	d65ff06f          	j	10254 <global_stdio_init.part.0>

000104f4 <__sfp_lock_acquire>:
   104f4:	00008067          	ret

000104f8 <__sfp_lock_release>:
   104f8:	00008067          	ret

000104fc <__fp_lock_all>:
   104fc:	00023637          	lui	a2,0x23
   10500:	000105b7          	lui	a1,0x10
   10504:	2c860613          	addi	a2,a2,712 # 232c8 <__sglue>
   10508:	1c458593          	addi	a1,a1,452 # 101c4 <__fp_lock>
   1050c:	00000513          	li	a0,0
   10510:	01c0006f          	j	1052c <_fwalk_sglue>

00010514 <__fp_unlock_all>:
   10514:	00023637          	lui	a2,0x23
   10518:	000105b7          	lui	a1,0x10
   1051c:	2c860613          	addi	a2,a2,712 # 232c8 <__sglue>
   10520:	24c58593          	addi	a1,a1,588 # 1024c <__fp_unlock>
   10524:	00000513          	li	a0,0
   10528:	0040006f          	j	1052c <_fwalk_sglue>

0001052c <_fwalk_sglue>:
   1052c:	fd010113          	addi	sp,sp,-48
   10530:	03212023          	sw	s2,32(sp)
   10534:	01312e23          	sw	s3,28(sp)
   10538:	01412c23          	sw	s4,24(sp)
   1053c:	01512a23          	sw	s5,20(sp)
   10540:	01612823          	sw	s6,16(sp)
   10544:	01712623          	sw	s7,12(sp)
   10548:	02112623          	sw	ra,44(sp)
   1054c:	02812423          	sw	s0,40(sp)
   10550:	02912223          	sw	s1,36(sp)
   10554:	00050b13          	mv	s6,a0
   10558:	00058b93          	mv	s7,a1
   1055c:	00060a93          	mv	s5,a2
   10560:	00000a13          	li	s4,0
   10564:	00100993          	li	s3,1
   10568:	fff00913          	li	s2,-1
   1056c:	004aa483          	lw	s1,4(s5)
   10570:	008aa403          	lw	s0,8(s5)
   10574:	fff48493          	addi	s1,s1,-1
   10578:	0204c863          	bltz	s1,105a8 <_fwalk_sglue+0x7c>
   1057c:	00c45783          	lhu	a5,12(s0)
   10580:	00f9fe63          	bgeu	s3,a5,1059c <_fwalk_sglue+0x70>
   10584:	00e41783          	lh	a5,14(s0)
   10588:	00040593          	mv	a1,s0
   1058c:	000b0513          	mv	a0,s6
   10590:	01278663          	beq	a5,s2,1059c <_fwalk_sglue+0x70>
   10594:	000b80e7          	jalr	s7
   10598:	00aa6a33          	or	s4,s4,a0
   1059c:	fff48493          	addi	s1,s1,-1
   105a0:	06840413          	addi	s0,s0,104
   105a4:	fd249ce3          	bne	s1,s2,1057c <_fwalk_sglue+0x50>
   105a8:	000aaa83          	lw	s5,0(s5)
   105ac:	fc0a90e3          	bnez	s5,1056c <_fwalk_sglue+0x40>
   105b0:	02c12083          	lw	ra,44(sp)
   105b4:	02812403          	lw	s0,40(sp)
   105b8:	02412483          	lw	s1,36(sp)
   105bc:	02012903          	lw	s2,32(sp)
   105c0:	01c12983          	lw	s3,28(sp)
   105c4:	01412a83          	lw	s5,20(sp)
   105c8:	01012b03          	lw	s6,16(sp)
   105cc:	00c12b83          	lw	s7,12(sp)
   105d0:	000a0513          	mv	a0,s4
   105d4:	01812a03          	lw	s4,24(sp)
   105d8:	03010113          	addi	sp,sp,48
   105dc:	00008067          	ret

000105e0 <_printf_r>:
   105e0:	fc010113          	addi	sp,sp,-64
   105e4:	02c12423          	sw	a2,40(sp)
   105e8:	02d12623          	sw	a3,44(sp)
   105ec:	02e12823          	sw	a4,48(sp)
   105f0:	02f12a23          	sw	a5,52(sp)
   105f4:	03012c23          	sw	a6,56(sp)
   105f8:	03112e23          	sw	a7,60(sp)
   105fc:	00058613          	mv	a2,a1
   10600:	00852583          	lw	a1,8(a0)
   10604:	02810693          	addi	a3,sp,40
   10608:	00112e23          	sw	ra,28(sp)
   1060c:	00d12623          	sw	a3,12(sp)
   10610:	2e0010ef          	jal	ra,118f0 <_vfprintf_r>
   10614:	01c12083          	lw	ra,28(sp)
   10618:	04010113          	addi	sp,sp,64
   1061c:	00008067          	ret

00010620 <printf>:
   10620:	f0c1a303          	lw	t1,-244(gp) # 239d4 <_impure_ptr>
   10624:	fc010113          	addi	sp,sp,-64
   10628:	02c12423          	sw	a2,40(sp)
   1062c:	02d12623          	sw	a3,44(sp)
   10630:	02b12223          	sw	a1,36(sp)
   10634:	02e12823          	sw	a4,48(sp)
   10638:	02f12a23          	sw	a5,52(sp)
   1063c:	03012c23          	sw	a6,56(sp)
   10640:	03112e23          	sw	a7,60(sp)
   10644:	00832583          	lw	a1,8(t1) # 10184 <frame_dummy+0x1c>
   10648:	02410693          	addi	a3,sp,36
   1064c:	00050613          	mv	a2,a0
   10650:	00030513          	mv	a0,t1
   10654:	00112e23          	sw	ra,28(sp)
   10658:	00d12623          	sw	a3,12(sp)
   1065c:	294010ef          	jal	ra,118f0 <_vfprintf_r>
   10660:	01c12083          	lw	ra,28(sp)
   10664:	04010113          	addi	sp,sp,64
   10668:	00008067          	ret

0001066c <__sread>:
   1066c:	ff010113          	addi	sp,sp,-16
   10670:	00812423          	sw	s0,8(sp)
   10674:	00058413          	mv	s0,a1
   10678:	00e59583          	lh	a1,14(a1)
   1067c:	00112623          	sw	ra,12(sp)
   10680:	2e0000ef          	jal	ra,10960 <_read_r>
   10684:	02054063          	bltz	a0,106a4 <__sread+0x38>
   10688:	05042783          	lw	a5,80(s0)
   1068c:	00c12083          	lw	ra,12(sp)
   10690:	00a787b3          	add	a5,a5,a0
   10694:	04f42823          	sw	a5,80(s0)
   10698:	00812403          	lw	s0,8(sp)
   1069c:	01010113          	addi	sp,sp,16
   106a0:	00008067          	ret
   106a4:	00c45783          	lhu	a5,12(s0)
   106a8:	fffff737          	lui	a4,0xfffff
   106ac:	fff70713          	addi	a4,a4,-1 # ffffefff <__BSS_END__+0xfffdb2f3>
   106b0:	00e7f7b3          	and	a5,a5,a4
   106b4:	00c12083          	lw	ra,12(sp)
   106b8:	00f41623          	sh	a5,12(s0)
   106bc:	00812403          	lw	s0,8(sp)
   106c0:	01010113          	addi	sp,sp,16
   106c4:	00008067          	ret

000106c8 <__seofread>:
   106c8:	00000513          	li	a0,0
   106cc:	00008067          	ret

000106d0 <__swrite>:
   106d0:	00c59783          	lh	a5,12(a1)
   106d4:	fe010113          	addi	sp,sp,-32
   106d8:	00812c23          	sw	s0,24(sp)
   106dc:	00912a23          	sw	s1,20(sp)
   106e0:	01212823          	sw	s2,16(sp)
   106e4:	01312623          	sw	s3,12(sp)
   106e8:	00112e23          	sw	ra,28(sp)
   106ec:	1007f713          	andi	a4,a5,256
   106f0:	00058413          	mv	s0,a1
   106f4:	00050493          	mv	s1,a0
   106f8:	00060913          	mv	s2,a2
   106fc:	00068993          	mv	s3,a3
   10700:	04071063          	bnez	a4,10740 <__swrite+0x70>
   10704:	fffff737          	lui	a4,0xfffff
   10708:	fff70713          	addi	a4,a4,-1 # ffffefff <__BSS_END__+0xfffdb2f3>
   1070c:	00e7f7b3          	and	a5,a5,a4
   10710:	00e41583          	lh	a1,14(s0)
   10714:	00f41623          	sh	a5,12(s0)
   10718:	01812403          	lw	s0,24(sp)
   1071c:	01c12083          	lw	ra,28(sp)
   10720:	00098693          	mv	a3,s3
   10724:	00090613          	mv	a2,s2
   10728:	00c12983          	lw	s3,12(sp)
   1072c:	01012903          	lw	s2,16(sp)
   10730:	00048513          	mv	a0,s1
   10734:	01412483          	lw	s1,20(sp)
   10738:	02010113          	addi	sp,sp,32
   1073c:	28c0006f          	j	109c8 <_write_r>
   10740:	00e59583          	lh	a1,14(a1)
   10744:	00200693          	li	a3,2
   10748:	00000613          	li	a2,0
   1074c:	1ac000ef          	jal	ra,108f8 <_lseek_r>
   10750:	00c41783          	lh	a5,12(s0)
   10754:	fb1ff06f          	j	10704 <__swrite+0x34>

00010758 <__sseek>:
   10758:	ff010113          	addi	sp,sp,-16
   1075c:	00812423          	sw	s0,8(sp)
   10760:	00058413          	mv	s0,a1
   10764:	00e59583          	lh	a1,14(a1)
   10768:	00112623          	sw	ra,12(sp)
   1076c:	18c000ef          	jal	ra,108f8 <_lseek_r>
   10770:	fff00793          	li	a5,-1
   10774:	02f50863          	beq	a0,a5,107a4 <__sseek+0x4c>
   10778:	00c45783          	lhu	a5,12(s0)
   1077c:	00001737          	lui	a4,0x1
   10780:	00c12083          	lw	ra,12(sp)
   10784:	00e7e7b3          	or	a5,a5,a4
   10788:	01079793          	slli	a5,a5,0x10
   1078c:	4107d793          	srai	a5,a5,0x10
   10790:	04a42823          	sw	a0,80(s0)
   10794:	00f41623          	sh	a5,12(s0)
   10798:	00812403          	lw	s0,8(sp)
   1079c:	01010113          	addi	sp,sp,16
   107a0:	00008067          	ret
   107a4:	00c45783          	lhu	a5,12(s0)
   107a8:	fffff737          	lui	a4,0xfffff
   107ac:	fff70713          	addi	a4,a4,-1 # ffffefff <__BSS_END__+0xfffdb2f3>
   107b0:	00e7f7b3          	and	a5,a5,a4
   107b4:	01079793          	slli	a5,a5,0x10
   107b8:	4107d793          	srai	a5,a5,0x10
   107bc:	00c12083          	lw	ra,12(sp)
   107c0:	00f41623          	sh	a5,12(s0)
   107c4:	00812403          	lw	s0,8(sp)
   107c8:	01010113          	addi	sp,sp,16
   107cc:	00008067          	ret

000107d0 <__sclose>:
   107d0:	00e59583          	lh	a1,14(a1)
   107d4:	0040006f          	j	107d8 <_close_r>

000107d8 <_close_r>:
   107d8:	ff010113          	addi	sp,sp,-16
   107dc:	00812423          	sw	s0,8(sp)
   107e0:	00912223          	sw	s1,4(sp)
   107e4:	00050413          	mv	s0,a0
   107e8:	00058513          	mv	a0,a1
   107ec:	00112623          	sw	ra,12(sp)
   107f0:	f001ae23          	sw	zero,-228(gp) # 239e4 <errno>
   107f4:	1100b0ef          	jal	ra,1b904 <_close>
   107f8:	fff00793          	li	a5,-1
   107fc:	00f50c63          	beq	a0,a5,10814 <_close_r+0x3c>
   10800:	00c12083          	lw	ra,12(sp)
   10804:	00812403          	lw	s0,8(sp)
   10808:	00412483          	lw	s1,4(sp)
   1080c:	01010113          	addi	sp,sp,16
   10810:	00008067          	ret
   10814:	f1c1a783          	lw	a5,-228(gp) # 239e4 <errno>
   10818:	fe0784e3          	beqz	a5,10800 <_close_r+0x28>
   1081c:	00c12083          	lw	ra,12(sp)
   10820:	00f42023          	sw	a5,0(s0)
   10824:	00812403          	lw	s0,8(sp)
   10828:	00412483          	lw	s1,4(sp)
   1082c:	01010113          	addi	sp,sp,16
   10830:	00008067          	ret

00010834 <_reclaim_reent>:
   10834:	f0c1a783          	lw	a5,-244(gp) # 239d4 <_impure_ptr>
   10838:	0aa78e63          	beq	a5,a0,108f4 <_reclaim_reent+0xc0>
   1083c:	04452583          	lw	a1,68(a0)
   10840:	fe010113          	addi	sp,sp,-32
   10844:	00912a23          	sw	s1,20(sp)
   10848:	00112e23          	sw	ra,28(sp)
   1084c:	00050493          	mv	s1,a0
   10850:	04058c63          	beqz	a1,108a8 <_reclaim_reent+0x74>
   10854:	01212823          	sw	s2,16(sp)
   10858:	01312623          	sw	s3,12(sp)
   1085c:	00812c23          	sw	s0,24(sp)
   10860:	00000913          	li	s2,0
   10864:	08000993          	li	s3,128
   10868:	012587b3          	add	a5,a1,s2
   1086c:	0007a403          	lw	s0,0(a5)
   10870:	00040e63          	beqz	s0,1088c <_reclaim_reent+0x58>
   10874:	00040593          	mv	a1,s0
   10878:	00042403          	lw	s0,0(s0)
   1087c:	00048513          	mv	a0,s1
   10880:	5a8000ef          	jal	ra,10e28 <_free_r>
   10884:	fe0418e3          	bnez	s0,10874 <_reclaim_reent+0x40>
   10888:	0444a583          	lw	a1,68(s1)
   1088c:	00490913          	addi	s2,s2,4
   10890:	fd391ce3          	bne	s2,s3,10868 <_reclaim_reent+0x34>
   10894:	00048513          	mv	a0,s1
   10898:	590000ef          	jal	ra,10e28 <_free_r>
   1089c:	01812403          	lw	s0,24(sp)
   108a0:	01012903          	lw	s2,16(sp)
   108a4:	00c12983          	lw	s3,12(sp)
   108a8:	0384a583          	lw	a1,56(s1)
   108ac:	00058663          	beqz	a1,108b8 <_reclaim_reent+0x84>
   108b0:	00048513          	mv	a0,s1
   108b4:	574000ef          	jal	ra,10e28 <_free_r>
   108b8:	04c4a583          	lw	a1,76(s1)
   108bc:	00058663          	beqz	a1,108c8 <_reclaim_reent+0x94>
   108c0:	00048513          	mv	a0,s1
   108c4:	564000ef          	jal	ra,10e28 <_free_r>
   108c8:	0344a783          	lw	a5,52(s1)
   108cc:	00078c63          	beqz	a5,108e4 <_reclaim_reent+0xb0>
   108d0:	01c12083          	lw	ra,28(sp)
   108d4:	00048513          	mv	a0,s1
   108d8:	01412483          	lw	s1,20(sp)
   108dc:	02010113          	addi	sp,sp,32
   108e0:	00078067          	jr	a5
   108e4:	01c12083          	lw	ra,28(sp)
   108e8:	01412483          	lw	s1,20(sp)
   108ec:	02010113          	addi	sp,sp,32
   108f0:	00008067          	ret
   108f4:	00008067          	ret

000108f8 <_lseek_r>:
   108f8:	ff010113          	addi	sp,sp,-16
   108fc:	00058713          	mv	a4,a1
   10900:	00812423          	sw	s0,8(sp)
   10904:	00912223          	sw	s1,4(sp)
   10908:	00060593          	mv	a1,a2
   1090c:	00050413          	mv	s0,a0
   10910:	00068613          	mv	a2,a3
   10914:	00070513          	mv	a0,a4
   10918:	00112623          	sw	ra,12(sp)
   1091c:	f001ae23          	sw	zero,-228(gp) # 239e4 <errno>
   10920:	1240b0ef          	jal	ra,1ba44 <_lseek>
   10924:	fff00793          	li	a5,-1
   10928:	00f50c63          	beq	a0,a5,10940 <_lseek_r+0x48>
   1092c:	00c12083          	lw	ra,12(sp)
   10930:	00812403          	lw	s0,8(sp)
   10934:	00412483          	lw	s1,4(sp)
   10938:	01010113          	addi	sp,sp,16
   1093c:	00008067          	ret
   10940:	f1c1a783          	lw	a5,-228(gp) # 239e4 <errno>
   10944:	fe0784e3          	beqz	a5,1092c <_lseek_r+0x34>
   10948:	00c12083          	lw	ra,12(sp)
   1094c:	00f42023          	sw	a5,0(s0)
   10950:	00812403          	lw	s0,8(sp)
   10954:	00412483          	lw	s1,4(sp)
   10958:	01010113          	addi	sp,sp,16
   1095c:	00008067          	ret

00010960 <_read_r>:
   10960:	ff010113          	addi	sp,sp,-16
   10964:	00058713          	mv	a4,a1
   10968:	00812423          	sw	s0,8(sp)
   1096c:	00912223          	sw	s1,4(sp)
   10970:	00060593          	mv	a1,a2
   10974:	00050413          	mv	s0,a0
   10978:	00068613          	mv	a2,a3
   1097c:	00070513          	mv	a0,a4
   10980:	00112623          	sw	ra,12(sp)
   10984:	f001ae23          	sw	zero,-228(gp) # 239e4 <errno>
   10988:	1000b0ef          	jal	ra,1ba88 <_read>
   1098c:	fff00793          	li	a5,-1
   10990:	00f50c63          	beq	a0,a5,109a8 <_read_r+0x48>
   10994:	00c12083          	lw	ra,12(sp)
   10998:	00812403          	lw	s0,8(sp)
   1099c:	00412483          	lw	s1,4(sp)
   109a0:	01010113          	addi	sp,sp,16
   109a4:	00008067          	ret
   109a8:	f1c1a783          	lw	a5,-228(gp) # 239e4 <errno>
   109ac:	fe0784e3          	beqz	a5,10994 <_read_r+0x34>
   109b0:	00c12083          	lw	ra,12(sp)
   109b4:	00f42023          	sw	a5,0(s0)
   109b8:	00812403          	lw	s0,8(sp)
   109bc:	00412483          	lw	s1,4(sp)
   109c0:	01010113          	addi	sp,sp,16
   109c4:	00008067          	ret

000109c8 <_write_r>:
   109c8:	ff010113          	addi	sp,sp,-16
   109cc:	00058713          	mv	a4,a1
   109d0:	00812423          	sw	s0,8(sp)
   109d4:	00912223          	sw	s1,4(sp)
   109d8:	00060593          	mv	a1,a2
   109dc:	00050413          	mv	s0,a0
   109e0:	00068613          	mv	a2,a3
   109e4:	00070513          	mv	a0,a4
   109e8:	00112623          	sw	ra,12(sp)
   109ec:	f001ae23          	sw	zero,-228(gp) # 239e4 <errno>
   109f0:	1540b0ef          	jal	ra,1bb44 <_write>
   109f4:	fff00793          	li	a5,-1
   109f8:	00f50c63          	beq	a0,a5,10a10 <_write_r+0x48>
   109fc:	00c12083          	lw	ra,12(sp)
   10a00:	00812403          	lw	s0,8(sp)
   10a04:	00412483          	lw	s1,4(sp)
   10a08:	01010113          	addi	sp,sp,16
   10a0c:	00008067          	ret
   10a10:	f1c1a783          	lw	a5,-228(gp) # 239e4 <errno>
   10a14:	fe0784e3          	beqz	a5,109fc <_write_r+0x34>
   10a18:	00c12083          	lw	ra,12(sp)
   10a1c:	00f42023          	sw	a5,0(s0)
   10a20:	00812403          	lw	s0,8(sp)
   10a24:	00412483          	lw	s1,4(sp)
   10a28:	01010113          	addi	sp,sp,16
   10a2c:	00008067          	ret

00010a30 <__libc_init_array>:
   10a30:	ff010113          	addi	sp,sp,-16
   10a34:	00812423          	sw	s0,8(sp)
   10a38:	000237b7          	lui	a5,0x23
   10a3c:	00023437          	lui	s0,0x23
   10a40:	01212023          	sw	s2,0(sp)
   10a44:	2bc78793          	addi	a5,a5,700 # 232bc <__init_array_start>
   10a48:	2bc40713          	addi	a4,s0,700 # 232bc <__init_array_start>
   10a4c:	00112623          	sw	ra,12(sp)
   10a50:	00912223          	sw	s1,4(sp)
   10a54:	40e78933          	sub	s2,a5,a4
   10a58:	02e78263          	beq	a5,a4,10a7c <__libc_init_array+0x4c>
   10a5c:	40295913          	srai	s2,s2,0x2
   10a60:	2bc40413          	addi	s0,s0,700
   10a64:	00000493          	li	s1,0
   10a68:	00042783          	lw	a5,0(s0)
   10a6c:	00148493          	addi	s1,s1,1
   10a70:	00440413          	addi	s0,s0,4
   10a74:	000780e7          	jalr	a5
   10a78:	ff24e8e3          	bltu	s1,s2,10a68 <__libc_init_array+0x38>
   10a7c:	00023437          	lui	s0,0x23
   10a80:	000237b7          	lui	a5,0x23
   10a84:	2c478793          	addi	a5,a5,708 # 232c4 <__do_global_dtors_aux_fini_array_entry>
   10a88:	2bc40713          	addi	a4,s0,700 # 232bc <__init_array_start>
   10a8c:	40e78933          	sub	s2,a5,a4
   10a90:	40295913          	srai	s2,s2,0x2
   10a94:	02e78063          	beq	a5,a4,10ab4 <__libc_init_array+0x84>
   10a98:	2bc40413          	addi	s0,s0,700
   10a9c:	00000493          	li	s1,0
   10aa0:	00042783          	lw	a5,0(s0)
   10aa4:	00148493          	addi	s1,s1,1
   10aa8:	00440413          	addi	s0,s0,4
   10aac:	000780e7          	jalr	a5
   10ab0:	ff24e8e3          	bltu	s1,s2,10aa0 <__libc_init_array+0x70>
   10ab4:	00c12083          	lw	ra,12(sp)
   10ab8:	00812403          	lw	s0,8(sp)
   10abc:	00412483          	lw	s1,4(sp)
   10ac0:	00012903          	lw	s2,0(sp)
   10ac4:	01010113          	addi	sp,sp,16
   10ac8:	00008067          	ret

00010acc <memset>:
   10acc:	00f00313          	li	t1,15
   10ad0:	00050713          	mv	a4,a0
   10ad4:	02c37e63          	bgeu	t1,a2,10b10 <memset+0x44>
   10ad8:	00f77793          	andi	a5,a4,15
   10adc:	0a079063          	bnez	a5,10b7c <memset+0xb0>
   10ae0:	08059263          	bnez	a1,10b64 <memset+0x98>
   10ae4:	ff067693          	andi	a3,a2,-16
   10ae8:	00f67613          	andi	a2,a2,15
   10aec:	00e686b3          	add	a3,a3,a4
   10af0:	00b72023          	sw	a1,0(a4)
   10af4:	00b72223          	sw	a1,4(a4)
   10af8:	00b72423          	sw	a1,8(a4)
   10afc:	00b72623          	sw	a1,12(a4)
   10b00:	01070713          	addi	a4,a4,16
   10b04:	fed766e3          	bltu	a4,a3,10af0 <memset+0x24>
   10b08:	00061463          	bnez	a2,10b10 <memset+0x44>
   10b0c:	00008067          	ret
   10b10:	40c306b3          	sub	a3,t1,a2
   10b14:	00269693          	slli	a3,a3,0x2
   10b18:	00000297          	auipc	t0,0x0
   10b1c:	005686b3          	add	a3,a3,t0
   10b20:	00c68067          	jr	12(a3)
   10b24:	00b70723          	sb	a1,14(a4)
   10b28:	00b706a3          	sb	a1,13(a4)
   10b2c:	00b70623          	sb	a1,12(a4)
   10b30:	00b705a3          	sb	a1,11(a4)
   10b34:	00b70523          	sb	a1,10(a4)
   10b38:	00b704a3          	sb	a1,9(a4)
   10b3c:	00b70423          	sb	a1,8(a4)
   10b40:	00b703a3          	sb	a1,7(a4)
   10b44:	00b70323          	sb	a1,6(a4)
   10b48:	00b702a3          	sb	a1,5(a4)
   10b4c:	00b70223          	sb	a1,4(a4)
   10b50:	00b701a3          	sb	a1,3(a4)
   10b54:	00b70123          	sb	a1,2(a4)
   10b58:	00b700a3          	sb	a1,1(a4)
   10b5c:	00b70023          	sb	a1,0(a4)
   10b60:	00008067          	ret
   10b64:	0ff5f593          	andi	a1,a1,255
   10b68:	00859693          	slli	a3,a1,0x8
   10b6c:	00d5e5b3          	or	a1,a1,a3
   10b70:	01059693          	slli	a3,a1,0x10
   10b74:	00d5e5b3          	or	a1,a1,a3
   10b78:	f6dff06f          	j	10ae4 <memset+0x18>
   10b7c:	00279693          	slli	a3,a5,0x2
   10b80:	00000297          	auipc	t0,0x0
   10b84:	005686b3          	add	a3,a3,t0
   10b88:	00008293          	mv	t0,ra
   10b8c:	fa0680e7          	jalr	-96(a3)
   10b90:	00028093          	mv	ra,t0
   10b94:	ff078793          	addi	a5,a5,-16
   10b98:	40f70733          	sub	a4,a4,a5
   10b9c:	00f60633          	add	a2,a2,a5
   10ba0:	f6c378e3          	bgeu	t1,a2,10b10 <memset+0x44>
   10ba4:	f3dff06f          	j	10ae0 <memset+0x14>

00010ba8 <__call_exitprocs>:
   10ba8:	fd010113          	addi	sp,sp,-48
   10bac:	01412c23          	sw	s4,24(sp)
   10bb0:	03212023          	sw	s2,32(sp)
   10bb4:	f201a903          	lw	s2,-224(gp) # 239e8 <__atexit>
   10bb8:	02112623          	sw	ra,44(sp)
   10bbc:	0a090863          	beqz	s2,10c6c <__call_exitprocs+0xc4>
   10bc0:	01312e23          	sw	s3,28(sp)
   10bc4:	01512a23          	sw	s5,20(sp)
   10bc8:	01612823          	sw	s6,16(sp)
   10bcc:	01712623          	sw	s7,12(sp)
   10bd0:	02812423          	sw	s0,40(sp)
   10bd4:	02912223          	sw	s1,36(sp)
   10bd8:	01812423          	sw	s8,8(sp)
   10bdc:	00050b13          	mv	s6,a0
   10be0:	00058b93          	mv	s7,a1
   10be4:	fff00993          	li	s3,-1
   10be8:	00100a93          	li	s5,1
   10bec:	00492483          	lw	s1,4(s2)
   10bf0:	fff48413          	addi	s0,s1,-1
   10bf4:	04044e63          	bltz	s0,10c50 <__call_exitprocs+0xa8>
   10bf8:	00249493          	slli	s1,s1,0x2
   10bfc:	009904b3          	add	s1,s2,s1
   10c00:	080b9063          	bnez	s7,10c80 <__call_exitprocs+0xd8>
   10c04:	00492783          	lw	a5,4(s2)
   10c08:	0044a683          	lw	a3,4(s1)
   10c0c:	fff78793          	addi	a5,a5,-1
   10c10:	0a878c63          	beq	a5,s0,10cc8 <__call_exitprocs+0x120>
   10c14:	0004a223          	sw	zero,4(s1)
   10c18:	02068663          	beqz	a3,10c44 <__call_exitprocs+0x9c>
   10c1c:	18892783          	lw	a5,392(s2)
   10c20:	008a9733          	sll	a4,s5,s0
   10c24:	00492c03          	lw	s8,4(s2)
   10c28:	00f777b3          	and	a5,a4,a5
   10c2c:	06079663          	bnez	a5,10c98 <__call_exitprocs+0xf0>
   10c30:	000680e7          	jalr	a3
   10c34:	00492703          	lw	a4,4(s2)
   10c38:	f201a783          	lw	a5,-224(gp) # 239e8 <__atexit>
   10c3c:	09871063          	bne	a4,s8,10cbc <__call_exitprocs+0x114>
   10c40:	07279e63          	bne	a5,s2,10cbc <__call_exitprocs+0x114>
   10c44:	fff40413          	addi	s0,s0,-1
   10c48:	ffc48493          	addi	s1,s1,-4
   10c4c:	fb341ae3          	bne	s0,s3,10c00 <__call_exitprocs+0x58>
   10c50:	02812403          	lw	s0,40(sp)
   10c54:	02412483          	lw	s1,36(sp)
   10c58:	01c12983          	lw	s3,28(sp)
   10c5c:	01412a83          	lw	s5,20(sp)
   10c60:	01012b03          	lw	s6,16(sp)
   10c64:	00c12b83          	lw	s7,12(sp)
   10c68:	00812c03          	lw	s8,8(sp)
   10c6c:	02c12083          	lw	ra,44(sp)
   10c70:	02012903          	lw	s2,32(sp)
   10c74:	01812a03          	lw	s4,24(sp)
   10c78:	03010113          	addi	sp,sp,48
   10c7c:	00008067          	ret
   10c80:	1044a783          	lw	a5,260(s1)
   10c84:	f97780e3          	beq	a5,s7,10c04 <__call_exitprocs+0x5c>
   10c88:	fff40413          	addi	s0,s0,-1
   10c8c:	ffc48493          	addi	s1,s1,-4
   10c90:	ff3418e3          	bne	s0,s3,10c80 <__call_exitprocs+0xd8>
   10c94:	fbdff06f          	j	10c50 <__call_exitprocs+0xa8>
   10c98:	18c92783          	lw	a5,396(s2)
   10c9c:	0844a583          	lw	a1,132(s1)
   10ca0:	00f77733          	and	a4,a4,a5
   10ca4:	02071663          	bnez	a4,10cd0 <__call_exitprocs+0x128>
   10ca8:	000b0513          	mv	a0,s6
   10cac:	000680e7          	jalr	a3
   10cb0:	00492703          	lw	a4,4(s2)
   10cb4:	f201a783          	lw	a5,-224(gp) # 239e8 <__atexit>
   10cb8:	f98704e3          	beq	a4,s8,10c40 <__call_exitprocs+0x98>
   10cbc:	f8078ae3          	beqz	a5,10c50 <__call_exitprocs+0xa8>
   10cc0:	00078913          	mv	s2,a5
   10cc4:	f29ff06f          	j	10bec <__call_exitprocs+0x44>
   10cc8:	00892223          	sw	s0,4(s2)
   10ccc:	f4dff06f          	j	10c18 <__call_exitprocs+0x70>
   10cd0:	00058513          	mv	a0,a1
   10cd4:	000680e7          	jalr	a3
   10cd8:	f5dff06f          	j	10c34 <__call_exitprocs+0x8c>

00010cdc <atexit>:
   10cdc:	00050593          	mv	a1,a0
   10ce0:	00000693          	li	a3,0
   10ce4:	00000613          	li	a2,0
   10ce8:	00000513          	li	a0,0
   10cec:	0280606f          	j	16d14 <__register_exitproc>

00010cf0 <_malloc_trim_r>:
   10cf0:	fe010113          	addi	sp,sp,-32
   10cf4:	01312623          	sw	s3,12(sp)
   10cf8:	000239b7          	lui	s3,0x23
   10cfc:	00812c23          	sw	s0,24(sp)
   10d00:	00912a23          	sw	s1,20(sp)
   10d04:	01212823          	sw	s2,16(sp)
   10d08:	01412423          	sw	s4,8(sp)
   10d0c:	00112e23          	sw	ra,28(sp)
   10d10:	00058a13          	mv	s4,a1
   10d14:	00050913          	mv	s2,a0
   10d18:	3f898993          	addi	s3,s3,1016 # 233f8 <__malloc_av_>
   10d1c:	3cd000ef          	jal	ra,118e8 <__malloc_lock>
   10d20:	0089a703          	lw	a4,8(s3)
   10d24:	000017b7          	lui	a5,0x1
   10d28:	fef78793          	addi	a5,a5,-17 # fef <exit-0xf0a5>
   10d2c:	00472483          	lw	s1,4(a4)
   10d30:	00001737          	lui	a4,0x1
   10d34:	ffc4f493          	andi	s1,s1,-4
   10d38:	00f48433          	add	s0,s1,a5
   10d3c:	41440433          	sub	s0,s0,s4
   10d40:	00c45413          	srli	s0,s0,0xc
   10d44:	fff40413          	addi	s0,s0,-1
   10d48:	00c41413          	slli	s0,s0,0xc
   10d4c:	00e44e63          	blt	s0,a4,10d68 <_malloc_trim_r+0x78>
   10d50:	00000593          	li	a1,0
   10d54:	00090513          	mv	a0,s2
   10d58:	0c9050ef          	jal	ra,16620 <_sbrk_r>
   10d5c:	0089a783          	lw	a5,8(s3)
   10d60:	009787b3          	add	a5,a5,s1
   10d64:	02f50863          	beq	a0,a5,10d94 <_malloc_trim_r+0xa4>
   10d68:	00090513          	mv	a0,s2
   10d6c:	381000ef          	jal	ra,118ec <__malloc_unlock>
   10d70:	01c12083          	lw	ra,28(sp)
   10d74:	01812403          	lw	s0,24(sp)
   10d78:	01412483          	lw	s1,20(sp)
   10d7c:	01012903          	lw	s2,16(sp)
   10d80:	00c12983          	lw	s3,12(sp)
   10d84:	00812a03          	lw	s4,8(sp)
   10d88:	00000513          	li	a0,0
   10d8c:	02010113          	addi	sp,sp,32
   10d90:	00008067          	ret
   10d94:	408005b3          	neg	a1,s0
   10d98:	00090513          	mv	a0,s2
   10d9c:	085050ef          	jal	ra,16620 <_sbrk_r>
   10da0:	fff00793          	li	a5,-1
   10da4:	04f50863          	beq	a0,a5,10df4 <_malloc_trim_r+0x104>
   10da8:	08c18793          	addi	a5,gp,140 # 23b54 <__malloc_current_mallinfo>
   10dac:	0007a703          	lw	a4,0(a5)
   10db0:	0089a683          	lw	a3,8(s3)
   10db4:	408484b3          	sub	s1,s1,s0
   10db8:	0014e493          	ori	s1,s1,1
   10dbc:	40870733          	sub	a4,a4,s0
   10dc0:	00090513          	mv	a0,s2
   10dc4:	0096a223          	sw	s1,4(a3)
   10dc8:	00e7a023          	sw	a4,0(a5)
   10dcc:	321000ef          	jal	ra,118ec <__malloc_unlock>
   10dd0:	01c12083          	lw	ra,28(sp)
   10dd4:	01812403          	lw	s0,24(sp)
   10dd8:	01412483          	lw	s1,20(sp)
   10ddc:	01012903          	lw	s2,16(sp)
   10de0:	00c12983          	lw	s3,12(sp)
   10de4:	00812a03          	lw	s4,8(sp)
   10de8:	00100513          	li	a0,1
   10dec:	02010113          	addi	sp,sp,32
   10df0:	00008067          	ret
   10df4:	00000593          	li	a1,0
   10df8:	00090513          	mv	a0,s2
   10dfc:	025050ef          	jal	ra,16620 <_sbrk_r>
   10e00:	0089a703          	lw	a4,8(s3)
   10e04:	00f00693          	li	a3,15
   10e08:	40e507b3          	sub	a5,a0,a4
   10e0c:	f4f6dee3          	bge	a3,a5,10d68 <_malloc_trim_r+0x78>
   10e10:	f101a683          	lw	a3,-240(gp) # 239d8 <__malloc_sbrk_base>
   10e14:	0017e793          	ori	a5,a5,1
   10e18:	00f72223          	sw	a5,4(a4) # 1004 <exit-0xf090>
   10e1c:	40d50533          	sub	a0,a0,a3
   10e20:	08a1a623          	sw	a0,140(gp) # 23b54 <__malloc_current_mallinfo>
   10e24:	f45ff06f          	j	10d68 <_malloc_trim_r+0x78>

00010e28 <_free_r>:
   10e28:	18058263          	beqz	a1,10fac <_free_r+0x184>
   10e2c:	ff010113          	addi	sp,sp,-16
   10e30:	00812423          	sw	s0,8(sp)
   10e34:	00912223          	sw	s1,4(sp)
   10e38:	00058413          	mv	s0,a1
   10e3c:	00050493          	mv	s1,a0
   10e40:	00112623          	sw	ra,12(sp)
   10e44:	2a5000ef          	jal	ra,118e8 <__malloc_lock>
   10e48:	ffc42503          	lw	a0,-4(s0)
   10e4c:	ff840713          	addi	a4,s0,-8
   10e50:	000235b7          	lui	a1,0x23
   10e54:	ffe57793          	andi	a5,a0,-2
   10e58:	00f70633          	add	a2,a4,a5
   10e5c:	3f858593          	addi	a1,a1,1016 # 233f8 <__malloc_av_>
   10e60:	00462683          	lw	a3,4(a2)
   10e64:	0085a803          	lw	a6,8(a1)
   10e68:	ffc6f693          	andi	a3,a3,-4
   10e6c:	1ac80263          	beq	a6,a2,11010 <_free_r+0x1e8>
   10e70:	00d62223          	sw	a3,4(a2)
   10e74:	00157513          	andi	a0,a0,1
   10e78:	00d60833          	add	a6,a2,a3
   10e7c:	0a051063          	bnez	a0,10f1c <_free_r+0xf4>
   10e80:	ff842303          	lw	t1,-8(s0)
   10e84:	00482803          	lw	a6,4(a6)
   10e88:	00023537          	lui	a0,0x23
   10e8c:	40670733          	sub	a4,a4,t1
   10e90:	00872883          	lw	a7,8(a4)
   10e94:	40050513          	addi	a0,a0,1024 # 23400 <__malloc_av_+0x8>
   10e98:	006787b3          	add	a5,a5,t1
   10e9c:	00187813          	andi	a6,a6,1
   10ea0:	14a88263          	beq	a7,a0,10fe4 <_free_r+0x1bc>
   10ea4:	00c72303          	lw	t1,12(a4)
   10ea8:	0068a623          	sw	t1,12(a7)
   10eac:	01132423          	sw	a7,8(t1)
   10eb0:	1a080663          	beqz	a6,1105c <_free_r+0x234>
   10eb4:	0017e693          	ori	a3,a5,1
   10eb8:	00d72223          	sw	a3,4(a4)
   10ebc:	00f62023          	sw	a5,0(a2)
   10ec0:	1ff00693          	li	a3,511
   10ec4:	06f6ec63          	bltu	a3,a5,10f3c <_free_r+0x114>
   10ec8:	ff87f693          	andi	a3,a5,-8
   10ecc:	00868693          	addi	a3,a3,8
   10ed0:	0045a503          	lw	a0,4(a1)
   10ed4:	00d586b3          	add	a3,a1,a3
   10ed8:	0006a603          	lw	a2,0(a3)
   10edc:	0057d813          	srli	a6,a5,0x5
   10ee0:	00100793          	li	a5,1
   10ee4:	010797b3          	sll	a5,a5,a6
   10ee8:	00a7e7b3          	or	a5,a5,a0
   10eec:	ff868513          	addi	a0,a3,-8
   10ef0:	00a72623          	sw	a0,12(a4)
   10ef4:	00c72423          	sw	a2,8(a4)
   10ef8:	00f5a223          	sw	a5,4(a1)
   10efc:	00e6a023          	sw	a4,0(a3)
   10f00:	00e62623          	sw	a4,12(a2)
   10f04:	00812403          	lw	s0,8(sp)
   10f08:	00c12083          	lw	ra,12(sp)
   10f0c:	00048513          	mv	a0,s1
   10f10:	00412483          	lw	s1,4(sp)
   10f14:	01010113          	addi	sp,sp,16
   10f18:	1d50006f          	j	118ec <__malloc_unlock>
   10f1c:	00482503          	lw	a0,4(a6)
   10f20:	00157513          	andi	a0,a0,1
   10f24:	08050663          	beqz	a0,10fb0 <_free_r+0x188>
   10f28:	0017e693          	ori	a3,a5,1
   10f2c:	fed42e23          	sw	a3,-4(s0)
   10f30:	00f62023          	sw	a5,0(a2)
   10f34:	1ff00693          	li	a3,511
   10f38:	f8f6f8e3          	bgeu	a3,a5,10ec8 <_free_r+0xa0>
   10f3c:	0097d693          	srli	a3,a5,0x9
   10f40:	00400613          	li	a2,4
   10f44:	12d66063          	bltu	a2,a3,11064 <_free_r+0x23c>
   10f48:	0067d693          	srli	a3,a5,0x6
   10f4c:	03968513          	addi	a0,a3,57
   10f50:	03868613          	addi	a2,a3,56
   10f54:	00351513          	slli	a0,a0,0x3
   10f58:	00a58533          	add	a0,a1,a0
   10f5c:	00052683          	lw	a3,0(a0)
   10f60:	ff850513          	addi	a0,a0,-8
   10f64:	00d51863          	bne	a0,a3,10f74 <_free_r+0x14c>
   10f68:	1540006f          	j	110bc <_free_r+0x294>
   10f6c:	0086a683          	lw	a3,8(a3)
   10f70:	00d50863          	beq	a0,a3,10f80 <_free_r+0x158>
   10f74:	0046a603          	lw	a2,4(a3)
   10f78:	ffc67613          	andi	a2,a2,-4
   10f7c:	fec7e8e3          	bltu	a5,a2,10f6c <_free_r+0x144>
   10f80:	00c6a503          	lw	a0,12(a3)
   10f84:	00a72623          	sw	a0,12(a4)
   10f88:	00d72423          	sw	a3,8(a4)
   10f8c:	00812403          	lw	s0,8(sp)
   10f90:	00e52423          	sw	a4,8(a0)
   10f94:	00c12083          	lw	ra,12(sp)
   10f98:	00048513          	mv	a0,s1
   10f9c:	00412483          	lw	s1,4(sp)
   10fa0:	00e6a623          	sw	a4,12(a3)
   10fa4:	01010113          	addi	sp,sp,16
   10fa8:	1450006f          	j	118ec <__malloc_unlock>
   10fac:	00008067          	ret
   10fb0:	00023537          	lui	a0,0x23
   10fb4:	00d787b3          	add	a5,a5,a3
   10fb8:	40050513          	addi	a0,a0,1024 # 23400 <__malloc_av_+0x8>
   10fbc:	00862683          	lw	a3,8(a2)
   10fc0:	0ca68c63          	beq	a3,a0,11098 <_free_r+0x270>
   10fc4:	00c62803          	lw	a6,12(a2)
   10fc8:	0017e513          	ori	a0,a5,1
   10fcc:	00f70633          	add	a2,a4,a5
   10fd0:	0106a623          	sw	a6,12(a3)
   10fd4:	00d82423          	sw	a3,8(a6)
   10fd8:	00a72223          	sw	a0,4(a4)
   10fdc:	00f62023          	sw	a5,0(a2)
   10fe0:	ee1ff06f          	j	10ec0 <_free_r+0x98>
   10fe4:	12081c63          	bnez	a6,1111c <_free_r+0x2f4>
   10fe8:	00862583          	lw	a1,8(a2)
   10fec:	00c62603          	lw	a2,12(a2)
   10ff0:	00f686b3          	add	a3,a3,a5
   10ff4:	0016e793          	ori	a5,a3,1
   10ff8:	00c5a623          	sw	a2,12(a1)
   10ffc:	00b62423          	sw	a1,8(a2)
   11000:	00f72223          	sw	a5,4(a4)
   11004:	00d70733          	add	a4,a4,a3
   11008:	00d72023          	sw	a3,0(a4)
   1100c:	ef9ff06f          	j	10f04 <_free_r+0xdc>
   11010:	00157513          	andi	a0,a0,1
   11014:	00d786b3          	add	a3,a5,a3
   11018:	02051063          	bnez	a0,11038 <_free_r+0x210>
   1101c:	ff842503          	lw	a0,-8(s0)
   11020:	40a70733          	sub	a4,a4,a0
   11024:	00c72783          	lw	a5,12(a4)
   11028:	00872603          	lw	a2,8(a4)
   1102c:	00a686b3          	add	a3,a3,a0
   11030:	00f62623          	sw	a5,12(a2)
   11034:	00c7a423          	sw	a2,8(a5)
   11038:	0016e613          	ori	a2,a3,1
   1103c:	f141a783          	lw	a5,-236(gp) # 239dc <__malloc_trim_threshold>
   11040:	00c72223          	sw	a2,4(a4)
   11044:	00e5a423          	sw	a4,8(a1)
   11048:	eaf6eee3          	bltu	a3,a5,10f04 <_free_r+0xdc>
   1104c:	f2c1a583          	lw	a1,-212(gp) # 239f4 <__malloc_top_pad>
   11050:	00048513          	mv	a0,s1
   11054:	c9dff0ef          	jal	ra,10cf0 <_malloc_trim_r>
   11058:	eadff06f          	j	10f04 <_free_r+0xdc>
   1105c:	00d787b3          	add	a5,a5,a3
   11060:	f5dff06f          	j	10fbc <_free_r+0x194>
   11064:	01400613          	li	a2,20
   11068:	02d67063          	bgeu	a2,a3,11088 <_free_r+0x260>
   1106c:	05400613          	li	a2,84
   11070:	06d66463          	bltu	a2,a3,110d8 <_free_r+0x2b0>
   11074:	00c7d693          	srli	a3,a5,0xc
   11078:	06f68513          	addi	a0,a3,111
   1107c:	06e68613          	addi	a2,a3,110
   11080:	00351513          	slli	a0,a0,0x3
   11084:	ed5ff06f          	j	10f58 <_free_r+0x130>
   11088:	05c68513          	addi	a0,a3,92
   1108c:	05b68613          	addi	a2,a3,91
   11090:	00351513          	slli	a0,a0,0x3
   11094:	ec5ff06f          	j	10f58 <_free_r+0x130>
   11098:	00e5aa23          	sw	a4,20(a1)
   1109c:	00e5a823          	sw	a4,16(a1)
   110a0:	0017e693          	ori	a3,a5,1
   110a4:	00a72623          	sw	a0,12(a4)
   110a8:	00a72423          	sw	a0,8(a4)
   110ac:	00d72223          	sw	a3,4(a4)
   110b0:	00f70733          	add	a4,a4,a5
   110b4:	00f72023          	sw	a5,0(a4)
   110b8:	e4dff06f          	j	10f04 <_free_r+0xdc>
   110bc:	0045a803          	lw	a6,4(a1)
   110c0:	40265613          	srai	a2,a2,0x2
   110c4:	00100793          	li	a5,1
   110c8:	00c797b3          	sll	a5,a5,a2
   110cc:	0107e7b3          	or	a5,a5,a6
   110d0:	00f5a223          	sw	a5,4(a1)
   110d4:	eb1ff06f          	j	10f84 <_free_r+0x15c>
   110d8:	15400613          	li	a2,340
   110dc:	00d66c63          	bltu	a2,a3,110f4 <_free_r+0x2cc>
   110e0:	00f7d693          	srli	a3,a5,0xf
   110e4:	07868513          	addi	a0,a3,120
   110e8:	07768613          	addi	a2,a3,119
   110ec:	00351513          	slli	a0,a0,0x3
   110f0:	e69ff06f          	j	10f58 <_free_r+0x130>
   110f4:	55400613          	li	a2,1364
   110f8:	00d66c63          	bltu	a2,a3,11110 <_free_r+0x2e8>
   110fc:	0127d693          	srli	a3,a5,0x12
   11100:	07d68513          	addi	a0,a3,125
   11104:	07c68613          	addi	a2,a3,124
   11108:	00351513          	slli	a0,a0,0x3
   1110c:	e4dff06f          	j	10f58 <_free_r+0x130>
   11110:	3f800513          	li	a0,1016
   11114:	07e00613          	li	a2,126
   11118:	e41ff06f          	j	10f58 <_free_r+0x130>
   1111c:	0017e693          	ori	a3,a5,1
   11120:	00d72223          	sw	a3,4(a4)
   11124:	00f62023          	sw	a5,0(a2)
   11128:	dddff06f          	j	10f04 <_free_r+0xdc>

0001112c <_malloc_r>:
   1112c:	fd010113          	addi	sp,sp,-48
   11130:	01312e23          	sw	s3,28(sp)
   11134:	02112623          	sw	ra,44(sp)
   11138:	02812423          	sw	s0,40(sp)
   1113c:	02912223          	sw	s1,36(sp)
   11140:	03212023          	sw	s2,32(sp)
   11144:	00b58793          	addi	a5,a1,11
   11148:	01600713          	li	a4,22
   1114c:	00050993          	mv	s3,a0
   11150:	08f76263          	bltu	a4,a5,111d4 <_malloc_r+0xa8>
   11154:	01000793          	li	a5,16
   11158:	20b7e663          	bltu	a5,a1,11364 <_malloc_r+0x238>
   1115c:	78c000ef          	jal	ra,118e8 <__malloc_lock>
   11160:	01800793          	li	a5,24
   11164:	00200593          	li	a1,2
   11168:	01000493          	li	s1,16
   1116c:	00023937          	lui	s2,0x23
   11170:	3f890913          	addi	s2,s2,1016 # 233f8 <__malloc_av_>
   11174:	00f907b3          	add	a5,s2,a5
   11178:	0047a403          	lw	s0,4(a5)
   1117c:	ff878713          	addi	a4,a5,-8
   11180:	34e40463          	beq	s0,a4,114c8 <_malloc_r+0x39c>
   11184:	00442783          	lw	a5,4(s0)
   11188:	00c42683          	lw	a3,12(s0)
   1118c:	00842603          	lw	a2,8(s0)
   11190:	ffc7f793          	andi	a5,a5,-4
   11194:	00f407b3          	add	a5,s0,a5
   11198:	0047a703          	lw	a4,4(a5)
   1119c:	00d62623          	sw	a3,12(a2)
   111a0:	00c6a423          	sw	a2,8(a3)
   111a4:	00176713          	ori	a4,a4,1
   111a8:	00098513          	mv	a0,s3
   111ac:	00e7a223          	sw	a4,4(a5)
   111b0:	73c000ef          	jal	ra,118ec <__malloc_unlock>
   111b4:	00840513          	addi	a0,s0,8
   111b8:	02c12083          	lw	ra,44(sp)
   111bc:	02812403          	lw	s0,40(sp)
   111c0:	02412483          	lw	s1,36(sp)
   111c4:	02012903          	lw	s2,32(sp)
   111c8:	01c12983          	lw	s3,28(sp)
   111cc:	03010113          	addi	sp,sp,48
   111d0:	00008067          	ret
   111d4:	ff87f493          	andi	s1,a5,-8
   111d8:	1807c663          	bltz	a5,11364 <_malloc_r+0x238>
   111dc:	18b4e463          	bltu	s1,a1,11364 <_malloc_r+0x238>
   111e0:	708000ef          	jal	ra,118e8 <__malloc_lock>
   111e4:	1f700793          	li	a5,503
   111e8:	3e97fa63          	bgeu	a5,s1,115dc <_malloc_r+0x4b0>
   111ec:	0094d793          	srli	a5,s1,0x9
   111f0:	18078263          	beqz	a5,11374 <_malloc_r+0x248>
   111f4:	00400713          	li	a4,4
   111f8:	34f76063          	bltu	a4,a5,11538 <_malloc_r+0x40c>
   111fc:	0064d793          	srli	a5,s1,0x6
   11200:	03978593          	addi	a1,a5,57
   11204:	03878813          	addi	a6,a5,56
   11208:	00359613          	slli	a2,a1,0x3
   1120c:	00023937          	lui	s2,0x23
   11210:	3f890913          	addi	s2,s2,1016 # 233f8 <__malloc_av_>
   11214:	00c90633          	add	a2,s2,a2
   11218:	00462403          	lw	s0,4(a2)
   1121c:	ff860613          	addi	a2,a2,-8
   11220:	02860863          	beq	a2,s0,11250 <_malloc_r+0x124>
   11224:	00f00513          	li	a0,15
   11228:	0140006f          	j	1123c <_malloc_r+0x110>
   1122c:	00c42683          	lw	a3,12(s0)
   11230:	28075863          	bgez	a4,114c0 <_malloc_r+0x394>
   11234:	00d60e63          	beq	a2,a3,11250 <_malloc_r+0x124>
   11238:	00068413          	mv	s0,a3
   1123c:	00442783          	lw	a5,4(s0)
   11240:	ffc7f793          	andi	a5,a5,-4
   11244:	40978733          	sub	a4,a5,s1
   11248:	fee552e3          	bge	a0,a4,1122c <_malloc_r+0x100>
   1124c:	00080593          	mv	a1,a6
   11250:	01092403          	lw	s0,16(s2)
   11254:	00023837          	lui	a6,0x23
   11258:	40080813          	addi	a6,a6,1024 # 23400 <__malloc_av_+0x8>
   1125c:	25040e63          	beq	s0,a6,114b8 <_malloc_r+0x38c>
   11260:	00442783          	lw	a5,4(s0)
   11264:	00f00693          	li	a3,15
   11268:	ffc7f793          	andi	a5,a5,-4
   1126c:	40978733          	sub	a4,a5,s1
   11270:	36e6cc63          	blt	a3,a4,115e8 <_malloc_r+0x4bc>
   11274:	01092a23          	sw	a6,20(s2)
   11278:	01092823          	sw	a6,16(s2)
   1127c:	34075063          	bgez	a4,115bc <_malloc_r+0x490>
   11280:	1ff00713          	li	a4,511
   11284:	00492503          	lw	a0,4(s2)
   11288:	24f76863          	bltu	a4,a5,114d8 <_malloc_r+0x3ac>
   1128c:	ff87f713          	andi	a4,a5,-8
   11290:	00870713          	addi	a4,a4,8
   11294:	00e90733          	add	a4,s2,a4
   11298:	00072683          	lw	a3,0(a4)
   1129c:	0057d613          	srli	a2,a5,0x5
   112a0:	00100793          	li	a5,1
   112a4:	00c797b3          	sll	a5,a5,a2
   112a8:	00f56533          	or	a0,a0,a5
   112ac:	ff870793          	addi	a5,a4,-8
   112b0:	00f42623          	sw	a5,12(s0)
   112b4:	00d42423          	sw	a3,8(s0)
   112b8:	00a92223          	sw	a0,4(s2)
   112bc:	00872023          	sw	s0,0(a4)
   112c0:	0086a623          	sw	s0,12(a3)
   112c4:	4025d793          	srai	a5,a1,0x2
   112c8:	00100613          	li	a2,1
   112cc:	00f61633          	sll	a2,a2,a5
   112d0:	0ac56a63          	bltu	a0,a2,11384 <_malloc_r+0x258>
   112d4:	00a677b3          	and	a5,a2,a0
   112d8:	02079463          	bnez	a5,11300 <_malloc_r+0x1d4>
   112dc:	00161613          	slli	a2,a2,0x1
   112e0:	ffc5f593          	andi	a1,a1,-4
   112e4:	00a677b3          	and	a5,a2,a0
   112e8:	00458593          	addi	a1,a1,4
   112ec:	00079a63          	bnez	a5,11300 <_malloc_r+0x1d4>
   112f0:	00161613          	slli	a2,a2,0x1
   112f4:	00a677b3          	and	a5,a2,a0
   112f8:	00458593          	addi	a1,a1,4
   112fc:	fe078ae3          	beqz	a5,112f0 <_malloc_r+0x1c4>
   11300:	00f00893          	li	a7,15
   11304:	00359313          	slli	t1,a1,0x3
   11308:	00690333          	add	t1,s2,t1
   1130c:	00030513          	mv	a0,t1
   11310:	00c52783          	lw	a5,12(a0)
   11314:	00058e13          	mv	t3,a1
   11318:	24f50263          	beq	a0,a5,1155c <_malloc_r+0x430>
   1131c:	0047a703          	lw	a4,4(a5)
   11320:	00078413          	mv	s0,a5
   11324:	00c7a783          	lw	a5,12(a5)
   11328:	ffc77713          	andi	a4,a4,-4
   1132c:	409706b3          	sub	a3,a4,s1
   11330:	24d8c263          	blt	a7,a3,11574 <_malloc_r+0x448>
   11334:	fe06c2e3          	bltz	a3,11318 <_malloc_r+0x1ec>
   11338:	00e40733          	add	a4,s0,a4
   1133c:	00472683          	lw	a3,4(a4)
   11340:	00842603          	lw	a2,8(s0)
   11344:	00098513          	mv	a0,s3
   11348:	0016e693          	ori	a3,a3,1
   1134c:	00d72223          	sw	a3,4(a4)
   11350:	00f62623          	sw	a5,12(a2)
   11354:	00c7a423          	sw	a2,8(a5)
   11358:	594000ef          	jal	ra,118ec <__malloc_unlock>
   1135c:	00840513          	addi	a0,s0,8
   11360:	e59ff06f          	j	111b8 <_malloc_r+0x8c>
   11364:	00c00793          	li	a5,12
   11368:	00f9a023          	sw	a5,0(s3)
   1136c:	00000513          	li	a0,0
   11370:	e49ff06f          	j	111b8 <_malloc_r+0x8c>
   11374:	20000613          	li	a2,512
   11378:	04000593          	li	a1,64
   1137c:	03f00813          	li	a6,63
   11380:	e8dff06f          	j	1120c <_malloc_r+0xe0>
   11384:	00892403          	lw	s0,8(s2)
   11388:	01612823          	sw	s6,16(sp)
   1138c:	00442783          	lw	a5,4(s0)
   11390:	ffc7fb13          	andi	s6,a5,-4
   11394:	009b6863          	bltu	s6,s1,113a4 <_malloc_r+0x278>
   11398:	409b0733          	sub	a4,s6,s1
   1139c:	00f00793          	li	a5,15
   113a0:	0ce7ca63          	blt	a5,a4,11474 <_malloc_r+0x348>
   113a4:	01912223          	sw	s9,4(sp)
   113a8:	01512a23          	sw	s5,20(sp)
   113ac:	f101a703          	lw	a4,-240(gp) # 239d8 <__malloc_sbrk_base>
   113b0:	f2c1aa83          	lw	s5,-212(gp) # 239f4 <__malloc_top_pad>
   113b4:	01412c23          	sw	s4,24(sp)
   113b8:	01712623          	sw	s7,12(sp)
   113bc:	fff00793          	li	a5,-1
   113c0:	01640a33          	add	s4,s0,s6
   113c4:	01548ab3          	add	s5,s1,s5
   113c8:	3cf70663          	beq	a4,a5,11794 <_malloc_r+0x668>
   113cc:	000017b7          	lui	a5,0x1
   113d0:	00f78793          	addi	a5,a5,15 # 100f <exit-0xf085>
   113d4:	00fa8ab3          	add	s5,s5,a5
   113d8:	fffff7b7          	lui	a5,0xfffff
   113dc:	00fafab3          	and	s5,s5,a5
   113e0:	000a8593          	mv	a1,s5
   113e4:	00098513          	mv	a0,s3
   113e8:	238050ef          	jal	ra,16620 <_sbrk_r>
   113ec:	fff00793          	li	a5,-1
   113f0:	00050b93          	mv	s7,a0
   113f4:	44f50a63          	beq	a0,a5,11848 <_malloc_r+0x71c>
   113f8:	01812423          	sw	s8,8(sp)
   113fc:	23456e63          	bltu	a0,s4,11638 <_malloc_r+0x50c>
   11400:	08c18c13          	addi	s8,gp,140 # 23b54 <__malloc_current_mallinfo>
   11404:	000c2583          	lw	a1,0(s8)
   11408:	00ba85b3          	add	a1,s5,a1
   1140c:	00bc2023          	sw	a1,0(s8)
   11410:	00058713          	mv	a4,a1
   11414:	2aaa1663          	bne	s4,a0,116c0 <_malloc_r+0x594>
   11418:	01451793          	slli	a5,a0,0x14
   1141c:	2a079263          	bnez	a5,116c0 <_malloc_r+0x594>
   11420:	00892b83          	lw	s7,8(s2)
   11424:	015b07b3          	add	a5,s6,s5
   11428:	0017e793          	ori	a5,a5,1
   1142c:	00fba223          	sw	a5,4(s7)
   11430:	f281a683          	lw	a3,-216(gp) # 239f0 <__malloc_max_sbrked_mem>
   11434:	00b6f463          	bgeu	a3,a1,1143c <_malloc_r+0x310>
   11438:	f2b1a423          	sw	a1,-216(gp) # 239f0 <__malloc_max_sbrked_mem>
   1143c:	f241a683          	lw	a3,-220(gp) # 239ec <__malloc_max_total_mem>
   11440:	00b6f463          	bgeu	a3,a1,11448 <_malloc_r+0x31c>
   11444:	f2b1a223          	sw	a1,-220(gp) # 239ec <__malloc_max_total_mem>
   11448:	00812c03          	lw	s8,8(sp)
   1144c:	000b8413          	mv	s0,s7
   11450:	ffc7f793          	andi	a5,a5,-4
   11454:	40978733          	sub	a4,a5,s1
   11458:	3897ea63          	bltu	a5,s1,117ec <_malloc_r+0x6c0>
   1145c:	00f00793          	li	a5,15
   11460:	38e7d663          	bge	a5,a4,117ec <_malloc_r+0x6c0>
   11464:	01812a03          	lw	s4,24(sp)
   11468:	01412a83          	lw	s5,20(sp)
   1146c:	00c12b83          	lw	s7,12(sp)
   11470:	00412c83          	lw	s9,4(sp)
   11474:	0014e793          	ori	a5,s1,1
   11478:	00f42223          	sw	a5,4(s0)
   1147c:	009404b3          	add	s1,s0,s1
   11480:	00992423          	sw	s1,8(s2)
   11484:	00176713          	ori	a4,a4,1
   11488:	00098513          	mv	a0,s3
   1148c:	00e4a223          	sw	a4,4(s1)
   11490:	45c000ef          	jal	ra,118ec <__malloc_unlock>
   11494:	02c12083          	lw	ra,44(sp)
   11498:	00840513          	addi	a0,s0,8
   1149c:	02812403          	lw	s0,40(sp)
   114a0:	01012b03          	lw	s6,16(sp)
   114a4:	02412483          	lw	s1,36(sp)
   114a8:	02012903          	lw	s2,32(sp)
   114ac:	01c12983          	lw	s3,28(sp)
   114b0:	03010113          	addi	sp,sp,48
   114b4:	00008067          	ret
   114b8:	00492503          	lw	a0,4(s2)
   114bc:	e09ff06f          	j	112c4 <_malloc_r+0x198>
   114c0:	00842603          	lw	a2,8(s0)
   114c4:	cd1ff06f          	j	11194 <_malloc_r+0x68>
   114c8:	00c7a403          	lw	s0,12(a5) # fffff00c <__BSS_END__+0xfffdb300>
   114cc:	00258593          	addi	a1,a1,2
   114d0:	d88780e3          	beq	a5,s0,11250 <_malloc_r+0x124>
   114d4:	cb1ff06f          	j	11184 <_malloc_r+0x58>
   114d8:	0097d713          	srli	a4,a5,0x9
   114dc:	00400693          	li	a3,4
   114e0:	14e6f263          	bgeu	a3,a4,11624 <_malloc_r+0x4f8>
   114e4:	01400693          	li	a3,20
   114e8:	32e6e463          	bltu	a3,a4,11810 <_malloc_r+0x6e4>
   114ec:	05c70613          	addi	a2,a4,92
   114f0:	05b70693          	addi	a3,a4,91
   114f4:	00361613          	slli	a2,a2,0x3
   114f8:	00c90633          	add	a2,s2,a2
   114fc:	00062703          	lw	a4,0(a2)
   11500:	ff860613          	addi	a2,a2,-8
   11504:	00e61863          	bne	a2,a4,11514 <_malloc_r+0x3e8>
   11508:	2940006f          	j	1179c <_malloc_r+0x670>
   1150c:	00872703          	lw	a4,8(a4)
   11510:	00e60863          	beq	a2,a4,11520 <_malloc_r+0x3f4>
   11514:	00472683          	lw	a3,4(a4)
   11518:	ffc6f693          	andi	a3,a3,-4
   1151c:	fed7e8e3          	bltu	a5,a3,1150c <_malloc_r+0x3e0>
   11520:	00c72603          	lw	a2,12(a4)
   11524:	00c42623          	sw	a2,12(s0)
   11528:	00e42423          	sw	a4,8(s0)
   1152c:	00862423          	sw	s0,8(a2)
   11530:	00872623          	sw	s0,12(a4)
   11534:	d91ff06f          	j	112c4 <_malloc_r+0x198>
   11538:	01400713          	li	a4,20
   1153c:	10f77863          	bgeu	a4,a5,1164c <_malloc_r+0x520>
   11540:	05400713          	li	a4,84
   11544:	2ef76463          	bltu	a4,a5,1182c <_malloc_r+0x700>
   11548:	00c4d793          	srli	a5,s1,0xc
   1154c:	06f78593          	addi	a1,a5,111
   11550:	06e78813          	addi	a6,a5,110
   11554:	00359613          	slli	a2,a1,0x3
   11558:	cb5ff06f          	j	1120c <_malloc_r+0xe0>
   1155c:	001e0e13          	addi	t3,t3,1
   11560:	003e7793          	andi	a5,t3,3
   11564:	00850513          	addi	a0,a0,8
   11568:	10078063          	beqz	a5,11668 <_malloc_r+0x53c>
   1156c:	00c52783          	lw	a5,12(a0)
   11570:	da9ff06f          	j	11318 <_malloc_r+0x1ec>
   11574:	00842603          	lw	a2,8(s0)
   11578:	0014e593          	ori	a1,s1,1
   1157c:	00b42223          	sw	a1,4(s0)
   11580:	00f62623          	sw	a5,12(a2)
   11584:	00c7a423          	sw	a2,8(a5)
   11588:	009404b3          	add	s1,s0,s1
   1158c:	00992a23          	sw	s1,20(s2)
   11590:	00992823          	sw	s1,16(s2)
   11594:	0016e793          	ori	a5,a3,1
   11598:	0104a623          	sw	a6,12(s1)
   1159c:	0104a423          	sw	a6,8(s1)
   115a0:	00f4a223          	sw	a5,4(s1)
   115a4:	00e40733          	add	a4,s0,a4
   115a8:	00098513          	mv	a0,s3
   115ac:	00d72023          	sw	a3,0(a4)
   115b0:	33c000ef          	jal	ra,118ec <__malloc_unlock>
   115b4:	00840513          	addi	a0,s0,8
   115b8:	c01ff06f          	j	111b8 <_malloc_r+0x8c>
   115bc:	00f407b3          	add	a5,s0,a5
   115c0:	0047a703          	lw	a4,4(a5)
   115c4:	00098513          	mv	a0,s3
   115c8:	00176713          	ori	a4,a4,1
   115cc:	00e7a223          	sw	a4,4(a5)
   115d0:	31c000ef          	jal	ra,118ec <__malloc_unlock>
   115d4:	00840513          	addi	a0,s0,8
   115d8:	be1ff06f          	j	111b8 <_malloc_r+0x8c>
   115dc:	0034d593          	srli	a1,s1,0x3
   115e0:	00848793          	addi	a5,s1,8
   115e4:	b89ff06f          	j	1116c <_malloc_r+0x40>
   115e8:	0014e693          	ori	a3,s1,1
   115ec:	00d42223          	sw	a3,4(s0)
   115f0:	009404b3          	add	s1,s0,s1
   115f4:	00992a23          	sw	s1,20(s2)
   115f8:	00992823          	sw	s1,16(s2)
   115fc:	00176693          	ori	a3,a4,1
   11600:	0104a623          	sw	a6,12(s1)
   11604:	0104a423          	sw	a6,8(s1)
   11608:	00d4a223          	sw	a3,4(s1)
   1160c:	00f407b3          	add	a5,s0,a5
   11610:	00098513          	mv	a0,s3
   11614:	00e7a023          	sw	a4,0(a5)
   11618:	2d4000ef          	jal	ra,118ec <__malloc_unlock>
   1161c:	00840513          	addi	a0,s0,8
   11620:	b99ff06f          	j	111b8 <_malloc_r+0x8c>
   11624:	0067d713          	srli	a4,a5,0x6
   11628:	03970613          	addi	a2,a4,57
   1162c:	03870693          	addi	a3,a4,56
   11630:	00361613          	slli	a2,a2,0x3
   11634:	ec5ff06f          	j	114f8 <_malloc_r+0x3cc>
   11638:	07240c63          	beq	s0,s2,116b0 <_malloc_r+0x584>
   1163c:	00892403          	lw	s0,8(s2)
   11640:	00812c03          	lw	s8,8(sp)
   11644:	00442783          	lw	a5,4(s0)
   11648:	e09ff06f          	j	11450 <_malloc_r+0x324>
   1164c:	05c78593          	addi	a1,a5,92
   11650:	05b78813          	addi	a6,a5,91
   11654:	00359613          	slli	a2,a1,0x3
   11658:	bb5ff06f          	j	1120c <_malloc_r+0xe0>
   1165c:	00832783          	lw	a5,8(t1)
   11660:	fff58593          	addi	a1,a1,-1
   11664:	26679e63          	bne	a5,t1,118e0 <_malloc_r+0x7b4>
   11668:	0035f793          	andi	a5,a1,3
   1166c:	ff830313          	addi	t1,t1,-8
   11670:	fe0796e3          	bnez	a5,1165c <_malloc_r+0x530>
   11674:	00492703          	lw	a4,4(s2)
   11678:	fff64793          	not	a5,a2
   1167c:	00e7f7b3          	and	a5,a5,a4
   11680:	00f92223          	sw	a5,4(s2)
   11684:	00161613          	slli	a2,a2,0x1
   11688:	cec7eee3          	bltu	a5,a2,11384 <_malloc_r+0x258>
   1168c:	ce060ce3          	beqz	a2,11384 <_malloc_r+0x258>
   11690:	00f67733          	and	a4,a2,a5
   11694:	00071a63          	bnez	a4,116a8 <_malloc_r+0x57c>
   11698:	00161613          	slli	a2,a2,0x1
   1169c:	00f67733          	and	a4,a2,a5
   116a0:	004e0e13          	addi	t3,t3,4
   116a4:	fe070ae3          	beqz	a4,11698 <_malloc_r+0x56c>
   116a8:	000e0593          	mv	a1,t3
   116ac:	c59ff06f          	j	11304 <_malloc_r+0x1d8>
   116b0:	08c18c13          	addi	s8,gp,140 # 23b54 <__malloc_current_mallinfo>
   116b4:	000c2703          	lw	a4,0(s8)
   116b8:	00ea8733          	add	a4,s5,a4
   116bc:	00ec2023          	sw	a4,0(s8)
   116c0:	f101a683          	lw	a3,-240(gp) # 239d8 <__malloc_sbrk_base>
   116c4:	fff00793          	li	a5,-1
   116c8:	18f68663          	beq	a3,a5,11854 <_malloc_r+0x728>
   116cc:	414b87b3          	sub	a5,s7,s4
   116d0:	00e787b3          	add	a5,a5,a4
   116d4:	00fc2023          	sw	a5,0(s8)
   116d8:	007bfc93          	andi	s9,s7,7
   116dc:	0c0c8c63          	beqz	s9,117b4 <_malloc_r+0x688>
   116e0:	419b8bb3          	sub	s7,s7,s9
   116e4:	000017b7          	lui	a5,0x1
   116e8:	00878793          	addi	a5,a5,8 # 1008 <exit-0xf08c>
   116ec:	008b8b93          	addi	s7,s7,8
   116f0:	419785b3          	sub	a1,a5,s9
   116f4:	015b8ab3          	add	s5,s7,s5
   116f8:	415585b3          	sub	a1,a1,s5
   116fc:	01459593          	slli	a1,a1,0x14
   11700:	0145da13          	srli	s4,a1,0x14
   11704:	000a0593          	mv	a1,s4
   11708:	00098513          	mv	a0,s3
   1170c:	715040ef          	jal	ra,16620 <_sbrk_r>
   11710:	fff00793          	li	a5,-1
   11714:	18f50063          	beq	a0,a5,11894 <_malloc_r+0x768>
   11718:	41750533          	sub	a0,a0,s7
   1171c:	01450ab3          	add	s5,a0,s4
   11720:	000c2703          	lw	a4,0(s8)
   11724:	01792423          	sw	s7,8(s2)
   11728:	001ae793          	ori	a5,s5,1
   1172c:	00ea05b3          	add	a1,s4,a4
   11730:	00bc2023          	sw	a1,0(s8)
   11734:	00fba223          	sw	a5,4(s7)
   11738:	cf240ce3          	beq	s0,s2,11430 <_malloc_r+0x304>
   1173c:	00f00693          	li	a3,15
   11740:	0b66f063          	bgeu	a3,s6,117e0 <_malloc_r+0x6b4>
   11744:	00442703          	lw	a4,4(s0)
   11748:	ff4b0793          	addi	a5,s6,-12
   1174c:	ff87f793          	andi	a5,a5,-8
   11750:	00177713          	andi	a4,a4,1
   11754:	00f76733          	or	a4,a4,a5
   11758:	00e42223          	sw	a4,4(s0)
   1175c:	00500613          	li	a2,5
   11760:	00f40733          	add	a4,s0,a5
   11764:	00c72223          	sw	a2,4(a4)
   11768:	00c72423          	sw	a2,8(a4)
   1176c:	00f6e663          	bltu	a3,a5,11778 <_malloc_r+0x64c>
   11770:	004ba783          	lw	a5,4(s7)
   11774:	cbdff06f          	j	11430 <_malloc_r+0x304>
   11778:	00840593          	addi	a1,s0,8
   1177c:	00098513          	mv	a0,s3
   11780:	ea8ff0ef          	jal	ra,10e28 <_free_r>
   11784:	00892b83          	lw	s7,8(s2)
   11788:	000c2583          	lw	a1,0(s8)
   1178c:	004ba783          	lw	a5,4(s7)
   11790:	ca1ff06f          	j	11430 <_malloc_r+0x304>
   11794:	010a8a93          	addi	s5,s5,16
   11798:	c49ff06f          	j	113e0 <_malloc_r+0x2b4>
   1179c:	4026d693          	srai	a3,a3,0x2
   117a0:	00100793          	li	a5,1
   117a4:	00d797b3          	sll	a5,a5,a3
   117a8:	00f56533          	or	a0,a0,a5
   117ac:	00a92223          	sw	a0,4(s2)
   117b0:	d75ff06f          	j	11524 <_malloc_r+0x3f8>
   117b4:	015b85b3          	add	a1,s7,s5
   117b8:	40b005b3          	neg	a1,a1
   117bc:	01459593          	slli	a1,a1,0x14
   117c0:	0145da13          	srli	s4,a1,0x14
   117c4:	000a0593          	mv	a1,s4
   117c8:	00098513          	mv	a0,s3
   117cc:	655040ef          	jal	ra,16620 <_sbrk_r>
   117d0:	fff00793          	li	a5,-1
   117d4:	f4f512e3          	bne	a0,a5,11718 <_malloc_r+0x5ec>
   117d8:	00000a13          	li	s4,0
   117dc:	f45ff06f          	j	11720 <_malloc_r+0x5f4>
   117e0:	00812c03          	lw	s8,8(sp)
   117e4:	00100793          	li	a5,1
   117e8:	00fba223          	sw	a5,4(s7)
   117ec:	00098513          	mv	a0,s3
   117f0:	0fc000ef          	jal	ra,118ec <__malloc_unlock>
   117f4:	00000513          	li	a0,0
   117f8:	01812a03          	lw	s4,24(sp)
   117fc:	01412a83          	lw	s5,20(sp)
   11800:	01012b03          	lw	s6,16(sp)
   11804:	00c12b83          	lw	s7,12(sp)
   11808:	00412c83          	lw	s9,4(sp)
   1180c:	9adff06f          	j	111b8 <_malloc_r+0x8c>
   11810:	05400693          	li	a3,84
   11814:	04e6e463          	bltu	a3,a4,1185c <_malloc_r+0x730>
   11818:	00c7d713          	srli	a4,a5,0xc
   1181c:	06f70613          	addi	a2,a4,111
   11820:	06e70693          	addi	a3,a4,110
   11824:	00361613          	slli	a2,a2,0x3
   11828:	cd1ff06f          	j	114f8 <_malloc_r+0x3cc>
   1182c:	15400713          	li	a4,340
   11830:	04f76463          	bltu	a4,a5,11878 <_malloc_r+0x74c>
   11834:	00f4d793          	srli	a5,s1,0xf
   11838:	07878593          	addi	a1,a5,120
   1183c:	07778813          	addi	a6,a5,119
   11840:	00359613          	slli	a2,a1,0x3
   11844:	9c9ff06f          	j	1120c <_malloc_r+0xe0>
   11848:	00892403          	lw	s0,8(s2)
   1184c:	00442783          	lw	a5,4(s0)
   11850:	c01ff06f          	j	11450 <_malloc_r+0x324>
   11854:	f171a823          	sw	s7,-240(gp) # 239d8 <__malloc_sbrk_base>
   11858:	e81ff06f          	j	116d8 <_malloc_r+0x5ac>
   1185c:	15400693          	li	a3,340
   11860:	04e6e463          	bltu	a3,a4,118a8 <_malloc_r+0x77c>
   11864:	00f7d713          	srli	a4,a5,0xf
   11868:	07870613          	addi	a2,a4,120
   1186c:	07770693          	addi	a3,a4,119
   11870:	00361613          	slli	a2,a2,0x3
   11874:	c85ff06f          	j	114f8 <_malloc_r+0x3cc>
   11878:	55400713          	li	a4,1364
   1187c:	04f76463          	bltu	a4,a5,118c4 <_malloc_r+0x798>
   11880:	0124d793          	srli	a5,s1,0x12
   11884:	07d78593          	addi	a1,a5,125
   11888:	07c78813          	addi	a6,a5,124
   1188c:	00359613          	slli	a2,a1,0x3
   11890:	97dff06f          	j	1120c <_malloc_r+0xe0>
   11894:	ff8c8c93          	addi	s9,s9,-8
   11898:	019a8ab3          	add	s5,s5,s9
   1189c:	417a8ab3          	sub	s5,s5,s7
   118a0:	00000a13          	li	s4,0
   118a4:	e7dff06f          	j	11720 <_malloc_r+0x5f4>
   118a8:	55400693          	li	a3,1364
   118ac:	02e6e463          	bltu	a3,a4,118d4 <_malloc_r+0x7a8>
   118b0:	0127d713          	srli	a4,a5,0x12
   118b4:	07d70613          	addi	a2,a4,125
   118b8:	07c70693          	addi	a3,a4,124
   118bc:	00361613          	slli	a2,a2,0x3
   118c0:	c39ff06f          	j	114f8 <_malloc_r+0x3cc>
   118c4:	3f800613          	li	a2,1016
   118c8:	07f00593          	li	a1,127
   118cc:	07e00813          	li	a6,126
   118d0:	93dff06f          	j	1120c <_malloc_r+0xe0>
   118d4:	3f800613          	li	a2,1016
   118d8:	07e00693          	li	a3,126
   118dc:	c1dff06f          	j	114f8 <_malloc_r+0x3cc>
   118e0:	00492783          	lw	a5,4(s2)
   118e4:	da1ff06f          	j	11684 <_malloc_r+0x558>

000118e8 <__malloc_lock>:
   118e8:	00008067          	ret

000118ec <__malloc_unlock>:
   118ec:	00008067          	ret

000118f0 <_vfprintf_r>:
   118f0:	e3010113          	addi	sp,sp,-464
   118f4:	1c112623          	sw	ra,460(sp)
   118f8:	1c812423          	sw	s0,456(sp)
   118fc:	1c912223          	sw	s1,452(sp)
   11900:	1b612823          	sw	s6,432(sp)
   11904:	00058493          	mv	s1,a1
   11908:	00060b13          	mv	s6,a2
   1190c:	00d12623          	sw	a3,12(sp)
   11910:	00050413          	mv	s0,a0
   11914:	02a12223          	sw	a0,36(sp)
   11918:	4f9040ef          	jal	ra,16610 <_localeconv_r>
   1191c:	00052703          	lw	a4,0(a0)
   11920:	00070513          	mv	a0,a4
   11924:	02e12623          	sw	a4,44(sp)
   11928:	060050ef          	jal	ra,16988 <strlen>
   1192c:	02a12423          	sw	a0,40(sp)
   11930:	0c012823          	sw	zero,208(sp)
   11934:	0c012a23          	sw	zero,212(sp)
   11938:	0c012c23          	sw	zero,216(sp)
   1193c:	0c012e23          	sw	zero,220(sp)
   11940:	00040863          	beqz	s0,11950 <_vfprintf_r+0x60>
   11944:	03442703          	lw	a4,52(s0)
   11948:	00071463          	bnez	a4,11950 <_vfprintf_r+0x60>
   1194c:	1150106f          	j	13260 <_vfprintf_r+0x1970>
   11950:	00c49703          	lh	a4,12(s1)
   11954:	01271693          	slli	a3,a4,0x12
   11958:	0206c663          	bltz	a3,11984 <_vfprintf_r+0x94>
   1195c:	0644a683          	lw	a3,100(s1)
   11960:	000025b7          	lui	a1,0x2
   11964:	ffffe637          	lui	a2,0xffffe
   11968:	00b76733          	or	a4,a4,a1
   1196c:	fff60613          	addi	a2,a2,-1 # ffffdfff <__BSS_END__+0xfffda2f3>
   11970:	01071713          	slli	a4,a4,0x10
   11974:	41075713          	srai	a4,a4,0x10
   11978:	00c6f6b3          	and	a3,a3,a2
   1197c:	00e49623          	sh	a4,12(s1)
   11980:	06d4a223          	sw	a3,100(s1)
   11984:	00877693          	andi	a3,a4,8
   11988:	30068463          	beqz	a3,11c90 <_vfprintf_r+0x3a0>
   1198c:	0104a683          	lw	a3,16(s1)
   11990:	30068063          	beqz	a3,11c90 <_vfprintf_r+0x3a0>
   11994:	01a77713          	andi	a4,a4,26
   11998:	00a00693          	li	a3,10
   1199c:	30d70c63          	beq	a4,a3,11cb4 <_vfprintf_r+0x3c4>
   119a0:	1b312e23          	sw	s3,444(sp)
   119a4:	1b512a23          	sw	s5,436(sp)
   119a8:	1b712623          	sw	s7,428(sp)
   119ac:	1ba12023          	sw	s10,416(sp)
   119b0:	00022737          	lui	a4,0x22
   119b4:	1d212023          	sw	s2,448(sp)
   119b8:	1b412c23          	sw	s4,440(sp)
   119bc:	1b812423          	sw	s8,424(sp)
   119c0:	1b912223          	sw	s9,420(sp)
   119c4:	19b12e23          	sw	s11,412(sp)
   119c8:	000b0d13          	mv	s10,s6
   119cc:	adc70793          	addi	a5,a4,-1316 # 21adc <__clzsi2+0x168>
   119d0:	000d4703          	lbu	a4,0(s10)
   119d4:	0ec10993          	addi	s3,sp,236
   119d8:	00022ab7          	lui	s5,0x22
   119dc:	0d312223          	sw	s3,196(sp)
   119e0:	0c012623          	sw	zero,204(sp)
   119e4:	0c012423          	sw	zero,200(sp)
   119e8:	00012c23          	sw	zero,24(sp)
   119ec:	02012823          	sw	zero,48(sp)
   119f0:	02012e23          	sw	zero,60(sp)
   119f4:	02012c23          	sw	zero,56(sp)
   119f8:	04012023          	sw	zero,64(sp)
   119fc:	04012223          	sw	zero,68(sp)
   11a00:	00012223          	sw	zero,4(sp)
   11a04:	00f12823          	sw	a5,16(sp)
   11a08:	02412b83          	lw	s7,36(sp)
   11a0c:	00098413          	mv	s0,s3
   11a10:	ce0a8a93          	addi	s5,s5,-800 # 21ce0 <zeroes.0>
   11a14:	22070063          	beqz	a4,11c34 <_vfprintf_r+0x344>
   11a18:	000d0913          	mv	s2,s10
   11a1c:	02500693          	li	a3,37
   11a20:	3ed70863          	beq	a4,a3,11e10 <_vfprintf_r+0x520>
   11a24:	00194703          	lbu	a4,1(s2)
   11a28:	00190913          	addi	s2,s2,1
   11a2c:	fe071ae3          	bnez	a4,11a20 <_vfprintf_r+0x130>
   11a30:	41a90a33          	sub	s4,s2,s10
   11a34:	21a90063          	beq	s2,s10,11c34 <_vfprintf_r+0x344>
   11a38:	0cc12683          	lw	a3,204(sp)
   11a3c:	0c812703          	lw	a4,200(sp)
   11a40:	01a42023          	sw	s10,0(s0)
   11a44:	014686b3          	add	a3,a3,s4
   11a48:	00170713          	addi	a4,a4,1
   11a4c:	01442223          	sw	s4,4(s0)
   11a50:	0cd12623          	sw	a3,204(sp)
   11a54:	0ce12423          	sw	a4,200(sp)
   11a58:	00700693          	li	a3,7
   11a5c:	00840413          	addi	s0,s0,8
   11a60:	3ce6c063          	blt	a3,a4,11e20 <_vfprintf_r+0x530>
   11a64:	00412783          	lw	a5,4(sp)
   11a68:	00094703          	lbu	a4,0(s2)
   11a6c:	014787b3          	add	a5,a5,s4
   11a70:	00f12223          	sw	a5,4(sp)
   11a74:	1c070063          	beqz	a4,11c34 <_vfprintf_r+0x344>
   11a78:	00194883          	lbu	a7,1(s2)
   11a7c:	0a0103a3          	sb	zero,167(sp)
   11a80:	00190913          	addi	s2,s2,1
   11a84:	fff00a13          	li	s4,-1
   11a88:	00000c93          	li	s9,0
   11a8c:	00000d93          	li	s11,0
   11a90:	05a00b13          	li	s6,90
   11a94:	00190913          	addi	s2,s2,1
   11a98:	fe088793          	addi	a5,a7,-32
   11a9c:	04fb6663          	bltu	s6,a5,11ae8 <_vfprintf_r+0x1f8>
   11aa0:	01012703          	lw	a4,16(sp)
   11aa4:	00279793          	slli	a5,a5,0x2
   11aa8:	00e787b3          	add	a5,a5,a4
   11aac:	0007a783          	lw	a5,0(a5)
   11ab0:	00078067          	jr	a5
   11ab4:	00000c93          	li	s9,0
   11ab8:	fd088793          	addi	a5,a7,-48
   11abc:	00900693          	li	a3,9
   11ac0:	00094883          	lbu	a7,0(s2)
   11ac4:	002c9713          	slli	a4,s9,0x2
   11ac8:	01970cb3          	add	s9,a4,s9
   11acc:	001c9c93          	slli	s9,s9,0x1
   11ad0:	01978cb3          	add	s9,a5,s9
   11ad4:	fd088793          	addi	a5,a7,-48
   11ad8:	00190913          	addi	s2,s2,1
   11adc:	fef6f2e3          	bgeu	a3,a5,11ac0 <_vfprintf_r+0x1d0>
   11ae0:	fe088793          	addi	a5,a7,-32
   11ae4:	fafb7ee3          	bgeu	s6,a5,11aa0 <_vfprintf_r+0x1b0>
   11ae8:	14088663          	beqz	a7,11c34 <_vfprintf_r+0x344>
   11aec:	13110623          	sb	a7,300(sp)
   11af0:	0a0103a3          	sb	zero,167(sp)
   11af4:	00100c13          	li	s8,1
   11af8:	00100b13          	li	s6,1
   11afc:	12c10d13          	addi	s10,sp,300
   11b00:	00012423          	sw	zero,8(sp)
   11b04:	00000a13          	li	s4,0
   11b08:	02012023          	sw	zero,32(sp)
   11b0c:	00012e23          	sw	zero,28(sp)
   11b10:	00012a23          	sw	zero,20(sp)
   11b14:	002df293          	andi	t0,s11,2
   11b18:	00028463          	beqz	t0,11b20 <_vfprintf_r+0x230>
   11b1c:	002c0c13          	addi	s8,s8,2
   11b20:	084dff93          	andi	t6,s11,132
   11b24:	0cc12603          	lw	a2,204(sp)
   11b28:	000f9663          	bnez	t6,11b34 <_vfprintf_r+0x244>
   11b2c:	418c8733          	sub	a4,s9,s8
   11b30:	46e04ce3          	bgtz	a4,127a8 <_vfprintf_r+0xeb8>
   11b34:	0a714703          	lbu	a4,167(sp)
   11b38:	02070a63          	beqz	a4,11b6c <_vfprintf_r+0x27c>
   11b3c:	0c812703          	lw	a4,200(sp)
   11b40:	0a710593          	addi	a1,sp,167
   11b44:	00b42023          	sw	a1,0(s0)
   11b48:	00160613          	addi	a2,a2,1
   11b4c:	00100593          	li	a1,1
   11b50:	00170713          	addi	a4,a4,1
   11b54:	00b42223          	sw	a1,4(s0)
   11b58:	0cc12623          	sw	a2,204(sp)
   11b5c:	0ce12423          	sw	a4,200(sp)
   11b60:	00700593          	li	a1,7
   11b64:	00840413          	addi	s0,s0,8
   11b68:	3ee5c463          	blt	a1,a4,11f50 <_vfprintf_r+0x660>
   11b6c:	02028a63          	beqz	t0,11ba0 <_vfprintf_r+0x2b0>
   11b70:	0c812703          	lw	a4,200(sp)
   11b74:	00200593          	li	a1,2
   11b78:	00260613          	addi	a2,a2,2
   11b7c:	00170713          	addi	a4,a4,1
   11b80:	0a810793          	addi	a5,sp,168
   11b84:	00b42223          	sw	a1,4(s0)
   11b88:	00f42023          	sw	a5,0(s0)
   11b8c:	0cc12623          	sw	a2,204(sp)
   11b90:	0ce12423          	sw	a4,200(sp)
   11b94:	00700593          	li	a1,7
   11b98:	00840413          	addi	s0,s0,8
   11b9c:	50e5cce3          	blt	a1,a4,128b4 <_vfprintf_r+0xfc4>
   11ba0:	08000713          	li	a4,128
   11ba4:	1eef8ee3          	beq	t6,a4,125a0 <_vfprintf_r+0xcb0>
   11ba8:	416a0a33          	sub	s4,s4,s6
   11bac:	2f4044e3          	bgtz	s4,12694 <_vfprintf_r+0xda4>
   11bb0:	100df713          	andi	a4,s11,256
   11bb4:	040718e3          	bnez	a4,12404 <_vfprintf_r+0xb14>
   11bb8:	0c812783          	lw	a5,200(sp)
   11bbc:	01660633          	add	a2,a2,s6
   11bc0:	01a42023          	sw	s10,0(s0)
   11bc4:	00178793          	addi	a5,a5,1
   11bc8:	01642223          	sw	s6,4(s0)
   11bcc:	0cc12623          	sw	a2,204(sp)
   11bd0:	0cf12423          	sw	a5,200(sp)
   11bd4:	00700713          	li	a4,7
   11bd8:	4cf74063          	blt	a4,a5,12098 <_vfprintf_r+0x7a8>
   11bdc:	00840413          	addi	s0,s0,8
   11be0:	004dfe13          	andi	t3,s11,4
   11be4:	000e0663          	beqz	t3,11bf0 <_vfprintf_r+0x300>
   11be8:	418c8a33          	sub	s4,s9,s8
   11bec:	4f404ce3          	bgtz	s4,128e4 <_vfprintf_r+0xff4>
   11bf0:	000c8313          	mv	t1,s9
   11bf4:	018cd463          	bge	s9,s8,11bfc <_vfprintf_r+0x30c>
   11bf8:	000c0313          	mv	t1,s8
   11bfc:	00412783          	lw	a5,4(sp)
   11c00:	006787b3          	add	a5,a5,t1
   11c04:	00f12223          	sw	a5,4(sp)
   11c08:	360618e3          	bnez	a2,12778 <_vfprintf_r+0xe88>
   11c0c:	00812783          	lw	a5,8(sp)
   11c10:	0c012423          	sw	zero,200(sp)
   11c14:	00078863          	beqz	a5,11c24 <_vfprintf_r+0x334>
   11c18:	00812583          	lw	a1,8(sp)
   11c1c:	000b8513          	mv	a0,s7
   11c20:	a08ff0ef          	jal	ra,10e28 <_free_r>
   11c24:	00098413          	mv	s0,s3
   11c28:	00090d13          	mv	s10,s2
   11c2c:	000d4703          	lbu	a4,0(s10)
   11c30:	de0714e3          	bnez	a4,11a18 <_vfprintf_r+0x128>
   11c34:	0cc12783          	lw	a5,204(sp)
   11c38:	00078463          	beqz	a5,11c40 <_vfprintf_r+0x350>
   11c3c:	3890106f          	j	137c4 <_vfprintf_r+0x1ed4>
   11c40:	00c4d783          	lhu	a5,12(s1)
   11c44:	1c012903          	lw	s2,448(sp)
   11c48:	1bc12983          	lw	s3,444(sp)
   11c4c:	0407f793          	andi	a5,a5,64
   11c50:	1b812a03          	lw	s4,440(sp)
   11c54:	1b412a83          	lw	s5,436(sp)
   11c58:	1ac12b83          	lw	s7,428(sp)
   11c5c:	1a812c03          	lw	s8,424(sp)
   11c60:	1a412c83          	lw	s9,420(sp)
   11c64:	1a012d03          	lw	s10,416(sp)
   11c68:	19c12d83          	lw	s11,412(sp)
   11c6c:	00078463          	beqz	a5,11c74 <_vfprintf_r+0x384>
   11c70:	1640206f          	j	13dd4 <_vfprintf_r+0x24e4>
   11c74:	1cc12083          	lw	ra,460(sp)
   11c78:	1c812403          	lw	s0,456(sp)
   11c7c:	00412503          	lw	a0,4(sp)
   11c80:	1c412483          	lw	s1,452(sp)
   11c84:	1b012b03          	lw	s6,432(sp)
   11c88:	1d010113          	addi	sp,sp,464
   11c8c:	00008067          	ret
   11c90:	02412503          	lw	a0,36(sp)
   11c94:	00048593          	mv	a1,s1
   11c98:	41c040ef          	jal	ra,160b4 <__swsetup_r>
   11c9c:	00050463          	beqz	a0,11ca4 <_vfprintf_r+0x3b4>
   11ca0:	1340206f          	j	13dd4 <_vfprintf_r+0x24e4>
   11ca4:	00c49703          	lh	a4,12(s1)
   11ca8:	00a00693          	li	a3,10
   11cac:	01a77713          	andi	a4,a4,26
   11cb0:	ced718e3          	bne	a4,a3,119a0 <_vfprintf_r+0xb0>
   11cb4:	00e49703          	lh	a4,14(s1)
   11cb8:	ce0744e3          	bltz	a4,119a0 <_vfprintf_r+0xb0>
   11cbc:	00c12683          	lw	a3,12(sp)
   11cc0:	02412503          	lw	a0,36(sp)
   11cc4:	000b0613          	mv	a2,s6
   11cc8:	00048593          	mv	a1,s1
   11ccc:	4c4020ef          	jal	ra,14190 <__sbprintf>
   11cd0:	00a12223          	sw	a0,4(sp)
   11cd4:	fa1ff06f          	j	11c74 <_vfprintf_r+0x384>
   11cd8:	000b8513          	mv	a0,s7
   11cdc:	135040ef          	jal	ra,16610 <_localeconv_r>
   11ce0:	00452783          	lw	a5,4(a0)
   11ce4:	00078513          	mv	a0,a5
   11ce8:	04f12223          	sw	a5,68(sp)
   11cec:	49d040ef          	jal	ra,16988 <strlen>
   11cf0:	00050793          	mv	a5,a0
   11cf4:	000b8513          	mv	a0,s7
   11cf8:	00078c13          	mv	s8,a5
   11cfc:	04f12023          	sw	a5,64(sp)
   11d00:	111040ef          	jal	ra,16610 <_localeconv_r>
   11d04:	00852703          	lw	a4,8(a0)
   11d08:	02e12c23          	sw	a4,56(sp)
   11d0c:	760c10e3          	bnez	s8,12c6c <_vfprintf_r+0x137c>
   11d10:	00094883          	lbu	a7,0(s2)
   11d14:	d81ff06f          	j	11a94 <_vfprintf_r+0x1a4>
   11d18:	00094883          	lbu	a7,0(s2)
   11d1c:	020ded93          	ori	s11,s11,32
   11d20:	d75ff06f          	j	11a94 <_vfprintf_r+0x1a4>
   11d24:	010ded93          	ori	s11,s11,16
   11d28:	020df793          	andi	a5,s11,32
   11d2c:	3a078e63          	beqz	a5,120e8 <_vfprintf_r+0x7f8>
   11d30:	00c12783          	lw	a5,12(sp)
   11d34:	00778c13          	addi	s8,a5,7
   11d38:	ff8c7c13          	andi	s8,s8,-8
   11d3c:	004c2783          	lw	a5,4(s8)
   11d40:	000c2b03          	lw	s6,0(s8)
   11d44:	008c0713          	addi	a4,s8,8
   11d48:	00e12623          	sw	a4,12(sp)
   11d4c:	00078813          	mv	a6,a5
   11d50:	3c07c663          	bltz	a5,1211c <_vfprintf_r+0x82c>
   11d54:	000d8613          	mv	a2,s11
   11d58:	4e0a4e63          	bltz	s4,12254 <_vfprintf_r+0x964>
   11d5c:	010b67b3          	or	a5,s6,a6
   11d60:	f7fdf613          	andi	a2,s11,-129
   11d64:	4e079863          	bnez	a5,12254 <_vfprintf_r+0x964>
   11d68:	4e0a1c63          	bnez	s4,12260 <_vfprintf_r+0x970>
   11d6c:	00000b13          	li	s6,0
   11d70:	00060d93          	mv	s11,a2
   11d74:	19010d13          	addi	s10,sp,400
   11d78:	0a714703          	lbu	a4,167(sp)
   11d7c:	000a0c13          	mv	s8,s4
   11d80:	016a5463          	bge	s4,s6,11d88 <_vfprintf_r+0x498>
   11d84:	000b0c13          	mv	s8,s6
   11d88:	00012423          	sw	zero,8(sp)
   11d8c:	02012023          	sw	zero,32(sp)
   11d90:	00012e23          	sw	zero,28(sp)
   11d94:	00012a23          	sw	zero,20(sp)
   11d98:	d6070ee3          	beqz	a4,11b14 <_vfprintf_r+0x224>
   11d9c:	001c0c13          	addi	s8,s8,1
   11da0:	d75ff06f          	j	11b14 <_vfprintf_r+0x224>
   11da4:	010ded93          	ori	s11,s11,16
   11da8:	020df793          	andi	a5,s11,32
   11dac:	30078663          	beqz	a5,120b8 <_vfprintf_r+0x7c8>
   11db0:	00c12783          	lw	a5,12(sp)
   11db4:	00778c13          	addi	s8,a5,7
   11db8:	ff8c7c13          	andi	s8,s8,-8
   11dbc:	000c2b03          	lw	s6,0(s8)
   11dc0:	004c2803          	lw	a6,4(s8)
   11dc4:	008c0793          	addi	a5,s8,8
   11dc8:	00f12623          	sw	a5,12(sp)
   11dcc:	bffdf613          	andi	a2,s11,-1025
   11dd0:	00000793          	li	a5,0
   11dd4:	00000693          	li	a3,0
   11dd8:	0ad103a3          	sb	a3,167(sp)
   11ddc:	360a4263          	bltz	s4,12140 <_vfprintf_r+0x850>
   11de0:	010b66b3          	or	a3,s6,a6
   11de4:	f7f67d93          	andi	s11,a2,-129
   11de8:	1a069ce3          	bnez	a3,127a0 <_vfprintf_r+0xeb0>
   11dec:	740a1c63          	bnez	s4,12544 <_vfprintf_r+0xc54>
   11df0:	5e0796e3          	bnez	a5,12bdc <_vfprintf_r+0x12ec>
   11df4:	00167b13          	andi	s6,a2,1
   11df8:	19010d13          	addi	s10,sp,400
   11dfc:	f60b0ee3          	beqz	s6,11d78 <_vfprintf_r+0x488>
   11e00:	03000793          	li	a5,48
   11e04:	18f107a3          	sb	a5,399(sp)
   11e08:	18f10d13          	addi	s10,sp,399
   11e0c:	f6dff06f          	j	11d78 <_vfprintf_r+0x488>
   11e10:	41a90a33          	sub	s4,s2,s10
   11e14:	c3a912e3          	bne	s2,s10,11a38 <_vfprintf_r+0x148>
   11e18:	00094703          	lbu	a4,0(s2)
   11e1c:	c59ff06f          	j	11a74 <_vfprintf_r+0x184>
   11e20:	0c410613          	addi	a2,sp,196
   11e24:	00048593          	mv	a1,s1
   11e28:	000b8513          	mv	a0,s7
   11e2c:	554020ef          	jal	ra,14380 <__sprint_r>
   11e30:	e00518e3          	bnez	a0,11c40 <_vfprintf_r+0x350>
   11e34:	00098413          	mv	s0,s3
   11e38:	c2dff06f          	j	11a64 <_vfprintf_r+0x174>
   11e3c:	008df713          	andi	a4,s11,8
   11e40:	600714e3          	bnez	a4,12c48 <_vfprintf_r+0x1358>
   11e44:	00c12783          	lw	a5,12(sp)
   11e48:	09010513          	addi	a0,sp,144
   11e4c:	01112423          	sw	a7,8(sp)
   11e50:	00778c13          	addi	s8,a5,7
   11e54:	ff8c7c13          	andi	s8,s8,-8
   11e58:	000c2583          	lw	a1,0(s8)
   11e5c:	004c2603          	lw	a2,4(s8)
   11e60:	008c0793          	addi	a5,s8,8
   11e64:	00f12623          	sw	a5,12(sp)
   11e68:	02d0f0ef          	jal	ra,21694 <__extenddftf2>
   11e6c:	09012583          	lw	a1,144(sp)
   11e70:	09412603          	lw	a2,148(sp)
   11e74:	09812683          	lw	a3,152(sp)
   11e78:	09c12703          	lw	a4,156(sp)
   11e7c:	00812883          	lw	a7,8(sp)
   11e80:	0d010513          	addi	a0,sp,208
   11e84:	01112423          	sw	a7,8(sp)
   11e88:	0ce12e23          	sw	a4,220(sp)
   11e8c:	0cb12823          	sw	a1,208(sp)
   11e90:	0cc12a23          	sw	a2,212(sp)
   11e94:	0cd12c23          	sw	a3,216(sp)
   11e98:	1cc050ef          	jal	ra,17064 <_ldcheck>
   11e9c:	0aa12623          	sw	a0,172(sp)
   11ea0:	00200713          	li	a4,2
   11ea4:	00812883          	lw	a7,8(sp)
   11ea8:	00e51463          	bne	a0,a4,11eb0 <_vfprintf_r+0x5c0>
   11eac:	4100106f          	j	132bc <_vfprintf_r+0x19cc>
   11eb0:	00100713          	li	a4,1
   11eb4:	00e51463          	bne	a0,a4,11ebc <_vfprintf_r+0x5cc>
   11eb8:	5640106f          	j	1341c <_vfprintf_r+0x1b2c>
   11ebc:	06100713          	li	a4,97
   11ec0:	00e89463          	bne	a7,a4,11ec8 <_vfprintf_r+0x5d8>
   11ec4:	7b10006f          	j	12e74 <_vfprintf_r+0x1584>
   11ec8:	04100713          	li	a4,65
   11ecc:	05800793          	li	a5,88
   11ed0:	00e89463          	bne	a7,a4,11ed8 <_vfprintf_r+0x5e8>
   11ed4:	7a50006f          	j	12e78 <_vfprintf_r+0x1588>
   11ed8:	fff00713          	li	a4,-1
   11edc:	00ea1463          	bne	s4,a4,11ee4 <_vfprintf_r+0x5f4>
   11ee0:	0ec0206f          	j	13fcc <_vfprintf_r+0x26dc>
   11ee4:	fdf8f713          	andi	a4,a7,-33
   11ee8:	04700693          	li	a3,71
   11eec:	00012423          	sw	zero,8(sp)
   11ef0:	00d71663          	bne	a4,a3,11efc <_vfprintf_r+0x60c>
   11ef4:	000a1463          	bnez	s4,11efc <_vfprintf_r+0x60c>
   11ef8:	00100a13          	li	s4,1
   11efc:	0dc12c03          	lw	s8,220(sp)
   11f00:	100de793          	ori	a5,s11,256
   11f04:	04f12423          	sw	a5,72(sp)
   11f08:	02012a23          	sw	zero,52(sp)
   11f0c:	0d012f83          	lw	t6,208(sp)
   11f10:	0d412f03          	lw	t5,212(sp)
   11f14:	0d812e83          	lw	t4,216(sp)
   11f18:	000c5a63          	bgez	s8,11f2c <_vfprintf_r+0x63c>
   11f1c:	80000737          	lui	a4,0x80000
   11f20:	02d00793          	li	a5,45
   11f24:	01874c33          	xor	s8,a4,s8
   11f28:	02f12a23          	sw	a5,52(sp)
   11f2c:	fbf88713          	addi	a4,a7,-65
   11f30:	02500693          	li	a3,37
   11f34:	78e6e6e3          	bltu	a3,a4,12ec0 <_vfprintf_r+0x15d0>
   11f38:	000226b7          	lui	a3,0x22
   11f3c:	00271713          	slli	a4,a4,0x2
   11f40:	c4868693          	addi	a3,a3,-952 # 21c48 <__clzsi2+0x2d4>
   11f44:	00d70733          	add	a4,a4,a3
   11f48:	00072703          	lw	a4,0(a4) # 80000000 <__BSS_END__+0x7ffdc2f4>
   11f4c:	00070067          	jr	a4
   11f50:	0c410613          	addi	a2,sp,196
   11f54:	00048593          	mv	a1,s1
   11f58:	000b8513          	mv	a0,s7
   11f5c:	05112623          	sw	a7,76(sp)
   11f60:	05f12423          	sw	t6,72(sp)
   11f64:	02512a23          	sw	t0,52(sp)
   11f68:	418020ef          	jal	ra,14380 <__sprint_r>
   11f6c:	020510e3          	bnez	a0,1278c <_vfprintf_r+0xe9c>
   11f70:	0cc12603          	lw	a2,204(sp)
   11f74:	04c12883          	lw	a7,76(sp)
   11f78:	04812f83          	lw	t6,72(sp)
   11f7c:	03412283          	lw	t0,52(sp)
   11f80:	00098413          	mv	s0,s3
   11f84:	be9ff06f          	j	11b6c <_vfprintf_r+0x27c>
   11f88:	0c812a03          	lw	s4,200(sp)
   11f8c:	01812783          	lw	a5,24(sp)
   11f90:	00100713          	li	a4,1
   11f94:	01a42023          	sw	s10,0(s0)
   11f98:	00160613          	addi	a2,a2,1
   11f9c:	001a0a13          	addi	s4,s4,1
   11fa0:	00840b13          	addi	s6,s0,8
   11fa4:	34f752e3          	bge	a4,a5,12ae8 <_vfprintf_r+0x11f8>
   11fa8:	00100713          	li	a4,1
   11fac:	00e42223          	sw	a4,4(s0)
   11fb0:	0cc12623          	sw	a2,204(sp)
   11fb4:	0d412423          	sw	s4,200(sp)
   11fb8:	00700713          	li	a4,7
   11fbc:	01475463          	bge	a4,s4,11fc4 <_vfprintf_r+0x6d4>
   11fc0:	0fc0106f          	j	130bc <_vfprintf_r+0x17cc>
   11fc4:	02812783          	lw	a5,40(sp)
   11fc8:	02c12703          	lw	a4,44(sp)
   11fcc:	001a0a13          	addi	s4,s4,1
   11fd0:	00f60633          	add	a2,a2,a5
   11fd4:	00eb2023          	sw	a4,0(s6)
   11fd8:	00fb2223          	sw	a5,4(s6)
   11fdc:	0cc12623          	sw	a2,204(sp)
   11fe0:	0d412423          	sw	s4,200(sp)
   11fe4:	00700713          	li	a4,7
   11fe8:	008b0b13          	addi	s6,s6,8
   11fec:	01475463          	bge	a4,s4,11ff4 <_vfprintf_r+0x704>
   11ff0:	0f00106f          	j	130e0 <_vfprintf_r+0x17f0>
   11ff4:	0d012703          	lw	a4,208(sp)
   11ff8:	01812783          	lw	a5,24(sp)
   11ffc:	08010593          	addi	a1,sp,128
   12000:	08e12823          	sw	a4,144(sp)
   12004:	0d412703          	lw	a4,212(sp)
   12008:	09010513          	addi	a0,sp,144
   1200c:	00c12a23          	sw	a2,20(sp)
   12010:	08e12a23          	sw	a4,148(sp)
   12014:	0d812703          	lw	a4,216(sp)
   12018:	08012023          	sw	zero,128(sp)
   1201c:	08012223          	sw	zero,132(sp)
   12020:	08e12c23          	sw	a4,152(sp)
   12024:	0dc12703          	lw	a4,220(sp)
   12028:	08012423          	sw	zero,136(sp)
   1202c:	08012623          	sw	zero,140(sp)
   12030:	08e12e23          	sw	a4,156(sp)
   12034:	fff78413          	addi	s0,a5,-1
   12038:	7c40c0ef          	jal	ra,1e7fc <__eqtf2>
   1203c:	01412603          	lw	a2,20(sp)
   12040:	2e0504e3          	beqz	a0,12b28 <_vfprintf_r+0x1238>
   12044:	001d0793          	addi	a5,s10,1
   12048:	001a0a13          	addi	s4,s4,1
   1204c:	00860633          	add	a2,a2,s0
   12050:	00fb2023          	sw	a5,0(s6)
   12054:	008b2223          	sw	s0,4(s6)
   12058:	0cc12623          	sw	a2,204(sp)
   1205c:	0d412423          	sw	s4,200(sp)
   12060:	00700793          	li	a5,7
   12064:	008b0b13          	addi	s6,s6,8
   12068:	2947cee3          	blt	a5,s4,12b04 <_vfprintf_r+0x1214>
   1206c:	03c12683          	lw	a3,60(sp)
   12070:	0b410713          	addi	a4,sp,180
   12074:	001a0793          	addi	a5,s4,1
   12078:	00c68633          	add	a2,a3,a2
   1207c:	00eb2023          	sw	a4,0(s6)
   12080:	00db2223          	sw	a3,4(s6)
   12084:	0cc12623          	sw	a2,204(sp)
   12088:	0cf12423          	sw	a5,200(sp)
   1208c:	00700713          	li	a4,7
   12090:	008b0413          	addi	s0,s6,8
   12094:	b4f756e3          	bge	a4,a5,11be0 <_vfprintf_r+0x2f0>
   12098:	0c410613          	addi	a2,sp,196
   1209c:	00048593          	mv	a1,s1
   120a0:	000b8513          	mv	a0,s7
   120a4:	2dc020ef          	jal	ra,14380 <__sprint_r>
   120a8:	6e051263          	bnez	a0,1278c <_vfprintf_r+0xe9c>
   120ac:	0cc12603          	lw	a2,204(sp)
   120b0:	00098413          	mv	s0,s3
   120b4:	b2dff06f          	j	11be0 <_vfprintf_r+0x2f0>
   120b8:	00c12683          	lw	a3,12(sp)
   120bc:	010df793          	andi	a5,s11,16
   120c0:	0006a703          	lw	a4,0(a3)
   120c4:	00468693          	addi	a3,a3,4
   120c8:	00d12623          	sw	a3,12(sp)
   120cc:	360798e3          	bnez	a5,12c3c <_vfprintf_r+0x134c>
   120d0:	040df793          	andi	a5,s11,64
   120d4:	360780e3          	beqz	a5,12c34 <_vfprintf_r+0x1344>
   120d8:	01071b13          	slli	s6,a4,0x10
   120dc:	010b5b13          	srli	s6,s6,0x10
   120e0:	00000813          	li	a6,0
   120e4:	ce9ff06f          	j	11dcc <_vfprintf_r+0x4dc>
   120e8:	00c12683          	lw	a3,12(sp)
   120ec:	010df793          	andi	a5,s11,16
   120f0:	0006a703          	lw	a4,0(a3)
   120f4:	00468693          	addi	a3,a3,4
   120f8:	00d12623          	sw	a3,12(sp)
   120fc:	320794e3          	bnez	a5,12c24 <_vfprintf_r+0x1334>
   12100:	040df793          	andi	a5,s11,64
   12104:	30078ce3          	beqz	a5,12c1c <_vfprintf_r+0x132c>
   12108:	01071b13          	slli	s6,a4,0x10
   1210c:	410b5b13          	srai	s6,s6,0x10
   12110:	41fb5813          	srai	a6,s6,0x1f
   12114:	00080793          	mv	a5,a6
   12118:	c207dee3          	bgez	a5,11d54 <_vfprintf_r+0x464>
   1211c:	02d00693          	li	a3,45
   12120:	016037b3          	snez	a5,s6
   12124:	41000833          	neg	a6,a6
   12128:	0ad103a3          	sb	a3,167(sp)
   1212c:	40f80833          	sub	a6,a6,a5
   12130:	41600b33          	neg	s6,s6
   12134:	000d8613          	mv	a2,s11
   12138:	00100793          	li	a5,1
   1213c:	ca0a52e3          	bgez	s4,11de0 <_vfprintf_r+0x4f0>
   12140:	00100693          	li	a3,1
   12144:	10d78863          	beq	a5,a3,12254 <_vfprintf_r+0x964>
   12148:	00200693          	li	a3,2
   1214c:	40d78863          	beq	a5,a3,1255c <_vfprintf_r+0xc6c>
   12150:	19010d13          	addi	s10,sp,400
   12154:	01d81793          	slli	a5,a6,0x1d
   12158:	007b7693          	andi	a3,s6,7
   1215c:	003b5b13          	srli	s6,s6,0x3
   12160:	03068693          	addi	a3,a3,48
   12164:	0167eb33          	or	s6,a5,s6
   12168:	00385813          	srli	a6,a6,0x3
   1216c:	fedd0fa3          	sb	a3,-1(s10)
   12170:	010b67b3          	or	a5,s6,a6
   12174:	000d0513          	mv	a0,s10
   12178:	fffd0d13          	addi	s10,s10,-1
   1217c:	fc079ce3          	bnez	a5,12154 <_vfprintf_r+0x864>
   12180:	00167713          	andi	a4,a2,1
   12184:	40070663          	beqz	a4,12590 <_vfprintf_r+0xca0>
   12188:	03000713          	li	a4,48
   1218c:	40e68263          	beq	a3,a4,12590 <_vfprintf_r+0xca0>
   12190:	ffe50513          	addi	a0,a0,-2
   12194:	19010793          	addi	a5,sp,400
   12198:	feed0fa3          	sb	a4,-1(s10)
   1219c:	40a78b33          	sub	s6,a5,a0
   121a0:	00060d93          	mv	s11,a2
   121a4:	00050d13          	mv	s10,a0
   121a8:	bd1ff06f          	j	11d78 <_vfprintf_r+0x488>
   121ac:	00c12703          	lw	a4,12(sp)
   121b0:	0a0103a3          	sb	zero,167(sp)
   121b4:	00100c13          	li	s8,1
   121b8:	00072783          	lw	a5,0(a4)
   121bc:	00470713          	addi	a4,a4,4
   121c0:	00e12623          	sw	a4,12(sp)
   121c4:	12f10623          	sb	a5,300(sp)
   121c8:	00100b13          	li	s6,1
   121cc:	12c10d13          	addi	s10,sp,300
   121d0:	931ff06f          	j	11b00 <_vfprintf_r+0x210>
   121d4:	00c12783          	lw	a5,12(sp)
   121d8:	0a0103a3          	sb	zero,167(sp)
   121dc:	0007ad03          	lw	s10,0(a5)
   121e0:	00478813          	addi	a6,a5,4
   121e4:	3a0d02e3          	beqz	s10,12d88 <_vfprintf_r+0x1498>
   121e8:	000a5463          	bgez	s4,121f0 <_vfprintf_r+0x900>
   121ec:	1c80106f          	j	133b4 <_vfprintf_r+0x1ac4>
   121f0:	000a0613          	mv	a2,s4
   121f4:	00000593          	li	a1,0
   121f8:	000d0513          	mv	a0,s10
   121fc:	01012a23          	sw	a6,20(sp)
   12200:	01112623          	sw	a7,12(sp)
   12204:	18c040ef          	jal	ra,16390 <memchr>
   12208:	00a12423          	sw	a0,8(sp)
   1220c:	00c12883          	lw	a7,12(sp)
   12210:	01412803          	lw	a6,20(sp)
   12214:	00051463          	bnez	a0,1221c <_vfprintf_r+0x92c>
   12218:	3450106f          	j	13d5c <_vfprintf_r+0x246c>
   1221c:	00812783          	lw	a5,8(sp)
   12220:	0a714703          	lbu	a4,167(sp)
   12224:	01012623          	sw	a6,12(sp)
   12228:	41a78b33          	sub	s6,a5,s10
   1222c:	fffb4693          	not	a3,s6
   12230:	41f6d693          	srai	a3,a3,0x1f
   12234:	00012423          	sw	zero,8(sp)
   12238:	02012023          	sw	zero,32(sp)
   1223c:	00012e23          	sw	zero,28(sp)
   12240:	00012a23          	sw	zero,20(sp)
   12244:	00db7c33          	and	s8,s6,a3
   12248:	00000a13          	li	s4,0
   1224c:	b40718e3          	bnez	a4,11d9c <_vfprintf_r+0x4ac>
   12250:	8c5ff06f          	j	11b14 <_vfprintf_r+0x224>
   12254:	6c0812e3          	bnez	a6,13118 <_vfprintf_r+0x1828>
   12258:	00900793          	li	a5,9
   1225c:	6b67eee3          	bltu	a5,s6,13118 <_vfprintf_r+0x1828>
   12260:	030b0713          	addi	a4,s6,48
   12264:	18e107a3          	sb	a4,399(sp)
   12268:	00060d93          	mv	s11,a2
   1226c:	00100b13          	li	s6,1
   12270:	18f10d13          	addi	s10,sp,399
   12274:	b05ff06f          	j	11d78 <_vfprintf_r+0x488>
   12278:	00c12783          	lw	a5,12(sp)
   1227c:	0007ac83          	lw	s9,0(a5)
   12280:	00478793          	addi	a5,a5,4
   12284:	160cdae3          	bgez	s9,12bf8 <_vfprintf_r+0x1308>
   12288:	41900cb3          	neg	s9,s9
   1228c:	00f12623          	sw	a5,12(sp)
   12290:	00094883          	lbu	a7,0(s2)
   12294:	004ded93          	ori	s11,s11,4
   12298:	ffcff06f          	j	11a94 <_vfprintf_r+0x1a4>
   1229c:	010de613          	ori	a2,s11,16
   122a0:	02067793          	andi	a5,a2,32
   122a4:	100782e3          	beqz	a5,12ba8 <_vfprintf_r+0x12b8>
   122a8:	00c12783          	lw	a5,12(sp)
   122ac:	00778c13          	addi	s8,a5,7
   122b0:	ff8c7c13          	andi	s8,s8,-8
   122b4:	008c0793          	addi	a5,s8,8
   122b8:	00f12623          	sw	a5,12(sp)
   122bc:	000c2b03          	lw	s6,0(s8)
   122c0:	004c2803          	lw	a6,4(s8)
   122c4:	00100793          	li	a5,1
   122c8:	b0dff06f          	j	11dd4 <_vfprintf_r+0x4e4>
   122cc:	02b00793          	li	a5,43
   122d0:	00094883          	lbu	a7,0(s2)
   122d4:	0af103a3          	sb	a5,167(sp)
   122d8:	fbcff06f          	j	11a94 <_vfprintf_r+0x1a4>
   122dc:	00c12703          	lw	a4,12(sp)
   122e0:	000087b7          	lui	a5,0x8
   122e4:	83078793          	addi	a5,a5,-2000 # 7830 <exit-0x8864>
   122e8:	0af11423          	sh	a5,168(sp)
   122ec:	00470793          	addi	a5,a4,4
   122f0:	00f12623          	sw	a5,12(sp)
   122f4:	000227b7          	lui	a5,0x22
   122f8:	9d478793          	addi	a5,a5,-1580 # 219d4 <__clzsi2+0x60>
   122fc:	02f12823          	sw	a5,48(sp)
   12300:	00072b03          	lw	s6,0(a4)
   12304:	00000813          	li	a6,0
   12308:	002de613          	ori	a2,s11,2
   1230c:	00200793          	li	a5,2
   12310:	07800893          	li	a7,120
   12314:	ac1ff06f          	j	11dd4 <_vfprintf_r+0x4e4>
   12318:	020df793          	andi	a5,s11,32
   1231c:	16078ae3          	beqz	a5,12c90 <_vfprintf_r+0x13a0>
   12320:	00c12783          	lw	a5,12(sp)
   12324:	00412683          	lw	a3,4(sp)
   12328:	0007a783          	lw	a5,0(a5)
   1232c:	41f6d713          	srai	a4,a3,0x1f
   12330:	00d7a023          	sw	a3,0(a5)
   12334:	00e7a223          	sw	a4,4(a5)
   12338:	00c12783          	lw	a5,12(sp)
   1233c:	00090d13          	mv	s10,s2
   12340:	00478793          	addi	a5,a5,4
   12344:	00f12623          	sw	a5,12(sp)
   12348:	8e5ff06f          	j	11c2c <_vfprintf_r+0x33c>
   1234c:	00094883          	lbu	a7,0(s2)
   12350:	06c00793          	li	a5,108
   12354:	22f882e3          	beq	a7,a5,12d78 <_vfprintf_r+0x1488>
   12358:	010ded93          	ori	s11,s11,16
   1235c:	f38ff06f          	j	11a94 <_vfprintf_r+0x1a4>
   12360:	00094883          	lbu	a7,0(s2)
   12364:	06800793          	li	a5,104
   12368:	20f880e3          	beq	a7,a5,12d68 <_vfprintf_r+0x1478>
   1236c:	040ded93          	ori	s11,s11,64
   12370:	f24ff06f          	j	11a94 <_vfprintf_r+0x1a4>
   12374:	00094883          	lbu	a7,0(s2)
   12378:	008ded93          	ori	s11,s11,8
   1237c:	f18ff06f          	j	11a94 <_vfprintf_r+0x1a4>
   12380:	00094883          	lbu	a7,0(s2)
   12384:	001ded93          	ori	s11,s11,1
   12388:	f0cff06f          	j	11a94 <_vfprintf_r+0x1a4>
   1238c:	0a714783          	lbu	a5,167(sp)
   12390:	00094883          	lbu	a7,0(s2)
   12394:	f0079063          	bnez	a5,11a94 <_vfprintf_r+0x1a4>
   12398:	02000793          	li	a5,32
   1239c:	0af103a3          	sb	a5,167(sp)
   123a0:	ef4ff06f          	j	11a94 <_vfprintf_r+0x1a4>
   123a4:	00094883          	lbu	a7,0(s2)
   123a8:	080ded93          	ori	s11,s11,128
   123ac:	ee8ff06f          	j	11a94 <_vfprintf_r+0x1a4>
   123b0:	00094883          	lbu	a7,0(s2)
   123b4:	02a00793          	li	a5,42
   123b8:	00190693          	addi	a3,s2,1
   123bc:	00f89463          	bne	a7,a5,123c4 <_vfprintf_r+0xad4>
   123c0:	56d0106f          	j	1412c <_vfprintf_r+0x283c>
   123c4:	fd088793          	addi	a5,a7,-48
   123c8:	00900713          	li	a4,9
   123cc:	00000a13          	li	s4,0
   123d0:	00900613          	li	a2,9
   123d4:	02f76463          	bltu	a4,a5,123fc <_vfprintf_r+0xb0c>
   123d8:	0006c883          	lbu	a7,0(a3)
   123dc:	002a1713          	slli	a4,s4,0x2
   123e0:	01470a33          	add	s4,a4,s4
   123e4:	001a1a13          	slli	s4,s4,0x1
   123e8:	00fa0a33          	add	s4,s4,a5
   123ec:	fd088793          	addi	a5,a7,-48
   123f0:	00168693          	addi	a3,a3,1
   123f4:	fef672e3          	bgeu	a2,a5,123d8 <_vfprintf_r+0xae8>
   123f8:	0c0a48e3          	bltz	s4,12cc8 <_vfprintf_r+0x13d8>
   123fc:	00068913          	mv	s2,a3
   12400:	e98ff06f          	j	11a98 <_vfprintf_r+0x1a8>
   12404:	06500713          	li	a4,101
   12408:	b91750e3          	bge	a4,a7,11f88 <_vfprintf_r+0x698>
   1240c:	0d012703          	lw	a4,208(sp)
   12410:	08010593          	addi	a1,sp,128
   12414:	09010513          	addi	a0,sp,144
   12418:	08e12823          	sw	a4,144(sp)
   1241c:	0d412703          	lw	a4,212(sp)
   12420:	02c12a23          	sw	a2,52(sp)
   12424:	08012023          	sw	zero,128(sp)
   12428:	08e12a23          	sw	a4,148(sp)
   1242c:	0d812703          	lw	a4,216(sp)
   12430:	08012223          	sw	zero,132(sp)
   12434:	08012423          	sw	zero,136(sp)
   12438:	08e12c23          	sw	a4,152(sp)
   1243c:	0dc12703          	lw	a4,220(sp)
   12440:	08012623          	sw	zero,140(sp)
   12444:	08e12e23          	sw	a4,156(sp)
   12448:	3b40c0ef          	jal	ra,1e7fc <__eqtf2>
   1244c:	03412603          	lw	a2,52(sp)
   12450:	54051463          	bnez	a0,12998 <_vfprintf_r+0x10a8>
   12454:	0c812783          	lw	a5,200(sp)
   12458:	00022737          	lui	a4,0x22
   1245c:	a0470713          	addi	a4,a4,-1532 # 21a04 <__clzsi2+0x90>
   12460:	00e42023          	sw	a4,0(s0)
   12464:	00160613          	addi	a2,a2,1
   12468:	00100713          	li	a4,1
   1246c:	00178793          	addi	a5,a5,1
   12470:	00e42223          	sw	a4,4(s0)
   12474:	0cc12623          	sw	a2,204(sp)
   12478:	0cf12423          	sw	a5,200(sp)
   1247c:	00700713          	li	a4,7
   12480:	00840413          	addi	s0,s0,8
   12484:	5ef744e3          	blt	a4,a5,1326c <_vfprintf_r+0x197c>
   12488:	0ac12783          	lw	a5,172(sp)
   1248c:	01812703          	lw	a4,24(sp)
   12490:	74e7dc63          	bge	a5,a4,12be8 <_vfprintf_r+0x12f8>
   12494:	02c12783          	lw	a5,44(sp)
   12498:	02812703          	lw	a4,40(sp)
   1249c:	00840413          	addi	s0,s0,8
   124a0:	fef42c23          	sw	a5,-8(s0)
   124a4:	0c812783          	lw	a5,200(sp)
   124a8:	00e60633          	add	a2,a2,a4
   124ac:	fee42e23          	sw	a4,-4(s0)
   124b0:	00178793          	addi	a5,a5,1
   124b4:	0cc12623          	sw	a2,204(sp)
   124b8:	0cf12423          	sw	a5,200(sp)
   124bc:	00700713          	li	a4,7
   124c0:	08f744e3          	blt	a4,a5,12d48 <_vfprintf_r+0x1458>
   124c4:	01812783          	lw	a5,24(sp)
   124c8:	fff78a13          	addi	s4,a5,-1
   124cc:	f1405a63          	blez	s4,11be0 <_vfprintf_r+0x2f0>
   124d0:	00022837          	lui	a6,0x22
   124d4:	01000713          	li	a4,16
   124d8:	0c812783          	lw	a5,200(sp)
   124dc:	ce080813          	addi	a6,a6,-800 # 21ce0 <zeroes.0>
   124e0:	5b475ae3          	bge	a4,s4,13294 <_vfprintf_r+0x19a4>
   124e4:	01212a23          	sw	s2,20(sp)
   124e8:	01000b13          	li	s6,16
   124ec:	00700d13          	li	s10,7
   124f0:	00080913          	mv	s2,a6
   124f4:	00c0006f          	j	12500 <_vfprintf_r+0xc10>
   124f8:	ff0a0a13          	addi	s4,s4,-16
   124fc:	594b58e3          	bge	s6,s4,1328c <_vfprintf_r+0x199c>
   12500:	01060613          	addi	a2,a2,16
   12504:	00178793          	addi	a5,a5,1
   12508:	01242023          	sw	s2,0(s0)
   1250c:	01642223          	sw	s6,4(s0)
   12510:	0cc12623          	sw	a2,204(sp)
   12514:	0cf12423          	sw	a5,200(sp)
   12518:	00840413          	addi	s0,s0,8
   1251c:	fcfd5ee3          	bge	s10,a5,124f8 <_vfprintf_r+0xc08>
   12520:	0c410613          	addi	a2,sp,196
   12524:	00048593          	mv	a1,s1
   12528:	000b8513          	mv	a0,s7
   1252c:	655010ef          	jal	ra,14380 <__sprint_r>
   12530:	24051e63          	bnez	a0,1278c <_vfprintf_r+0xe9c>
   12534:	0cc12603          	lw	a2,204(sp)
   12538:	0c812783          	lw	a5,200(sp)
   1253c:	00098413          	mv	s0,s3
   12540:	fb9ff06f          	j	124f8 <_vfprintf_r+0xc08>
   12544:	00100693          	li	a3,1
   12548:	00d79463          	bne	a5,a3,12550 <_vfprintf_r+0xc60>
   1254c:	1f90106f          	j	13f44 <_vfprintf_r+0x2654>
   12550:	00200693          	li	a3,2
   12554:	000d8613          	mv	a2,s11
   12558:	bed79ce3          	bne	a5,a3,12150 <_vfprintf_r+0x860>
   1255c:	03012683          	lw	a3,48(sp)
   12560:	19010d13          	addi	s10,sp,400
   12564:	00fb7793          	andi	a5,s6,15
   12568:	00f687b3          	add	a5,a3,a5
   1256c:	0007c703          	lbu	a4,0(a5)
   12570:	004b5b13          	srli	s6,s6,0x4
   12574:	01c81793          	slli	a5,a6,0x1c
   12578:	0167eb33          	or	s6,a5,s6
   1257c:	00485813          	srli	a6,a6,0x4
   12580:	feed0fa3          	sb	a4,-1(s10)
   12584:	010b67b3          	or	a5,s6,a6
   12588:	fffd0d13          	addi	s10,s10,-1
   1258c:	fc079ce3          	bnez	a5,12564 <_vfprintf_r+0xc74>
   12590:	19010793          	addi	a5,sp,400
   12594:	41a78b33          	sub	s6,a5,s10
   12598:	00060d93          	mv	s11,a2
   1259c:	fdcff06f          	j	11d78 <_vfprintf_r+0x488>
   125a0:	418c8733          	sub	a4,s9,s8
   125a4:	e0e05263          	blez	a4,11ba8 <_vfprintf_r+0x2b8>
   125a8:	00022837          	lui	a6,0x22
   125ac:	01000513          	li	a0,16
   125b0:	0c812583          	lw	a1,200(sp)
   125b4:	ce080813          	addi	a6,a6,-800 # 21ce0 <zeroes.0>
   125b8:	08e55863          	bge	a0,a4,12648 <_vfprintf_r+0xd58>
   125bc:	03212a23          	sw	s2,52(sp)
   125c0:	00040793          	mv	a5,s0
   125c4:	01000e93          	li	t4,16
   125c8:	00700f93          	li	t6,7
   125cc:	05112423          	sw	a7,72(sp)
   125d0:	00070413          	mv	s0,a4
   125d4:	00080913          	mv	s2,a6
   125d8:	00c0006f          	j	125e4 <_vfprintf_r+0xcf4>
   125dc:	ff040413          	addi	s0,s0,-16
   125e0:	048eda63          	bge	t4,s0,12634 <_vfprintf_r+0xd44>
   125e4:	01060613          	addi	a2,a2,16
   125e8:	00158593          	addi	a1,a1,1 # 2001 <exit-0xe093>
   125ec:	0127a023          	sw	s2,0(a5)
   125f0:	01d7a223          	sw	t4,4(a5)
   125f4:	0cc12623          	sw	a2,204(sp)
   125f8:	0cb12423          	sw	a1,200(sp)
   125fc:	00878793          	addi	a5,a5,8
   12600:	fcbfdee3          	bge	t6,a1,125dc <_vfprintf_r+0xcec>
   12604:	0c410613          	addi	a2,sp,196
   12608:	00048593          	mv	a1,s1
   1260c:	000b8513          	mv	a0,s7
   12610:	571010ef          	jal	ra,14380 <__sprint_r>
   12614:	16051c63          	bnez	a0,1278c <_vfprintf_r+0xe9c>
   12618:	01000e93          	li	t4,16
   1261c:	ff040413          	addi	s0,s0,-16
   12620:	0cc12603          	lw	a2,204(sp)
   12624:	0c812583          	lw	a1,200(sp)
   12628:	00098793          	mv	a5,s3
   1262c:	00700f93          	li	t6,7
   12630:	fa8ecae3          	blt	t4,s0,125e4 <_vfprintf_r+0xcf4>
   12634:	00090813          	mv	a6,s2
   12638:	04812883          	lw	a7,72(sp)
   1263c:	03412903          	lw	s2,52(sp)
   12640:	00040713          	mv	a4,s0
   12644:	00078413          	mv	s0,a5
   12648:	00e60633          	add	a2,a2,a4
   1264c:	00158593          	addi	a1,a1,1
   12650:	00e42223          	sw	a4,4(s0)
   12654:	01042023          	sw	a6,0(s0)
   12658:	0cc12623          	sw	a2,204(sp)
   1265c:	0cb12423          	sw	a1,200(sp)
   12660:	00700713          	li	a4,7
   12664:	00840413          	addi	s0,s0,8
   12668:	d4b75063          	bge	a4,a1,11ba8 <_vfprintf_r+0x2b8>
   1266c:	0c410613          	addi	a2,sp,196
   12670:	00048593          	mv	a1,s1
   12674:	000b8513          	mv	a0,s7
   12678:	03112a23          	sw	a7,52(sp)
   1267c:	505010ef          	jal	ra,14380 <__sprint_r>
   12680:	10051663          	bnez	a0,1278c <_vfprintf_r+0xe9c>
   12684:	0cc12603          	lw	a2,204(sp)
   12688:	03412883          	lw	a7,52(sp)
   1268c:	00098413          	mv	s0,s3
   12690:	d18ff06f          	j	11ba8 <_vfprintf_r+0x2b8>
   12694:	00022837          	lui	a6,0x22
   12698:	01000713          	li	a4,16
   1269c:	0c812583          	lw	a1,200(sp)
   126a0:	ce080813          	addi	a6,a6,-800 # 21ce0 <zeroes.0>
   126a4:	09475463          	bge	a4,s4,1272c <_vfprintf_r+0xe3c>
   126a8:	00040793          	mv	a5,s0
   126ac:	01000713          	li	a4,16
   126b0:	000a0413          	mv	s0,s4
   126b4:	00700e93          	li	t4,7
   126b8:	03112a23          	sw	a7,52(sp)
   126bc:	000a8a13          	mv	s4,s5
   126c0:	00c0006f          	j	126cc <_vfprintf_r+0xddc>
   126c4:	ff040413          	addi	s0,s0,-16
   126c8:	04875a63          	bge	a4,s0,1271c <_vfprintf_r+0xe2c>
   126cc:	01060613          	addi	a2,a2,16
   126d0:	00158593          	addi	a1,a1,1
   126d4:	0157a023          	sw	s5,0(a5)
   126d8:	00e7a223          	sw	a4,4(a5)
   126dc:	0cc12623          	sw	a2,204(sp)
   126e0:	0cb12423          	sw	a1,200(sp)
   126e4:	00878793          	addi	a5,a5,8
   126e8:	fcbedee3          	bge	t4,a1,126c4 <_vfprintf_r+0xdd4>
   126ec:	0c410613          	addi	a2,sp,196
   126f0:	00048593          	mv	a1,s1
   126f4:	000b8513          	mv	a0,s7
   126f8:	489010ef          	jal	ra,14380 <__sprint_r>
   126fc:	08051863          	bnez	a0,1278c <_vfprintf_r+0xe9c>
   12700:	01000713          	li	a4,16
   12704:	ff040413          	addi	s0,s0,-16
   12708:	0cc12603          	lw	a2,204(sp)
   1270c:	0c812583          	lw	a1,200(sp)
   12710:	00098793          	mv	a5,s3
   12714:	00700e93          	li	t4,7
   12718:	fa874ae3          	blt	a4,s0,126cc <_vfprintf_r+0xddc>
   1271c:	03412883          	lw	a7,52(sp)
   12720:	000a0813          	mv	a6,s4
   12724:	00040a13          	mv	s4,s0
   12728:	00078413          	mv	s0,a5
   1272c:	01460633          	add	a2,a2,s4
   12730:	00158593          	addi	a1,a1,1
   12734:	01042023          	sw	a6,0(s0)
   12738:	01442223          	sw	s4,4(s0)
   1273c:	0cc12623          	sw	a2,204(sp)
   12740:	0cb12423          	sw	a1,200(sp)
   12744:	00700713          	li	a4,7
   12748:	00840413          	addi	s0,s0,8
   1274c:	c6b75263          	bge	a4,a1,11bb0 <_vfprintf_r+0x2c0>
   12750:	0c410613          	addi	a2,sp,196
   12754:	00048593          	mv	a1,s1
   12758:	000b8513          	mv	a0,s7
   1275c:	03112a23          	sw	a7,52(sp)
   12760:	421010ef          	jal	ra,14380 <__sprint_r>
   12764:	02051463          	bnez	a0,1278c <_vfprintf_r+0xe9c>
   12768:	0cc12603          	lw	a2,204(sp)
   1276c:	03412883          	lw	a7,52(sp)
   12770:	00098413          	mv	s0,s3
   12774:	c3cff06f          	j	11bb0 <_vfprintf_r+0x2c0>
   12778:	0c410613          	addi	a2,sp,196
   1277c:	00048593          	mv	a1,s1
   12780:	000b8513          	mv	a0,s7
   12784:	3fd010ef          	jal	ra,14380 <__sprint_r>
   12788:	c8050263          	beqz	a0,11c0c <_vfprintf_r+0x31c>
   1278c:	00812583          	lw	a1,8(sp)
   12790:	ca058863          	beqz	a1,11c40 <_vfprintf_r+0x350>
   12794:	02412503          	lw	a0,36(sp)
   12798:	e90fe0ef          	jal	ra,10e28 <_free_r>
   1279c:	ca4ff06f          	j	11c40 <_vfprintf_r+0x350>
   127a0:	000d8613          	mv	a2,s11
   127a4:	99dff06f          	j	12140 <_vfprintf_r+0x850>
   127a8:	00022837          	lui	a6,0x22
   127ac:	01000513          	li	a0,16
   127b0:	0c812583          	lw	a1,200(sp)
   127b4:	cf080813          	addi	a6,a6,-784 # 21cf0 <blanks.1>
   127b8:	0ae55063          	bge	a0,a4,12858 <_vfprintf_r+0xf68>
   127bc:	05212623          	sw	s2,76(sp)
   127c0:	00040793          	mv	a5,s0
   127c4:	01000e93          	li	t4,16
   127c8:	00700393          	li	t2,7
   127cc:	02512a23          	sw	t0,52(sp)
   127d0:	05f12423          	sw	t6,72(sp)
   127d4:	05112823          	sw	a7,80(sp)
   127d8:	00070413          	mv	s0,a4
   127dc:	00080913          	mv	s2,a6
   127e0:	00c0006f          	j	127ec <_vfprintf_r+0xefc>
   127e4:	ff040413          	addi	s0,s0,-16
   127e8:	048eda63          	bge	t4,s0,1283c <_vfprintf_r+0xf4c>
   127ec:	01060613          	addi	a2,a2,16
   127f0:	00158593          	addi	a1,a1,1
   127f4:	0127a023          	sw	s2,0(a5)
   127f8:	01d7a223          	sw	t4,4(a5)
   127fc:	0cc12623          	sw	a2,204(sp)
   12800:	0cb12423          	sw	a1,200(sp)
   12804:	00878793          	addi	a5,a5,8
   12808:	fcb3dee3          	bge	t2,a1,127e4 <_vfprintf_r+0xef4>
   1280c:	0c410613          	addi	a2,sp,196
   12810:	00048593          	mv	a1,s1
   12814:	000b8513          	mv	a0,s7
   12818:	369010ef          	jal	ra,14380 <__sprint_r>
   1281c:	f60518e3          	bnez	a0,1278c <_vfprintf_r+0xe9c>
   12820:	01000e93          	li	t4,16
   12824:	ff040413          	addi	s0,s0,-16
   12828:	0cc12603          	lw	a2,204(sp)
   1282c:	0c812583          	lw	a1,200(sp)
   12830:	00098793          	mv	a5,s3
   12834:	00700393          	li	t2,7
   12838:	fa8ecae3          	blt	t4,s0,127ec <_vfprintf_r+0xefc>
   1283c:	00090813          	mv	a6,s2
   12840:	03412283          	lw	t0,52(sp)
   12844:	04812f83          	lw	t6,72(sp)
   12848:	05012883          	lw	a7,80(sp)
   1284c:	04c12903          	lw	s2,76(sp)
   12850:	00040713          	mv	a4,s0
   12854:	00078413          	mv	s0,a5
   12858:	00e60633          	add	a2,a2,a4
   1285c:	00158593          	addi	a1,a1,1
   12860:	00e42223          	sw	a4,4(s0)
   12864:	01042023          	sw	a6,0(s0)
   12868:	0cc12623          	sw	a2,204(sp)
   1286c:	0cb12423          	sw	a1,200(sp)
   12870:	00700713          	li	a4,7
   12874:	00840413          	addi	s0,s0,8
   12878:	aab75e63          	bge	a4,a1,11b34 <_vfprintf_r+0x244>
   1287c:	0c410613          	addi	a2,sp,196
   12880:	00048593          	mv	a1,s1
   12884:	000b8513          	mv	a0,s7
   12888:	05112623          	sw	a7,76(sp)
   1288c:	05f12423          	sw	t6,72(sp)
   12890:	02512a23          	sw	t0,52(sp)
   12894:	2ed010ef          	jal	ra,14380 <__sprint_r>
   12898:	ee051ae3          	bnez	a0,1278c <_vfprintf_r+0xe9c>
   1289c:	0cc12603          	lw	a2,204(sp)
   128a0:	04c12883          	lw	a7,76(sp)
   128a4:	04812f83          	lw	t6,72(sp)
   128a8:	03412283          	lw	t0,52(sp)
   128ac:	00098413          	mv	s0,s3
   128b0:	a84ff06f          	j	11b34 <_vfprintf_r+0x244>
   128b4:	0c410613          	addi	a2,sp,196
   128b8:	00048593          	mv	a1,s1
   128bc:	000b8513          	mv	a0,s7
   128c0:	05112423          	sw	a7,72(sp)
   128c4:	03f12a23          	sw	t6,52(sp)
   128c8:	2b9010ef          	jal	ra,14380 <__sprint_r>
   128cc:	ec0510e3          	bnez	a0,1278c <_vfprintf_r+0xe9c>
   128d0:	0cc12603          	lw	a2,204(sp)
   128d4:	04812883          	lw	a7,72(sp)
   128d8:	03412f83          	lw	t6,52(sp)
   128dc:	00098413          	mv	s0,s3
   128e0:	ac0ff06f          	j	11ba0 <_vfprintf_r+0x2b0>
   128e4:	00022837          	lui	a6,0x22
   128e8:	cf080813          	addi	a6,a6,-784 # 21cf0 <blanks.1>
   128ec:	01000713          	li	a4,16
   128f0:	0c812783          	lw	a5,200(sp)
   128f4:	01000b13          	li	s6,16
   128f8:	00700d13          	li	s10,7
   128fc:	00080d93          	mv	s11,a6
   12900:	01474863          	blt	a4,s4,12910 <_vfprintf_r+0x1020>
   12904:	0580006f          	j	1295c <_vfprintf_r+0x106c>
   12908:	ff0a0a13          	addi	s4,s4,-16
   1290c:	054b5663          	bge	s6,s4,12958 <_vfprintf_r+0x1068>
   12910:	01060613          	addi	a2,a2,16
   12914:	00178793          	addi	a5,a5,1
   12918:	01b42023          	sw	s11,0(s0)
   1291c:	01642223          	sw	s6,4(s0)
   12920:	0cc12623          	sw	a2,204(sp)
   12924:	0cf12423          	sw	a5,200(sp)
   12928:	00840413          	addi	s0,s0,8
   1292c:	fcfd5ee3          	bge	s10,a5,12908 <_vfprintf_r+0x1018>
   12930:	0c410613          	addi	a2,sp,196
   12934:	00048593          	mv	a1,s1
   12938:	000b8513          	mv	a0,s7
   1293c:	245010ef          	jal	ra,14380 <__sprint_r>
   12940:	e40516e3          	bnez	a0,1278c <_vfprintf_r+0xe9c>
   12944:	ff0a0a13          	addi	s4,s4,-16
   12948:	0cc12603          	lw	a2,204(sp)
   1294c:	0c812783          	lw	a5,200(sp)
   12950:	00098413          	mv	s0,s3
   12954:	fb4b4ee3          	blt	s6,s4,12910 <_vfprintf_r+0x1020>
   12958:	000d8813          	mv	a6,s11
   1295c:	01460633          	add	a2,a2,s4
   12960:	00178793          	addi	a5,a5,1
   12964:	01042023          	sw	a6,0(s0)
   12968:	01442223          	sw	s4,4(s0)
   1296c:	0cc12623          	sw	a2,204(sp)
   12970:	0cf12423          	sw	a5,200(sp)
   12974:	00700713          	li	a4,7
   12978:	a6f75c63          	bge	a4,a5,11bf0 <_vfprintf_r+0x300>
   1297c:	0c410613          	addi	a2,sp,196
   12980:	00048593          	mv	a1,s1
   12984:	000b8513          	mv	a0,s7
   12988:	1f9010ef          	jal	ra,14380 <__sprint_r>
   1298c:	e00510e3          	bnez	a0,1278c <_vfprintf_r+0xe9c>
   12990:	0cc12603          	lw	a2,204(sp)
   12994:	a5cff06f          	j	11bf0 <_vfprintf_r+0x300>
   12998:	0ac12503          	lw	a0,172(sp)
   1299c:	04a052e3          	blez	a0,131e0 <_vfprintf_r+0x18f0>
   129a0:	01412783          	lw	a5,20(sp)
   129a4:	01812703          	lw	a4,24(sp)
   129a8:	00078a13          	mv	s4,a5
   129ac:	30f74863          	blt	a4,a5,12cbc <_vfprintf_r+0x13cc>
   129b0:	03405663          	blez	s4,129dc <_vfprintf_r+0x10ec>
   129b4:	0c812703          	lw	a4,200(sp)
   129b8:	01460633          	add	a2,a2,s4
   129bc:	01a42023          	sw	s10,0(s0)
   129c0:	00170713          	addi	a4,a4,1
   129c4:	01442223          	sw	s4,4(s0)
   129c8:	0cc12623          	sw	a2,204(sp)
   129cc:	0ce12423          	sw	a4,200(sp)
   129d0:	00700593          	li	a1,7
   129d4:	00840413          	addi	s0,s0,8
   129d8:	56e5c0e3          	blt	a1,a4,13738 <_vfprintf_r+0x1e48>
   129dc:	fffa4713          	not	a4,s4
   129e0:	01412783          	lw	a5,20(sp)
   129e4:	41f75713          	srai	a4,a4,0x1f
   129e8:	00ea7a33          	and	s4,s4,a4
   129ec:	41478a33          	sub	s4,a5,s4
   129f0:	3b404c63          	bgtz	s4,12da8 <_vfprintf_r+0x14b8>
   129f4:	01412783          	lw	a5,20(sp)
   129f8:	400df713          	andi	a4,s11,1024
   129fc:	00fd0a33          	add	s4,s10,a5
   12a00:	280714e3          	bnez	a4,13488 <_vfprintf_r+0x1b98>
   12a04:	0ac12583          	lw	a1,172(sp)
   12a08:	01812783          	lw	a5,24(sp)
   12a0c:	40f5ca63          	blt	a1,a5,12e20 <_vfprintf_r+0x1530>
   12a10:	001df713          	andi	a4,s11,1
   12a14:	40071663          	bnez	a4,12e20 <_vfprintf_r+0x1530>
   12a18:	01812703          	lw	a4,24(sp)
   12a1c:	00ed07b3          	add	a5,s10,a4
   12a20:	40b705b3          	sub	a1,a4,a1
   12a24:	41478b33          	sub	s6,a5,s4
   12a28:	0165d463          	bge	a1,s6,12a30 <_vfprintf_r+0x1140>
   12a2c:	00058b13          	mv	s6,a1
   12a30:	03605863          	blez	s6,12a60 <_vfprintf_r+0x1170>
   12a34:	0c812703          	lw	a4,200(sp)
   12a38:	01660633          	add	a2,a2,s6
   12a3c:	01442023          	sw	s4,0(s0)
   12a40:	00170713          	addi	a4,a4,1
   12a44:	01642223          	sw	s6,4(s0)
   12a48:	0cc12623          	sw	a2,204(sp)
   12a4c:	0ce12423          	sw	a4,200(sp)
   12a50:	00700793          	li	a5,7
   12a54:	00840413          	addi	s0,s0,8
   12a58:	00e7d463          	bge	a5,a4,12a60 <_vfprintf_r+0x1170>
   12a5c:	3380106f          	j	13d94 <_vfprintf_r+0x24a4>
   12a60:	fffb4713          	not	a4,s6
   12a64:	41f75713          	srai	a4,a4,0x1f
   12a68:	00eb77b3          	and	a5,s6,a4
   12a6c:	40f58a33          	sub	s4,a1,a5
   12a70:	97405863          	blez	s4,11be0 <_vfprintf_r+0x2f0>
   12a74:	00022837          	lui	a6,0x22
   12a78:	01000713          	li	a4,16
   12a7c:	0c812783          	lw	a5,200(sp)
   12a80:	ce080813          	addi	a6,a6,-800 # 21ce0 <zeroes.0>
   12a84:	014758e3          	bge	a4,s4,13294 <_vfprintf_r+0x19a4>
   12a88:	01212a23          	sw	s2,20(sp)
   12a8c:	01000b13          	li	s6,16
   12a90:	00700d13          	li	s10,7
   12a94:	00080913          	mv	s2,a6
   12a98:	00c0006f          	j	12aa4 <_vfprintf_r+0x11b4>
   12a9c:	ff0a0a13          	addi	s4,s4,-16
   12aa0:	7f4b5663          	bge	s6,s4,1328c <_vfprintf_r+0x199c>
   12aa4:	01060613          	addi	a2,a2,16
   12aa8:	00178793          	addi	a5,a5,1
   12aac:	01242023          	sw	s2,0(s0)
   12ab0:	01642223          	sw	s6,4(s0)
   12ab4:	0cc12623          	sw	a2,204(sp)
   12ab8:	0cf12423          	sw	a5,200(sp)
   12abc:	00840413          	addi	s0,s0,8
   12ac0:	fcfd5ee3          	bge	s10,a5,12a9c <_vfprintf_r+0x11ac>
   12ac4:	0c410613          	addi	a2,sp,196
   12ac8:	00048593          	mv	a1,s1
   12acc:	000b8513          	mv	a0,s7
   12ad0:	0b1010ef          	jal	ra,14380 <__sprint_r>
   12ad4:	ca051ce3          	bnez	a0,1278c <_vfprintf_r+0xe9c>
   12ad8:	0cc12603          	lw	a2,204(sp)
   12adc:	0c812783          	lw	a5,200(sp)
   12ae0:	00098413          	mv	s0,s3
   12ae4:	fb9ff06f          	j	12a9c <_vfprintf_r+0x11ac>
   12ae8:	001df593          	andi	a1,s11,1
   12aec:	ca059e63          	bnez	a1,11fa8 <_vfprintf_r+0x6b8>
   12af0:	00e42223          	sw	a4,4(s0)
   12af4:	0cc12623          	sw	a2,204(sp)
   12af8:	0d412423          	sw	s4,200(sp)
   12afc:	00700793          	li	a5,7
   12b00:	d747d663          	bge	a5,s4,1206c <_vfprintf_r+0x77c>
   12b04:	0c410613          	addi	a2,sp,196
   12b08:	00048593          	mv	a1,s1
   12b0c:	000b8513          	mv	a0,s7
   12b10:	071010ef          	jal	ra,14380 <__sprint_r>
   12b14:	c6051ce3          	bnez	a0,1278c <_vfprintf_r+0xe9c>
   12b18:	0cc12603          	lw	a2,204(sp)
   12b1c:	0c812a03          	lw	s4,200(sp)
   12b20:	00098b13          	mv	s6,s3
   12b24:	d48ff06f          	j	1206c <_vfprintf_r+0x77c>
   12b28:	01812703          	lw	a4,24(sp)
   12b2c:	00100793          	li	a5,1
   12b30:	d2e7de63          	bge	a5,a4,1206c <_vfprintf_r+0x77c>
   12b34:	00022837          	lui	a6,0x22
   12b38:	01100793          	li	a5,17
   12b3c:	ce080813          	addi	a6,a6,-800 # 21ce0 <zeroes.0>
   12b40:	0ce7d6e3          	bge	a5,a4,1340c <_vfprintf_r+0x1b1c>
   12b44:	01212a23          	sw	s2,20(sp)
   12b48:	01000793          	li	a5,16
   12b4c:	00700d13          	li	s10,7
   12b50:	00080913          	mv	s2,a6
   12b54:	00c0006f          	j	12b60 <_vfprintf_r+0x1270>
   12b58:	ff040413          	addi	s0,s0,-16
   12b5c:	0a87d4e3          	bge	a5,s0,13404 <_vfprintf_r+0x1b14>
   12b60:	01060613          	addi	a2,a2,16
   12b64:	001a0a13          	addi	s4,s4,1
   12b68:	012b2023          	sw	s2,0(s6)
   12b6c:	00fb2223          	sw	a5,4(s6)
   12b70:	0cc12623          	sw	a2,204(sp)
   12b74:	0d412423          	sw	s4,200(sp)
   12b78:	008b0b13          	addi	s6,s6,8
   12b7c:	fd4d5ee3          	bge	s10,s4,12b58 <_vfprintf_r+0x1268>
   12b80:	0c410613          	addi	a2,sp,196
   12b84:	00048593          	mv	a1,s1
   12b88:	000b8513          	mv	a0,s7
   12b8c:	7f4010ef          	jal	ra,14380 <__sprint_r>
   12b90:	be051ee3          	bnez	a0,1278c <_vfprintf_r+0xe9c>
   12b94:	0cc12603          	lw	a2,204(sp)
   12b98:	0c812a03          	lw	s4,200(sp)
   12b9c:	00098b13          	mv	s6,s3
   12ba0:	01000793          	li	a5,16
   12ba4:	fb5ff06f          	j	12b58 <_vfprintf_r+0x1268>
   12ba8:	00c12683          	lw	a3,12(sp)
   12bac:	01067793          	andi	a5,a2,16
   12bb0:	0006a703          	lw	a4,0(a3)
   12bb4:	00468693          	addi	a3,a3,4
   12bb8:	00d12623          	sw	a3,12(sp)
   12bbc:	04079863          	bnez	a5,12c0c <_vfprintf_r+0x131c>
   12bc0:	04067793          	andi	a5,a2,64
   12bc4:	04078063          	beqz	a5,12c04 <_vfprintf_r+0x1314>
   12bc8:	01071b13          	slli	s6,a4,0x10
   12bcc:	010b5b13          	srli	s6,s6,0x10
   12bd0:	00000813          	li	a6,0
   12bd4:	00100793          	li	a5,1
   12bd8:	9fcff06f          	j	11dd4 <_vfprintf_r+0x4e4>
   12bdc:	00000b13          	li	s6,0
   12be0:	19010d13          	addi	s10,sp,400
   12be4:	994ff06f          	j	11d78 <_vfprintf_r+0x488>
   12be8:	001df793          	andi	a5,s11,1
   12bec:	00079463          	bnez	a5,12bf4 <_vfprintf_r+0x1304>
   12bf0:	ff1fe06f          	j	11be0 <_vfprintf_r+0x2f0>
   12bf4:	8a1ff06f          	j	12494 <_vfprintf_r+0xba4>
   12bf8:	00094883          	lbu	a7,0(s2)
   12bfc:	00f12623          	sw	a5,12(sp)
   12c00:	e95fe06f          	j	11a94 <_vfprintf_r+0x1a4>
   12c04:	20067793          	andi	a5,a2,512
   12c08:	360798e3          	bnez	a5,13778 <_vfprintf_r+0x1e88>
   12c0c:	00070b13          	mv	s6,a4
   12c10:	00000813          	li	a6,0
   12c14:	00100793          	li	a5,1
   12c18:	9bcff06f          	j	11dd4 <_vfprintf_r+0x4e4>
   12c1c:	200df793          	andi	a5,s11,512
   12c20:	360794e3          	bnez	a5,13788 <_vfprintf_r+0x1e98>
   12c24:	41f75813          	srai	a6,a4,0x1f
   12c28:	00070b13          	mv	s6,a4
   12c2c:	00080793          	mv	a5,a6
   12c30:	920ff06f          	j	11d50 <_vfprintf_r+0x460>
   12c34:	200df793          	andi	a5,s11,512
   12c38:	360798e3          	bnez	a5,137a8 <_vfprintf_r+0x1eb8>
   12c3c:	00070b13          	mv	s6,a4
   12c40:	00000813          	li	a6,0
   12c44:	988ff06f          	j	11dcc <_vfprintf_r+0x4dc>
   12c48:	00c12783          	lw	a5,12(sp)
   12c4c:	0007a703          	lw	a4,0(a5)
   12c50:	00478793          	addi	a5,a5,4
   12c54:	00f12623          	sw	a5,12(sp)
   12c58:	00072583          	lw	a1,0(a4)
   12c5c:	00472603          	lw	a2,4(a4)
   12c60:	00872683          	lw	a3,8(a4)
   12c64:	00c72703          	lw	a4,12(a4)
   12c68:	a18ff06f          	j	11e80 <_vfprintf_r+0x590>
   12c6c:	03812783          	lw	a5,56(sp)
   12c70:	00094883          	lbu	a7,0(s2)
   12c74:	00079463          	bnez	a5,12c7c <_vfprintf_r+0x138c>
   12c78:	e1dfe06f          	j	11a94 <_vfprintf_r+0x1a4>
   12c7c:	0007c783          	lbu	a5,0(a5)
   12c80:	00079463          	bnez	a5,12c88 <_vfprintf_r+0x1398>
   12c84:	e11fe06f          	j	11a94 <_vfprintf_r+0x1a4>
   12c88:	400ded93          	ori	s11,s11,1024
   12c8c:	e09fe06f          	j	11a94 <_vfprintf_r+0x1a4>
   12c90:	010df793          	andi	a5,s11,16
   12c94:	6a079663          	bnez	a5,13340 <_vfprintf_r+0x1a50>
   12c98:	040df793          	andi	a5,s11,64
   12c9c:	2c0794e3          	bnez	a5,13764 <_vfprintf_r+0x1e74>
   12ca0:	200dfe13          	andi	t3,s11,512
   12ca4:	680e0e63          	beqz	t3,13340 <_vfprintf_r+0x1a50>
   12ca8:	00c12783          	lw	a5,12(sp)
   12cac:	00412703          	lw	a4,4(sp)
   12cb0:	0007a783          	lw	a5,0(a5)
   12cb4:	00e78023          	sb	a4,0(a5)
   12cb8:	e80ff06f          	j	12338 <_vfprintf_r+0xa48>
   12cbc:	00070a13          	mv	s4,a4
   12cc0:	cf404ae3          	bgtz	s4,129b4 <_vfprintf_r+0x10c4>
   12cc4:	d19ff06f          	j	129dc <_vfprintf_r+0x10ec>
   12cc8:	fff00a13          	li	s4,-1
   12ccc:	00068913          	mv	s2,a3
   12cd0:	dc9fe06f          	j	11a98 <_vfprintf_r+0x1a8>
   12cd4:	000227b7          	lui	a5,0x22
   12cd8:	9e878793          	addi	a5,a5,-1560 # 219e8 <__clzsi2+0x74>
   12cdc:	02f12823          	sw	a5,48(sp)
   12ce0:	020df793          	andi	a5,s11,32
   12ce4:	3a078463          	beqz	a5,1308c <_vfprintf_r+0x179c>
   12ce8:	00c12783          	lw	a5,12(sp)
   12cec:	00778c13          	addi	s8,a5,7
   12cf0:	ff8c7c13          	andi	s8,s8,-8
   12cf4:	000c2b03          	lw	s6,0(s8)
   12cf8:	004c2803          	lw	a6,4(s8)
   12cfc:	008c0793          	addi	a5,s8,8
   12d00:	00f12623          	sw	a5,12(sp)
   12d04:	001df793          	andi	a5,s11,1
   12d08:	00078e63          	beqz	a5,12d24 <_vfprintf_r+0x1434>
   12d0c:	010b67b3          	or	a5,s6,a6
   12d10:	00078a63          	beqz	a5,12d24 <_vfprintf_r+0x1434>
   12d14:	03000793          	li	a5,48
   12d18:	0af10423          	sb	a5,168(sp)
   12d1c:	0b1104a3          	sb	a7,169(sp)
   12d20:	002ded93          	ori	s11,s11,2
   12d24:	bffdf613          	andi	a2,s11,-1025
   12d28:	00200793          	li	a5,2
   12d2c:	8a8ff06f          	j	11dd4 <_vfprintf_r+0x4e4>
   12d30:	000d8613          	mv	a2,s11
   12d34:	d6cff06f          	j	122a0 <_vfprintf_r+0x9b0>
   12d38:	000227b7          	lui	a5,0x22
   12d3c:	9d478793          	addi	a5,a5,-1580 # 219d4 <__clzsi2+0x60>
   12d40:	02f12823          	sw	a5,48(sp)
   12d44:	f9dff06f          	j	12ce0 <_vfprintf_r+0x13f0>
   12d48:	0c410613          	addi	a2,sp,196
   12d4c:	00048593          	mv	a1,s1
   12d50:	000b8513          	mv	a0,s7
   12d54:	62c010ef          	jal	ra,14380 <__sprint_r>
   12d58:	a2051ae3          	bnez	a0,1278c <_vfprintf_r+0xe9c>
   12d5c:	0cc12603          	lw	a2,204(sp)
   12d60:	00098413          	mv	s0,s3
   12d64:	f60ff06f          	j	124c4 <_vfprintf_r+0xbd4>
   12d68:	00194883          	lbu	a7,1(s2)
   12d6c:	200ded93          	ori	s11,s11,512
   12d70:	00190913          	addi	s2,s2,1
   12d74:	d21fe06f          	j	11a94 <_vfprintf_r+0x1a4>
   12d78:	00194883          	lbu	a7,1(s2)
   12d7c:	020ded93          	ori	s11,s11,32
   12d80:	00190913          	addi	s2,s2,1
   12d84:	d11fe06f          	j	11a94 <_vfprintf_r+0x1a4>
   12d88:	00600793          	li	a5,6
   12d8c:	000a0b13          	mv	s6,s4
   12d90:	1d47e6e3          	bltu	a5,s4,1375c <_vfprintf_r+0x1e6c>
   12d94:	000227b7          	lui	a5,0x22
   12d98:	000b0c13          	mv	s8,s6
   12d9c:	01012623          	sw	a6,12(sp)
   12da0:	9fc78d13          	addi	s10,a5,-1540 # 219fc <__clzsi2+0x88>
   12da4:	d5dfe06f          	j	11b00 <_vfprintf_r+0x210>
   12da8:	00022837          	lui	a6,0x22
   12dac:	01000593          	li	a1,16
   12db0:	0c812703          	lw	a4,200(sp)
   12db4:	ce080813          	addi	a6,a6,-800 # 21ce0 <zeroes.0>
   12db8:	6945d663          	bge	a1,s4,13444 <_vfprintf_r+0x1b54>
   12dbc:	03212a23          	sw	s2,52(sp)
   12dc0:	01000893          	li	a7,16
   12dc4:	00700b13          	li	s6,7
   12dc8:	00080913          	mv	s2,a6
   12dcc:	00c0006f          	j	12dd8 <_vfprintf_r+0x14e8>
   12dd0:	ff0a0a13          	addi	s4,s4,-16
   12dd4:	6748d463          	bge	a7,s4,1343c <_vfprintf_r+0x1b4c>
   12dd8:	01060613          	addi	a2,a2,16
   12ddc:	00170713          	addi	a4,a4,1
   12de0:	01242023          	sw	s2,0(s0)
   12de4:	01142223          	sw	a7,4(s0)
   12de8:	0cc12623          	sw	a2,204(sp)
   12dec:	0ce12423          	sw	a4,200(sp)
   12df0:	00840413          	addi	s0,s0,8
   12df4:	fceb5ee3          	bge	s6,a4,12dd0 <_vfprintf_r+0x14e0>
   12df8:	0c410613          	addi	a2,sp,196
   12dfc:	00048593          	mv	a1,s1
   12e00:	000b8513          	mv	a0,s7
   12e04:	57c010ef          	jal	ra,14380 <__sprint_r>
   12e08:	980512e3          	bnez	a0,1278c <_vfprintf_r+0xe9c>
   12e0c:	0cc12603          	lw	a2,204(sp)
   12e10:	0c812703          	lw	a4,200(sp)
   12e14:	00098413          	mv	s0,s3
   12e18:	01000893          	li	a7,16
   12e1c:	fb5ff06f          	j	12dd0 <_vfprintf_r+0x14e0>
   12e20:	02c12703          	lw	a4,44(sp)
   12e24:	02812783          	lw	a5,40(sp)
   12e28:	00700513          	li	a0,7
   12e2c:	00e42023          	sw	a4,0(s0)
   12e30:	0c812703          	lw	a4,200(sp)
   12e34:	00f60633          	add	a2,a2,a5
   12e38:	00f42223          	sw	a5,4(s0)
   12e3c:	00170713          	addi	a4,a4,1
   12e40:	0cc12623          	sw	a2,204(sp)
   12e44:	0ce12423          	sw	a4,200(sp)
   12e48:	00840413          	addi	s0,s0,8
   12e4c:	bce556e3          	bge	a0,a4,12a18 <_vfprintf_r+0x1128>
   12e50:	0c410613          	addi	a2,sp,196
   12e54:	00048593          	mv	a1,s1
   12e58:	000b8513          	mv	a0,s7
   12e5c:	524010ef          	jal	ra,14380 <__sprint_r>
   12e60:	920516e3          	bnez	a0,1278c <_vfprintf_r+0xe9c>
   12e64:	0ac12583          	lw	a1,172(sp)
   12e68:	0cc12603          	lw	a2,204(sp)
   12e6c:	00098413          	mv	s0,s3
   12e70:	ba9ff06f          	j	12a18 <_vfprintf_r+0x1128>
   12e74:	07800793          	li	a5,120
   12e78:	03000713          	li	a4,48
   12e7c:	0ae10423          	sb	a4,168(sp)
   12e80:	0af104a3          	sb	a5,169(sp)
   12e84:	06300713          	li	a4,99
   12e88:	00012423          	sw	zero,8(sp)
   12e8c:	002ded93          	ori	s11,s11,2
   12e90:	12c10d13          	addi	s10,sp,300
   12e94:	87475463          	bge	a4,s4,11efc <_vfprintf_r+0x60c>
   12e98:	001a0593          	addi	a1,s4,1
   12e9c:	000b8513          	mv	a0,s7
   12ea0:	01112423          	sw	a7,8(sp)
   12ea4:	a88fe0ef          	jal	ra,1112c <_malloc_r>
   12ea8:	00812883          	lw	a7,8(sp)
   12eac:	00050d13          	mv	s10,a0
   12eb0:	00051463          	bnez	a0,12eb8 <_vfprintf_r+0x15c8>
   12eb4:	2b40106f          	j	14168 <_vfprintf_r+0x2878>
   12eb8:	00a12423          	sw	a0,8(sp)
   12ebc:	840ff06f          	j	11efc <_vfprintf_r+0x60c>
   12ec0:	09010b13          	addi	s6,sp,144
   12ec4:	0ac10713          	addi	a4,sp,172
   12ec8:	0bc10813          	addi	a6,sp,188
   12ecc:	0b010793          	addi	a5,sp,176
   12ed0:	000a0693          	mv	a3,s4
   12ed4:	00200613          	li	a2,2
   12ed8:	000b0593          	mv	a1,s6
   12edc:	000b8513          	mv	a0,s7
   12ee0:	03112023          	sw	a7,32(sp)
   12ee4:	09f12823          	sw	t6,144(sp)
   12ee8:	01f12e23          	sw	t6,28(sp)
   12eec:	09e12a23          	sw	t5,148(sp)
   12ef0:	01e12c23          	sw	t5,24(sp)
   12ef4:	09d12c23          	sw	t4,152(sp)
   12ef8:	01d12a23          	sw	t4,20(sp)
   12efc:	09812e23          	sw	s8,156(sp)
   12f00:	6ad030ef          	jal	ra,16dac <_ldtoa_r>
   12f04:	001df713          	andi	a4,s11,1
   12f08:	01412e83          	lw	t4,20(sp)
   12f0c:	01812f03          	lw	t5,24(sp)
   12f10:	01c12f83          	lw	t6,28(sp)
   12f14:	02012883          	lw	a7,32(sp)
   12f18:	00050d13          	mv	s10,a0
   12f1c:	0e0714e3          	bnez	a4,13804 <_vfprintf_r+0x1f14>
   12f20:	0ac12783          	lw	a5,172(sp)
   12f24:	00f12a23          	sw	a5,20(sp)
   12f28:	0bc12783          	lw	a5,188(sp)
   12f2c:	40a787b3          	sub	a5,a5,a0
   12f30:	00f12c23          	sw	a5,24(sp)
   12f34:	01412783          	lw	a5,20(sp)
   12f38:	ffd00713          	li	a4,-3
   12f3c:	00e7c463          	blt	a5,a4,12f44 <_vfprintf_r+0x1654>
   12f40:	56fa5ae3          	bge	s4,a5,13cb4 <_vfprintf_r+0x23c4>
   12f44:	01412783          	lw	a5,20(sp)
   12f48:	ffe88893          	addi	a7,a7,-2
   12f4c:	fff78a13          	addi	s4,a5,-1
   12f50:	0b412623          	sw	s4,172(sp)
   12f54:	0ff8f693          	andi	a3,a7,255
   12f58:	00000613          	li	a2,0
   12f5c:	0ad10a23          	sb	a3,180(sp)
   12f60:	02b00693          	li	a3,43
   12f64:	000a5a63          	bgez	s4,12f78 <_vfprintf_r+0x1688>
   12f68:	01412783          	lw	a5,20(sp)
   12f6c:	00100713          	li	a4,1
   12f70:	02d00693          	li	a3,45
   12f74:	40f70a33          	sub	s4,a4,a5
   12f78:	0ad10aa3          	sb	a3,181(sp)
   12f7c:	00900693          	li	a3,9
   12f80:	0146c463          	blt	a3,s4,12f88 <_vfprintf_r+0x1698>
   12f84:	0180106f          	j	13f9c <_vfprintf_r+0x26ac>
   12f88:	0c310613          	addi	a2,sp,195
   12f8c:	00812a23          	sw	s0,20(sp)
   12f90:	00088b13          	mv	s6,a7
   12f94:	00060413          	mv	s0,a2
   12f98:	00912e23          	sw	s1,28(sp)
   12f9c:	00a00593          	li	a1,10
   12fa0:	000a0513          	mv	a0,s4
   12fa4:	1a10e0ef          	jal	ra,21944 <__modsi3>
   12fa8:	03050793          	addi	a5,a0,48
   12fac:	00040c13          	mv	s8,s0
   12fb0:	fefc0fa3          	sb	a5,-1(s8)
   12fb4:	000a0513          	mv	a0,s4
   12fb8:	00a00593          	li	a1,10
   12fbc:	1050e0ef          	jal	ra,218c0 <__divsi3>
   12fc0:	000a0493          	mv	s1,s4
   12fc4:	06300793          	li	a5,99
   12fc8:	fff40413          	addi	s0,s0,-1
   12fcc:	00050a13          	mv	s4,a0
   12fd0:	fc97c6e3          	blt	a5,s1,12f9c <_vfprintf_r+0x16ac>
   12fd4:	00040613          	mv	a2,s0
   12fd8:	03050713          	addi	a4,a0,48
   12fdc:	ffec0693          	addi	a3,s8,-2
   12fe0:	fee60fa3          	sb	a4,-1(a2)
   12fe4:	0c310793          	addi	a5,sp,195
   12fe8:	01412403          	lw	s0,20(sp)
   12fec:	01c12483          	lw	s1,28(sp)
   12ff0:	000b0893          	mv	a7,s6
   12ff4:	00f6e463          	bltu	a3,a5,12ffc <_vfprintf_r+0x170c>
   12ff8:	1280106f          	j	14120 <_vfprintf_r+0x2830>
   12ffc:	0b610613          	addi	a2,sp,182
   13000:	0006c783          	lbu	a5,0(a3)
   13004:	00168693          	addi	a3,a3,1
   13008:	00160613          	addi	a2,a2,1
   1300c:	fef60fa3          	sb	a5,-1(a2)
   13010:	0c310793          	addi	a5,sp,195
   13014:	fef696e3          	bne	a3,a5,13000 <_vfprintf_r+0x1710>
   13018:	19010793          	addi	a5,sp,400
   1301c:	41878733          	sub	a4,a5,s8
   13020:	f3770793          	addi	a5,a4,-201
   13024:	02f12e23          	sw	a5,60(sp)
   13028:	01812783          	lw	a5,24(sp)
   1302c:	03c12683          	lw	a3,60(sp)
   13030:	00100713          	li	a4,1
   13034:	00d78b33          	add	s6,a5,a3
   13038:	00f74463          	blt	a4,a5,13040 <_vfprintf_r+0x1750>
   1303c:	79d0006f          	j	13fd8 <_vfprintf_r+0x26e8>
   13040:	02812783          	lw	a5,40(sp)
   13044:	00fb0b33          	add	s6,s6,a5
   13048:	fffb4693          	not	a3,s6
   1304c:	bffdfe13          	andi	t3,s11,-1025
   13050:	41f6d693          	srai	a3,a3,0x1f
   13054:	100e6793          	ori	a5,t3,256
   13058:	04f12423          	sw	a5,72(sp)
   1305c:	00db7c33          	and	s8,s6,a3
   13060:	02012023          	sw	zero,32(sp)
   13064:	00012e23          	sw	zero,28(sp)
   13068:	00012a23          	sw	zero,20(sp)
   1306c:	03412783          	lw	a5,52(sp)
   13070:	420786e3          	beqz	a5,13c9c <_vfprintf_r+0x23ac>
   13074:	02d00713          	li	a4,45
   13078:	04812d83          	lw	s11,72(sp)
   1307c:	0ae103a3          	sb	a4,167(sp)
   13080:	00000a13          	li	s4,0
   13084:	001c0c13          	addi	s8,s8,1
   13088:	a8dfe06f          	j	11b14 <_vfprintf_r+0x224>
   1308c:	00c12683          	lw	a3,12(sp)
   13090:	010df793          	andi	a5,s11,16
   13094:	0006a703          	lw	a4,0(a3)
   13098:	00468693          	addi	a3,a3,4
   1309c:	00d12623          	sw	a3,12(sp)
   130a0:	06079663          	bnez	a5,1310c <_vfprintf_r+0x181c>
   130a4:	040df793          	andi	a5,s11,64
   130a8:	04078e63          	beqz	a5,13104 <_vfprintf_r+0x1814>
   130ac:	01071b13          	slli	s6,a4,0x10
   130b0:	010b5b13          	srli	s6,s6,0x10
   130b4:	00000813          	li	a6,0
   130b8:	c4dff06f          	j	12d04 <_vfprintf_r+0x1414>
   130bc:	0c410613          	addi	a2,sp,196
   130c0:	00048593          	mv	a1,s1
   130c4:	000b8513          	mv	a0,s7
   130c8:	2b8010ef          	jal	ra,14380 <__sprint_r>
   130cc:	ec051063          	bnez	a0,1278c <_vfprintf_r+0xe9c>
   130d0:	0cc12603          	lw	a2,204(sp)
   130d4:	0c812a03          	lw	s4,200(sp)
   130d8:	00098b13          	mv	s6,s3
   130dc:	ee9fe06f          	j	11fc4 <_vfprintf_r+0x6d4>
   130e0:	0c410613          	addi	a2,sp,196
   130e4:	00048593          	mv	a1,s1
   130e8:	000b8513          	mv	a0,s7
   130ec:	294010ef          	jal	ra,14380 <__sprint_r>
   130f0:	e8051e63          	bnez	a0,1278c <_vfprintf_r+0xe9c>
   130f4:	0cc12603          	lw	a2,204(sp)
   130f8:	0c812a03          	lw	s4,200(sp)
   130fc:	00098b13          	mv	s6,s3
   13100:	ef5fe06f          	j	11ff4 <_vfprintf_r+0x704>
   13104:	200df793          	andi	a5,s11,512
   13108:	68079a63          	bnez	a5,1379c <_vfprintf_r+0x1eac>
   1310c:	00070b13          	mv	s6,a4
   13110:	00000813          	li	a6,0
   13114:	bf1ff06f          	j	12d04 <_vfprintf_r+0x1414>
   13118:	19010c13          	addi	s8,sp,400
   1311c:	01212423          	sw	s2,8(sp)
   13120:	02812023          	sw	s0,32(sp)
   13124:	02912a23          	sw	s1,52(sp)
   13128:	03812403          	lw	s0,56(sp)
   1312c:	40067d93          	andi	s11,a2,1024
   13130:	00000d13          	li	s10,0
   13134:	01112a23          	sw	a7,20(sp)
   13138:	00c12e23          	sw	a2,28(sp)
   1313c:	000c0493          	mv	s1,s8
   13140:	00080913          	mv	s2,a6
   13144:	0280006f          	j	1316c <_vfprintf_r+0x187c>
   13148:	00a00613          	li	a2,10
   1314c:	00000693          	li	a3,0
   13150:	000b0513          	mv	a0,s6
   13154:	00090593          	mv	a1,s2
   13158:	2d9080ef          	jal	ra,1bc30 <__udivdi3>
   1315c:	3e0902e3          	beqz	s2,13d40 <_vfprintf_r+0x2450>
   13160:	00050b13          	mv	s6,a0
   13164:	00058913          	mv	s2,a1
   13168:	000c0493          	mv	s1,s8
   1316c:	00a00613          	li	a2,10
   13170:	00000693          	li	a3,0
   13174:	000b0513          	mv	a0,s6
   13178:	00090593          	mv	a1,s2
   1317c:	078090ef          	jal	ra,1c1f4 <__umoddi3>
   13180:	03050513          	addi	a0,a0,48
   13184:	fea48fa3          	sb	a0,-1(s1)
   13188:	fff48c13          	addi	s8,s1,-1
   1318c:	001d0d13          	addi	s10,s10,1
   13190:	fa0d8ce3          	beqz	s11,13148 <_vfprintf_r+0x1858>
   13194:	00044783          	lbu	a5,0(s0)
   13198:	fafd18e3          	bne	s10,a5,13148 <_vfprintf_r+0x1858>
   1319c:	0ff00793          	li	a5,255
   131a0:	fafd04e3          	beq	s10,a5,13148 <_vfprintf_r+0x1858>
   131a4:	52091063          	bnez	s2,136c4 <_vfprintf_r+0x1dd4>
   131a8:	00900793          	li	a5,9
   131ac:	5167ec63          	bltu	a5,s6,136c4 <_vfprintf_r+0x1dd4>
   131b0:	01c12603          	lw	a2,28(sp)
   131b4:	01a12c23          	sw	s10,24(sp)
   131b8:	19010793          	addi	a5,sp,400
   131bc:	000c0d13          	mv	s10,s8
   131c0:	02812c23          	sw	s0,56(sp)
   131c4:	00812903          	lw	s2,8(sp)
   131c8:	01412883          	lw	a7,20(sp)
   131cc:	02012403          	lw	s0,32(sp)
   131d0:	03412483          	lw	s1,52(sp)
   131d4:	41a78b33          	sub	s6,a5,s10
   131d8:	00060d93          	mv	s11,a2
   131dc:	b9dfe06f          	j	11d78 <_vfprintf_r+0x488>
   131e0:	0c812703          	lw	a4,200(sp)
   131e4:	000225b7          	lui	a1,0x22
   131e8:	a0458593          	addi	a1,a1,-1532 # 21a04 <__clzsi2+0x90>
   131ec:	00b42023          	sw	a1,0(s0)
   131f0:	00160613          	addi	a2,a2,1
   131f4:	00100593          	li	a1,1
   131f8:	00170713          	addi	a4,a4,1
   131fc:	00b42223          	sw	a1,4(s0)
   13200:	0cc12623          	sw	a2,204(sp)
   13204:	0ce12423          	sw	a4,200(sp)
   13208:	00700593          	li	a1,7
   1320c:	00840413          	addi	s0,s0,8
   13210:	4ee5ca63          	blt	a1,a4,13704 <_vfprintf_r+0x1e14>
   13214:	14051063          	bnez	a0,13354 <_vfprintf_r+0x1a64>
   13218:	01812783          	lw	a5,24(sp)
   1321c:	001df713          	andi	a4,s11,1
   13220:	00f76733          	or	a4,a4,a5
   13224:	00071463          	bnez	a4,1322c <_vfprintf_r+0x193c>
   13228:	9b9fe06f          	j	11be0 <_vfprintf_r+0x2f0>
   1322c:	02c12703          	lw	a4,44(sp)
   13230:	02812783          	lw	a5,40(sp)
   13234:	00700593          	li	a1,7
   13238:	00e42023          	sw	a4,0(s0)
   1323c:	0c812703          	lw	a4,200(sp)
   13240:	00c78633          	add	a2,a5,a2
   13244:	00f42223          	sw	a5,4(s0)
   13248:	00170713          	addi	a4,a4,1
   1324c:	0cc12623          	sw	a2,204(sp)
   13250:	0ce12423          	sw	a4,200(sp)
   13254:	58e5c263          	blt	a1,a4,137d8 <_vfprintf_r+0x1ee8>
   13258:	00840413          	addi	s0,s0,8
   1325c:	12c0006f          	j	13388 <_vfprintf_r+0x1a98>
   13260:	02412503          	lw	a0,36(sp)
   13264:	a6cfd0ef          	jal	ra,104d0 <__sinit>
   13268:	ee8fe06f          	j	11950 <_vfprintf_r+0x60>
   1326c:	0c410613          	addi	a2,sp,196
   13270:	00048593          	mv	a1,s1
   13274:	000b8513          	mv	a0,s7
   13278:	108010ef          	jal	ra,14380 <__sprint_r>
   1327c:	d0051863          	bnez	a0,1278c <_vfprintf_r+0xe9c>
   13280:	0cc12603          	lw	a2,204(sp)
   13284:	00098413          	mv	s0,s3
   13288:	a00ff06f          	j	12488 <_vfprintf_r+0xb98>
   1328c:	00090813          	mv	a6,s2
   13290:	01412903          	lw	s2,20(sp)
   13294:	01042023          	sw	a6,0(s0)
   13298:	01442223          	sw	s4,4(s0)
   1329c:	01460633          	add	a2,a2,s4
   132a0:	00178793          	addi	a5,a5,1
   132a4:	0cc12623          	sw	a2,204(sp)
   132a8:	0cf12423          	sw	a5,200(sp)
   132ac:	00700713          	li	a4,7
   132b0:	00f74463          	blt	a4,a5,132b8 <_vfprintf_r+0x19c8>
   132b4:	929fe06f          	j	11bdc <_vfprintf_r+0x2ec>
   132b8:	de1fe06f          	j	12098 <_vfprintf_r+0x7a8>
   132bc:	0d012783          	lw	a5,208(sp)
   132c0:	08010593          	addi	a1,sp,128
   132c4:	09010513          	addi	a0,sp,144
   132c8:	08f12823          	sw	a5,144(sp)
   132cc:	0d412783          	lw	a5,212(sp)
   132d0:	08012023          	sw	zero,128(sp)
   132d4:	08012223          	sw	zero,132(sp)
   132d8:	08f12a23          	sw	a5,148(sp)
   132dc:	0d812783          	lw	a5,216(sp)
   132e0:	08012423          	sw	zero,136(sp)
   132e4:	08012623          	sw	zero,140(sp)
   132e8:	08f12c23          	sw	a5,152(sp)
   132ec:	0dc12783          	lw	a5,220(sp)
   132f0:	08f12e23          	sw	a5,156(sp)
   132f4:	7040b0ef          	jal	ra,1e9f8 <__letf2>
   132f8:	00812883          	lw	a7,8(sp)
   132fc:	240548e3          	bltz	a0,13d4c <_vfprintf_r+0x245c>
   13300:	0a714703          	lbu	a4,167(sp)
   13304:	04700793          	li	a5,71
   13308:	4317d263          	bge	a5,a7,1372c <_vfprintf_r+0x1e3c>
   1330c:	000227b7          	lui	a5,0x22
   13310:	9c878d13          	addi	s10,a5,-1592 # 219c8 <__clzsi2+0x54>
   13314:	00012423          	sw	zero,8(sp)
   13318:	02012023          	sw	zero,32(sp)
   1331c:	00012e23          	sw	zero,28(sp)
   13320:	00012a23          	sw	zero,20(sp)
   13324:	f7fdfd93          	andi	s11,s11,-129
   13328:	00300c13          	li	s8,3
   1332c:	00300b13          	li	s6,3
   13330:	00000a13          	li	s4,0
   13334:	00070463          	beqz	a4,1333c <_vfprintf_r+0x1a4c>
   13338:	a65fe06f          	j	11d9c <_vfprintf_r+0x4ac>
   1333c:	fd8fe06f          	j	11b14 <_vfprintf_r+0x224>
   13340:	00c12783          	lw	a5,12(sp)
   13344:	00412703          	lw	a4,4(sp)
   13348:	0007a783          	lw	a5,0(a5)
   1334c:	00e7a023          	sw	a4,0(a5)
   13350:	fe9fe06f          	j	12338 <_vfprintf_r+0xa48>
   13354:	02c12703          	lw	a4,44(sp)
   13358:	02812783          	lw	a5,40(sp)
   1335c:	00700593          	li	a1,7
   13360:	00e42023          	sw	a4,0(s0)
   13364:	0c812703          	lw	a4,200(sp)
   13368:	00c78633          	add	a2,a5,a2
   1336c:	00f42223          	sw	a5,4(s0)
   13370:	00170713          	addi	a4,a4,1
   13374:	0cc12623          	sw	a2,204(sp)
   13378:	0ce12423          	sw	a4,200(sp)
   1337c:	00840413          	addi	s0,s0,8
   13380:	44e5cc63          	blt	a1,a4,137d8 <_vfprintf_r+0x1ee8>
   13384:	340542e3          	bltz	a0,13ec8 <_vfprintf_r+0x25d8>
   13388:	01812783          	lw	a5,24(sp)
   1338c:	00170713          	addi	a4,a4,1
   13390:	01a42023          	sw	s10,0(s0)
   13394:	00c78633          	add	a2,a5,a2
   13398:	00f42223          	sw	a5,4(s0)
   1339c:	0cc12623          	sw	a2,204(sp)
   133a0:	0ce12423          	sw	a4,200(sp)
   133a4:	00700793          	li	a5,7
   133a8:	00e7c463          	blt	a5,a4,133b0 <_vfprintf_r+0x1ac0>
   133ac:	831fe06f          	j	11bdc <_vfprintf_r+0x2ec>
   133b0:	ce9fe06f          	j	12098 <_vfprintf_r+0x7a8>
   133b4:	000d0513          	mv	a0,s10
   133b8:	01012423          	sw	a6,8(sp)
   133bc:	03112a23          	sw	a7,52(sp)
   133c0:	5c8030ef          	jal	ra,16988 <strlen>
   133c4:	00812803          	lw	a6,8(sp)
   133c8:	0a714703          	lbu	a4,167(sp)
   133cc:	fff54693          	not	a3,a0
   133d0:	41f6d693          	srai	a3,a3,0x1f
   133d4:	01012623          	sw	a6,12(sp)
   133d8:	00012423          	sw	zero,8(sp)
   133dc:	02012023          	sw	zero,32(sp)
   133e0:	00012e23          	sw	zero,28(sp)
   133e4:	00012a23          	sw	zero,20(sp)
   133e8:	03412883          	lw	a7,52(sp)
   133ec:	00050b13          	mv	s6,a0
   133f0:	00d57c33          	and	s8,a0,a3
   133f4:	00000a13          	li	s4,0
   133f8:	00070463          	beqz	a4,13400 <_vfprintf_r+0x1b10>
   133fc:	9a1fe06f          	j	11d9c <_vfprintf_r+0x4ac>
   13400:	f14fe06f          	j	11b14 <_vfprintf_r+0x224>
   13404:	00090813          	mv	a6,s2
   13408:	01412903          	lw	s2,20(sp)
   1340c:	00860633          	add	a2,a2,s0
   13410:	001a0a13          	addi	s4,s4,1
   13414:	010b2023          	sw	a6,0(s6)
   13418:	c3dfe06f          	j	12054 <_vfprintf_r+0x764>
   1341c:	0dc12783          	lw	a5,220(sp)
   13420:	3807ca63          	bltz	a5,137b4 <_vfprintf_r+0x1ec4>
   13424:	0a714703          	lbu	a4,167(sp)
   13428:	04700793          	li	a5,71
   1342c:	1517cee3          	blt	a5,a7,13d88 <_vfprintf_r+0x2498>
   13430:	000227b7          	lui	a5,0x22
   13434:	9cc78d13          	addi	s10,a5,-1588 # 219cc <__clzsi2+0x58>
   13438:	eddff06f          	j	13314 <_vfprintf_r+0x1a24>
   1343c:	00090813          	mv	a6,s2
   13440:	03412903          	lw	s2,52(sp)
   13444:	01460633          	add	a2,a2,s4
   13448:	00170713          	addi	a4,a4,1
   1344c:	01042023          	sw	a6,0(s0)
   13450:	01442223          	sw	s4,4(s0)
   13454:	0cc12623          	sw	a2,204(sp)
   13458:	0ce12423          	sw	a4,200(sp)
   1345c:	00700593          	li	a1,7
   13460:	00840413          	addi	s0,s0,8
   13464:	d8e5d863          	bge	a1,a4,129f4 <_vfprintf_r+0x1104>
   13468:	0c410613          	addi	a2,sp,196
   1346c:	00048593          	mv	a1,s1
   13470:	000b8513          	mv	a0,s7
   13474:	70d000ef          	jal	ra,14380 <__sprint_r>
   13478:	b0051a63          	bnez	a0,1278c <_vfprintf_r+0xe9c>
   1347c:	0cc12603          	lw	a2,204(sp)
   13480:	00098413          	mv	s0,s3
   13484:	d70ff06f          	j	129f4 <_vfprintf_r+0x1104>
   13488:	01812783          	lw	a5,24(sp)
   1348c:	01c12b03          	lw	s6,28(sp)
   13490:	000228b7          	lui	a7,0x22
   13494:	00fd07b3          	add	a5,s10,a5
   13498:	03212a23          	sw	s2,52(sp)
   1349c:	05912623          	sw	s9,76(sp)
   134a0:	01812e23          	sw	s8,28(sp)
   134a4:	05a12823          	sw	s10,80(sp)
   134a8:	05b12423          	sw	s11,72(sp)
   134ac:	000a0c93          	mv	s9,s4
   134b0:	00040693          	mv	a3,s0
   134b4:	04012a03          	lw	s4,64(sp)
   134b8:	04412403          	lw	s0,68(sp)
   134bc:	03812c03          	lw	s8,56(sp)
   134c0:	02012d03          	lw	s10,32(sp)
   134c4:	00700813          	li	a6,7
   134c8:	01000713          	li	a4,16
   134cc:	ce088893          	addi	a7,a7,-800 # 21ce0 <zeroes.0>
   134d0:	00078913          	mv	s2,a5
   134d4:	09605463          	blez	s6,1355c <_vfprintf_r+0x1c6c>
   134d8:	17a05e63          	blez	s10,13654 <_vfprintf_r+0x1d64>
   134dc:	fffd0d13          	addi	s10,s10,-1
   134e0:	0c812783          	lw	a5,200(sp)
   134e4:	01460633          	add	a2,a2,s4
   134e8:	0086a023          	sw	s0,0(a3)
   134ec:	00178793          	addi	a5,a5,1
   134f0:	0146a223          	sw	s4,4(a3)
   134f4:	0cc12623          	sw	a2,204(sp)
   134f8:	0cf12423          	sw	a5,200(sp)
   134fc:	00868693          	addi	a3,a3,8
   13500:	16f84063          	blt	a6,a5,13660 <_vfprintf_r+0x1d70>
   13504:	000c4583          	lbu	a1,0(s8)
   13508:	41990db3          	sub	s11,s2,s9
   1350c:	01b5d463          	bge	a1,s11,13514 <_vfprintf_r+0x1c24>
   13510:	00058d93          	mv	s11,a1
   13514:	03b05663          	blez	s11,13540 <_vfprintf_r+0x1c50>
   13518:	0c812583          	lw	a1,200(sp)
   1351c:	01b60633          	add	a2,a2,s11
   13520:	0196a023          	sw	s9,0(a3)
   13524:	00158593          	addi	a1,a1,1
   13528:	01b6a223          	sw	s11,4(a3)
   1352c:	0cc12623          	sw	a2,204(sp)
   13530:	0cb12423          	sw	a1,200(sp)
   13534:	14b84e63          	blt	a6,a1,13690 <_vfprintf_r+0x1da0>
   13538:	000c4583          	lbu	a1,0(s8)
   1353c:	00868693          	addi	a3,a3,8
   13540:	fffdc513          	not	a0,s11
   13544:	41f55513          	srai	a0,a0,0x1f
   13548:	00adf7b3          	and	a5,s11,a0
   1354c:	40f58db3          	sub	s11,a1,a5
   13550:	05b04263          	bgtz	s11,13594 <_vfprintf_r+0x1ca4>
   13554:	00bc8cb3          	add	s9,s9,a1
   13558:	f96040e3          	bgtz	s6,134d8 <_vfprintf_r+0x1be8>
   1355c:	f9a040e3          	bgtz	s10,134dc <_vfprintf_r+0x1bec>
   13560:	05012d03          	lw	s10,80(sp)
   13564:	01812783          	lw	a5,24(sp)
   13568:	03812c23          	sw	s8,56(sp)
   1356c:	000c8a13          	mv	s4,s9
   13570:	00fd0733          	add	a4,s10,a5
   13574:	03412903          	lw	s2,52(sp)
   13578:	04812d83          	lw	s11,72(sp)
   1357c:	04c12c83          	lw	s9,76(sp)
   13580:	01c12c03          	lw	s8,28(sp)
   13584:	00068413          	mv	s0,a3
   13588:	c7477e63          	bgeu	a4,s4,12a04 <_vfprintf_r+0x1114>
   1358c:	00070a13          	mv	s4,a4
   13590:	c74ff06f          	j	12a04 <_vfprintf_r+0x1114>
   13594:	00022fb7          	lui	t6,0x22
   13598:	0c812583          	lw	a1,200(sp)
   1359c:	ce0f8f93          	addi	t6,t6,-800 # 21ce0 <zeroes.0>
   135a0:	09b75463          	bge	a4,s11,13628 <_vfprintf_r+0x1d38>
   135a4:	00812a23          	sw	s0,20(sp)
   135a8:	000d8413          	mv	s0,s11
   135ac:	00090d93          	mv	s11,s2
   135b0:	00088913          	mv	s2,a7
   135b4:	00c0006f          	j	135c0 <_vfprintf_r+0x1cd0>
   135b8:	ff040413          	addi	s0,s0,-16
   135bc:	04875e63          	bge	a4,s0,13618 <_vfprintf_r+0x1d28>
   135c0:	01060613          	addi	a2,a2,16
   135c4:	00158593          	addi	a1,a1,1
   135c8:	0116a023          	sw	a7,0(a3)
   135cc:	00e6a223          	sw	a4,4(a3)
   135d0:	0cc12623          	sw	a2,204(sp)
   135d4:	0cb12423          	sw	a1,200(sp)
   135d8:	00868693          	addi	a3,a3,8
   135dc:	fcb85ee3          	bge	a6,a1,135b8 <_vfprintf_r+0x1cc8>
   135e0:	0c410613          	addi	a2,sp,196
   135e4:	00048593          	mv	a1,s1
   135e8:	000b8513          	mv	a0,s7
   135ec:	595000ef          	jal	ra,14380 <__sprint_r>
   135f0:	98051e63          	bnez	a0,1278c <_vfprintf_r+0xe9c>
   135f4:	000227b7          	lui	a5,0x22
   135f8:	01000713          	li	a4,16
   135fc:	ff040413          	addi	s0,s0,-16
   13600:	0cc12603          	lw	a2,204(sp)
   13604:	0c812583          	lw	a1,200(sp)
   13608:	00098693          	mv	a3,s3
   1360c:	ce078893          	addi	a7,a5,-800 # 21ce0 <zeroes.0>
   13610:	00700813          	li	a6,7
   13614:	fa8746e3          	blt	a4,s0,135c0 <_vfprintf_r+0x1cd0>
   13618:	00090f93          	mv	t6,s2
   1361c:	000d8913          	mv	s2,s11
   13620:	00040d93          	mv	s11,s0
   13624:	01412403          	lw	s0,20(sp)
   13628:	01b60633          	add	a2,a2,s11
   1362c:	00158593          	addi	a1,a1,1
   13630:	01f6a023          	sw	t6,0(a3)
   13634:	01b6a223          	sw	s11,4(a3)
   13638:	0cc12623          	sw	a2,204(sp)
   1363c:	0cb12423          	sw	a1,200(sp)
   13640:	6cb84263          	blt	a6,a1,13d04 <_vfprintf_r+0x2414>
   13644:	000c4583          	lbu	a1,0(s8)
   13648:	00868693          	addi	a3,a3,8
   1364c:	00bc8cb3          	add	s9,s9,a1
   13650:	f09ff06f          	j	13558 <_vfprintf_r+0x1c68>
   13654:	fffc0c13          	addi	s8,s8,-1
   13658:	fffb0b13          	addi	s6,s6,-1
   1365c:	e85ff06f          	j	134e0 <_vfprintf_r+0x1bf0>
   13660:	0c410613          	addi	a2,sp,196
   13664:	00048593          	mv	a1,s1
   13668:	000b8513          	mv	a0,s7
   1366c:	515000ef          	jal	ra,14380 <__sprint_r>
   13670:	90051e63          	bnez	a0,1278c <_vfprintf_r+0xe9c>
   13674:	000227b7          	lui	a5,0x22
   13678:	0cc12603          	lw	a2,204(sp)
   1367c:	00098693          	mv	a3,s3
   13680:	ce078893          	addi	a7,a5,-800 # 21ce0 <zeroes.0>
   13684:	01000713          	li	a4,16
   13688:	00700813          	li	a6,7
   1368c:	e79ff06f          	j	13504 <_vfprintf_r+0x1c14>
   13690:	0c410613          	addi	a2,sp,196
   13694:	00048593          	mv	a1,s1
   13698:	000b8513          	mv	a0,s7
   1369c:	4e5000ef          	jal	ra,14380 <__sprint_r>
   136a0:	8e051663          	bnez	a0,1278c <_vfprintf_r+0xe9c>
   136a4:	000227b7          	lui	a5,0x22
   136a8:	000c4583          	lbu	a1,0(s8)
   136ac:	0cc12603          	lw	a2,204(sp)
   136b0:	00098693          	mv	a3,s3
   136b4:	ce078893          	addi	a7,a5,-800 # 21ce0 <zeroes.0>
   136b8:	01000713          	li	a4,16
   136bc:	00700813          	li	a6,7
   136c0:	e81ff06f          	j	13540 <_vfprintf_r+0x1c50>
   136c4:	04012783          	lw	a5,64(sp)
   136c8:	04412583          	lw	a1,68(sp)
   136cc:	00000d13          	li	s10,0
   136d0:	40fc0c33          	sub	s8,s8,a5
   136d4:	00078613          	mv	a2,a5
   136d8:	000c0513          	mv	a0,s8
   136dc:	579020ef          	jal	ra,16454 <strncpy>
   136e0:	00144783          	lbu	a5,1(s0)
   136e4:	00a00613          	li	a2,10
   136e8:	00000693          	li	a3,0
   136ec:	00f037b3          	snez	a5,a5
   136f0:	000b0513          	mv	a0,s6
   136f4:	00090593          	mv	a1,s2
   136f8:	00f40433          	add	s0,s0,a5
   136fc:	534080ef          	jal	ra,1bc30 <__udivdi3>
   13700:	a61ff06f          	j	13160 <_vfprintf_r+0x1870>
   13704:	0c410613          	addi	a2,sp,196
   13708:	00048593          	mv	a1,s1
   1370c:	000b8513          	mv	a0,s7
   13710:	471000ef          	jal	ra,14380 <__sprint_r>
   13714:	00050463          	beqz	a0,1371c <_vfprintf_r+0x1e2c>
   13718:	874ff06f          	j	1278c <_vfprintf_r+0xe9c>
   1371c:	0ac12503          	lw	a0,172(sp)
   13720:	0cc12603          	lw	a2,204(sp)
   13724:	00098413          	mv	s0,s3
   13728:	aedff06f          	j	13214 <_vfprintf_r+0x1924>
   1372c:	000227b7          	lui	a5,0x22
   13730:	9c478d13          	addi	s10,a5,-1596 # 219c4 <__clzsi2+0x50>
   13734:	be1ff06f          	j	13314 <_vfprintf_r+0x1a24>
   13738:	0c410613          	addi	a2,sp,196
   1373c:	00048593          	mv	a1,s1
   13740:	000b8513          	mv	a0,s7
   13744:	43d000ef          	jal	ra,14380 <__sprint_r>
   13748:	00050463          	beqz	a0,13750 <_vfprintf_r+0x1e60>
   1374c:	840ff06f          	j	1278c <_vfprintf_r+0xe9c>
   13750:	0cc12603          	lw	a2,204(sp)
   13754:	00098413          	mv	s0,s3
   13758:	a84ff06f          	j	129dc <_vfprintf_r+0x10ec>
   1375c:	00600b13          	li	s6,6
   13760:	e34ff06f          	j	12d94 <_vfprintf_r+0x14a4>
   13764:	00c12783          	lw	a5,12(sp)
   13768:	00412703          	lw	a4,4(sp)
   1376c:	0007a783          	lw	a5,0(a5)
   13770:	00e79023          	sh	a4,0(a5)
   13774:	bc5fe06f          	j	12338 <_vfprintf_r+0xa48>
   13778:	0ff77b13          	andi	s6,a4,255
   1377c:	00000813          	li	a6,0
   13780:	00100793          	li	a5,1
   13784:	e50fe06f          	j	11dd4 <_vfprintf_r+0x4e4>
   13788:	01871b13          	slli	s6,a4,0x18
   1378c:	418b5b13          	srai	s6,s6,0x18
   13790:	41fb5813          	srai	a6,s6,0x1f
   13794:	00080793          	mv	a5,a6
   13798:	db8fe06f          	j	11d50 <_vfprintf_r+0x460>
   1379c:	0ff77b13          	andi	s6,a4,255
   137a0:	00000813          	li	a6,0
   137a4:	d60ff06f          	j	12d04 <_vfprintf_r+0x1414>
   137a8:	0ff77b13          	andi	s6,a4,255
   137ac:	00000813          	li	a6,0
   137b0:	e1cfe06f          	j	11dcc <_vfprintf_r+0x4dc>
   137b4:	02d00793          	li	a5,45
   137b8:	0af103a3          	sb	a5,167(sp)
   137bc:	02d00713          	li	a4,45
   137c0:	c69ff06f          	j	13428 <_vfprintf_r+0x1b38>
   137c4:	02412503          	lw	a0,36(sp)
   137c8:	0c410613          	addi	a2,sp,196
   137cc:	00048593          	mv	a1,s1
   137d0:	3b1000ef          	jal	ra,14380 <__sprint_r>
   137d4:	c6cfe06f          	j	11c40 <_vfprintf_r+0x350>
   137d8:	0c410613          	addi	a2,sp,196
   137dc:	00048593          	mv	a1,s1
   137e0:	000b8513          	mv	a0,s7
   137e4:	39d000ef          	jal	ra,14380 <__sprint_r>
   137e8:	00050463          	beqz	a0,137f0 <_vfprintf_r+0x1f00>
   137ec:	fa1fe06f          	j	1278c <_vfprintf_r+0xe9c>
   137f0:	0ac12503          	lw	a0,172(sp)
   137f4:	0cc12603          	lw	a2,204(sp)
   137f8:	0c812703          	lw	a4,200(sp)
   137fc:	00098413          	mv	s0,s3
   13800:	b85ff06f          	j	13384 <_vfprintf_r+0x1a94>
   13804:	01450733          	add	a4,a0,s4
   13808:	04700613          	li	a2,71
   1380c:	08010593          	addi	a1,sp,128
   13810:	000b0513          	mv	a0,s6
   13814:	00e12e23          	sw	a4,28(sp)
   13818:	00c12c23          	sw	a2,24(sp)
   1381c:	01112a23          	sw	a7,20(sp)
   13820:	09f12823          	sw	t6,144(sp)
   13824:	09e12a23          	sw	t5,148(sp)
   13828:	09d12c23          	sw	t4,152(sp)
   1382c:	09812e23          	sw	s8,156(sp)
   13830:	08012023          	sw	zero,128(sp)
   13834:	08012223          	sw	zero,132(sp)
   13838:	08012423          	sw	zero,136(sp)
   1383c:	08012623          	sw	zero,140(sp)
   13840:	7bd0a0ef          	jal	ra,1e7fc <__eqtf2>
   13844:	01412883          	lw	a7,20(sp)
   13848:	01812603          	lw	a2,24(sp)
   1384c:	01c12703          	lw	a4,28(sp)
   13850:	56050a63          	beqz	a0,13dc4 <_vfprintf_r+0x24d4>
   13854:	0bc12783          	lw	a5,188(sp)
   13858:	00e7fe63          	bgeu	a5,a4,13874 <_vfprintf_r+0x1f84>
   1385c:	03000593          	li	a1,48
   13860:	00178693          	addi	a3,a5,1
   13864:	0ad12e23          	sw	a3,188(sp)
   13868:	00b78023          	sb	a1,0(a5)
   1386c:	0bc12783          	lw	a5,188(sp)
   13870:	fee7e8e3          	bltu	a5,a4,13860 <_vfprintf_r+0x1f70>
   13874:	0ac12703          	lw	a4,172(sp)
   13878:	00e12a23          	sw	a4,20(sp)
   1387c:	41a787b3          	sub	a5,a5,s10
   13880:	04700713          	li	a4,71
   13884:	00f12c23          	sw	a5,24(sp)
   13888:	eae60663          	beq	a2,a4,12f34 <_vfprintf_r+0x1644>
   1388c:	04600713          	li	a4,70
   13890:	5ce60a63          	beq	a2,a4,13e64 <_vfprintf_r+0x2574>
   13894:	01412783          	lw	a5,20(sp)
   13898:	fff78a13          	addi	s4,a5,-1
   1389c:	eb4ff06f          	j	12f50 <_vfprintf_r+0x1660>
   138a0:	001a0693          	addi	a3,s4,1
   138a4:	00200613          	li	a2,2
   138a8:	09010b13          	addi	s6,sp,144
   138ac:	0ac10713          	addi	a4,sp,172
   138b0:	000b0593          	mv	a1,s6
   138b4:	0bc10813          	addi	a6,sp,188
   138b8:	0b010793          	addi	a5,sp,176
   138bc:	000b8513          	mv	a0,s7
   138c0:	05112623          	sw	a7,76(sp)
   138c4:	02d12023          	sw	a3,32(sp)
   138c8:	09f12823          	sw	t6,144(sp)
   138cc:	01f12e23          	sw	t6,28(sp)
   138d0:	09e12a23          	sw	t5,148(sp)
   138d4:	01e12c23          	sw	t5,24(sp)
   138d8:	09d12c23          	sw	t4,152(sp)
   138dc:	01d12a23          	sw	t4,20(sp)
   138e0:	09812e23          	sw	s8,156(sp)
   138e4:	4c8030ef          	jal	ra,16dac <_ldtoa_r>
   138e8:	04c12883          	lw	a7,76(sp)
   138ec:	02012683          	lw	a3,32(sp)
   138f0:	04600593          	li	a1,70
   138f4:	fdf8f613          	andi	a2,a7,-33
   138f8:	01412e83          	lw	t4,20(sp)
   138fc:	01812f03          	lw	t5,24(sp)
   13900:	01c12f83          	lw	t6,28(sp)
   13904:	00050d13          	mv	s10,a0
   13908:	00d50733          	add	a4,a0,a3
   1390c:	04b618e3          	bne	a2,a1,1415c <_vfprintf_r+0x286c>
   13910:	000d4503          	lbu	a0,0(s10)
   13914:	03000593          	li	a1,48
   13918:	4cb50463          	beq	a0,a1,13de0 <_vfprintf_r+0x24f0>
   1391c:	0ac12683          	lw	a3,172(sp)
   13920:	08010593          	addi	a1,sp,128
   13924:	00d70733          	add	a4,a4,a3
   13928:	ee9ff06f          	j	13810 <_vfprintf_r+0x1f20>
   1392c:	09010b13          	addi	s6,sp,144
   13930:	08010593          	addi	a1,sp,128
   13934:	0ac10613          	addi	a2,sp,172
   13938:	000b0513          	mv	a0,s6
   1393c:	05112423          	sw	a7,72(sp)
   13940:	09f12023          	sw	t6,128(sp)
   13944:	09e12223          	sw	t5,132(sp)
   13948:	09d12423          	sw	t4,136(sp)
   1394c:	00b12a23          	sw	a1,20(sp)
   13950:	09812623          	sw	s8,140(sp)
   13954:	23c030ef          	jal	ra,16b90 <frexpl>
   13958:	09012703          	lw	a4,144(sp)
   1395c:	01412583          	lw	a1,20(sp)
   13960:	07010613          	addi	a2,sp,112
   13964:	08e12023          	sw	a4,128(sp)
   13968:	09412703          	lw	a4,148(sp)
   1396c:	000b0513          	mv	a0,s6
   13970:	06012823          	sw	zero,112(sp)
   13974:	08e12223          	sw	a4,132(sp)
   13978:	09812703          	lw	a4,152(sp)
   1397c:	06012a23          	sw	zero,116(sp)
   13980:	06012c23          	sw	zero,120(sp)
   13984:	08e12423          	sw	a4,136(sp)
   13988:	09c12703          	lw	a4,156(sp)
   1398c:	08e12623          	sw	a4,140(sp)
   13990:	3ffc0737          	lui	a4,0x3ffc0
   13994:	06e12e23          	sw	a4,124(sp)
   13998:	1900b0ef          	jal	ra,1eb28 <__multf3>
   1399c:	01412583          	lw	a1,20(sp)
   139a0:	09012f03          	lw	t5,144(sp)
   139a4:	09412e83          	lw	t4,148(sp)
   139a8:	09812803          	lw	a6,152(sp)
   139ac:	09c12603          	lw	a2,156(sp)
   139b0:	000b0513          	mv	a0,s6
   139b4:	02b12e23          	sw	a1,60(sp)
   139b8:	03e12023          	sw	t5,32(sp)
   139bc:	01d12e23          	sw	t4,28(sp)
   139c0:	01012c23          	sw	a6,24(sp)
   139c4:	00c12a23          	sw	a2,20(sp)
   139c8:	08012023          	sw	zero,128(sp)
   139cc:	08012223          	sw	zero,132(sp)
   139d0:	08012423          	sw	zero,136(sp)
   139d4:	08012623          	sw	zero,140(sp)
   139d8:	6250a0ef          	jal	ra,1e7fc <__eqtf2>
   139dc:	01412603          	lw	a2,20(sp)
   139e0:	01812803          	lw	a6,24(sp)
   139e4:	01c12e83          	lw	t4,28(sp)
   139e8:	02012f03          	lw	t5,32(sp)
   139ec:	03c12583          	lw	a1,60(sp)
   139f0:	04812883          	lw	a7,72(sp)
   139f4:	00051663          	bnez	a0,13a00 <_vfprintf_r+0x2110>
   139f8:	00100713          	li	a4,1
   139fc:	0ae12623          	sw	a4,172(sp)
   13a00:	06100713          	li	a4,97
   13a04:	6ce88263          	beq	a7,a4,140c8 <_vfprintf_r+0x27d8>
   13a08:	00022737          	lui	a4,0x22
   13a0c:	9e870793          	addi	a5,a4,-1560 # 219e8 <__clzsi2+0x74>
   13a10:	00f12a23          	sw	a5,20(sp)
   13a14:	01212c23          	sw	s2,24(sp)
   13a18:	03912e23          	sw	s9,60(sp)
   13a1c:	04812423          	sw	s0,72(sp)
   13a20:	000d0913          	mv	s2,s10
   13a24:	05712623          	sw	s7,76(sp)
   13a28:	04912823          	sw	s1,80(sp)
   13a2c:	05a12a23          	sw	s10,84(sp)
   13a30:	01412483          	lw	s1,20(sp)
   13a34:	fffa0a13          	addi	s4,s4,-1
   13a38:	01112e23          	sw	a7,28(sp)
   13a3c:	03b12023          	sw	s11,32(sp)
   13a40:	000f0b93          	mv	s7,t5
   13a44:	000e8c13          	mv	s8,t4
   13a48:	00080c93          	mv	s9,a6
   13a4c:	00060d13          	mv	s10,a2
   13a50:	00058413          	mv	s0,a1
   13a54:	03c0006f          	j	13a90 <_vfprintf_r+0x21a0>
   13a58:	00040593          	mv	a1,s0
   13a5c:	000b0513          	mv	a0,s6
   13a60:	09712823          	sw	s7,144(sp)
   13a64:	09812a23          	sw	s8,148(sp)
   13a68:	09912c23          	sw	s9,152(sp)
   13a6c:	09a12e23          	sw	s10,156(sp)
   13a70:	08012023          	sw	zero,128(sp)
   13a74:	08012223          	sw	zero,132(sp)
   13a78:	08012423          	sw	zero,136(sp)
   13a7c:	08012623          	sw	zero,140(sp)
   13a80:	fffa0d93          	addi	s11,s4,-1
   13a84:	5790a0ef          	jal	ra,1e7fc <__eqtf2>
   13a88:	5e050463          	beqz	a0,14070 <_vfprintf_r+0x2780>
   13a8c:	000d8a13          	mv	s4,s11
   13a90:	400307b7          	lui	a5,0x40030
   13a94:	07010613          	addi	a2,sp,112
   13a98:	00040593          	mv	a1,s0
   13a9c:	000b0513          	mv	a0,s6
   13aa0:	06f12e23          	sw	a5,124(sp)
   13aa4:	09712023          	sw	s7,128(sp)
   13aa8:	09812223          	sw	s8,132(sp)
   13aac:	09912423          	sw	s9,136(sp)
   13ab0:	09a12623          	sw	s10,140(sp)
   13ab4:	06012823          	sw	zero,112(sp)
   13ab8:	06012a23          	sw	zero,116(sp)
   13abc:	06012c23          	sw	zero,120(sp)
   13ac0:	0680b0ef          	jal	ra,1eb28 <__multf3>
   13ac4:	000b0513          	mv	a0,s6
   13ac8:	1810d0ef          	jal	ra,21448 <__fixtfsi>
   13acc:	00050593          	mv	a1,a0
   13ad0:	00050d93          	mv	s11,a0
   13ad4:	000b0513          	mv	a0,s6
   13ad8:	09012d03          	lw	s10,144(sp)
   13adc:	09412c83          	lw	s9,148(sp)
   13ae0:	09812c03          	lw	s8,152(sp)
   13ae4:	09c12b83          	lw	s7,156(sp)
   13ae8:	2590d0ef          	jal	ra,21540 <__floatsitf>
   13aec:	09012683          	lw	a3,144(sp)
   13af0:	06010613          	addi	a2,sp,96
   13af4:	07010593          	addi	a1,sp,112
   13af8:	06d12023          	sw	a3,96(sp)
   13afc:	09412683          	lw	a3,148(sp)
   13b00:	00040513          	mv	a0,s0
   13b04:	07a12823          	sw	s10,112(sp)
   13b08:	06d12223          	sw	a3,100(sp)
   13b0c:	09812683          	lw	a3,152(sp)
   13b10:	07912a23          	sw	s9,116(sp)
   13b14:	07812c23          	sw	s8,120(sp)
   13b18:	06d12423          	sw	a3,104(sp)
   13b1c:	09c12683          	lw	a3,156(sp)
   13b20:	07712e23          	sw	s7,124(sp)
   13b24:	06d12623          	sw	a3,108(sp)
   13b28:	3b40c0ef          	jal	ra,1fedc <__subtf3>
   13b2c:	01b486b3          	add	a3,s1,s11
   13b30:	0006c683          	lbu	a3,0(a3)
   13b34:	00090f93          	mv	t6,s2
   13b38:	00190913          	addi	s2,s2,1
   13b3c:	08012b83          	lw	s7,128(sp)
   13b40:	08412c03          	lw	s8,132(sp)
   13b44:	08812c83          	lw	s9,136(sp)
   13b48:	08c12d03          	lw	s10,140(sp)
   13b4c:	fff00793          	li	a5,-1
   13b50:	fed90fa3          	sb	a3,-1(s2)
   13b54:	f0fa12e3          	bne	s4,a5,13a58 <_vfprintf_r+0x2168>
   13b58:	000b8f13          	mv	t5,s7
   13b5c:	000c0e93          	mv	t4,s8
   13b60:	000c8813          	mv	a6,s9
   13b64:	000d0613          	mv	a2,s10
   13b68:	00040593          	mv	a1,s0
   13b6c:	3ffe0a37          	lui	s4,0x3ffe0
   13b70:	000b0513          	mv	a0,s6
   13b74:	05f12e23          	sw	t6,92(sp)
   13b78:	05b12c23          	sw	s11,88(sp)
   13b7c:	05012483          	lw	s1,80(sp)
   13b80:	02012d83          	lw	s11,32(sp)
   13b84:	04c12b83          	lw	s7,76(sp)
   13b88:	03c12c83          	lw	s9,60(sp)
   13b8c:	04812403          	lw	s0,72(sp)
   13b90:	09e12823          	sw	t5,144(sp)
   13b94:	05e12823          	sw	t5,80(sp)
   13b98:	09d12a23          	sw	t4,148(sp)
   13b9c:	05d12623          	sw	t4,76(sp)
   13ba0:	09012c23          	sw	a6,152(sp)
   13ba4:	05012423          	sw	a6,72(sp)
   13ba8:	08c12e23          	sw	a2,156(sp)
   13bac:	02c12e23          	sw	a2,60(sp)
   13bb0:	08012023          	sw	zero,128(sp)
   13bb4:	08012223          	sw	zero,132(sp)
   13bb8:	08012423          	sw	zero,136(sp)
   13bbc:	09412623          	sw	s4,140(sp)
   13bc0:	02b12023          	sw	a1,32(sp)
   13bc4:	5050a0ef          	jal	ra,1e8c8 <__getf2>
   13bc8:	00090c13          	mv	s8,s2
   13bcc:	05412d03          	lw	s10,84(sp)
   13bd0:	01812903          	lw	s2,24(sp)
   13bd4:	01c12883          	lw	a7,28(sp)
   13bd8:	05c12f83          	lw	t6,92(sp)
   13bdc:	02a04663          	bgtz	a0,13c08 <_vfprintf_r+0x2318>
   13be0:	02012583          	lw	a1,32(sp)
   13be4:	000b0513          	mv	a0,s6
   13be8:	01f12c23          	sw	t6,24(sp)
   13bec:	4110a0ef          	jal	ra,1e7fc <__eqtf2>
   13bf0:	01c12883          	lw	a7,28(sp)
   13bf4:	04051e63          	bnez	a0,13c50 <_vfprintf_r+0x2360>
   13bf8:	05812783          	lw	a5,88(sp)
   13bfc:	01812f83          	lw	t6,24(sp)
   13c00:	0017f693          	andi	a3,a5,1
   13c04:	04068663          	beqz	a3,13c50 <_vfprintf_r+0x2360>
   13c08:	01412783          	lw	a5,20(sp)
   13c0c:	0bf12e23          	sw	t6,188(sp)
   13c10:	fffc4603          	lbu	a2,-1(s8)
   13c14:	00f7c583          	lbu	a1,15(a5) # 4003000f <__BSS_END__+0x4000c303>
   13c18:	000c0693          	mv	a3,s8
   13c1c:	02b61063          	bne	a2,a1,13c3c <_vfprintf_r+0x234c>
   13c20:	03000513          	li	a0,48
   13c24:	fea68fa3          	sb	a0,-1(a3)
   13c28:	0bc12683          	lw	a3,188(sp)
   13c2c:	fff68793          	addi	a5,a3,-1
   13c30:	0af12e23          	sw	a5,188(sp)
   13c34:	fff6c603          	lbu	a2,-1(a3)
   13c38:	fec586e3          	beq	a1,a2,13c24 <_vfprintf_r+0x2334>
   13c3c:	00160593          	addi	a1,a2,1
   13c40:	03900513          	li	a0,57
   13c44:	0ff5f593          	andi	a1,a1,255
   13c48:	04a60463          	beq	a2,a0,13c90 <_vfprintf_r+0x23a0>
   13c4c:	feb68fa3          	sb	a1,-1(a3)
   13c50:	0ac12783          	lw	a5,172(sp)
   13c54:	41ac0733          	sub	a4,s8,s10
   13c58:	06100613          	li	a2,97
   13c5c:	fff78a13          	addi	s4,a5,-1
   13c60:	00f12a23          	sw	a5,20(sp)
   13c64:	00e12c23          	sw	a4,24(sp)
   13c68:	0b412623          	sw	s4,172(sp)
   13c6c:	07000693          	li	a3,112
   13c70:	00c88663          	beq	a7,a2,13c7c <_vfprintf_r+0x238c>
   13c74:	05000693          	li	a3,80
   13c78:	04100893          	li	a7,65
   13c7c:	00100613          	li	a2,1
   13c80:	adcff06f          	j	12f5c <_vfprintf_r+0x166c>
   13c84:	000a0693          	mv	a3,s4
   13c88:	00300613          	li	a2,3
   13c8c:	c1dff06f          	j	138a8 <_vfprintf_r+0x1fb8>
   13c90:	01412783          	lw	a5,20(sp)
   13c94:	00a7c583          	lbu	a1,10(a5)
   13c98:	fb5ff06f          	j	13c4c <_vfprintf_r+0x235c>
   13c9c:	0a714703          	lbu	a4,167(sp)
   13ca0:	04812d83          	lw	s11,72(sp)
   13ca4:	00000a13          	li	s4,0
   13ca8:	00070463          	beqz	a4,13cb0 <_vfprintf_r+0x23c0>
   13cac:	8f0fe06f          	j	11d9c <_vfprintf_r+0x4ac>
   13cb0:	e65fd06f          	j	11b14 <_vfprintf_r+0x224>
   13cb4:	01812783          	lw	a5,24(sp)
   13cb8:	01412703          	lw	a4,20(sp)
   13cbc:	1cf74e63          	blt	a4,a5,13e98 <_vfprintf_r+0x25a8>
   13cc0:	01412783          	lw	a5,20(sp)
   13cc4:	001df713          	andi	a4,s11,1
   13cc8:	00078b13          	mv	s6,a5
   13ccc:	00070663          	beqz	a4,13cd8 <_vfprintf_r+0x23e8>
   13cd0:	02812703          	lw	a4,40(sp)
   13cd4:	00e78b33          	add	s6,a5,a4
   13cd8:	400dfe13          	andi	t3,s11,1024
   13cdc:	000e0663          	beqz	t3,13ce8 <_vfprintf_r+0x23f8>
   13ce0:	01412783          	lw	a5,20(sp)
   13ce4:	30f04263          	bgtz	a5,13fe8 <_vfprintf_r+0x26f8>
   13ce8:	fffb4693          	not	a3,s6
   13cec:	41f6d693          	srai	a3,a3,0x1f
   13cf0:	00db7c33          	and	s8,s6,a3
   13cf4:	06700893          	li	a7,103
   13cf8:	02012023          	sw	zero,32(sp)
   13cfc:	00012e23          	sw	zero,28(sp)
   13d00:	b6cff06f          	j	1306c <_vfprintf_r+0x177c>
   13d04:	0c410613          	addi	a2,sp,196
   13d08:	00048593          	mv	a1,s1
   13d0c:	000b8513          	mv	a0,s7
   13d10:	670000ef          	jal	ra,14380 <__sprint_r>
   13d14:	00050463          	beqz	a0,13d1c <_vfprintf_r+0x242c>
   13d18:	a75fe06f          	j	1278c <_vfprintf_r+0xe9c>
   13d1c:	000c4583          	lbu	a1,0(s8)
   13d20:	000227b7          	lui	a5,0x22
   13d24:	0cc12603          	lw	a2,204(sp)
   13d28:	00098693          	mv	a3,s3
   13d2c:	ce078893          	addi	a7,a5,-800 # 21ce0 <zeroes.0>
   13d30:	01000713          	li	a4,16
   13d34:	00700813          	li	a6,7
   13d38:	00bc8cb3          	add	s9,s9,a1
   13d3c:	81dff06f          	j	13558 <_vfprintf_r+0x1c68>
   13d40:	00900793          	li	a5,9
   13d44:	c167ee63          	bltu	a5,s6,13160 <_vfprintf_r+0x1870>
   13d48:	c68ff06f          	j	131b0 <_vfprintf_r+0x18c0>
   13d4c:	02d00793          	li	a5,45
   13d50:	0af103a3          	sb	a5,167(sp)
   13d54:	02d00713          	li	a4,45
   13d58:	dacff06f          	j	13304 <_vfprintf_r+0x1a14>
   13d5c:	0a714703          	lbu	a4,167(sp)
   13d60:	01012623          	sw	a6,12(sp)
   13d64:	02012023          	sw	zero,32(sp)
   13d68:	00012e23          	sw	zero,28(sp)
   13d6c:	00012a23          	sw	zero,20(sp)
   13d70:	000a0c13          	mv	s8,s4
   13d74:	000a0b13          	mv	s6,s4
   13d78:	00000a13          	li	s4,0
   13d7c:	00070463          	beqz	a4,13d84 <_vfprintf_r+0x2494>
   13d80:	81cfe06f          	j	11d9c <_vfprintf_r+0x4ac>
   13d84:	d91fd06f          	j	11b14 <_vfprintf_r+0x224>
   13d88:	000227b7          	lui	a5,0x22
   13d8c:	9d078d13          	addi	s10,a5,-1584 # 219d0 <__clzsi2+0x5c>
   13d90:	d84ff06f          	j	13314 <_vfprintf_r+0x1a24>
   13d94:	0c410613          	addi	a2,sp,196
   13d98:	00048593          	mv	a1,s1
   13d9c:	000b8513          	mv	a0,s7
   13da0:	5e0000ef          	jal	ra,14380 <__sprint_r>
   13da4:	00050463          	beqz	a0,13dac <_vfprintf_r+0x24bc>
   13da8:	9e5fe06f          	j	1278c <_vfprintf_r+0xe9c>
   13dac:	0ac12583          	lw	a1,172(sp)
   13db0:	01812783          	lw	a5,24(sp)
   13db4:	0cc12603          	lw	a2,204(sp)
   13db8:	00098413          	mv	s0,s3
   13dbc:	40b785b3          	sub	a1,a5,a1
   13dc0:	ca1fe06f          	j	12a60 <_vfprintf_r+0x1170>
   13dc4:	0ac12783          	lw	a5,172(sp)
   13dc8:	00f12a23          	sw	a5,20(sp)
   13dcc:	00070793          	mv	a5,a4
   13dd0:	aadff06f          	j	1387c <_vfprintf_r+0x1f8c>
   13dd4:	fff00793          	li	a5,-1
   13dd8:	00f12223          	sw	a5,4(sp)
   13ddc:	e99fd06f          	j	11c74 <_vfprintf_r+0x384>
   13de0:	08010593          	addi	a1,sp,128
   13de4:	000b0513          	mv	a0,s6
   13de8:	04e12c23          	sw	a4,88(sp)
   13dec:	04c12a23          	sw	a2,84(sp)
   13df0:	05112823          	sw	a7,80(sp)
   13df4:	04d12623          	sw	a3,76(sp)
   13df8:	09f12823          	sw	t6,144(sp)
   13dfc:	03f12023          	sw	t6,32(sp)
   13e00:	09e12a23          	sw	t5,148(sp)
   13e04:	01e12e23          	sw	t5,28(sp)
   13e08:	09d12c23          	sw	t4,152(sp)
   13e0c:	01d12c23          	sw	t4,24(sp)
   13e10:	00b12a23          	sw	a1,20(sp)
   13e14:	09812e23          	sw	s8,156(sp)
   13e18:	08012023          	sw	zero,128(sp)
   13e1c:	08012223          	sw	zero,132(sp)
   13e20:	08012423          	sw	zero,136(sp)
   13e24:	08012623          	sw	zero,140(sp)
   13e28:	1d50a0ef          	jal	ra,1e7fc <__eqtf2>
   13e2c:	01412583          	lw	a1,20(sp)
   13e30:	01812e83          	lw	t4,24(sp)
   13e34:	01c12f03          	lw	t5,28(sp)
   13e38:	02012f83          	lw	t6,32(sp)
   13e3c:	04c12683          	lw	a3,76(sp)
   13e40:	05012883          	lw	a7,80(sp)
   13e44:	05412603          	lw	a2,84(sp)
   13e48:	05812703          	lw	a4,88(sp)
   13e4c:	28051663          	bnez	a0,140d8 <_vfprintf_r+0x27e8>
   13e50:	0ac12783          	lw	a5,172(sp)
   13e54:	00f70733          	add	a4,a4,a5
   13e58:	00f12a23          	sw	a5,20(sp)
   13e5c:	41a707b3          	sub	a5,a4,s10
   13e60:	00f12c23          	sw	a5,24(sp)
   13e64:	01412783          	lw	a5,20(sp)
   13e68:	001df713          	andi	a4,s11,1
   13e6c:	01476733          	or	a4,a4,s4
   13e70:	26f05e63          	blez	a5,140ec <_vfprintf_r+0x27fc>
   13e74:	24071063          	bnez	a4,140b4 <_vfprintf_r+0x27c4>
   13e78:	01412b03          	lw	s6,20(sp)
   13e7c:	06600893          	li	a7,102
   13e80:	400dfe13          	andi	t3,s11,1024
   13e84:	160e1463          	bnez	t3,13fec <_vfprintf_r+0x26fc>
   13e88:	fffb4693          	not	a3,s6
   13e8c:	41f6d693          	srai	a3,a3,0x1f
   13e90:	00db7c33          	and	s8,s6,a3
   13e94:	e65ff06f          	j	13cf8 <_vfprintf_r+0x2408>
   13e98:	01812783          	lw	a5,24(sp)
   13e9c:	02812703          	lw	a4,40(sp)
   13ea0:	06700893          	li	a7,103
   13ea4:	00e78b33          	add	s6,a5,a4
   13ea8:	01412783          	lw	a5,20(sp)
   13eac:	fcf04ae3          	bgtz	a5,13e80 <_vfprintf_r+0x2590>
   13eb0:	40fb0f33          	sub	t5,s6,a5
   13eb4:	001f0b13          	addi	s6,t5,1
   13eb8:	fffb4693          	not	a3,s6
   13ebc:	41f6d693          	srai	a3,a3,0x1f
   13ec0:	00db7c33          	and	s8,s6,a3
   13ec4:	e35ff06f          	j	13cf8 <_vfprintf_r+0x2408>
   13ec8:	00022837          	lui	a6,0x22
   13ecc:	ff000593          	li	a1,-16
   13ed0:	40a00a33          	neg	s4,a0
   13ed4:	ce080813          	addi	a6,a6,-800 # 21ce0 <zeroes.0>
   13ed8:	06b55e63          	bge	a0,a1,13f54 <_vfprintf_r+0x2664>
   13edc:	01212a23          	sw	s2,20(sp)
   13ee0:	01000b13          	li	s6,16
   13ee4:	00700893          	li	a7,7
   13ee8:	00080913          	mv	s2,a6
   13eec:	00c0006f          	j	13ef8 <_vfprintf_r+0x2608>
   13ef0:	ff0a0a13          	addi	s4,s4,-16 # 3ffdfff0 <__BSS_END__+0x3ffbc2e4>
   13ef4:	054b5c63          	bge	s6,s4,13f4c <_vfprintf_r+0x265c>
   13ef8:	01060613          	addi	a2,a2,16
   13efc:	00170713          	addi	a4,a4,1
   13f00:	01242023          	sw	s2,0(s0)
   13f04:	01642223          	sw	s6,4(s0)
   13f08:	0cc12623          	sw	a2,204(sp)
   13f0c:	0ce12423          	sw	a4,200(sp)
   13f10:	00840413          	addi	s0,s0,8
   13f14:	fce8dee3          	bge	a7,a4,13ef0 <_vfprintf_r+0x2600>
   13f18:	0c410613          	addi	a2,sp,196
   13f1c:	00048593          	mv	a1,s1
   13f20:	000b8513          	mv	a0,s7
   13f24:	45c000ef          	jal	ra,14380 <__sprint_r>
   13f28:	00050463          	beqz	a0,13f30 <_vfprintf_r+0x2640>
   13f2c:	861fe06f          	j	1278c <_vfprintf_r+0xe9c>
   13f30:	0cc12603          	lw	a2,204(sp)
   13f34:	0c812703          	lw	a4,200(sp)
   13f38:	00098413          	mv	s0,s3
   13f3c:	00700893          	li	a7,7
   13f40:	fb1ff06f          	j	13ef0 <_vfprintf_r+0x2600>
   13f44:	000d8613          	mv	a2,s11
   13f48:	b18fe06f          	j	12260 <_vfprintf_r+0x970>
   13f4c:	00090813          	mv	a6,s2
   13f50:	01412903          	lw	s2,20(sp)
   13f54:	01460633          	add	a2,a2,s4
   13f58:	00170713          	addi	a4,a4,1
   13f5c:	01042023          	sw	a6,0(s0)
   13f60:	01442223          	sw	s4,4(s0)
   13f64:	0cc12623          	sw	a2,204(sp)
   13f68:	0ce12423          	sw	a4,200(sp)
   13f6c:	00700593          	li	a1,7
   13f70:	aee5d463          	bge	a1,a4,13258 <_vfprintf_r+0x1968>
   13f74:	0c410613          	addi	a2,sp,196
   13f78:	00048593          	mv	a1,s1
   13f7c:	000b8513          	mv	a0,s7
   13f80:	400000ef          	jal	ra,14380 <__sprint_r>
   13f84:	00050463          	beqz	a0,13f8c <_vfprintf_r+0x269c>
   13f88:	805fe06f          	j	1278c <_vfprintf_r+0xe9c>
   13f8c:	0cc12603          	lw	a2,204(sp)
   13f90:	0c812703          	lw	a4,200(sp)
   13f94:	00098413          	mv	s0,s3
   13f98:	bf0ff06f          	j	13388 <_vfprintf_r+0x1a98>
   13f9c:	0b610693          	addi	a3,sp,182
   13fa0:	00061863          	bnez	a2,13fb0 <_vfprintf_r+0x26c0>
   13fa4:	03000693          	li	a3,48
   13fa8:	0ad10b23          	sb	a3,182(sp)
   13fac:	0b710693          	addi	a3,sp,183
   13fb0:	19010793          	addi	a5,sp,400
   13fb4:	40f68633          	sub	a2,a3,a5
   13fb8:	030a0713          	addi	a4,s4,48
   13fbc:	0dd60793          	addi	a5,a2,221
   13fc0:	00e68023          	sb	a4,0(a3)
   13fc4:	02f12e23          	sw	a5,60(sp)
   13fc8:	860ff06f          	j	13028 <_vfprintf_r+0x1738>
   13fcc:	00012423          	sw	zero,8(sp)
   13fd0:	00600a13          	li	s4,6
   13fd4:	f29fd06f          	j	11efc <_vfprintf_r+0x60c>
   13fd8:	001df713          	andi	a4,s11,1
   13fdc:	00071463          	bnez	a4,13fe4 <_vfprintf_r+0x26f4>
   13fe0:	868ff06f          	j	13048 <_vfprintf_r+0x1758>
   13fe4:	85cff06f          	j	13040 <_vfprintf_r+0x1750>
   13fe8:	06700893          	li	a7,103
   13fec:	03812603          	lw	a2,56(sp)
   13ff0:	0ff00693          	li	a3,255
   13ff4:	00064703          	lbu	a4,0(a2)
   13ff8:	14d70c63          	beq	a4,a3,14150 <_vfprintf_r+0x2860>
   13ffc:	01412783          	lw	a5,20(sp)
   14000:	00000513          	li	a0,0
   14004:	00000593          	li	a1,0
   14008:	00f75e63          	bge	a4,a5,14024 <_vfprintf_r+0x2734>
   1400c:	40e787b3          	sub	a5,a5,a4
   14010:	00164703          	lbu	a4,1(a2)
   14014:	04070863          	beqz	a4,14064 <_vfprintf_r+0x2774>
   14018:	00158593          	addi	a1,a1,1
   1401c:	00160613          	addi	a2,a2,1
   14020:	fed714e3          	bne	a4,a3,14008 <_vfprintf_r+0x2718>
   14024:	02c12c23          	sw	a2,56(sp)
   14028:	00b12e23          	sw	a1,28(sp)
   1402c:	02a12023          	sw	a0,32(sp)
   14030:	00f12a23          	sw	a5,20(sp)
   14034:	02012783          	lw	a5,32(sp)
   14038:	01c12703          	lw	a4,28(sp)
   1403c:	04012583          	lw	a1,64(sp)
   14040:	05112623          	sw	a7,76(sp)
   14044:	00e78533          	add	a0,a5,a4
   14048:	0550d0ef          	jal	ra,2189c <__mulsi3>
   1404c:	01650b33          	add	s6,a0,s6
   14050:	fffb4693          	not	a3,s6
   14054:	41f6d693          	srai	a3,a3,0x1f
   14058:	04c12883          	lw	a7,76(sp)
   1405c:	00db7c33          	and	s8,s6,a3
   14060:	80cff06f          	j	1306c <_vfprintf_r+0x177c>
   14064:	00064703          	lbu	a4,0(a2)
   14068:	00150513          	addi	a0,a0,1
   1406c:	fb5ff06f          	j	14020 <_vfprintf_r+0x2730>
   14070:	00090c13          	mv	s8,s2
   14074:	001a0693          	addi	a3,s4,1
   14078:	01c12883          	lw	a7,28(sp)
   1407c:	02012d83          	lw	s11,32(sp)
   14080:	03c12c83          	lw	s9,60(sp)
   14084:	04812403          	lw	s0,72(sp)
   14088:	01812903          	lw	s2,24(sp)
   1408c:	04c12b83          	lw	s7,76(sp)
   14090:	05012483          	lw	s1,80(sp)
   14094:	05412d03          	lw	s10,84(sp)
   14098:	00dc06b3          	add	a3,s8,a3
   1409c:	03000613          	li	a2,48
   140a0:	ba0a48e3          	bltz	s4,13c50 <_vfprintf_r+0x2360>
   140a4:	001c0c13          	addi	s8,s8,1
   140a8:	fecc0fa3          	sb	a2,-1(s8)
   140ac:	ff869ce3          	bne	a3,s8,140a4 <_vfprintf_r+0x27b4>
   140b0:	ba1ff06f          	j	13c50 <_vfprintf_r+0x2360>
   140b4:	02812703          	lw	a4,40(sp)
   140b8:	06600893          	li	a7,102
   140bc:	00ea0f33          	add	t5,s4,a4
   140c0:	00ff0b33          	add	s6,t5,a5
   140c4:	dbdff06f          	j	13e80 <_vfprintf_r+0x2590>
   140c8:	00022737          	lui	a4,0x22
   140cc:	9d470793          	addi	a5,a4,-1580 # 219d4 <__clzsi2+0x60>
   140d0:	00f12a23          	sw	a5,20(sp)
   140d4:	941ff06f          	j	13a14 <_vfprintf_r+0x2124>
   140d8:	00100513          	li	a0,1
   140dc:	40d506b3          	sub	a3,a0,a3
   140e0:	0ad12623          	sw	a3,172(sp)
   140e4:	00d70733          	add	a4,a4,a3
   140e8:	f28ff06f          	j	13810 <_vfprintf_r+0x1f20>
   140ec:	00071a63          	bnez	a4,14100 <_vfprintf_r+0x2810>
   140f0:	00100c13          	li	s8,1
   140f4:	06600893          	li	a7,102
   140f8:	00100b13          	li	s6,1
   140fc:	bfdff06f          	j	13cf8 <_vfprintf_r+0x2408>
   14100:	02812783          	lw	a5,40(sp)
   14104:	06600893          	li	a7,102
   14108:	00178f13          	addi	t5,a5,1
   1410c:	014f0b33          	add	s6,t5,s4
   14110:	fffb4693          	not	a3,s6
   14114:	41f6d693          	srai	a3,a3,0x1f
   14118:	00db7c33          	and	s8,s6,a3
   1411c:	bddff06f          	j	13cf8 <_vfprintf_r+0x2408>
   14120:	00200793          	li	a5,2
   14124:	02f12e23          	sw	a5,60(sp)
   14128:	f01fe06f          	j	13028 <_vfprintf_r+0x1738>
   1412c:	00c12783          	lw	a5,12(sp)
   14130:	0007aa03          	lw	s4,0(a5)
   14134:	00478793          	addi	a5,a5,4
   14138:	000a5463          	bgez	s4,14140 <_vfprintf_r+0x2850>
   1413c:	fff00a13          	li	s4,-1
   14140:	00194883          	lbu	a7,1(s2)
   14144:	00f12623          	sw	a5,12(sp)
   14148:	00068913          	mv	s2,a3
   1414c:	949fd06f          	j	11a94 <_vfprintf_r+0x1a4>
   14150:	02012023          	sw	zero,32(sp)
   14154:	00012e23          	sw	zero,28(sp)
   14158:	eddff06f          	j	14034 <_vfprintf_r+0x2744>
   1415c:	04500613          	li	a2,69
   14160:	08010593          	addi	a1,sp,128
   14164:	eacff06f          	j	13810 <_vfprintf_r+0x1f20>
   14168:	00c4d783          	lhu	a5,12(s1)
   1416c:	0407e793          	ori	a5,a5,64
   14170:	00f49623          	sh	a5,12(s1)
   14174:	acdfd06f          	j	11c40 <_vfprintf_r+0x350>

00014178 <vfprintf>:
   14178:	00050793          	mv	a5,a0
   1417c:	f0c1a503          	lw	a0,-244(gp) # 239d4 <_impure_ptr>
   14180:	00060693          	mv	a3,a2
   14184:	00058613          	mv	a2,a1
   14188:	00078593          	mv	a1,a5
   1418c:	f64fd06f          	j	118f0 <_vfprintf_r>

00014190 <__sbprintf>:
   14190:	b8010113          	addi	sp,sp,-1152
   14194:	00c59783          	lh	a5,12(a1)
   14198:	00e5d703          	lhu	a4,14(a1)
   1419c:	46812c23          	sw	s0,1144(sp)
   141a0:	00058413          	mv	s0,a1
   141a4:	000105b7          	lui	a1,0x10
   141a8:	ffd58593          	addi	a1,a1,-3 # fffd <exit-0x97>
   141ac:	06442e03          	lw	t3,100(s0)
   141b0:	01c42303          	lw	t1,28(s0)
   141b4:	02442883          	lw	a7,36(s0)
   141b8:	01071713          	slli	a4,a4,0x10
   141bc:	00b7f7b3          	and	a5,a5,a1
   141c0:	00e7e7b3          	or	a5,a5,a4
   141c4:	40000813          	li	a6,1024
   141c8:	00f12a23          	sw	a5,20(sp)
   141cc:	00810593          	addi	a1,sp,8
   141d0:	07010793          	addi	a5,sp,112
   141d4:	46912a23          	sw	s1,1140(sp)
   141d8:	47212823          	sw	s2,1136(sp)
   141dc:	46112e23          	sw	ra,1148(sp)
   141e0:	00050913          	mv	s2,a0
   141e4:	07c12623          	sw	t3,108(sp)
   141e8:	02612223          	sw	t1,36(sp)
   141ec:	03112623          	sw	a7,44(sp)
   141f0:	00f12423          	sw	a5,8(sp)
   141f4:	00f12c23          	sw	a5,24(sp)
   141f8:	01012823          	sw	a6,16(sp)
   141fc:	01012e23          	sw	a6,28(sp)
   14200:	02012023          	sw	zero,32(sp)
   14204:	eecfd0ef          	jal	ra,118f0 <_vfprintf_r>
   14208:	00050493          	mv	s1,a0
   1420c:	02055c63          	bgez	a0,14244 <__sbprintf+0xb4>
   14210:	01415783          	lhu	a5,20(sp)
   14214:	0407f793          	andi	a5,a5,64
   14218:	00078863          	beqz	a5,14228 <__sbprintf+0x98>
   1421c:	00c45783          	lhu	a5,12(s0)
   14220:	0407e793          	ori	a5,a5,64
   14224:	00f41623          	sh	a5,12(s0)
   14228:	47c12083          	lw	ra,1148(sp)
   1422c:	47812403          	lw	s0,1144(sp)
   14230:	47012903          	lw	s2,1136(sp)
   14234:	00048513          	mv	a0,s1
   14238:	47412483          	lw	s1,1140(sp)
   1423c:	48010113          	addi	sp,sp,1152
   14240:	00008067          	ret
   14244:	00810593          	addi	a1,sp,8
   14248:	00090513          	mv	a0,s2
   1424c:	071010ef          	jal	ra,15abc <_fflush_r>
   14250:	fc0500e3          	beqz	a0,14210 <__sbprintf+0x80>
   14254:	fff00493          	li	s1,-1
   14258:	fb9ff06f          	j	14210 <__sbprintf+0x80>

0001425c <__sprint_r.part.0>:
   1425c:	0645a783          	lw	a5,100(a1)
   14260:	fd010113          	addi	sp,sp,-48
   14264:	01612823          	sw	s6,16(sp)
   14268:	02112623          	sw	ra,44(sp)
   1426c:	01279713          	slli	a4,a5,0x12
   14270:	00060b13          	mv	s6,a2
   14274:	0e075863          	bgez	a4,14364 <__sprint_r.part.0+0x108>
   14278:	00862783          	lw	a5,8(a2)
   1427c:	03212023          	sw	s2,32(sp)
   14280:	01312e23          	sw	s3,28(sp)
   14284:	01512a23          	sw	s5,20(sp)
   14288:	01712623          	sw	s7,12(sp)
   1428c:	00058913          	mv	s2,a1
   14290:	00062b83          	lw	s7,0(a2)
   14294:	00050993          	mv	s3,a0
   14298:	fff00a93          	li	s5,-1
   1429c:	0a078863          	beqz	a5,1434c <__sprint_r.part.0+0xf0>
   142a0:	02812423          	sw	s0,40(sp)
   142a4:	02912223          	sw	s1,36(sp)
   142a8:	01412c23          	sw	s4,24(sp)
   142ac:	01812423          	sw	s8,8(sp)
   142b0:	004bac03          	lw	s8,4(s7)
   142b4:	000ba403          	lw	s0,0(s7)
   142b8:	002c5a13          	srli	s4,s8,0x2
   142bc:	060a0663          	beqz	s4,14328 <__sprint_r.part.0+0xcc>
   142c0:	00000493          	li	s1,0
   142c4:	00c0006f          	j	142d0 <__sprint_r.part.0+0x74>
   142c8:	00440413          	addi	s0,s0,4
   142cc:	049a0c63          	beq	s4,s1,14324 <__sprint_r.part.0+0xc8>
   142d0:	00042583          	lw	a1,0(s0)
   142d4:	00090613          	mv	a2,s2
   142d8:	00098513          	mv	a0,s3
   142dc:	00c020ef          	jal	ra,162e8 <_fputwc_r>
   142e0:	00148493          	addi	s1,s1,1
   142e4:	ff5512e3          	bne	a0,s5,142c8 <__sprint_r.part.0+0x6c>
   142e8:	02812403          	lw	s0,40(sp)
   142ec:	02412483          	lw	s1,36(sp)
   142f0:	02012903          	lw	s2,32(sp)
   142f4:	01c12983          	lw	s3,28(sp)
   142f8:	01812a03          	lw	s4,24(sp)
   142fc:	01412a83          	lw	s5,20(sp)
   14300:	00c12b83          	lw	s7,12(sp)
   14304:	00812c03          	lw	s8,8(sp)
   14308:	fff00513          	li	a0,-1
   1430c:	02c12083          	lw	ra,44(sp)
   14310:	000b2423          	sw	zero,8(s6)
   14314:	000b2223          	sw	zero,4(s6)
   14318:	01012b03          	lw	s6,16(sp)
   1431c:	03010113          	addi	sp,sp,48
   14320:	00008067          	ret
   14324:	008b2783          	lw	a5,8(s6)
   14328:	ffcc7c13          	andi	s8,s8,-4
   1432c:	418787b3          	sub	a5,a5,s8
   14330:	00fb2423          	sw	a5,8(s6)
   14334:	008b8b93          	addi	s7,s7,8
   14338:	f6079ce3          	bnez	a5,142b0 <__sprint_r.part.0+0x54>
   1433c:	02812403          	lw	s0,40(sp)
   14340:	02412483          	lw	s1,36(sp)
   14344:	01812a03          	lw	s4,24(sp)
   14348:	00812c03          	lw	s8,8(sp)
   1434c:	02012903          	lw	s2,32(sp)
   14350:	01c12983          	lw	s3,28(sp)
   14354:	01412a83          	lw	s5,20(sp)
   14358:	00c12b83          	lw	s7,12(sp)
   1435c:	00000513          	li	a0,0
   14360:	fadff06f          	j	1430c <__sprint_r.part.0+0xb0>
   14364:	03d010ef          	jal	ra,15ba0 <__sfvwrite_r>
   14368:	02c12083          	lw	ra,44(sp)
   1436c:	000b2423          	sw	zero,8(s6)
   14370:	000b2223          	sw	zero,4(s6)
   14374:	01012b03          	lw	s6,16(sp)
   14378:	03010113          	addi	sp,sp,48
   1437c:	00008067          	ret

00014380 <__sprint_r>:
   14380:	00862703          	lw	a4,8(a2)
   14384:	00070463          	beqz	a4,1438c <__sprint_r+0xc>
   14388:	ed5ff06f          	j	1425c <__sprint_r.part.0>
   1438c:	00062223          	sw	zero,4(a2)
   14390:	00000513          	li	a0,0
   14394:	00008067          	ret

00014398 <_vfiprintf_r>:
   14398:	ed010113          	addi	sp,sp,-304
   1439c:	13212023          	sw	s2,288(sp)
   143a0:	11312e23          	sw	s3,284(sp)
   143a4:	11412c23          	sw	s4,280(sp)
   143a8:	11812423          	sw	s8,264(sp)
   143ac:	12112623          	sw	ra,300(sp)
   143b0:	11612823          	sw	s6,272(sp)
   143b4:	00050a13          	mv	s4,a0
   143b8:	00058913          	mv	s2,a1
   143bc:	00060c13          	mv	s8,a2
   143c0:	00068993          	mv	s3,a3
   143c4:	00050863          	beqz	a0,143d4 <_vfiprintf_r+0x3c>
   143c8:	03452783          	lw	a5,52(a0)
   143cc:	00079463          	bnez	a5,143d4 <_vfiprintf_r+0x3c>
   143d0:	16c0106f          	j	1553c <_vfiprintf_r+0x11a4>
   143d4:	00c91783          	lh	a5,12(s2)
   143d8:	01279713          	slli	a4,a5,0x12
   143dc:	02074663          	bltz	a4,14408 <_vfiprintf_r+0x70>
   143e0:	06492703          	lw	a4,100(s2)
   143e4:	00002637          	lui	a2,0x2
   143e8:	ffffe6b7          	lui	a3,0xffffe
   143ec:	00c7e7b3          	or	a5,a5,a2
   143f0:	fff68693          	addi	a3,a3,-1 # ffffdfff <__BSS_END__+0xfffda2f3>
   143f4:	01079793          	slli	a5,a5,0x10
   143f8:	4107d793          	srai	a5,a5,0x10
   143fc:	00d77733          	and	a4,a4,a3
   14400:	00f91623          	sh	a5,12(s2)
   14404:	06e92223          	sw	a4,100(s2)
   14408:	0087f713          	andi	a4,a5,8
   1440c:	14070463          	beqz	a4,14554 <_vfiprintf_r+0x1bc>
   14410:	01092703          	lw	a4,16(s2)
   14414:	14070063          	beqz	a4,14554 <_vfiprintf_r+0x1bc>
   14418:	01a7f793          	andi	a5,a5,26
   1441c:	00a00713          	li	a4,10
   14420:	14e78c63          	beq	a5,a4,14578 <_vfiprintf_r+0x1e0>
   14424:	000227b7          	lui	a5,0x22
   14428:	12912223          	sw	s1,292(sp)
   1442c:	11512a23          	sw	s5,276(sp)
   14430:	04c10493          	addi	s1,sp,76
   14434:	00000b13          	li	s6,0
   14438:	d0078793          	addi	a5,a5,-768 # 21d00 <blanks.1+0x10>
   1443c:	00022ab7          	lui	s5,0x22
   14440:	12812423          	sw	s0,296(sp)
   14444:	11912223          	sw	s9,260(sp)
   14448:	11712623          	sw	s7,268(sp)
   1444c:	11a12023          	sw	s10,256(sp)
   14450:	0fb12e23          	sw	s11,252(sp)
   14454:	04912023          	sw	s1,64(sp)
   14458:	04012423          	sw	zero,72(sp)
   1445c:	04012223          	sw	zero,68(sp)
   14460:	00048713          	mv	a4,s1
   14464:	00012223          	sw	zero,4(sp)
   14468:	00012c23          	sw	zero,24(sp)
   1446c:	00012e23          	sw	zero,28(sp)
   14470:	02012023          	sw	zero,32(sp)
   14474:	00f12023          	sw	a5,0(sp)
   14478:	01000413          	li	s0,16
   1447c:	e6ca8a93          	addi	s5,s5,-404 # 21e6c <zeroes.0>
   14480:	000b0c93          	mv	s9,s6
   14484:	00098813          	mv	a6,s3
   14488:	000c4783          	lbu	a5,0(s8)
   1448c:	34078263          	beqz	a5,147d0 <_vfiprintf_r+0x438>
   14490:	000c0b93          	mv	s7,s8
   14494:	02500693          	li	a3,37
   14498:	36d78c63          	beq	a5,a3,14810 <_vfiprintf_r+0x478>
   1449c:	001bc783          	lbu	a5,1(s7)
   144a0:	001b8b93          	addi	s7,s7,1
   144a4:	fe079ae3          	bnez	a5,14498 <_vfiprintf_r+0x100>
   144a8:	418b89b3          	sub	s3,s7,s8
   144ac:	338b8263          	beq	s7,s8,147d0 <_vfiprintf_r+0x438>
   144b0:	04812683          	lw	a3,72(sp)
   144b4:	04412783          	lw	a5,68(sp)
   144b8:	01872023          	sw	s8,0(a4)
   144bc:	00d986b3          	add	a3,s3,a3
   144c0:	00178793          	addi	a5,a5,1
   144c4:	01372223          	sw	s3,4(a4)
   144c8:	04d12423          	sw	a3,72(sp)
   144cc:	04f12223          	sw	a5,68(sp)
   144d0:	00700613          	li	a2,7
   144d4:	00870713          	addi	a4,a4,8
   144d8:	02f65463          	bge	a2,a5,14500 <_vfiprintf_r+0x168>
   144dc:	4e0688e3          	beqz	a3,151cc <_vfiprintf_r+0xe34>
   144e0:	04010613          	addi	a2,sp,64
   144e4:	00090593          	mv	a1,s2
   144e8:	000a0513          	mv	a0,s4
   144ec:	01012423          	sw	a6,8(sp)
   144f0:	d6dff0ef          	jal	ra,1425c <__sprint_r.part.0>
   144f4:	00812803          	lw	a6,8(sp)
   144f8:	0c051a63          	bnez	a0,145cc <_vfiprintf_r+0x234>
   144fc:	00048713          	mv	a4,s1
   14500:	000bc783          	lbu	a5,0(s7)
   14504:	013c8cb3          	add	s9,s9,s3
   14508:	2c078463          	beqz	a5,147d0 <_vfiprintf_r+0x438>
   1450c:	00000313          	li	t1,0
   14510:	001bc783          	lbu	a5,1(s7)
   14514:	001b8c13          	addi	s8,s7,1
   14518:	02010da3          	sb	zero,59(sp)
   1451c:	fff00d13          	li	s10,-1
   14520:	00000b13          	li	s6,0
   14524:	05a00993          	li	s3,90
   14528:	00030b93          	mv	s7,t1
   1452c:	00070d93          	mv	s11,a4
   14530:	001c0c13          	addi	s8,s8,1
   14534:	00078613          	mv	a2,a5
   14538:	fe060693          	addi	a3,a2,-32 # 1fe0 <exit-0xe0b4>
   1453c:	10d9ec63          	bltu	s3,a3,14654 <_vfiprintf_r+0x2bc>
   14540:	00012783          	lw	a5,0(sp)
   14544:	00269693          	slli	a3,a3,0x2
   14548:	00f686b3          	add	a3,a3,a5
   1454c:	0006a783          	lw	a5,0(a3)
   14550:	00078067          	jr	a5
   14554:	00090593          	mv	a1,s2
   14558:	000a0513          	mv	a0,s4
   1455c:	359010ef          	jal	ra,160b4 <__swsetup_r>
   14560:	00050463          	beqz	a0,14568 <_vfiprintf_r+0x1d0>
   14564:	0f00106f          	j	15654 <_vfiprintf_r+0x12bc>
   14568:	00c91783          	lh	a5,12(s2)
   1456c:	00a00713          	li	a4,10
   14570:	01a7f793          	andi	a5,a5,26
   14574:	eae798e3          	bne	a5,a4,14424 <_vfiprintf_r+0x8c>
   14578:	00e91783          	lh	a5,14(s2)
   1457c:	ea07c4e3          	bltz	a5,14424 <_vfiprintf_r+0x8c>
   14580:	12c12083          	lw	ra,300(sp)
   14584:	11012b03          	lw	s6,272(sp)
   14588:	00098693          	mv	a3,s3
   1458c:	000c0613          	mv	a2,s8
   14590:	11c12983          	lw	s3,284(sp)
   14594:	10812c03          	lw	s8,264(sp)
   14598:	00090593          	mv	a1,s2
   1459c:	000a0513          	mv	a0,s4
   145a0:	12012903          	lw	s2,288(sp)
   145a4:	11812a03          	lw	s4,280(sp)
   145a8:	13010113          	addi	sp,sp,304
   145ac:	0e40106f          	j	15690 <__sbprintf>
   145b0:	04010613          	addi	a2,sp,64
   145b4:	00090593          	mv	a1,s2
   145b8:	000a0513          	mv	a0,s4
   145bc:	01012423          	sw	a6,8(sp)
   145c0:	c9dff0ef          	jal	ra,1425c <__sprint_r.part.0>
   145c4:	00812803          	lw	a6,8(sp)
   145c8:	1e050c63          	beqz	a0,147c0 <_vfiprintf_r+0x428>
   145cc:	000c8b13          	mv	s6,s9
   145d0:	00c95783          	lhu	a5,12(s2)
   145d4:	12812403          	lw	s0,296(sp)
   145d8:	12412483          	lw	s1,292(sp)
   145dc:	0407f793          	andi	a5,a5,64
   145e0:	11412a83          	lw	s5,276(sp)
   145e4:	10c12b83          	lw	s7,268(sp)
   145e8:	10412c83          	lw	s9,260(sp)
   145ec:	10012d03          	lw	s10,256(sp)
   145f0:	0fc12d83          	lw	s11,252(sp)
   145f4:	00078463          	beqz	a5,145fc <_vfiprintf_r+0x264>
   145f8:	05c0106f          	j	15654 <_vfiprintf_r+0x12bc>
   145fc:	12c12083          	lw	ra,300(sp)
   14600:	12012903          	lw	s2,288(sp)
   14604:	11c12983          	lw	s3,284(sp)
   14608:	11812a03          	lw	s4,280(sp)
   1460c:	10812c03          	lw	s8,264(sp)
   14610:	000b0513          	mv	a0,s6
   14614:	11012b03          	lw	s6,272(sp)
   14618:	13010113          	addi	sp,sp,304
   1461c:	00008067          	ret
   14620:	00000b13          	li	s6,0
   14624:	fd060793          	addi	a5,a2,-48
   14628:	00900593          	li	a1,9
   1462c:	000c4603          	lbu	a2,0(s8)
   14630:	002b1693          	slli	a3,s6,0x2
   14634:	01668b33          	add	s6,a3,s6
   14638:	001b1b13          	slli	s6,s6,0x1
   1463c:	01678b33          	add	s6,a5,s6
   14640:	fd060793          	addi	a5,a2,-48
   14644:	001c0c13          	addi	s8,s8,1
   14648:	fef5f2e3          	bgeu	a1,a5,1462c <_vfiprintf_r+0x294>
   1464c:	fe060693          	addi	a3,a2,-32
   14650:	eed9f8e3          	bgeu	s3,a3,14540 <_vfiprintf_r+0x1a8>
   14654:	000b8313          	mv	t1,s7
   14658:	000d8713          	mv	a4,s11
   1465c:	16060a63          	beqz	a2,147d0 <_vfiprintf_r+0x438>
   14660:	08c10623          	sb	a2,140(sp)
   14664:	02010da3          	sb	zero,59(sp)
   14668:	00100d93          	li	s11,1
   1466c:	00100e93          	li	t4,1
   14670:	08c10b93          	addi	s7,sp,140
   14674:	00000d13          	li	s10,0
   14678:	00000f93          	li	t6,0
   1467c:	04412683          	lw	a3,68(sp)
   14680:	08437293          	andi	t0,t1,132
   14684:	04812783          	lw	a5,72(sp)
   14688:	00168613          	addi	a2,a3,1
   1468c:	00060593          	mv	a1,a2
   14690:	00029663          	bnez	t0,1469c <_vfiprintf_r+0x304>
   14694:	41bb09b3          	sub	s3,s6,s11
   14698:	1f3044e3          	bgtz	s3,15080 <_vfiprintf_r+0xce8>
   1469c:	03b14603          	lbu	a2,59(sp)
   146a0:	02060a63          	beqz	a2,146d4 <_vfiprintf_r+0x33c>
   146a4:	03b10693          	addi	a3,sp,59
   146a8:	00178793          	addi	a5,a5,1
   146ac:	00d72023          	sw	a3,0(a4)
   146b0:	00100693          	li	a3,1
   146b4:	00d72223          	sw	a3,4(a4)
   146b8:	04f12423          	sw	a5,72(sp)
   146bc:	04b12223          	sw	a1,68(sp)
   146c0:	00700693          	li	a3,7
   146c4:	0eb6c2e3          	blt	a3,a1,14fa8 <_vfiprintf_r+0xc10>
   146c8:	00058693          	mv	a3,a1
   146cc:	00870713          	addi	a4,a4,8
   146d0:	00158593          	addi	a1,a1,1
   146d4:	060f8863          	beqz	t6,14744 <_vfiprintf_r+0x3ac>
   146d8:	03c10693          	addi	a3,sp,60
   146dc:	00278793          	addi	a5,a5,2
   146e0:	00d72023          	sw	a3,0(a4)
   146e4:	00200693          	li	a3,2
   146e8:	00d72223          	sw	a3,4(a4)
   146ec:	04f12423          	sw	a5,72(sp)
   146f0:	04b12223          	sw	a1,68(sp)
   146f4:	00700693          	li	a3,7
   146f8:	12b6d0e3          	bge	a3,a1,15018 <_vfiprintf_r+0xc80>
   146fc:	360784e3          	beqz	a5,15264 <_vfiprintf_r+0xecc>
   14700:	04010613          	addi	a2,sp,64
   14704:	00090593          	mv	a1,s2
   14708:	000a0513          	mv	a0,s4
   1470c:	01012a23          	sw	a6,20(sp)
   14710:	01d12823          	sw	t4,16(sp)
   14714:	00512623          	sw	t0,12(sp)
   14718:	00612423          	sw	t1,8(sp)
   1471c:	b41ff0ef          	jal	ra,1425c <__sprint_r.part.0>
   14720:	ea0516e3          	bnez	a0,145cc <_vfiprintf_r+0x234>
   14724:	04412683          	lw	a3,68(sp)
   14728:	04812783          	lw	a5,72(sp)
   1472c:	01412803          	lw	a6,20(sp)
   14730:	01012e83          	lw	t4,16(sp)
   14734:	00c12283          	lw	t0,12(sp)
   14738:	00812303          	lw	t1,8(sp)
   1473c:	00048713          	mv	a4,s1
   14740:	00168593          	addi	a1,a3,1
   14744:	08000613          	li	a2,128
   14748:	64c28e63          	beq	t0,a2,14da4 <_vfiprintf_r+0xa0c>
   1474c:	41dd0d33          	sub	s10,s10,t4
   14750:	77a04663          	bgtz	s10,14ebc <_vfiprintf_r+0xb24>
   14754:	00fe87b3          	add	a5,t4,a5
   14758:	01772023          	sw	s7,0(a4)
   1475c:	01d72223          	sw	t4,4(a4)
   14760:	04f12423          	sw	a5,72(sp)
   14764:	04b12223          	sw	a1,68(sp)
   14768:	00700693          	li	a3,7
   1476c:	62b6d063          	bge	a3,a1,14d8c <_vfiprintf_r+0x9f4>
   14770:	0a078863          	beqz	a5,14820 <_vfiprintf_r+0x488>
   14774:	04010613          	addi	a2,sp,64
   14778:	00090593          	mv	a1,s2
   1477c:	000a0513          	mv	a0,s4
   14780:	01012623          	sw	a6,12(sp)
   14784:	00612423          	sw	t1,8(sp)
   14788:	ad5ff0ef          	jal	ra,1425c <__sprint_r.part.0>
   1478c:	e40510e3          	bnez	a0,145cc <_vfiprintf_r+0x234>
   14790:	04812783          	lw	a5,72(sp)
   14794:	00c12803          	lw	a6,12(sp)
   14798:	00812303          	lw	t1,8(sp)
   1479c:	00048713          	mv	a4,s1
   147a0:	00437313          	andi	t1,t1,4
   147a4:	00030663          	beqz	t1,147b0 <_vfiprintf_r+0x418>
   147a8:	41bb09b3          	sub	s3,s6,s11
   147ac:	09304663          	bgtz	s3,14838 <_vfiprintf_r+0x4a0>
   147b0:	01bb5463          	bge	s6,s11,147b8 <_vfiprintf_r+0x420>
   147b4:	000d8b13          	mv	s6,s11
   147b8:	016c8cb3          	add	s9,s9,s6
   147bc:	de079ae3          	bnez	a5,145b0 <_vfiprintf_r+0x218>
   147c0:	000c4783          	lbu	a5,0(s8)
   147c4:	04012223          	sw	zero,68(sp)
   147c8:	00048713          	mv	a4,s1
   147cc:	cc0792e3          	bnez	a5,14490 <_vfiprintf_r+0xf8>
   147d0:	04812783          	lw	a5,72(sp)
   147d4:	000c8b13          	mv	s6,s9
   147d8:	de078ce3          	beqz	a5,145d0 <_vfiprintf_r+0x238>
   147dc:	04010613          	addi	a2,sp,64
   147e0:	00090593          	mv	a1,s2
   147e4:	000a0513          	mv	a0,s4
   147e8:	a75ff0ef          	jal	ra,1425c <__sprint_r.part.0>
   147ec:	de5ff06f          	j	145d0 <_vfiprintf_r+0x238>
   147f0:	00082b03          	lw	s6,0(a6)
   147f4:	00480813          	addi	a6,a6,4
   147f8:	200b4a63          	bltz	s6,14a0c <_vfiprintf_r+0x674>
   147fc:	000c4783          	lbu	a5,0(s8)
   14800:	d31ff06f          	j	14530 <_vfiprintf_r+0x198>
   14804:	000c4783          	lbu	a5,0(s8)
   14808:	020beb93          	ori	s7,s7,32
   1480c:	d25ff06f          	j	14530 <_vfiprintf_r+0x198>
   14810:	418b89b3          	sub	s3,s7,s8
   14814:	c98b9ee3          	bne	s7,s8,144b0 <_vfiprintf_r+0x118>
   14818:	000bc783          	lbu	a5,0(s7)
   1481c:	cedff06f          	j	14508 <_vfiprintf_r+0x170>
   14820:	04012223          	sw	zero,68(sp)
   14824:	00437313          	andi	t1,t1,4
   14828:	140308e3          	beqz	t1,15178 <_vfiprintf_r+0xde0>
   1482c:	41bb09b3          	sub	s3,s6,s11
   14830:	153054e3          	blez	s3,15178 <_vfiprintf_r+0xde0>
   14834:	00048713          	mv	a4,s1
   14838:	01000693          	li	a3,16
   1483c:	04412603          	lw	a2,68(sp)
   14840:	5f36dae3          	bge	a3,s3,15634 <_vfiprintf_r+0x129c>
   14844:	00022e37          	lui	t3,0x22
   14848:	e7ce0e13          	addi	t3,t3,-388 # 21e7c <blanks.1>
   1484c:	01612423          	sw	s6,8(sp)
   14850:	01000b93          	li	s7,16
   14854:	00700d13          	li	s10,7
   14858:	01012623          	sw	a6,12(sp)
   1485c:	000e0b13          	mv	s6,t3
   14860:	0180006f          	j	14878 <_vfiprintf_r+0x4e0>
   14864:	00260593          	addi	a1,a2,2
   14868:	00870713          	addi	a4,a4,8
   1486c:	00068613          	mv	a2,a3
   14870:	ff098993          	addi	s3,s3,-16
   14874:	053bd863          	bge	s7,s3,148c4 <_vfiprintf_r+0x52c>
   14878:	01078793          	addi	a5,a5,16
   1487c:	00160693          	addi	a3,a2,1
   14880:	01672023          	sw	s6,0(a4)
   14884:	01772223          	sw	s7,4(a4)
   14888:	04f12423          	sw	a5,72(sp)
   1488c:	04d12223          	sw	a3,68(sp)
   14890:	fcdd5ae3          	bge	s10,a3,14864 <_vfiprintf_r+0x4cc>
   14894:	50078063          	beqz	a5,14d94 <_vfiprintf_r+0x9fc>
   14898:	04010613          	addi	a2,sp,64
   1489c:	00090593          	mv	a1,s2
   148a0:	000a0513          	mv	a0,s4
   148a4:	9b9ff0ef          	jal	ra,1425c <__sprint_r.part.0>
   148a8:	d20512e3          	bnez	a0,145cc <_vfiprintf_r+0x234>
   148ac:	04412603          	lw	a2,68(sp)
   148b0:	ff098993          	addi	s3,s3,-16
   148b4:	04812783          	lw	a5,72(sp)
   148b8:	00048713          	mv	a4,s1
   148bc:	00160593          	addi	a1,a2,1
   148c0:	fb3bcce3          	blt	s7,s3,14878 <_vfiprintf_r+0x4e0>
   148c4:	000b0e13          	mv	t3,s6
   148c8:	00c12803          	lw	a6,12(sp)
   148cc:	00812b03          	lw	s6,8(sp)
   148d0:	013787b3          	add	a5,a5,s3
   148d4:	01c72023          	sw	t3,0(a4)
   148d8:	01372223          	sw	s3,4(a4)
   148dc:	04f12423          	sw	a5,72(sp)
   148e0:	04b12223          	sw	a1,68(sp)
   148e4:	00700713          	li	a4,7
   148e8:	ecb754e3          	bge	a4,a1,147b0 <_vfiprintf_r+0x418>
   148ec:	080786e3          	beqz	a5,15178 <_vfiprintf_r+0xde0>
   148f0:	04010613          	addi	a2,sp,64
   148f4:	00090593          	mv	a1,s2
   148f8:	000a0513          	mv	a0,s4
   148fc:	01012423          	sw	a6,8(sp)
   14900:	95dff0ef          	jal	ra,1425c <__sprint_r.part.0>
   14904:	cc0514e3          	bnez	a0,145cc <_vfiprintf_r+0x234>
   14908:	04812783          	lw	a5,72(sp)
   1490c:	00812803          	lw	a6,8(sp)
   14910:	ea1ff06f          	j	147b0 <_vfiprintf_r+0x418>
   14914:	000b8313          	mv	t1,s7
   14918:	00082b83          	lw	s7,0(a6)
   1491c:	02010da3          	sb	zero,59(sp)
   14920:	000d8713          	mv	a4,s11
   14924:	00480993          	addi	s3,a6,4
   14928:	440b86e3          	beqz	s7,15574 <_vfiprintf_r+0x11dc>
   1492c:	01b12623          	sw	s11,12(sp)
   14930:	00612423          	sw	t1,8(sp)
   14934:	360d46e3          	bltz	s10,154a0 <_vfiprintf_r+0x1108>
   14938:	000d0613          	mv	a2,s10
   1493c:	00000593          	li	a1,0
   14940:	000b8513          	mv	a0,s7
   14944:	24d010ef          	jal	ra,16390 <memchr>
   14948:	00812303          	lw	t1,8(sp)
   1494c:	00c12703          	lw	a4,12(sp)
   14950:	000d0e93          	mv	t4,s10
   14954:	00050463          	beqz	a0,1495c <_vfiprintf_r+0x5c4>
   14958:	41750eb3          	sub	t4,a0,s7
   1495c:	03b14783          	lbu	a5,59(sp)
   14960:	fffecd93          	not	s11,t4
   14964:	41fddd93          	srai	s11,s11,0x1f
   14968:	01befdb3          	and	s11,t4,s11
   1496c:	00098813          	mv	a6,s3
   14970:	00000d13          	li	s10,0
   14974:	00000f93          	li	t6,0
   14978:	d00782e3          	beqz	a5,1467c <_vfiprintf_r+0x2e4>
   1497c:	001d8d93          	addi	s11,s11,1
   14980:	00237f93          	andi	t6,t1,2
   14984:	ce0f8ce3          	beqz	t6,1467c <_vfiprintf_r+0x2e4>
   14988:	002d8d93          	addi	s11,s11,2
   1498c:	00200f93          	li	t6,2
   14990:	cedff06f          	j	1467c <_vfiprintf_r+0x2e4>
   14994:	00082783          	lw	a5,0(a6)
   14998:	000b8313          	mv	t1,s7
   1499c:	000d8713          	mv	a4,s11
   149a0:	02010da3          	sb	zero,59(sp)
   149a4:	00480813          	addi	a6,a6,4
   149a8:	08f10623          	sb	a5,140(sp)
   149ac:	00100d93          	li	s11,1
   149b0:	00100e93          	li	t4,1
   149b4:	08c10b93          	addi	s7,sp,140
   149b8:	cbdff06f          	j	14674 <_vfiprintf_r+0x2dc>
   149bc:	000b8313          	mv	t1,s7
   149c0:	02037793          	andi	a5,t1,32
   149c4:	000d8713          	mv	a4,s11
   149c8:	24078a63          	beqz	a5,14c1c <_vfiprintf_r+0x884>
   149cc:	00780813          	addi	a6,a6,7
   149d0:	ff887813          	andi	a6,a6,-8
   149d4:	00482683          	lw	a3,4(a6)
   149d8:	00082983          	lw	s3,0(a6)
   149dc:	00880813          	addi	a6,a6,8
   149e0:	00068d93          	mv	s11,a3
   149e4:	0c06c063          	bltz	a3,14aa4 <_vfiprintf_r+0x70c>
   149e8:	0c0d4e63          	bltz	s10,14ac4 <_vfiprintf_r+0x72c>
   149ec:	01b9e6b3          	or	a3,s3,s11
   149f0:	f7f37313          	andi	t1,t1,-129
   149f4:	0c069863          	bnez	a3,14ac4 <_vfiprintf_r+0x72c>
   149f8:	420d12e3          	bnez	s10,1561c <_vfiprintf_r+0x1284>
   149fc:	00000d93          	li	s11,0
   14a00:	00000e93          	li	t4,0
   14a04:	0f010b93          	addi	s7,sp,240
   14a08:	0e80006f          	j	14af0 <_vfiprintf_r+0x758>
   14a0c:	41600b33          	neg	s6,s6
   14a10:	000c4783          	lbu	a5,0(s8)
   14a14:	004beb93          	ori	s7,s7,4
   14a18:	b19ff06f          	j	14530 <_vfiprintf_r+0x198>
   14a1c:	02b00693          	li	a3,43
   14a20:	000c4783          	lbu	a5,0(s8)
   14a24:	02d10da3          	sb	a3,59(sp)
   14a28:	b09ff06f          	j	14530 <_vfiprintf_r+0x198>
   14a2c:	000c4783          	lbu	a5,0(s8)
   14a30:	06800693          	li	a3,104
   14a34:	32d780e3          	beq	a5,a3,15554 <_vfiprintf_r+0x11bc>
   14a38:	040beb93          	ori	s7,s7,64
   14a3c:	af5ff06f          	j	14530 <_vfiprintf_r+0x198>
   14a40:	000d8713          	mv	a4,s11
   14a44:	010bee93          	ori	t4,s7,16
   14a48:	020ef793          	andi	a5,t4,32
   14a4c:	7a078263          	beqz	a5,151f0 <_vfiprintf_r+0xe58>
   14a50:	00780813          	addi	a6,a6,7
   14a54:	ff887813          	andi	a6,a6,-8
   14a58:	00082983          	lw	s3,0(a6)
   14a5c:	00482d83          	lw	s11,4(a6)
   14a60:	00880813          	addi	a6,a6,8
   14a64:	02010da3          	sb	zero,59(sp)
   14a68:	000e8313          	mv	t1,t4
   14a6c:	040d4c63          	bltz	s10,14ac4 <_vfiprintf_r+0x72c>
   14a70:	01b9e6b3          	or	a3,s3,s11
   14a74:	f7fef313          	andi	t1,t4,-129
   14a78:	00100793          	li	a5,1
   14a7c:	04069463          	bnez	a3,14ac4 <_vfiprintf_r+0x72c>
   14a80:	0c0d1663          	bnez	s10,14b4c <_vfiprintf_r+0x7b4>
   14a84:	f6079ce3          	bnez	a5,149fc <_vfiprintf_r+0x664>
   14a88:	001efe93          	andi	t4,t4,1
   14a8c:	100e82e3          	beqz	t4,15390 <_vfiprintf_r+0xff8>
   14a90:	03000793          	li	a5,48
   14a94:	0ef107a3          	sb	a5,239(sp)
   14a98:	000e8d93          	mv	s11,t4
   14a9c:	0ef10b93          	addi	s7,sp,239
   14aa0:	0500006f          	j	14af0 <_vfiprintf_r+0x758>
   14aa4:	02d00613          	li	a2,45
   14aa8:	013036b3          	snez	a3,s3
   14aac:	41b00e33          	neg	t3,s11
   14ab0:	02c10da3          	sb	a2,59(sp)
   14ab4:	40de0db3          	sub	s11,t3,a3
   14ab8:	413009b3          	neg	s3,s3
   14abc:	000d4463          	bltz	s10,14ac4 <_vfiprintf_r+0x72c>
   14ac0:	f7f37313          	andi	t1,t1,-129
   14ac4:	000d92e3          	bnez	s11,152c8 <_vfiprintf_r+0xf30>
   14ac8:	00900693          	li	a3,9
   14acc:	7f36ee63          	bltu	a3,s3,152c8 <_vfiprintf_r+0xf30>
   14ad0:	03098793          	addi	a5,s3,48
   14ad4:	0ff7f793          	andi	a5,a5,255
   14ad8:	0ef107a3          	sb	a5,239(sp)
   14adc:	000d0d93          	mv	s11,s10
   14ae0:	01a04463          	bgtz	s10,14ae8 <_vfiprintf_r+0x750>
   14ae4:	00100d93          	li	s11,1
   14ae8:	00100e93          	li	t4,1
   14aec:	0ef10b93          	addi	s7,sp,239
   14af0:	03b14783          	lbu	a5,59(sp)
   14af4:	e80794e3          	bnez	a5,1497c <_vfiprintf_r+0x5e4>
   14af8:	e89ff06f          	j	14980 <_vfiprintf_r+0x5e8>
   14afc:	000086b7          	lui	a3,0x8
   14b00:	83068693          	addi	a3,a3,-2000 # 7830 <exit-0x8864>
   14b04:	02d11e23          	sh	a3,60(sp)
   14b08:	000226b7          	lui	a3,0x22
   14b0c:	9d468693          	addi	a3,a3,-1580 # 219d4 <__clzsi2+0x60>
   14b10:	00082783          	lw	a5,0(a6)
   14b14:	000d8713          	mv	a4,s11
   14b18:	00000593          	li	a1,0
   14b1c:	002be313          	ori	t1,s7,2
   14b20:	00480813          	addi	a6,a6,4
   14b24:	00d12223          	sw	a3,4(sp)
   14b28:	02010da3          	sb	zero,59(sp)
   14b2c:	500d4463          	bltz	s10,15034 <_vfiprintf_r+0xc9c>
   14b30:	00b7e6b3          	or	a3,a5,a1
   14b34:	f7f37613          	andi	a2,t1,-129
   14b38:	4e069863          	bnez	a3,15028 <_vfiprintf_r+0xc90>
   14b3c:	00030e93          	mv	t4,t1
   14b40:	00200793          	li	a5,2
   14b44:	00060313          	mv	t1,a2
   14b48:	f20d0ee3          	beqz	s10,14a84 <_vfiprintf_r+0x6ec>
   14b4c:	00100693          	li	a3,1
   14b50:	2cd786e3          	beq	a5,a3,1561c <_vfiprintf_r+0x1284>
   14b54:	00200693          	li	a3,2
   14b58:	22d78ee3          	beq	a5,a3,15594 <_vfiprintf_r+0x11fc>
   14b5c:	00000793          	li	a5,0
   14b60:	00000593          	li	a1,0
   14b64:	0f010b93          	addi	s7,sp,240
   14b68:	01d59613          	slli	a2,a1,0x1d
   14b6c:	0077f693          	andi	a3,a5,7
   14b70:	0037d793          	srli	a5,a5,0x3
   14b74:	03068693          	addi	a3,a3,48
   14b78:	00f667b3          	or	a5,a2,a5
   14b7c:	0035d593          	srli	a1,a1,0x3
   14b80:	fedb8fa3          	sb	a3,-1(s7)
   14b84:	00b7e633          	or	a2,a5,a1
   14b88:	000b8513          	mv	a0,s7
   14b8c:	fffb8b93          	addi	s7,s7,-1
   14b90:	fc061ce3          	bnez	a2,14b68 <_vfiprintf_r+0x7d0>
   14b94:	00137793          	andi	a5,t1,1
   14b98:	4c078863          	beqz	a5,15068 <_vfiprintf_r+0xcd0>
   14b9c:	03000793          	li	a5,48
   14ba0:	4cf68463          	beq	a3,a5,15068 <_vfiprintf_r+0xcd0>
   14ba4:	ffe50513          	addi	a0,a0,-2
   14ba8:	fefb8fa3          	sb	a5,-1(s7)
   14bac:	0f010793          	addi	a5,sp,240
   14bb0:	40a78eb3          	sub	t4,a5,a0
   14bb4:	000d0d93          	mv	s11,s10
   14bb8:	01dd4ee3          	blt	s10,t4,153d4 <_vfiprintf_r+0x103c>
   14bbc:	00050b93          	mv	s7,a0
   14bc0:	f31ff06f          	j	14af0 <_vfiprintf_r+0x758>
   14bc4:	020bf793          	andi	a5,s7,32
   14bc8:	000d8713          	mv	a4,s11
   14bcc:	7e079063          	bnez	a5,153ac <_vfiprintf_r+0x1014>
   14bd0:	010bf793          	andi	a5,s7,16
   14bd4:	180798e3          	bnez	a5,15564 <_vfiprintf_r+0x11cc>
   14bd8:	040bf793          	andi	a5,s7,64
   14bdc:	1e079ce3          	bnez	a5,155d4 <_vfiprintf_r+0x123c>
   14be0:	200bf313          	andi	t1,s7,512
   14be4:	180300e3          	beqz	t1,15564 <_vfiprintf_r+0x11cc>
   14be8:	00082783          	lw	a5,0(a6)
   14bec:	00480813          	addi	a6,a6,4
   14bf0:	01978023          	sb	s9,0(a5)
   14bf4:	895ff06f          	j	14488 <_vfiprintf_r+0xf0>
   14bf8:	000c4783          	lbu	a5,0(s8)
   14bfc:	06c00693          	li	a3,108
   14c00:	14d782e3          	beq	a5,a3,15544 <_vfiprintf_r+0x11ac>
   14c04:	010beb93          	ori	s7,s7,16
   14c08:	929ff06f          	j	14530 <_vfiprintf_r+0x198>
   14c0c:	010be313          	ori	t1,s7,16
   14c10:	02037793          	andi	a5,t1,32
   14c14:	000d8713          	mv	a4,s11
   14c18:	da079ae3          	bnez	a5,149cc <_vfiprintf_r+0x634>
   14c1c:	01037693          	andi	a3,t1,16
   14c20:	00082783          	lw	a5,0(a6)
   14c24:	00480813          	addi	a6,a6,4
   14c28:	5a069c63          	bnez	a3,151e0 <_vfiprintf_r+0xe48>
   14c2c:	04037693          	andi	a3,t1,64
   14c30:	5a068463          	beqz	a3,151d8 <_vfiprintf_r+0xe40>
   14c34:	01079993          	slli	s3,a5,0x10
   14c38:	4109d993          	srai	s3,s3,0x10
   14c3c:	41f9dd93          	srai	s11,s3,0x1f
   14c40:	000d8693          	mv	a3,s11
   14c44:	da1ff06f          	j	149e4 <_vfiprintf_r+0x64c>
   14c48:	000d8713          	mv	a4,s11
   14c4c:	010be693          	ori	a3,s7,16
   14c50:	0206f793          	andi	a5,a3,32
   14c54:	5c078c63          	beqz	a5,1522c <_vfiprintf_r+0xe94>
   14c58:	00780813          	addi	a6,a6,7
   14c5c:	ff887813          	andi	a6,a6,-8
   14c60:	00082783          	lw	a5,0(a6)
   14c64:	00482583          	lw	a1,4(a6)
   14c68:	00880813          	addi	a6,a6,8
   14c6c:	02010da3          	sb	zero,59(sp)
   14c70:	bff6f313          	andi	t1,a3,-1025
   14c74:	ee0d48e3          	bltz	s10,14b64 <_vfiprintf_r+0x7cc>
   14c78:	00b7e633          	or	a2,a5,a1
   14c7c:	b7f6f693          	andi	a3,a3,-1153
   14c80:	0a0616e3          	bnez	a2,1552c <_vfiprintf_r+0x1194>
   14c84:	00030e93          	mv	t4,t1
   14c88:	00000793          	li	a5,0
   14c8c:	00068313          	mv	t1,a3
   14c90:	df1ff06f          	j	14a80 <_vfiprintf_r+0x6e8>
   14c94:	000a0513          	mv	a0,s4
   14c98:	01012423          	sw	a6,8(sp)
   14c9c:	175010ef          	jal	ra,16610 <_localeconv_r>
   14ca0:	00452783          	lw	a5,4(a0)
   14ca4:	00078513          	mv	a0,a5
   14ca8:	02f12023          	sw	a5,32(sp)
   14cac:	4dd010ef          	jal	ra,16988 <strlen>
   14cb0:	00050793          	mv	a5,a0
   14cb4:	000a0513          	mv	a0,s4
   14cb8:	00f12e23          	sw	a5,28(sp)
   14cbc:	155010ef          	jal	ra,16610 <_localeconv_r>
   14cc0:	00852703          	lw	a4,8(a0)
   14cc4:	01c12783          	lw	a5,28(sp)
   14cc8:	00812803          	lw	a6,8(sp)
   14ccc:	00e12c23          	sw	a4,24(sp)
   14cd0:	b20786e3          	beqz	a5,147fc <_vfiprintf_r+0x464>
   14cd4:	01812703          	lw	a4,24(sp)
   14cd8:	000c4783          	lbu	a5,0(s8)
   14cdc:	84070ae3          	beqz	a4,14530 <_vfiprintf_r+0x198>
   14ce0:	00074683          	lbu	a3,0(a4)
   14ce4:	840686e3          	beqz	a3,14530 <_vfiprintf_r+0x198>
   14ce8:	400beb93          	ori	s7,s7,1024
   14cec:	845ff06f          	j	14530 <_vfiprintf_r+0x198>
   14cf0:	000c4783          	lbu	a5,0(s8)
   14cf4:	080beb93          	ori	s7,s7,128
   14cf8:	839ff06f          	j	14530 <_vfiprintf_r+0x198>
   14cfc:	000c4603          	lbu	a2,0(s8)
   14d00:	02a00793          	li	a5,42
   14d04:	001c0593          	addi	a1,s8,1
   14d08:	14f60ae3          	beq	a2,a5,1565c <_vfiprintf_r+0x12c4>
   14d0c:	fd060793          	addi	a5,a2,-48
   14d10:	00900693          	li	a3,9
   14d14:	00000d13          	li	s10,0
   14d18:	00900513          	li	a0,9
   14d1c:	02f6e463          	bltu	a3,a5,14d44 <_vfiprintf_r+0x9ac>
   14d20:	0005c603          	lbu	a2,0(a1)
   14d24:	002d1693          	slli	a3,s10,0x2
   14d28:	01a68d33          	add	s10,a3,s10
   14d2c:	001d1d13          	slli	s10,s10,0x1
   14d30:	00fd0d33          	add	s10,s10,a5
   14d34:	fd060793          	addi	a5,a2,-48
   14d38:	00158593          	addi	a1,a1,1
   14d3c:	fef572e3          	bgeu	a0,a5,14d20 <_vfiprintf_r+0x988>
   14d40:	6a0d4063          	bltz	s10,153e0 <_vfiprintf_r+0x1048>
   14d44:	00058c13          	mv	s8,a1
   14d48:	ff0ff06f          	j	14538 <_vfiprintf_r+0x1a0>
   14d4c:	000c4783          	lbu	a5,0(s8)
   14d50:	001beb93          	ori	s7,s7,1
   14d54:	fdcff06f          	j	14530 <_vfiprintf_r+0x198>
   14d58:	03b14683          	lbu	a3,59(sp)
   14d5c:	000c4783          	lbu	a5,0(s8)
   14d60:	fc069863          	bnez	a3,14530 <_vfiprintf_r+0x198>
   14d64:	02000693          	li	a3,32
   14d68:	02d10da3          	sb	a3,59(sp)
   14d6c:	fc4ff06f          	j	14530 <_vfiprintf_r+0x198>
   14d70:	00100713          	li	a4,1
   14d74:	04e12223          	sw	a4,68(sp)
   14d78:	000e8793          	mv	a5,t4
   14d7c:	05712623          	sw	s7,76(sp)
   14d80:	05d12823          	sw	t4,80(sp)
   14d84:	05d12423          	sw	t4,72(sp)
   14d88:	00048713          	mv	a4,s1
   14d8c:	00870713          	addi	a4,a4,8
   14d90:	a11ff06f          	j	147a0 <_vfiprintf_r+0x408>
   14d94:	00100593          	li	a1,1
   14d98:	00000613          	li	a2,0
   14d9c:	00048713          	mv	a4,s1
   14da0:	ad1ff06f          	j	14870 <_vfiprintf_r+0x4d8>
   14da4:	41bb09b3          	sub	s3,s6,s11
   14da8:	9b3052e3          	blez	s3,1474c <_vfiprintf_r+0x3b4>
   14dac:	01000613          	li	a2,16
   14db0:	09365ae3          	bge	a2,s3,15644 <_vfiprintf_r+0x12ac>
   14db4:	00022e37          	lui	t3,0x22
   14db8:	e6ce0e13          	addi	t3,t3,-404 # 21e6c <zeroes.0>
   14dbc:	01612823          	sw	s6,16(sp)
   14dc0:	01000f13          	li	t5,16
   14dc4:	00700f93          	li	t6,7
   14dc8:	00612423          	sw	t1,8(sp)
   14dcc:	01d12623          	sw	t4,12(sp)
   14dd0:	01012a23          	sw	a6,20(sp)
   14dd4:	000e0b13          	mv	s6,t3
   14dd8:	0180006f          	j	14df0 <_vfiprintf_r+0xa58>
   14ddc:	00268513          	addi	a0,a3,2
   14de0:	00870713          	addi	a4,a4,8
   14de4:	00060693          	mv	a3,a2
   14de8:	ff098993          	addi	s3,s3,-16
   14dec:	053f5c63          	bge	t5,s3,14e44 <_vfiprintf_r+0xaac>
   14df0:	01078793          	addi	a5,a5,16
   14df4:	00168613          	addi	a2,a3,1
   14df8:	01672023          	sw	s6,0(a4)
   14dfc:	01e72223          	sw	t5,4(a4)
   14e00:	04f12423          	sw	a5,72(sp)
   14e04:	04c12223          	sw	a2,68(sp)
   14e08:	fccfdae3          	bge	t6,a2,14ddc <_vfiprintf_r+0xa44>
   14e0c:	18078663          	beqz	a5,14f98 <_vfiprintf_r+0xc00>
   14e10:	04010613          	addi	a2,sp,64
   14e14:	00090593          	mv	a1,s2
   14e18:	000a0513          	mv	a0,s4
   14e1c:	c40ff0ef          	jal	ra,1425c <__sprint_r.part.0>
   14e20:	fa051663          	bnez	a0,145cc <_vfiprintf_r+0x234>
   14e24:	04412683          	lw	a3,68(sp)
   14e28:	01000f13          	li	t5,16
   14e2c:	ff098993          	addi	s3,s3,-16
   14e30:	04812783          	lw	a5,72(sp)
   14e34:	00048713          	mv	a4,s1
   14e38:	00168513          	addi	a0,a3,1
   14e3c:	00700f93          	li	t6,7
   14e40:	fb3f48e3          	blt	t5,s3,14df0 <_vfiprintf_r+0xa58>
   14e44:	000b0e13          	mv	t3,s6
   14e48:	00812303          	lw	t1,8(sp)
   14e4c:	00c12e83          	lw	t4,12(sp)
   14e50:	01412803          	lw	a6,20(sp)
   14e54:	01012b03          	lw	s6,16(sp)
   14e58:	013787b3          	add	a5,a5,s3
   14e5c:	01c72023          	sw	t3,0(a4)
   14e60:	01372223          	sw	s3,4(a4)
   14e64:	04f12423          	sw	a5,72(sp)
   14e68:	04a12223          	sw	a0,68(sp)
   14e6c:	00700693          	li	a3,7
   14e70:	52a6d663          	bge	a3,a0,1539c <_vfiprintf_r+0x1004>
   14e74:	72078663          	beqz	a5,155a0 <_vfiprintf_r+0x1208>
   14e78:	04010613          	addi	a2,sp,64
   14e7c:	00090593          	mv	a1,s2
   14e80:	000a0513          	mv	a0,s4
   14e84:	01012823          	sw	a6,16(sp)
   14e88:	01d12623          	sw	t4,12(sp)
   14e8c:	00612423          	sw	t1,8(sp)
   14e90:	bccff0ef          	jal	ra,1425c <__sprint_r.part.0>
   14e94:	f2051c63          	bnez	a0,145cc <_vfiprintf_r+0x234>
   14e98:	00c12e83          	lw	t4,12(sp)
   14e9c:	04412683          	lw	a3,68(sp)
   14ea0:	04812783          	lw	a5,72(sp)
   14ea4:	41dd0d33          	sub	s10,s10,t4
   14ea8:	01012803          	lw	a6,16(sp)
   14eac:	00812303          	lw	t1,8(sp)
   14eb0:	00048713          	mv	a4,s1
   14eb4:	00168593          	addi	a1,a3,1
   14eb8:	89a05ee3          	blez	s10,14754 <_vfiprintf_r+0x3bc>
   14ebc:	00022e37          	lui	t3,0x22
   14ec0:	e6ce0e13          	addi	t3,t3,-404 # 21e6c <zeroes.0>
   14ec4:	09a45e63          	bge	s0,s10,14f60 <_vfiprintf_r+0xbc8>
   14ec8:	01612823          	sw	s6,16(sp)
   14ecc:	00700993          	li	s3,7
   14ed0:	000d0b13          	mv	s6,s10
   14ed4:	00612423          	sw	t1,8(sp)
   14ed8:	01d12623          	sw	t4,12(sp)
   14edc:	01012a23          	sw	a6,20(sp)
   14ee0:	000a8d13          	mv	s10,s5
   14ee4:	0180006f          	j	14efc <_vfiprintf_r+0xb64>
   14ee8:	00268593          	addi	a1,a3,2
   14eec:	00870713          	addi	a4,a4,8
   14ef0:	00060693          	mv	a3,a2
   14ef4:	ff0b0b13          	addi	s6,s6,-16
   14ef8:	05645863          	bge	s0,s6,14f48 <_vfiprintf_r+0xbb0>
   14efc:	01078793          	addi	a5,a5,16
   14f00:	00168613          	addi	a2,a3,1
   14f04:	01572023          	sw	s5,0(a4)
   14f08:	00872223          	sw	s0,4(a4)
   14f0c:	04f12423          	sw	a5,72(sp)
   14f10:	04c12223          	sw	a2,68(sp)
   14f14:	fcc9dae3          	bge	s3,a2,14ee8 <_vfiprintf_r+0xb50>
   14f18:	06078863          	beqz	a5,14f88 <_vfiprintf_r+0xbf0>
   14f1c:	04010613          	addi	a2,sp,64
   14f20:	00090593          	mv	a1,s2
   14f24:	000a0513          	mv	a0,s4
   14f28:	b34ff0ef          	jal	ra,1425c <__sprint_r.part.0>
   14f2c:	ea051063          	bnez	a0,145cc <_vfiprintf_r+0x234>
   14f30:	04412683          	lw	a3,68(sp)
   14f34:	ff0b0b13          	addi	s6,s6,-16
   14f38:	04812783          	lw	a5,72(sp)
   14f3c:	00048713          	mv	a4,s1
   14f40:	00168593          	addi	a1,a3,1
   14f44:	fb644ce3          	blt	s0,s6,14efc <_vfiprintf_r+0xb64>
   14f48:	000d0e13          	mv	t3,s10
   14f4c:	00812303          	lw	t1,8(sp)
   14f50:	000b0d13          	mv	s10,s6
   14f54:	00c12e83          	lw	t4,12(sp)
   14f58:	01412803          	lw	a6,20(sp)
   14f5c:	01012b03          	lw	s6,16(sp)
   14f60:	01a787b3          	add	a5,a5,s10
   14f64:	01c72023          	sw	t3,0(a4)
   14f68:	01a72223          	sw	s10,4(a4)
   14f6c:	04f12423          	sw	a5,72(sp)
   14f70:	04b12223          	sw	a1,68(sp)
   14f74:	00700693          	li	a3,7
   14f78:	20b6c863          	blt	a3,a1,15188 <_vfiprintf_r+0xdf0>
   14f7c:	00870713          	addi	a4,a4,8
   14f80:	00158593          	addi	a1,a1,1
   14f84:	fd0ff06f          	j	14754 <_vfiprintf_r+0x3bc>
   14f88:	00100593          	li	a1,1
   14f8c:	00000693          	li	a3,0
   14f90:	00048713          	mv	a4,s1
   14f94:	f61ff06f          	j	14ef4 <_vfiprintf_r+0xb5c>
   14f98:	00100513          	li	a0,1
   14f9c:	00000693          	li	a3,0
   14fa0:	00048713          	mv	a4,s1
   14fa4:	e45ff06f          	j	14de8 <_vfiprintf_r+0xa50>
   14fa8:	04078a63          	beqz	a5,14ffc <_vfiprintf_r+0xc64>
   14fac:	04010613          	addi	a2,sp,64
   14fb0:	00090593          	mv	a1,s2
   14fb4:	000a0513          	mv	a0,s4
   14fb8:	03012223          	sw	a6,36(sp)
   14fbc:	01d12a23          	sw	t4,20(sp)
   14fc0:	00512823          	sw	t0,16(sp)
   14fc4:	01f12623          	sw	t6,12(sp)
   14fc8:	00612423          	sw	t1,8(sp)
   14fcc:	a90ff0ef          	jal	ra,1425c <__sprint_r.part.0>
   14fd0:	de051e63          	bnez	a0,145cc <_vfiprintf_r+0x234>
   14fd4:	04412683          	lw	a3,68(sp)
   14fd8:	04812783          	lw	a5,72(sp)
   14fdc:	02412803          	lw	a6,36(sp)
   14fe0:	01412e83          	lw	t4,20(sp)
   14fe4:	01012283          	lw	t0,16(sp)
   14fe8:	00c12f83          	lw	t6,12(sp)
   14fec:	00812303          	lw	t1,8(sp)
   14ff0:	00048713          	mv	a4,s1
   14ff4:	00168593          	addi	a1,a3,1
   14ff8:	edcff06f          	j	146d4 <_vfiprintf_r+0x33c>
   14ffc:	3c0f8463          	beqz	t6,153c4 <_vfiprintf_r+0x102c>
   15000:	03c10793          	addi	a5,sp,60
   15004:	04f12623          	sw	a5,76(sp)
   15008:	00200793          	li	a5,2
   1500c:	04f12823          	sw	a5,80(sp)
   15010:	00100593          	li	a1,1
   15014:	00048713          	mv	a4,s1
   15018:	00058693          	mv	a3,a1
   1501c:	00870713          	addi	a4,a4,8
   15020:	00158593          	addi	a1,a1,1
   15024:	f20ff06f          	j	14744 <_vfiprintf_r+0x3ac>
   15028:	00200693          	li	a3,2
   1502c:	00060313          	mv	t1,a2
   15030:	b2068ae3          	beqz	a3,14b64 <_vfiprintf_r+0x7cc>
   15034:	00412503          	lw	a0,4(sp)
   15038:	0f010b93          	addi	s7,sp,240
   1503c:	00f7f693          	andi	a3,a5,15
   15040:	00d506b3          	add	a3,a0,a3
   15044:	0006c603          	lbu	a2,0(a3)
   15048:	0047d793          	srli	a5,a5,0x4
   1504c:	01c59693          	slli	a3,a1,0x1c
   15050:	00f6e7b3          	or	a5,a3,a5
   15054:	0045d593          	srli	a1,a1,0x4
   15058:	fecb8fa3          	sb	a2,-1(s7)
   1505c:	00b7e6b3          	or	a3,a5,a1
   15060:	fffb8b93          	addi	s7,s7,-1
   15064:	fc069ce3          	bnez	a3,1503c <_vfiprintf_r+0xca4>
   15068:	0f010793          	addi	a5,sp,240
   1506c:	41778eb3          	sub	t4,a5,s7
   15070:	000d0d93          	mv	s11,s10
   15074:	a7dd5ee3          	bge	s10,t4,14af0 <_vfiprintf_r+0x758>
   15078:	000e8d93          	mv	s11,t4
   1507c:	a75ff06f          	j	14af0 <_vfiprintf_r+0x758>
   15080:	01000593          	li	a1,16
   15084:	5b35d063          	bge	a1,s3,15624 <_vfiprintf_r+0x128c>
   15088:	00022e37          	lui	t3,0x22
   1508c:	e7ce0e13          	addi	t3,t3,-388 # 21e7c <blanks.1>
   15090:	03612223          	sw	s6,36(sp)
   15094:	01000f13          	li	t5,16
   15098:	00700393          	li	t2,7
   1509c:	00612423          	sw	t1,8(sp)
   150a0:	01f12623          	sw	t6,12(sp)
   150a4:	00512823          	sw	t0,16(sp)
   150a8:	01d12a23          	sw	t4,20(sp)
   150ac:	03012423          	sw	a6,40(sp)
   150b0:	000e0b13          	mv	s6,t3
   150b4:	01c0006f          	j	150d0 <_vfiprintf_r+0xd38>
   150b8:	00268513          	addi	a0,a3,2
   150bc:	00870713          	addi	a4,a4,8
   150c0:	00060693          	mv	a3,a2
   150c4:	ff098993          	addi	s3,s3,-16
   150c8:	053f5c63          	bge	t5,s3,15120 <_vfiprintf_r+0xd88>
   150cc:	00168613          	addi	a2,a3,1
   150d0:	01078793          	addi	a5,a5,16
   150d4:	01672023          	sw	s6,0(a4)
   150d8:	01e72223          	sw	t5,4(a4)
   150dc:	04f12423          	sw	a5,72(sp)
   150e0:	04c12223          	sw	a2,68(sp)
   150e4:	fcc3dae3          	bge	t2,a2,150b8 <_vfiprintf_r+0xd20>
   150e8:	08078063          	beqz	a5,15168 <_vfiprintf_r+0xdd0>
   150ec:	04010613          	addi	a2,sp,64
   150f0:	00090593          	mv	a1,s2
   150f4:	000a0513          	mv	a0,s4
   150f8:	964ff0ef          	jal	ra,1425c <__sprint_r.part.0>
   150fc:	cc051863          	bnez	a0,145cc <_vfiprintf_r+0x234>
   15100:	04412683          	lw	a3,68(sp)
   15104:	01000f13          	li	t5,16
   15108:	ff098993          	addi	s3,s3,-16
   1510c:	04812783          	lw	a5,72(sp)
   15110:	00048713          	mv	a4,s1
   15114:	00168513          	addi	a0,a3,1
   15118:	00700393          	li	t2,7
   1511c:	fb3f48e3          	blt	t5,s3,150cc <_vfiprintf_r+0xd34>
   15120:	000b0e13          	mv	t3,s6
   15124:	00812303          	lw	t1,8(sp)
   15128:	00c12f83          	lw	t6,12(sp)
   1512c:	01012283          	lw	t0,16(sp)
   15130:	01412e83          	lw	t4,20(sp)
   15134:	02812803          	lw	a6,40(sp)
   15138:	02412b03          	lw	s6,36(sp)
   1513c:	013787b3          	add	a5,a5,s3
   15140:	01c72023          	sw	t3,0(a4)
   15144:	01372223          	sw	s3,4(a4)
   15148:	04f12423          	sw	a5,72(sp)
   1514c:	04a12223          	sw	a0,68(sp)
   15150:	00700693          	li	a3,7
   15154:	12a6c063          	blt	a3,a0,15274 <_vfiprintf_r+0xedc>
   15158:	00870713          	addi	a4,a4,8
   1515c:	00150593          	addi	a1,a0,1
   15160:	00050693          	mv	a3,a0
   15164:	d38ff06f          	j	1469c <_vfiprintf_r+0x304>
   15168:	00000693          	li	a3,0
   1516c:	00100513          	li	a0,1
   15170:	00048713          	mv	a4,s1
   15174:	f51ff06f          	j	150c4 <_vfiprintf_r+0xd2c>
   15178:	01bb5463          	bge	s6,s11,15180 <_vfiprintf_r+0xde8>
   1517c:	000d8b13          	mv	s6,s11
   15180:	016c8cb3          	add	s9,s9,s6
   15184:	e3cff06f          	j	147c0 <_vfiprintf_r+0x428>
   15188:	be0784e3          	beqz	a5,14d70 <_vfiprintf_r+0x9d8>
   1518c:	04010613          	addi	a2,sp,64
   15190:	00090593          	mv	a1,s2
   15194:	000a0513          	mv	a0,s4
   15198:	01012823          	sw	a6,16(sp)
   1519c:	01d12623          	sw	t4,12(sp)
   151a0:	00612423          	sw	t1,8(sp)
   151a4:	8b8ff0ef          	jal	ra,1425c <__sprint_r.part.0>
   151a8:	c2051263          	bnez	a0,145cc <_vfiprintf_r+0x234>
   151ac:	04412583          	lw	a1,68(sp)
   151b0:	04812783          	lw	a5,72(sp)
   151b4:	01012803          	lw	a6,16(sp)
   151b8:	00c12e83          	lw	t4,12(sp)
   151bc:	00812303          	lw	t1,8(sp)
   151c0:	00048713          	mv	a4,s1
   151c4:	00158593          	addi	a1,a1,1
   151c8:	d8cff06f          	j	14754 <_vfiprintf_r+0x3bc>
   151cc:	04012223          	sw	zero,68(sp)
   151d0:	00048713          	mv	a4,s1
   151d4:	b2cff06f          	j	14500 <_vfiprintf_r+0x168>
   151d8:	20037693          	andi	a3,t1,512
   151dc:	40069a63          	bnez	a3,155f0 <_vfiprintf_r+0x1258>
   151e0:	41f7dd93          	srai	s11,a5,0x1f
   151e4:	00078993          	mv	s3,a5
   151e8:	000d8693          	mv	a3,s11
   151ec:	ff8ff06f          	j	149e4 <_vfiprintf_r+0x64c>
   151f0:	010ef693          	andi	a3,t4,16
   151f4:	00082783          	lw	a5,0(a6)
   151f8:	00480813          	addi	a6,a6,4
   151fc:	02069263          	bnez	a3,15220 <_vfiprintf_r+0xe88>
   15200:	040ef693          	andi	a3,t4,64
   15204:	00068a63          	beqz	a3,15218 <_vfiprintf_r+0xe80>
   15208:	01079993          	slli	s3,a5,0x10
   1520c:	0109d993          	srli	s3,s3,0x10
   15210:	00000d93          	li	s11,0
   15214:	851ff06f          	j	14a64 <_vfiprintf_r+0x6cc>
   15218:	200ef693          	andi	a3,t4,512
   1521c:	3e069463          	bnez	a3,15604 <_vfiprintf_r+0x126c>
   15220:	00078993          	mv	s3,a5
   15224:	00000d93          	li	s11,0
   15228:	83dff06f          	j	14a64 <_vfiprintf_r+0x6cc>
   1522c:	0106f613          	andi	a2,a3,16
   15230:	00082783          	lw	a5,0(a6)
   15234:	00480813          	addi	a6,a6,4
   15238:	02061263          	bnez	a2,1525c <_vfiprintf_r+0xec4>
   1523c:	0406f613          	andi	a2,a3,64
   15240:	00060a63          	beqz	a2,15254 <_vfiprintf_r+0xebc>
   15244:	01079793          	slli	a5,a5,0x10
   15248:	0107d793          	srli	a5,a5,0x10
   1524c:	00000593          	li	a1,0
   15250:	a1dff06f          	j	14c6c <_vfiprintf_r+0x8d4>
   15254:	2006f613          	andi	a2,a3,512
   15258:	38061663          	bnez	a2,155e4 <_vfiprintf_r+0x124c>
   1525c:	00000593          	li	a1,0
   15260:	a0dff06f          	j	14c6c <_vfiprintf_r+0x8d4>
   15264:	00100593          	li	a1,1
   15268:	00000693          	li	a3,0
   1526c:	00048713          	mv	a4,s1
   15270:	cd4ff06f          	j	14744 <_vfiprintf_r+0x3ac>
   15274:	24078263          	beqz	a5,154b8 <_vfiprintf_r+0x1120>
   15278:	04010613          	addi	a2,sp,64
   1527c:	00090593          	mv	a1,s2
   15280:	000a0513          	mv	a0,s4
   15284:	03012223          	sw	a6,36(sp)
   15288:	01d12a23          	sw	t4,20(sp)
   1528c:	00512823          	sw	t0,16(sp)
   15290:	01f12623          	sw	t6,12(sp)
   15294:	00612423          	sw	t1,8(sp)
   15298:	fc5fe0ef          	jal	ra,1425c <__sprint_r.part.0>
   1529c:	b2051863          	bnez	a0,145cc <_vfiprintf_r+0x234>
   152a0:	04412683          	lw	a3,68(sp)
   152a4:	04812783          	lw	a5,72(sp)
   152a8:	02412803          	lw	a6,36(sp)
   152ac:	01412e83          	lw	t4,20(sp)
   152b0:	01012283          	lw	t0,16(sp)
   152b4:	00c12f83          	lw	t6,12(sp)
   152b8:	00812303          	lw	t1,8(sp)
   152bc:	00048713          	mv	a4,s1
   152c0:	00168593          	addi	a1,a3,1
   152c4:	bd8ff06f          	j	1469c <_vfiprintf_r+0x304>
   152c8:	40037793          	andi	a5,t1,1024
   152cc:	00000693          	li	a3,0
   152d0:	0f010e93          	addi	t4,sp,240
   152d4:	01612623          	sw	s6,12(sp)
   152d8:	01a12823          	sw	s10,16(sp)
   152dc:	03912223          	sw	s9,36(sp)
   152e0:	03212423          	sw	s2,40(sp)
   152e4:	01812d03          	lw	s10,24(sp)
   152e8:	00612423          	sw	t1,8(sp)
   152ec:	00068b13          	mv	s6,a3
   152f0:	00e12a23          	sw	a4,20(sp)
   152f4:	00078c93          	mv	s9,a5
   152f8:	000e8913          	mv	s2,t4
   152fc:	03012623          	sw	a6,44(sp)
   15300:	0280006f          	j	15328 <_vfiprintf_r+0xf90>
   15304:	00a00613          	li	a2,10
   15308:	00000693          	li	a3,0
   1530c:	00098513          	mv	a0,s3
   15310:	000d8593          	mv	a1,s11
   15314:	11d060ef          	jal	ra,1bc30 <__udivdi3>
   15318:	280d8c63          	beqz	s11,155b0 <_vfiprintf_r+0x1218>
   1531c:	00050993          	mv	s3,a0
   15320:	00058d93          	mv	s11,a1
   15324:	000b8913          	mv	s2,s7
   15328:	00a00613          	li	a2,10
   1532c:	00000693          	li	a3,0
   15330:	00098513          	mv	a0,s3
   15334:	000d8593          	mv	a1,s11
   15338:	6bd060ef          	jal	ra,1c1f4 <__umoddi3>
   1533c:	03050513          	addi	a0,a0,48
   15340:	fea90fa3          	sb	a0,-1(s2)
   15344:	fff90b93          	addi	s7,s2,-1
   15348:	001b0b13          	addi	s6,s6,1
   1534c:	fa0c8ce3          	beqz	s9,15304 <_vfiprintf_r+0xf6c>
   15350:	000d4783          	lbu	a5,0(s10)
   15354:	fb6798e3          	bne	a5,s6,15304 <_vfiprintf_r+0xf6c>
   15358:	0ff00793          	li	a5,255
   1535c:	fafb04e3          	beq	s6,a5,15304 <_vfiprintf_r+0xf6c>
   15360:	160d9e63          	bnez	s11,154dc <_vfiprintf_r+0x1144>
   15364:	00900793          	li	a5,9
   15368:	1737ea63          	bltu	a5,s3,154dc <_vfiprintf_r+0x1144>
   1536c:	01a12c23          	sw	s10,24(sp)
   15370:	00812303          	lw	t1,8(sp)
   15374:	00c12b03          	lw	s6,12(sp)
   15378:	01012d03          	lw	s10,16(sp)
   1537c:	01412703          	lw	a4,20(sp)
   15380:	02412c83          	lw	s9,36(sp)
   15384:	02812903          	lw	s2,40(sp)
   15388:	02c12803          	lw	a6,44(sp)
   1538c:	cddff06f          	j	15068 <_vfiprintf_r+0xcd0>
   15390:	00000d93          	li	s11,0
   15394:	0f010b93          	addi	s7,sp,240
   15398:	f58ff06f          	j	14af0 <_vfiprintf_r+0x758>
   1539c:	00870713          	addi	a4,a4,8
   153a0:	00150593          	addi	a1,a0,1
   153a4:	00050693          	mv	a3,a0
   153a8:	ba4ff06f          	j	1474c <_vfiprintf_r+0x3b4>
   153ac:	00082783          	lw	a5,0(a6)
   153b0:	41fcd693          	srai	a3,s9,0x1f
   153b4:	00480813          	addi	a6,a6,4
   153b8:	0197a023          	sw	s9,0(a5)
   153bc:	00d7a223          	sw	a3,4(a5)
   153c0:	8c8ff06f          	j	14488 <_vfiprintf_r+0xf0>
   153c4:	00000693          	li	a3,0
   153c8:	00100593          	li	a1,1
   153cc:	00048713          	mv	a4,s1
   153d0:	b74ff06f          	j	14744 <_vfiprintf_r+0x3ac>
   153d4:	000e8d93          	mv	s11,t4
   153d8:	00050b93          	mv	s7,a0
   153dc:	f14ff06f          	j	14af0 <_vfiprintf_r+0x758>
   153e0:	fff00d13          	li	s10,-1
   153e4:	00058c13          	mv	s8,a1
   153e8:	950ff06f          	j	14538 <_vfiprintf_r+0x1a0>
   153ec:	000d8713          	mv	a4,s11
   153f0:	000b8e93          	mv	t4,s7
   153f4:	e54ff06f          	j	14a48 <_vfiprintf_r+0x6b0>
   153f8:	000227b7          	lui	a5,0x22
   153fc:	9e878793          	addi	a5,a5,-1560 # 219e8 <__clzsi2+0x74>
   15400:	000b8313          	mv	t1,s7
   15404:	00f12223          	sw	a5,4(sp)
   15408:	02037793          	andi	a5,t1,32
   1540c:	000d8713          	mv	a4,s11
   15410:	06078463          	beqz	a5,15478 <_vfiprintf_r+0x10e0>
   15414:	00780813          	addi	a6,a6,7
   15418:	ff887813          	andi	a6,a6,-8
   1541c:	00082783          	lw	a5,0(a6)
   15420:	00482583          	lw	a1,4(a6)
   15424:	00880813          	addi	a6,a6,8
   15428:	00137693          	andi	a3,t1,1
   1542c:	00068e63          	beqz	a3,15448 <_vfiprintf_r+0x10b0>
   15430:	00b7e6b3          	or	a3,a5,a1
   15434:	00068a63          	beqz	a3,15448 <_vfiprintf_r+0x10b0>
   15438:	03000693          	li	a3,48
   1543c:	02d10e23          	sb	a3,60(sp)
   15440:	02c10ea3          	sb	a2,61(sp)
   15444:	00236313          	ori	t1,t1,2
   15448:	bff37313          	andi	t1,t1,-1025
   1544c:	edcff06f          	j	14b28 <_vfiprintf_r+0x790>
   15450:	000d8713          	mv	a4,s11
   15454:	000b8693          	mv	a3,s7
   15458:	ff8ff06f          	j	14c50 <_vfiprintf_r+0x8b8>
   1545c:	000227b7          	lui	a5,0x22
   15460:	9d478793          	addi	a5,a5,-1580 # 219d4 <__clzsi2+0x60>
   15464:	000b8313          	mv	t1,s7
   15468:	00f12223          	sw	a5,4(sp)
   1546c:	02037793          	andi	a5,t1,32
   15470:	000d8713          	mv	a4,s11
   15474:	fa0790e3          	bnez	a5,15414 <_vfiprintf_r+0x107c>
   15478:	01037693          	andi	a3,t1,16
   1547c:	00082783          	lw	a5,0(a6)
   15480:	00480813          	addi	a6,a6,4
   15484:	0a069063          	bnez	a3,15524 <_vfiprintf_r+0x118c>
   15488:	04037693          	andi	a3,t1,64
   1548c:	08068863          	beqz	a3,1551c <_vfiprintf_r+0x1184>
   15490:	01079793          	slli	a5,a5,0x10
   15494:	0107d793          	srli	a5,a5,0x10
   15498:	00000593          	li	a1,0
   1549c:	f8dff06f          	j	15428 <_vfiprintf_r+0x1090>
   154a0:	000b8513          	mv	a0,s7
   154a4:	4e4010ef          	jal	ra,16988 <strlen>
   154a8:	00812303          	lw	t1,8(sp)
   154ac:	00c12703          	lw	a4,12(sp)
   154b0:	00050e93          	mv	t4,a0
   154b4:	ca8ff06f          	j	1495c <_vfiprintf_r+0x5c4>
   154b8:	03b14703          	lbu	a4,59(sp)
   154bc:	10070463          	beqz	a4,155c4 <_vfiprintf_r+0x122c>
   154c0:	03b10793          	addi	a5,sp,59
   154c4:	04f12623          	sw	a5,76(sp)
   154c8:	00100793          	li	a5,1
   154cc:	04f12823          	sw	a5,80(sp)
   154d0:	00100593          	li	a1,1
   154d4:	00048713          	mv	a4,s1
   154d8:	9f0ff06f          	j	146c8 <_vfiprintf_r+0x330>
   154dc:	01c12783          	lw	a5,28(sp)
   154e0:	02012583          	lw	a1,32(sp)
   154e4:	00000b13          	li	s6,0
   154e8:	40fb8bb3          	sub	s7,s7,a5
   154ec:	00078613          	mv	a2,a5
   154f0:	000b8513          	mv	a0,s7
   154f4:	761000ef          	jal	ra,16454 <strncpy>
   154f8:	001d4783          	lbu	a5,1(s10)
   154fc:	00a00613          	li	a2,10
   15500:	00000693          	li	a3,0
   15504:	00f037b3          	snez	a5,a5
   15508:	00098513          	mv	a0,s3
   1550c:	000d8593          	mv	a1,s11
   15510:	00fd0d33          	add	s10,s10,a5
   15514:	71c060ef          	jal	ra,1bc30 <__udivdi3>
   15518:	e05ff06f          	j	1531c <_vfiprintf_r+0xf84>
   1551c:	20037693          	andi	a3,t1,512
   15520:	0e069863          	bnez	a3,15610 <_vfiprintf_r+0x1278>
   15524:	00000593          	li	a1,0
   15528:	f01ff06f          	j	15428 <_vfiprintf_r+0x1090>
   1552c:	00068313          	mv	t1,a3
   15530:	00000693          	li	a3,0
   15534:	e2068863          	beqz	a3,14b64 <_vfiprintf_r+0x7cc>
