
./program/a.out:     file format elf32-littleriscv


Disassembly of section .text:

00010094 <exit>:
   10094:	ff010113          	addi	sp,sp,-16
   10098:	00000593          	li	a1,0
   1009c:	00812423          	sw	s0,8(sp)
   100a0:	00112623          	sw	ra,12(sp)
   100a4:	00050413          	mv	s0,a0
   100a8:	301000ef          	jal	ra,10ba8 <__call_exitprocs>
   100ac:	f181a783          	lw	a5,-232(gp) # 239e0 <__stdio_exit_handler>
   100b0:	00078463          	beqz	a5,100b8 <exit+0x24>
   100b4:	000780e7          	jalr	a5
   100b8:	00040513          	mv	a0,s0
   100bc:	08d0b0ef          	jal	ra,1b948 <_exit>

000100c0 <register_fini>:
   100c0:	00000793          	li	a5,0
   100c4:	00078863          	beqz	a5,100d4 <register_fini+0x14>
   100c8:	00016537          	lui	a0,0x16
   100cc:	67c50513          	addi	a0,a0,1660 # 1667c <__libc_fini_array>
   100d0:	40d0006f          	j	10cdc <atexit>
   100d4:	00008067          	ret

000100d8 <_start>:
   100d8:	00014197          	auipc	gp,0x14
   100dc:	9f018193          	addi	gp,gp,-1552 # 23ac8 <__global_pointer$>
   100e0:	f1818513          	addi	a0,gp,-232 # 239e0 <__stdio_exit_handler>
   100e4:	24418613          	addi	a2,gp,580 # 23d0c <__BSS_END__>
   100e8:	40a60633          	sub	a2,a2,a0
   100ec:	00000593          	li	a1,0
   100f0:	1dd000ef          	jal	ra,10acc <memset>
   100f4:	00001517          	auipc	a0,0x1
   100f8:	be850513          	addi	a0,a0,-1048 # 10cdc <atexit>
   100fc:	00050863          	beqz	a0,1010c <_start+0x34>
   10100:	00006517          	auipc	a0,0x6
   10104:	57c50513          	addi	a0,a0,1404 # 1667c <__libc_fini_array>
   10108:	3d5000ef          	jal	ra,10cdc <atexit>
   1010c:	125000ef          	jal	ra,10a30 <__libc_init_array>
   10110:	00012503          	lw	a0,0(sp)
   10114:	00410593          	addi	a1,sp,4
   10118:	00000613          	li	a2,0
   1011c:	06c000ef          	jal	ra,10188 <main>
   10120:	f75ff06f          	j	10094 <exit>

00010124 <__do_global_dtors_aux>:
   10124:	ff010113          	addi	sp,sp,-16
   10128:	00812423          	sw	s0,8(sp)
   1012c:	f381c783          	lbu	a5,-200(gp) # 23a00 <completed.1>
   10130:	00112623          	sw	ra,12(sp)
   10134:	02079263          	bnez	a5,10158 <__do_global_dtors_aux+0x34>
   10138:	00000793          	li	a5,0
   1013c:	00078a63          	beqz	a5,10150 <__do_global_dtors_aux+0x2c>
   10140:	00023537          	lui	a0,0x23
   10144:	20850513          	addi	a0,a0,520 # 23208 <__EH_FRAME_BEGIN__>
   10148:	00000097          	auipc	ra,0x0
   1014c:	000000e7          	jalr	zero # 0 <exit-0x10094>
   10150:	00100793          	li	a5,1
   10154:	f2f18c23          	sb	a5,-200(gp) # 23a00 <completed.1>
   10158:	00c12083          	lw	ra,12(sp)
   1015c:	00812403          	lw	s0,8(sp)
   10160:	01010113          	addi	sp,sp,16
   10164:	00008067          	ret

00010168 <frame_dummy>:
   10168:	00000793          	li	a5,0
   1016c:	00078c63          	beqz	a5,10184 <frame_dummy+0x1c>
   10170:	00023537          	lui	a0,0x23
   10174:	f3c18593          	addi	a1,gp,-196 # 23a04 <object.0>
   10178:	20850513          	addi	a0,a0,520 # 23208 <__EH_FRAME_BEGIN__>
   1017c:	00000317          	auipc	t1,0x0
   10180:	00000067          	jr	zero # 0 <exit-0x10094>
   10184:	00008067          	ret

00010188 <main>:
   10188:	fe010113          	addi	sp,sp,-32
   1018c:	00112e23          	sw	ra,28(sp)
   10190:	00812c23          	sw	s0,24(sp)
   10194:	02010413          	addi	s0,sp,32
   10198:	fe042623          	sw	zero,-20(s0)
   1019c:	fec42583          	lw	a1,-20(s0)
   101a0:	000227b7          	lui	a5,0x22
   101a4:	9c078513          	addi	a0,a5,-1600 # 219c0 <__clzsi2+0x4c>
   101a8:	478000ef          	jal	ra,10620 <printf>
   101ac:	00000793          	li	a5,0
   101b0:	00078513          	mv	a0,a5
   101b4:	01c12083          	lw	ra,28(sp)
   101b8:	01812403          	lw	s0,24(sp)
   101bc:	02010113          	addi	sp,sp,32
   101c0:	00008067          	ret

000101c4 <__fp_lock>:
   101c4:	00000513          	li	a0,0
   101c8:	00008067          	ret

000101cc <stdio_exit_handler>:
   101cc:	00023637          	lui	a2,0x23
   101d0:	000155b7          	lui	a1,0x15
   101d4:	00023537          	lui	a0,0x23
   101d8:	2c860613          	addi	a2,a2,712 # 232c8 <__sglue>
   101dc:	75c58593          	addi	a1,a1,1884 # 1575c <_fclose_r>
   101e0:	2d850513          	addi	a0,a0,728 # 232d8 <_impure_data>
   101e4:	3480006f          	j	1052c <_fwalk_sglue>

000101e8 <cleanup_stdio>:
   101e8:	00452583          	lw	a1,4(a0)
   101ec:	ff010113          	addi	sp,sp,-16
   101f0:	00812423          	sw	s0,8(sp)
   101f4:	00112623          	sw	ra,12(sp)
   101f8:	f5418793          	addi	a5,gp,-172 # 23a1c <__sf>
   101fc:	00050413          	mv	s0,a0
   10200:	00f58463          	beq	a1,a5,10208 <cleanup_stdio+0x20>
   10204:	558050ef          	jal	ra,1575c <_fclose_r>
   10208:	00842583          	lw	a1,8(s0)
   1020c:	fbc18793          	addi	a5,gp,-68 # 23a84 <__sf+0x68>
   10210:	00f58663          	beq	a1,a5,1021c <cleanup_stdio+0x34>
   10214:	00040513          	mv	a0,s0
   10218:	544050ef          	jal	ra,1575c <_fclose_r>
   1021c:	00c42583          	lw	a1,12(s0)
   10220:	02418793          	addi	a5,gp,36 # 23aec <__global_pointer$+0x24>
   10224:	00f58c63          	beq	a1,a5,1023c <cleanup_stdio+0x54>
   10228:	00040513          	mv	a0,s0
   1022c:	00812403          	lw	s0,8(sp)
   10230:	00c12083          	lw	ra,12(sp)
   10234:	01010113          	addi	sp,sp,16
   10238:	5240506f          	j	1575c <_fclose_r>
   1023c:	00c12083          	lw	ra,12(sp)
   10240:	00812403          	lw	s0,8(sp)
   10244:	01010113          	addi	sp,sp,16
   10248:	00008067          	ret

0001024c <__fp_unlock>:
   1024c:	00000513          	li	a0,0
   10250:	00008067          	ret

00010254 <global_stdio_init.part.0>:
   10254:	fe010113          	addi	sp,sp,-32
   10258:	000107b7          	lui	a5,0x10
   1025c:	00812c23          	sw	s0,24(sp)
   10260:	1cc78793          	addi	a5,a5,460 # 101cc <stdio_exit_handler>
   10264:	f5418413          	addi	s0,gp,-172 # 23a1c <__sf>
   10268:	00112e23          	sw	ra,28(sp)
   1026c:	00912a23          	sw	s1,20(sp)
   10270:	01212823          	sw	s2,16(sp)
   10274:	01312623          	sw	s3,12(sp)
   10278:	01412423          	sw	s4,8(sp)
   1027c:	f0f1ac23          	sw	a5,-232(gp) # 239e0 <__stdio_exit_handler>
   10280:	00800613          	li	a2,8
   10284:	00400793          	li	a5,4
   10288:	00000593          	li	a1,0
   1028c:	fb018513          	addi	a0,gp,-80 # 23a78 <__sf+0x5c>
   10290:	00f42623          	sw	a5,12(s0)
   10294:	00042023          	sw	zero,0(s0)
   10298:	00042223          	sw	zero,4(s0)
   1029c:	00042423          	sw	zero,8(s0)
   102a0:	06042223          	sw	zero,100(s0)
   102a4:	00042823          	sw	zero,16(s0)
   102a8:	00042a23          	sw	zero,20(s0)
   102ac:	00042c23          	sw	zero,24(s0)
   102b0:	01d000ef          	jal	ra,10acc <memset>
   102b4:	000107b7          	lui	a5,0x10
   102b8:	00010a37          	lui	s4,0x10
   102bc:	000109b7          	lui	s3,0x10
   102c0:	00010937          	lui	s2,0x10
   102c4:	000104b7          	lui	s1,0x10
   102c8:	66ca0a13          	addi	s4,s4,1644 # 1066c <__sread>
   102cc:	6d098993          	addi	s3,s3,1744 # 106d0 <__swrite>
   102d0:	75890913          	addi	s2,s2,1880 # 10758 <__sseek>
   102d4:	7d048493          	addi	s1,s1,2000 # 107d0 <__sclose>
   102d8:	00978793          	addi	a5,a5,9 # 10009 <exit-0x8b>
   102dc:	00800613          	li	a2,8
   102e0:	00000593          	li	a1,0
   102e4:	01818513          	addi	a0,gp,24 # 23ae0 <__global_pointer$+0x18>
   102e8:	03442023          	sw	s4,32(s0)
   102ec:	03342223          	sw	s3,36(s0)
   102f0:	03242423          	sw	s2,40(s0)
   102f4:	02942623          	sw	s1,44(s0)
   102f8:	06f42a23          	sw	a5,116(s0)
   102fc:	00842e23          	sw	s0,28(s0)
   10300:	06042423          	sw	zero,104(s0)
   10304:	06042623          	sw	zero,108(s0)
   10308:	06042823          	sw	zero,112(s0)
   1030c:	0c042623          	sw	zero,204(s0)
   10310:	06042c23          	sw	zero,120(s0)
   10314:	06042e23          	sw	zero,124(s0)
   10318:	08042023          	sw	zero,128(s0)
   1031c:	7b0000ef          	jal	ra,10acc <memset>
   10320:	000207b7          	lui	a5,0x20
   10324:	01278793          	addi	a5,a5,18 # 20012 <__subtf3+0x136>
   10328:	fbc18713          	addi	a4,gp,-68 # 23a84 <__sf+0x68>
   1032c:	00800613          	li	a2,8
   10330:	00000593          	li	a1,0
   10334:	08018513          	addi	a0,gp,128 # 23b48 <__global_pointer$+0x80>
   10338:	09442423          	sw	s4,136(s0)
   1033c:	09342623          	sw	s3,140(s0)
   10340:	09242823          	sw	s2,144(s0)
   10344:	08942a23          	sw	s1,148(s0)
   10348:	0cf42e23          	sw	a5,220(s0)
   1034c:	08e42223          	sw	a4,132(s0)
   10350:	0c042823          	sw	zero,208(s0)
   10354:	0c042a23          	sw	zero,212(s0)
   10358:	0c042c23          	sw	zero,216(s0)
   1035c:	12042a23          	sw	zero,308(s0)
   10360:	0e042023          	sw	zero,224(s0)
   10364:	0e042223          	sw	zero,228(s0)
   10368:	0e042423          	sw	zero,232(s0)
   1036c:	760000ef          	jal	ra,10acc <memset>
   10370:	02418793          	addi	a5,gp,36 # 23aec <__global_pointer$+0x24>
   10374:	0f442823          	sw	s4,240(s0)
   10378:	0f342a23          	sw	s3,244(s0)
   1037c:	0f242c23          	sw	s2,248(s0)
   10380:	0e942e23          	sw	s1,252(s0)
   10384:	01c12083          	lw	ra,28(sp)
   10388:	0ef42623          	sw	a5,236(s0)
   1038c:	01812403          	lw	s0,24(sp)
   10390:	01412483          	lw	s1,20(sp)
   10394:	01012903          	lw	s2,16(sp)
   10398:	00c12983          	lw	s3,12(sp)
   1039c:	00812a03          	lw	s4,8(sp)
   103a0:	02010113          	addi	sp,sp,32
   103a4:	00008067          	ret

000103a8 <__sfp>:
   103a8:	f181a783          	lw	a5,-232(gp) # 239e0 <__stdio_exit_handler>
   103ac:	fe010113          	addi	sp,sp,-32
   103b0:	01312623          	sw	s3,12(sp)
   103b4:	00112e23          	sw	ra,28(sp)
   103b8:	00812c23          	sw	s0,24(sp)
   103bc:	00912a23          	sw	s1,20(sp)
   103c0:	01212823          	sw	s2,16(sp)
   103c4:	00050993          	mv	s3,a0
   103c8:	0e078863          	beqz	a5,104b8 <__sfp+0x110>
   103cc:	00023937          	lui	s2,0x23
   103d0:	2c890913          	addi	s2,s2,712 # 232c8 <__sglue>
   103d4:	fff00493          	li	s1,-1
   103d8:	00492783          	lw	a5,4(s2)
   103dc:	00892403          	lw	s0,8(s2)
   103e0:	fff78793          	addi	a5,a5,-1
   103e4:	0007d863          	bgez	a5,103f4 <__sfp+0x4c>
   103e8:	0800006f          	j	10468 <__sfp+0xc0>
   103ec:	06840413          	addi	s0,s0,104
   103f0:	06978c63          	beq	a5,s1,10468 <__sfp+0xc0>
   103f4:	00c41703          	lh	a4,12(s0)
   103f8:	fff78793          	addi	a5,a5,-1
   103fc:	fe0718e3          	bnez	a4,103ec <__sfp+0x44>
   10400:	ffff07b7          	lui	a5,0xffff0
   10404:	00178793          	addi	a5,a5,1 # ffff0001 <__BSS_END__+0xfffcc2f5>
   10408:	00f42623          	sw	a5,12(s0)
   1040c:	06042223          	sw	zero,100(s0)
   10410:	00042023          	sw	zero,0(s0)
   10414:	00042423          	sw	zero,8(s0)
   10418:	00042223          	sw	zero,4(s0)
   1041c:	00042823          	sw	zero,16(s0)
   10420:	00042a23          	sw	zero,20(s0)
   10424:	00042c23          	sw	zero,24(s0)
   10428:	00800613          	li	a2,8
   1042c:	00000593          	li	a1,0
   10430:	05c40513          	addi	a0,s0,92
   10434:	698000ef          	jal	ra,10acc <memset>
   10438:	02042823          	sw	zero,48(s0)
   1043c:	02042a23          	sw	zero,52(s0)
   10440:	04042223          	sw	zero,68(s0)
   10444:	04042423          	sw	zero,72(s0)
   10448:	01c12083          	lw	ra,28(sp)
   1044c:	00040513          	mv	a0,s0
   10450:	01812403          	lw	s0,24(sp)
   10454:	01412483          	lw	s1,20(sp)
   10458:	01012903          	lw	s2,16(sp)
   1045c:	00c12983          	lw	s3,12(sp)
   10460:	02010113          	addi	sp,sp,32
   10464:	00008067          	ret
   10468:	00092403          	lw	s0,0(s2)
   1046c:	00040663          	beqz	s0,10478 <__sfp+0xd0>
   10470:	00040913          	mv	s2,s0
   10474:	f65ff06f          	j	103d8 <__sfp+0x30>
   10478:	1ac00593          	li	a1,428
   1047c:	00098513          	mv	a0,s3
   10480:	4ad000ef          	jal	ra,1112c <_malloc_r>
   10484:	00050413          	mv	s0,a0
   10488:	02050c63          	beqz	a0,104c0 <__sfp+0x118>
   1048c:	00c50513          	addi	a0,a0,12
   10490:	00400793          	li	a5,4
   10494:	00042023          	sw	zero,0(s0)
   10498:	00f42223          	sw	a5,4(s0)
   1049c:	00a42423          	sw	a0,8(s0)
   104a0:	1a000613          	li	a2,416
   104a4:	00000593          	li	a1,0
   104a8:	624000ef          	jal	ra,10acc <memset>
   104ac:	00892023          	sw	s0,0(s2)
   104b0:	00040913          	mv	s2,s0
   104b4:	f25ff06f          	j	103d8 <__sfp+0x30>
   104b8:	d9dff0ef          	jal	ra,10254 <global_stdio_init.part.0>
   104bc:	f11ff06f          	j	103cc <__sfp+0x24>
   104c0:	00092023          	sw	zero,0(s2)
   104c4:	00c00793          	li	a5,12
   104c8:	00f9a023          	sw	a5,0(s3)
   104cc:	f7dff06f          	j	10448 <__sfp+0xa0>

000104d0 <__sinit>:
   104d0:	03452783          	lw	a5,52(a0)
   104d4:	00078463          	beqz	a5,104dc <__sinit+0xc>
   104d8:	00008067          	ret
   104dc:	f181a703          	lw	a4,-232(gp) # 239e0 <__stdio_exit_handler>
   104e0:	000107b7          	lui	a5,0x10
   104e4:	1e878793          	addi	a5,a5,488 # 101e8 <cleanup_stdio>
   104e8:	02f52a23          	sw	a5,52(a0)
   104ec:	fe0716e3          	bnez	a4,104d8 <__sinit+0x8>
   104f0:	d65ff06f          	j	10254 <global_stdio_init.part.0>

000104f4 <__sfp_lock_acquire>:
   104f4:	00008067          	ret

000104f8 <__sfp_lock_release>:
   104f8:	00008067          	ret

000104fc <__fp_lock_all>:
   104fc:	00023637          	lui	a2,0x23
   10500:	000105b7          	lui	a1,0x10
   10504:	2c860613          	addi	a2,a2,712 # 232c8 <__sglue>
   10508:	1c458593          	addi	a1,a1,452 # 101c4 <__fp_lock>
   1050c:	00000513          	li	a0,0
   10510:	01c0006f          	j	1052c <_fwalk_sglue>

00010514 <__fp_unlock_all>:
   10514:	00023637          	lui	a2,0x23
   10518:	000105b7          	lui	a1,0x10
   1051c:	2c860613          	addi	a2,a2,712 # 232c8 <__sglue>
   10520:	24c58593          	addi	a1,a1,588 # 1024c <__fp_unlock>
   10524:	00000513          	li	a0,0
   10528:	0040006f          	j	1052c <_fwalk_sglue>

0001052c <_fwalk_sglue>:
   1052c:	fd010113          	addi	sp,sp,-48
   10530:	03212023          	sw	s2,32(sp)
   10534:	01312e23          	sw	s3,28(sp)
   10538:	01412c23          	sw	s4,24(sp)
   1053c:	01512a23          	sw	s5,20(sp)
   10540:	01612823          	sw	s6,16(sp)
   10544:	01712623          	sw	s7,12(sp)
   10548:	02112623          	sw	ra,44(sp)
   1054c:	02812423          	sw	s0,40(sp)
   10550:	02912223          	sw	s1,36(sp)
   10554:	00050b13          	mv	s6,a0
   10558:	00058b93          	mv	s7,a1
   1055c:	00060a93          	mv	s5,a2
   10560:	00000a13          	li	s4,0
   10564:	00100993          	li	s3,1
   10568:	fff00913          	li	s2,-1
   1056c:	004aa483          	lw	s1,4(s5)
   10570:	008aa403          	lw	s0,8(s5)
   10574:	fff48493          	addi	s1,s1,-1
   10578:	0204c863          	bltz	s1,105a8 <_fwalk_sglue+0x7c>
   1057c:	00c45783          	lhu	a5,12(s0)
   10580:	00f9fe63          	bgeu	s3,a5,1059c <_fwalk_sglue+0x70>
   10584:	00e41783          	lh	a5,14(s0)
   10588:	00040593          	mv	a1,s0
   1058c:	000b0513          	mv	a0,s6
   10590:	01278663          	beq	a5,s2,1059c <_fwalk_sglue+0x70>
   10594:	000b80e7          	jalr	s7
   10598:	00aa6a33          	or	s4,s4,a0
   1059c:	fff48493          	addi	s1,s1,-1
   105a0:	06840413          	addi	s0,s0,104
   105a4:	fd249ce3          	bne	s1,s2,1057c <_fwalk_sglue+0x50>
   105a8:	000aaa83          	lw	s5,0(s5)
   105ac:	fc0a90e3          	bnez	s5,1056c <_fwalk_sglue+0x40>
   105b0:	02c12083          	lw	ra,44(sp)
   105b4:	02812403          	lw	s0,40(sp)
   105b8:	02412483          	lw	s1,36(sp)
   105bc:	02012903          	lw	s2,32(sp)
   105c0:	01c12983          	lw	s3,28(sp)
   105c4:	01412a83          	lw	s5,20(sp)
   105c8:	01012b03          	lw	s6,16(sp)
   105cc:	00c12b83          	lw	s7,12(sp)
   105d0:	000a0513          	mv	a0,s4
   105d4:	01812a03          	lw	s4,24(sp)
   105d8:	03010113          	addi	sp,sp,48
   105dc:	00008067          	ret

000105e0 <_printf_r>:
   105e0:	fc010113          	addi	sp,sp,-64
   105e4:	02c12423          	sw	a2,40(sp)
   105e8:	02d12623          	sw	a3,44(sp)
   105ec:	02e12823          	sw	a4,48(sp)
   105f0:	02f12a23          	sw	a5,52(sp)
   105f4:	03012c23          	sw	a6,56(sp)
   105f8:	03112e23          	sw	a7,60(sp)
   105fc:	00058613          	mv	a2,a1
   10600:	00852583          	lw	a1,8(a0)
   10604:	02810693          	addi	a3,sp,40
   10608:	00112e23          	sw	ra,28(sp)
   1060c:	00d12623          	sw	a3,12(sp)
   10610:	2e0010ef          	jal	ra,118f0 <_vfprintf_r>
   10614:	01c12083          	lw	ra,28(sp)
   10618:	04010113          	addi	sp,sp,64
   1061c:	00008067          	ret

00010620 <printf>:
   10620:	f0c1a303          	lw	t1,-244(gp) # 239d4 <_impure_ptr>
   10624:	fc010113          	addi	sp,sp,-64
   10628:	02c12423          	sw	a2,40(sp)
   1062c:	02d12623          	sw	a3,44(sp)
   10630:	02b12223          	sw	a1,36(sp)
   10634:	02e12823          	sw	a4,48(sp)
   10638:	02f12a23          	sw	a5,52(sp)
   1063c:	03012c23          	sw	a6,56(sp)
   10640:	03112e23          	sw	a7,60(sp)
   10644:	00832583          	lw	a1,8(t1) # 10184 <frame_dummy+0x1c>
   10648:	02410693          	addi	a3,sp,36
   1064c:	00050613          	mv	a2,a0
   10650:	00030513          	mv	a0,t1
   10654:	00112e23          	sw	ra,28(sp)
   10658:	00d12623          	sw	a3,12(sp)
   1065c:	294010ef          	jal	ra,118f0 <_vfprintf_r>
   10660:	01c12083          	lw	ra,28(sp)
   10664:	04010113          	addi	sp,sp,64
   10668:	00008067          	ret

0001066c <__sread>:
   1066c:	ff010113          	addi	sp,sp,-16
   10670:	00812423          	sw	s0,8(sp)
   10674:	00058413          	mv	s0,a1
   10678:	00e59583          	lh	a1,14(a1)
   1067c:	00112623          	sw	ra,12(sp)
   10680:	2e0000ef          	jal	ra,10960 <_read_r>
   10684:	02054063          	bltz	a0,106a4 <__sread+0x38>
   10688:	05042783          	lw	a5,80(s0)
   1068c:	00c12083          	lw	ra,12(sp)
   10690:	00a787b3          	add	a5,a5,a0
   10694:	04f42823          	sw	a5,80(s0)
   10698:	00812403          	lw	s0,8(sp)
   1069c:	01010113          	addi	sp,sp,16
   106a0:	00008067          	ret
   106a4:	00c45783          	lhu	a5,12(s0)
   106a8:	fffff737          	lui	a4,0xfffff
   106ac:	fff70713          	addi	a4,a4,-1 # ffffefff <__BSS_END__+0xfffdb2f3>
   106b0:	00e7f7b3          	and	a5,a5,a4
   106b4:	00c12083          	lw	ra,12(sp)
   106b8:	00f41623          	sh	a5,12(s0)
   106bc:	00812403          	lw	s0,8(sp)
   106c0:	01010113          	addi	sp,sp,16
   106c4:	00008067          	ret

000106c8 <__seofread>:
   106c8:	00000513          	li	a0,0
   106cc:	00008067          	ret

000106d0 <__swrite>:
   106d0:	00c59783          	lh	a5,12(a1)
   106d4:	fe010113          	addi	sp,sp,-32
   106d8:	00812c23          	sw	s0,24(sp)
   106dc:	00912a23          	sw	s1,20(sp)
   106e0:	01212823          	sw	s2,16(sp)
   106e4:	01312623          	sw	s3,12(sp)
   106e8:	00112e23          	sw	ra,28(sp)
   106ec:	1007f713          	andi	a4,a5,256
   106f0:	00058413          	mv	s0,a1
   106f4:	00050493          	mv	s1,a0
   106f8:	00060913          	mv	s2,a2
   106fc:	00068993          	mv	s3,a3
   10700:	04071063          	bnez	a4,10740 <__swrite+0x70>
   10704:	fffff737          	lui	a4,0xfffff
   10708:	fff70713          	addi	a4,a4,-1 # ffffefff <__BSS_END__+0xfffdb2f3>
   1070c:	00e7f7b3          	and	a5,a5,a4
   10710:	00e41583          	lh	a1,14(s0)
   10714:	00f41623          	sh	a5,12(s0)
   10718:	01812403          	lw	s0,24(sp)
   1071c:	01c12083          	lw	ra,28(sp)
   10720:	00098693          	mv	a3,s3
   10724:	00090613          	mv	a2,s2
   10728:	00c12983          	lw	s3,12(sp)
   1072c:	01012903          	lw	s2,16(sp)
   10730:	00048513          	mv	a0,s1
   10734:	01412483          	lw	s1,20(sp)
   10738:	02010113          	addi	sp,sp,32
   1073c:	28c0006f          	j	109c8 <_write_r>
   10740:	00e59583          	lh	a1,14(a1)
   10744:	00200693          	li	a3,2
   10748:	00000613          	li	a2,0
   1074c:	1ac000ef          	jal	ra,108f8 <_lseek_r>
   10750:	00c41783          	lh	a5,12(s0)
   10754:	fb1ff06f          	j	10704 <__swrite+0x34>

00010758 <__sseek>:
   10758:	ff010113          	addi	sp,sp,-16
   1075c:	00812423          	sw	s0,8(sp)
   10760:	00058413          	mv	s0,a1
   10764:	00e59583          	lh	a1,14(a1)
   10768:	00112623          	sw	ra,12(sp)
   1076c:	18c000ef          	jal	ra,108f8 <_lseek_r>
   10770:	fff00793          	li	a5,-1
   10774:	02f50863          	beq	a0,a5,107a4 <__sseek+0x4c>
   10778:	00c45783          	lhu	a5,12(s0)
   1077c:	00001737          	lui	a4,0x1
   10780:	00c12083          	lw	ra,12(sp)
   10784:	00e7e7b3          	or	a5,a5,a4
   10788:	01079793          	slli	a5,a5,0x10
   1078c:	4107d793          	srai	a5,a5,0x10
   10790:	04a42823          	sw	a0,80(s0)
   10794:	00f41623          	sh	a5,12(s0)
   10798:	00812403          	lw	s0,8(sp)
   1079c:	01010113          	addi	sp,sp,16
   107a0:	00008067          	ret
   107a4:	00c45783          	lhu	a5,12(s0)
   107a8:	fffff737          	lui	a4,0xfffff
   107ac:	fff70713          	addi	a4,a4,-1 # ffffefff <__BSS_END__+0xfffdb2f3>
   107b0:	00e7f7b3          	and	a5,a5,a4
   107b4:	01079793          	slli	a5,a5,0x10
   107b8:	4107d793          	srai	a5,a5,0x10
   107bc:	00c12083          	lw	ra,12(sp)
   107c0:	00f41623          	sh	a5,12(s0)
   107c4:	00812403          	lw	s0,8(sp)
   107c8:	01010113          	addi	sp,sp,16
   107cc:	00008067          	ret

000107d0 <__sclose>:
   107d0:	00e59583          	lh	a1,14(a1)
   107d4:	0040006f          	j	107d8 <_close_r>

000107d8 <_close_r>:
   107d8:	ff010113          	addi	sp,sp,-16
   107dc:	00812423          	sw	s0,8(sp)
   107e0:	00912223          	sw	s1,4(sp)
   107e4:	00050413          	mv	s0,a0
   107e8:	00058513          	mv	a0,a1
   107ec:	00112623          	sw	ra,12(sp)
   107f0:	f001ae23          	sw	zero,-228(gp) # 239e4 <errno>
   107f4:	1100b0ef          	jal	ra,1b904 <_close>
   107f8:	fff00793          	li	a5,-1
   107fc:	00f50c63          	beq	a0,a5,10814 <_close_r+0x3c>
   10800:	00c12083          	lw	ra,12(sp)
   10804:	00812403          	lw	s0,8(sp)
   10808:	00412483          	lw	s1,4(sp)
   1080c:	01010113          	addi	sp,sp,16
   10810:	00008067          	ret
   10814:	f1c1a783          	lw	a5,-228(gp) # 239e4 <errno>
   10818:	fe0784e3          	beqz	a5,10800 <_close_r+0x28>
   1081c:	00c12083          	lw	ra,12(sp)
   10820:	00f42023          	sw	a5,0(s0)
   10824:	00812403          	lw	s0,8(sp)
   10828:	00412483          	lw	s1,4(sp)
   1082c:	01010113          	addi	sp,sp,16
   10830:	00008067          	ret

00010834 <_reclaim_reent>:
   10834:	f0c1a783          	lw	a5,-244(gp) # 239d4 <_impure_ptr>
   10838:	0aa78e63          	beq	a5,a0,108f4 <_reclaim_reent+0xc0>
   1083c:	04452583          	lw	a1,68(a0)
   10840:	fe010113          	addi	sp,sp,-32
   10844:	00912a23          	sw	s1,20(sp)
   10848:	00112e23          	sw	ra,28(sp)
   1084c:	00050493          	mv	s1,a0
   10850:	04058c63          	beqz	a1,108a8 <_reclaim_reent+0x74>
   10854:	01212823          	sw	s2,16(sp)
   10858:	01312623          	sw	s3,12(sp)
   1085c:	00812c23          	sw	s0,24(sp)
   10860:	00000913          	li	s2,0
   10864:	08000993          	li	s3,128
   10868:	012587b3          	add	a5,a1,s2
   1086c:	0007a403          	lw	s0,0(a5)
   10870:	00040e63          	beqz	s0,1088c <_reclaim_reent+0x58>
   10874:	00040593          	mv	a1,s0
   10878:	00042403          	lw	s0,0(s0)
   1087c:	00048513          	mv	a0,s1
   10880:	5a8000ef          	jal	ra,10e28 <_free_r>
   10884:	fe0418e3          	bnez	s0,10874 <_reclaim_reent+0x40>
   10888:	0444a583          	lw	a1,68(s1)
   1088c:	00490913          	addi	s2,s2,4
   10890:	fd391ce3          	bne	s2,s3,10868 <_reclaim_reent+0x34>
   10894:	00048513          	mv	a0,s1
   10898:	590000ef          	jal	ra,10e28 <_free_r>
   1089c:	01812403          	lw	s0,24(sp)
   108a0:	01012903          	lw	s2,16(sp)
   108a4:	00c12983          	lw	s3,12(sp)
   108a8:	0384a583          	lw	a1,56(s1)
   108ac:	00058663          	beqz	a1,108b8 <_reclaim_reent+0x84>
   108b0:	00048513          	mv	a0,s1
   108b4:	574000ef          	jal	ra,10e28 <_free_r>
   108b8:	04c4a583          	lw	a1,76(s1)
   108bc:	00058663          	beqz	a1,108c8 <_reclaim_reent+0x94>
   108c0:	00048513          	mv	a0,s1
   108c4:	564000ef          	jal	ra,10e28 <_free_r>
   108c8:	0344a783          	lw	a5,52(s1)
   108cc:	00078c63          	beqz	a5,108e4 <_reclaim_reent+0xb0>
   108d0:	01c12083          	lw	ra,28(sp)
   108d4:	00048513          	mv	a0,s1
   108d8:	01412483          	lw	s1,20(sp)
   108dc:	02010113          	addi	sp,sp,32
   108e0:	00078067          	jr	a5
   108e4:	01c12083          	lw	ra,28(sp)
   108e8:	01412483          	lw	s1,20(sp)
   108ec:	02010113          	addi	sp,sp,32
   108f0:	00008067          	ret
   108f4:	00008067          	ret

000108f8 <_lseek_r>:
   108f8:	ff010113          	addi	sp,sp,-16
   108fc:	00058713          	mv	a4,a1
   10900:	00812423          	sw	s0,8(sp)
   10904:	00912223          	sw	s1,4(sp)
   10908:	00060593          	mv	a1,a2
   1090c:	00050413          	mv	s0,a0
   10910:	00068613          	mv	a2,a3
   10914:	00070513          	mv	a0,a4
   10918:	00112623          	sw	ra,12(sp)
   1091c:	f001ae23          	sw	zero,-228(gp) # 239e4 <errno>
   10920:	1240b0ef          	jal	ra,1ba44 <_lseek>
   10924:	fff00793          	li	a5,-1
   10928:	00f50c63          	beq	a0,a5,10940 <_lseek_r+0x48>
   1092c:	00c12083          	lw	ra,12(sp)
   10930:	00812403          	lw	s0,8(sp)
   10934:	00412483          	lw	s1,4(sp)
   10938:	01010113          	addi	sp,sp,16
   1093c:	00008067          	ret
   10940:	f1c1a783          	lw	a5,-228(gp) # 239e4 <errno>
   10944:	fe0784e3          	beqz	a5,1092c <_lseek_r+0x34>
   10948:	00c12083          	lw	ra,12(sp)
   1094c:	00f42023          	sw	a5,0(s0)
   10950:	00812403          	lw	s0,8(sp)
   10954:	00412483          	lw	s1,4(sp)
   10958:	01010113          	addi	sp,sp,16
   1095c:	00008067          	ret

00010960 <_read_r>:
   10960:	ff010113          	addi	sp,sp,-16
   10964:	00058713          	mv	a4,a1
   10968:	00812423          	sw	s0,8(sp)
   1096c:	00912223          	sw	s1,4(sp)
   10970:	00060593          	mv	a1,a2
   10974:	00050413          	mv	s0,a0
   10978:	00068613          	mv	a2,a3
   1097c:	00070513          	mv	a0,a4
   10980:	00112623          	sw	ra,12(sp)
   10984:	f001ae23          	sw	zero,-228(gp) # 239e4 <errno>
   10988:	1000b0ef          	jal	ra,1ba88 <_read>
   1098c:	fff00793          	li	a5,-1
   10990:	00f50c63          	beq	a0,a5,109a8 <_read_r+0x48>
   10994:	00c12083          	lw	ra,12(sp)
   10998:	00812403          	lw	s0,8(sp)
   1099c:	00412483          	lw	s1,4(sp)
   109a0:	01010113          	addi	sp,sp,16
   109a4:	00008067          	ret
   109a8:	f1c1a783          	lw	a5,-228(gp) # 239e4 <errno>
   109ac:	fe0784e3          	beqz	a5,10994 <_read_r+0x34>
   109b0:	00c12083          	lw	ra,12(sp)
   109b4:	00f42023          	sw	a5,0(s0)
   109b8:	00812403          	lw	s0,8(sp)
   109bc:	00412483          	lw	s1,4(sp)
   109c0:	01010113          	addi	sp,sp,16
   109c4:	00008067          	ret

000109c8 <_write_r>:
   109c8:	ff010113          	addi	sp,sp,-16
   109cc:	00058713          	mv	a4,a1
   109d0:	00812423          	sw	s0,8(sp)
   109d4:	00912223          	sw	s1,4(sp)
   109d8:	00060593          	mv	a1,a2
   109dc:	00050413          	mv	s0,a0
   109e0:	00068613          	mv	a2,a3
   109e4:	00070513          	mv	a0,a4
   109e8:	00112623          	sw	ra,12(sp)
   109ec:	f001ae23          	sw	zero,-228(gp) # 239e4 <errno>
   109f0:	1540b0ef          	jal	ra,1bb44 <_write>
   109f4:	fff00793          	li	a5,-1
   109f8:	00f50c63          	beq	a0,a5,10a10 <_write_r+0x48>
   109fc:	00c12083          	lw	ra,12(sp)
   10a00:	00812403          	lw	s0,8(sp)
   10a04:	00412483          	lw	s1,4(sp)
   10a08:	01010113          	addi	sp,sp,16
   10a0c:	00008067          	ret
   10a10:	f1c1a783          	lw	a5,-228(gp) # 239e4 <errno>
   10a14:	fe0784e3          	beqz	a5,109fc <_write_r+0x34>
   10a18:	00c12083          	lw	ra,12(sp)
   10a1c:	00f42023          	sw	a5,0(s0)
   10a20:	00812403          	lw	s0,8(sp)
   10a24:	00412483          	lw	s1,4(sp)
   10a28:	01010113          	addi	sp,sp,16
   10a2c:	00008067          	ret

00010a30 <__libc_init_array>:
   10a30:	ff010113          	addi	sp,sp,-16
   10a34:	00812423          	sw	s0,8(sp)
   10a38:	000237b7          	lui	a5,0x23
   10a3c:	00023437          	lui	s0,0x23
   10a40:	01212023          	sw	s2,0(sp)
   10a44:	2bc78793          	addi	a5,a5,700 # 232bc <__init_array_start>
   10a48:	2bc40713          	addi	a4,s0,700 # 232bc <__init_array_start>
   10a4c:	00112623          	sw	ra,12(sp)
   10a50:	00912223          	sw	s1,4(sp)
   10a54:	40e78933          	sub	s2,a5,a4
   10a58:	02e78263          	beq	a5,a4,10a7c <__libc_init_array+0x4c>
   10a5c:	40295913          	srai	s2,s2,0x2
   10a60:	2bc40413          	addi	s0,s0,700
   10a64:	00000493          	li	s1,0
   10a68:	00042783          	lw	a5,0(s0)
   10a6c:	00148493          	addi	s1,s1,1
   10a70:	00440413          	addi	s0,s0,4
   10a74:	000780e7          	jalr	a5
   10a78:	ff24e8e3          	bltu	s1,s2,10a68 <__libc_init_array+0x38>
   10a7c:	00023437          	lui	s0,0x23
   10a80:	000237b7          	lui	a5,0x23
   10a84:	2c478793          	addi	a5,a5,708 # 232c4 <__do_global_dtors_aux_fini_array_entry>
   10a88:	2bc40713          	addi	a4,s0,700 # 232bc <__init_array_start>
   10a8c:	40e78933          	sub	s2,a5,a4
   10a90:	40295913          	srai	s2,s2,0x2
   10a94:	02e78063          	beq	a5,a4,10ab4 <__libc_init_array+0x84>
   10a98:	2bc40413          	addi	s0,s0,700
   10a9c:	00000493          	li	s1,0
   10aa0:	00042783          	lw	a5,0(s0)
   10aa4:	00148493          	addi	s1,s1,1
   10aa8:	00440413          	addi	s0,s0,4
   10aac:	000780e7          	jalr	a5
   10ab0:	ff24e8e3          	bltu	s1,s2,10aa0 <__libc_init_array+0x70>
   10ab4:	00c12083          	lw	ra,12(sp)
   10ab8:	00812403          	lw	s0,8(sp)
   10abc:	00412483          	lw	s1,4(sp)
   10ac0:	00012903          	lw	s2,0(sp)
   10ac4:	01010113          	addi	sp,sp,16
   10ac8:	00008067          	ret

00010acc <memset>:
   10acc:	00f00313          	li	t1,15
   10ad0:	00050713          	mv	a4,a0
   10ad4:	02c37e63          	bgeu	t1,a2,10b10 <memset+0x44>
   10ad8:	00f77793          	andi	a5,a4,15
   10adc:	0a079063          	bnez	a5,10b7c <memset+0xb0>
   10ae0:	08059263          	bnez	a1,10b64 <memset+0x98>
   10ae4:	ff067693          	andi	a3,a2,-16
   10ae8:	00f67613          	andi	a2,a2,15
   10aec:	00e686b3          	add	a3,a3,a4
   10af0:	00b72023          	sw	a1,0(a4)
   10af4:	00b72223          	sw	a1,4(a4)
   10af8:	00b72423          	sw	a1,8(a4)
   10afc:	00b72623          	sw	a1,12(a4)
   10b00:	01070713          	addi	a4,a4,16
   10b04:	fed766e3          	bltu	a4,a3,10af0 <memset+0x24>
   10b08:	00061463          	bnez	a2,10b10 <memset+0x44>
   10b0c:	00008067          	ret
   10b10:	40c306b3          	sub	a3,t1,a2
   10b14:	00269693          	slli	a3,a3,0x2
   10b18:	00000297          	auipc	t0,0x0
   10b1c:	005686b3          	add	a3,a3,t0
   10b20:	00c68067          	jr	12(a3)
   10b24:	00b70723          	sb	a1,14(a4)
   10b28:	00b706a3          	sb	a1,13(a4)
   10b2c:	00b70623          	sb	a1,12(a4)
   10b30:	00b705a3          	sb	a1,11(a4)
   10b34:	00b70523          	sb	a1,10(a4)
   10b38:	00b704a3          	sb	a1,9(a4)
   10b3c:	00b70423          	sb	a1,8(a4)
   10b40:	00b703a3          	sb	a1,7(a4)
   10b44:	00b70323          	sb	a1,6(a4)
   10b48:	00b702a3          	sb	a1,5(a4)
   10b4c:	00b70223          	sb	a1,4(a4)
   10b50:	00b701a3          	sb	a1,3(a4)
   10b54:	00b70123          	sb	a1,2(a4)
   10b58:	00b700a3          	sb	a1,1(a4)
   10b5c:	00b70023          	sb	a1,0(a4)
   10b60:	00008067          	ret
   10b64:	0ff5f593          	andi	a1,a1,255
   10b68:	00859693          	slli	a3,a1,0x8
   10b6c:	00d5e5b3          	or	a1,a1,a3
   10b70:	01059693          	slli	a3,a1,0x10
   10b74:	00d5e5b3          	or	a1,a1,a3
   10b78:	f6dff06f          	j	10ae4 <memset+0x18>
   10b7c:	00279693          	slli	a3,a5,0x2
   10b80:	00000297          	auipc	t0,0x0
   10b84:	005686b3          	add	a3,a3,t0
   10b88:	00008293          	mv	t0,ra
   10b8c:	fa0680e7          	jalr	-96(a3)
   10b90:	00028093          	mv	ra,t0
   10b94:	ff078793          	addi	a5,a5,-16
   10b98:	40f70733          	sub	a4,a4,a5
   10b9c:	00f60633          	add	a2,a2,a5
   10ba0:	f6c378e3          	bgeu	t1,a2,10b10 <memset+0x44>
   10ba4:	f3dff06f          	j	10ae0 <memset+0x14>

00010ba8 <__call_exitprocs>:
   10ba8:	fd010113          	addi	sp,sp,-48
   10bac:	01412c23          	sw	s4,24(sp)
   10bb0:	03212023          	sw	s2,32(sp)
   10bb4:	f201a903          	lw	s2,-224(gp) # 239e8 <__atexit>
   10bb8:	02112623          	sw	ra,44(sp)
   10bbc:	0a090863          	beqz	s2,10c6c <__call_exitprocs+0xc4>
   10bc0:	01312e23          	sw	s3,28(sp)
   10bc4:	01512a23          	sw	s5,20(sp)
   10bc8:	01612823          	sw	s6,16(sp)
   10bcc:	01712623          	sw	s7,12(sp)
   10bd0:	02812423          	sw	s0,40(sp)
   10bd4:	02912223          	sw	s1,36(sp)
   10bd8:	01812423          	sw	s8,8(sp)
   10bdc:	00050b13          	mv	s6,a0
   10be0:	00058b93          	mv	s7,a1
   10be4:	fff00993          	li	s3,-1
   10be8:	00100a93          	li	s5,1
   10bec:	00492483          	lw	s1,4(s2)
   10bf0:	fff48413          	addi	s0,s1,-1
   10bf4:	04044e63          	bltz	s0,10c50 <__call_exitprocs+0xa8>
   10bf8:	00249493          	slli	s1,s1,0x2
   10bfc:	009904b3          	add	s1,s2,s1
   10c00:	080b9063          	bnez	s7,10c80 <__call_exitprocs+0xd8>
   10c04:	00492783          	lw	a5,4(s2)
   10c08:	0044a683          	lw	a3,4(s1)
   10c0c:	fff78793          	addi	a5,a5,-1
   10c10:	0a878c63          	beq	a5,s0,10cc8 <__call_exitprocs+0x120>
   10c14:	0004a223          	sw	zero,4(s1)
   10c18:	02068663          	beqz	a3,10c44 <__call_exitprocs+0x9c>
   10c1c:	18892783          	lw	a5,392(s2)
   10c20:	008a9733          	sll	a4,s5,s0
   10c24:	00492c03          	lw	s8,4(s2)
   10c28:	00f777b3          	and	a5,a4,a5
   10c2c:	06079663          	bnez	a5,10c98 <__call_exitprocs+0xf0>
   10c30:	000680e7          	jalr	a3
   10c34:	00492703          	lw	a4,4(s2)
   10c38:	f201a783          	lw	a5,-224(gp) # 239e8 <__atexit>
   10c3c:	09871063          	bne	a4,s8,10cbc <__call_exitprocs+0x114>
   10c40:	07279e63          	bne	a5,s2,10cbc <__call_exitprocs+0x114>
   10c44:	fff40413          	addi	s0,s0,-1
   10c48:	ffc48493          	addi	s1,s1,-4
   10c4c:	fb341ae3          	bne	s0,s3,10c00 <__call_exitprocs+0x58>
   10c50:	02812403          	lw	s0,40(sp)
   10c54:	02412483          	lw	s1,36(sp)
   10c58:	01c12983          	lw	s3,28(sp)
   10c5c:	01412a83          	lw	s5,20(sp)
   10c60:	01012b03          	lw	s6,16(sp)
   10c64:	00c12b83          	lw	s7,12(sp)
   10c68:	00812c03          	lw	s8,8(sp)
   10c6c:	02c12083          	lw	ra,44(sp)
   10c70:	02012903          	lw	s2,32(sp)
   10c74:	01812a03          	lw	s4,24(sp)
   10c78:	03010113          	addi	sp,sp,48
   10c7c:	00008067          	ret
   10c80:	1044a783          	lw	a5,260(s1)
   10c84:	f97780e3          	beq	a5,s7,10c04 <__call_exitprocs+0x5c>
   10c88:	fff40413          	addi	s0,s0,-1
   10c8c:	ffc48493          	addi	s1,s1,-4
   10c90:	ff3418e3          	bne	s0,s3,10c80 <__call_exitprocs+0xd8>
   10c94:	fbdff06f          	j	10c50 <__call_exitprocs+0xa8>
   10c98:	18c92783          	lw	a5,396(s2)
   10c9c:	0844a583          	lw	a1,132(s1)
   10ca0:	00f77733          	and	a4,a4,a5
   10ca4:	02071663          	bnez	a4,10cd0 <__call_exitprocs+0x128>
   10ca8:	000b0513          	mv	a0,s6
   10cac:	000680e7          	jalr	a3
   10cb0:	00492703          	lw	a4,4(s2)
   10cb4:	f201a783          	lw	a5,-224(gp) # 239e8 <__atexit>
   10cb8:	f98704e3          	beq	a4,s8,10c40 <__call_exitprocs+0x98>
   10cbc:	f8078ae3          	beqz	a5,10c50 <__call_exitprocs+0xa8>
   10cc0:	00078913          	mv	s2,a5
   10cc4:	f29ff06f          	j	10bec <__call_exitprocs+0x44>
   10cc8:	00892223          	sw	s0,4(s2)
   10ccc:	f4dff06f          	j	10c18 <__call_exitprocs+0x70>
   10cd0:	00058513          	mv	a0,a1
   10cd4:	000680e7          	jalr	a3
   10cd8:	f5dff06f          	j	10c34 <__call_exitprocs+0x8c>

00010cdc <atexit>:
   10cdc:	00050593          	mv	a1,a0
   10ce0:	00000693          	li	a3,0
   10ce4:	00000613          	li	a2,0
   10ce8:	00000513          	li	a0,0
   10cec:	0280606f          	j	16d14 <__register_exitproc>

00010cf0 <_malloc_trim_r>:
   10cf0:	fe010113          	addi	sp,sp,-32
   10cf4:	01312623          	sw	s3,12(sp)
   10cf8:	000239b7          	lui	s3,0x23
   10cfc:	00812c23          	sw	s0,24(sp)
   10d00:	00912a23          	sw	s1,20(sp)
   10d04:	01212823          	sw	s2,16(sp)
   10d08:	01412423          	sw	s4,8(sp)
   10d0c:	00112e23          	sw	ra,28(sp)
   10d10:	00058a13          	mv	s4,a1
   10d14:	00050913          	mv	s2,a0
   10d18:	3f898993          	addi	s3,s3,1016 # 233f8 <__malloc_av_>
   10d1c:	3cd000ef          	jal	ra,118e8 <__malloc_lock>
   10d20:	0089a703          	lw	a4,8(s3)
   10d24:	000017b7          	lui	a5,0x1
   10d28:	fef78793          	addi	a5,a5,-17 # fef <exit-0xf0a5>
   10d2c:	00472483          	lw	s1,4(a4)
   10d30:	00001737          	lui	a4,0x1
   10d34:	ffc4f493          	andi	s1,s1,-4
   10d38:	00f48433          	add	s0,s1,a5
   10d3c:	41440433          	sub	s0,s0,s4
   10d40:	00c45413          	srli	s0,s0,0xc
   10d44:	fff40413          	addi	s0,s0,-1
   10d48:	00c41413          	slli	s0,s0,0xc
   10d4c:	00e44e63          	blt	s0,a4,10d68 <_malloc_trim_r+0x78>
   10d50:	00000593          	li	a1,0
   10d54:	00090513          	mv	a0,s2
   10d58:	0c9050ef          	jal	ra,16620 <_sbrk_r>
   10d5c:	0089a783          	lw	a5,8(s3)
   10d60:	009787b3          	add	a5,a5,s1
   10d64:	02f50863          	beq	a0,a5,10d94 <_malloc_trim_r+0xa4>
   10d68:	00090513          	mv	a0,s2
   10d6c:	381000ef          	jal	ra,118ec <__malloc_unlock>
   10d70:	01c12083          	lw	ra,28(sp)
   10d74:	01812403          	lw	s0,24(sp)
   10d78:	01412483          	lw	s1,20(sp)
   10d7c:	01012903          	lw	s2,16(sp)
   10d80:	00c12983          	lw	s3,12(sp)
   10d84:	00812a03          	lw	s4,8(sp)
   10d88:	00000513          	li	a0,0
   10d8c:	02010113          	addi	sp,sp,32
   10d90:	00008067          	ret
   10d94:	408005b3          	neg	a1,s0
   10d98:	00090513          	mv	a0,s2
   10d9c:	085050ef          	jal	ra,16620 <_sbrk_r>
   10da0:	fff00793          	li	a5,-1
   10da4:	04f50863          	beq	a0,a5,10df4 <_malloc_trim_r+0x104>
   10da8:	08c18793          	addi	a5,gp,140 # 23b54 <__malloc_current_mallinfo>
   10dac:	0007a703          	lw	a4,0(a5)
   10db0:	0089a683          	lw	a3,8(s3)
   10db4:	408484b3          	sub	s1,s1,s0
   10db8:	0014e493          	ori	s1,s1,1
   10dbc:	40870733          	sub	a4,a4,s0
   10dc0:	00090513          	mv	a0,s2
   10dc4:	0096a223          	sw	s1,4(a3)
   10dc8:	00e7a023          	sw	a4,0(a5)
   10dcc:	321000ef          	jal	ra,118ec <__malloc_unlock>
   10dd0:	01c12083          	lw	ra,28(sp)
   10dd4:	01812403          	lw	s0,24(sp)
   10dd8:	01412483          	lw	s1,20(sp)
   10ddc:	01012903          	lw	s2,16(sp)
   10de0:	00c12983          	lw	s3,12(sp)
   10de4:	00812a03          	lw	s4,8(sp)
   10de8:	00100513          	li	a0,1
   10dec:	02010113          	addi	sp,sp,32
   10df0:	00008067          	ret
   10df4:	00000593          	li	a1,0
   10df8:	00090513          	mv	a0,s2
   10dfc:	025050ef          	jal	ra,16620 <_sbrk_r>
   10e00:	0089a703          	lw	a4,8(s3)
   10e04:	00f00693          	li	a3,15
   10e08:	40e507b3          	sub	a5,a0,a4
   10e0c:	f4f6dee3          	bge	a3,a5,10d68 <_malloc_trim_r+0x78>
   10e10:	f101a683          	lw	a3,-240(gp) # 239d8 <__malloc_sbrk_base>
   10e14:	0017e793          	ori	a5,a5,1
   10e18:	00f72223          	sw	a5,4(a4) # 1004 <exit-0xf090>
   10e1c:	40d50533          	sub	a0,a0,a3
   10e20:	08a1a623          	sw	a0,140(gp) # 23b54 <__malloc_current_mallinfo>
   10e24:	f45ff06f          	j	10d68 <_malloc_trim_r+0x78>

00010e28 <_free_r>:
   10e28:	18058263          	beqz	a1,10fac <_free_r+0x184>
   10e2c:	ff010113          	addi	sp,sp,-16
   10e30:	00812423          	sw	s0,8(sp)
   10e34:	00912223          	sw	s1,4(sp)
   10e38:	00058413          	mv	s0,a1
   10e3c:	00050493          	mv	s1,a0
   10e40:	00112623          	sw	ra,12(sp)
   10e44:	2a5000ef          	jal	ra,118e8 <__malloc_lock>
   10e48:	ffc42503          	lw	a0,-4(s0)
   10e4c:	ff840713          	addi	a4,s0,-8
   10e50:	000235b7          	lui	a1,0x23
   10e54:	ffe57793          	andi	a5,a0,-2
   10e58:	00f70633          	add	a2,a4,a5
   10e5c:	3f858593          	addi	a1,a1,1016 # 233f8 <__malloc_av_>
   10e60:	00462683          	lw	a3,4(a2)
   10e64:	0085a803          	lw	a6,8(a1)
   10e68:	ffc6f693          	andi	a3,a3,-4
   10e6c:	1ac80263          	beq	a6,a2,11010 <_free_r+0x1e8>
   10e70:	00d62223          	sw	a3,4(a2)
   10e74:	00157513          	andi	a0,a0,1
   10e78:	00d60833          	add	a6,a2,a3
   10e7c:	0a051063          	bnez	a0,10f1c <_free_r+0xf4>
   10e80:	ff842303          	lw	t1,-8(s0)
   10e84:	00482803          	lw	a6,4(a6)
   10e88:	00023537          	lui	a0,0x23
   10e8c:	40670733          	sub	a4,a4,t1
   10e90:	00872883          	lw	a7,8(a4)
   10e94:	40050513          	addi	a0,a0,1024 # 23400 <__malloc_av_+0x8>
   10e98:	006787b3          	add	a5,a5,t1
   10e9c:	00187813          	andi	a6,a6,1
   10ea0:	14a88263          	beq	a7,a0,10fe4 <_free_r+0x1bc>
   10ea4:	00c72303          	lw	t1,12(a4)
   10ea8:	0068a623          	sw	t1,12(a7)
   10eac:	01132423          	sw	a7,8(t1)
   10eb0:	1a080663          	beqz	a6,1105c <_free_r+0x234>
   10eb4:	0017e693          	ori	a3,a5,1
   10eb8:	00d72223          	sw	a3,4(a4)
   10ebc:	00f62023          	sw	a5,0(a2)
   10ec0:	1ff00693          	li	a3,511
   10ec4:	06f6ec63          	bltu	a3,a5,10f3c <_free_r+0x114>
   10ec8:	ff87f693          	andi	a3,a5,-8
   10ecc:	00868693          	addi	a3,a3,8
   10ed0:	0045a503          	lw	a0,4(a1)
   10ed4:	00d586b3          	add	a3,a1,a3
   10ed8:	0006a603          	lw	a2,0(a3)
   10edc:	0057d813          	srli	a6,a5,0x5
   10ee0:	00100793          	li	a5,1
   10ee4:	010797b3          	sll	a5,a5,a6
   10ee8:	00a7e7b3          	or	a5,a5,a0
   10eec:	ff868513          	addi	a0,a3,-8
   10ef0:	00a72623          	sw	a0,12(a4)
   10ef4:	00c72423          	sw	a2,8(a4)
   10ef8:	00f5a223          	sw	a5,4(a1)
   10efc:	00e6a023          	sw	a4,0(a3)
   10f00:	00e62623          	sw	a4,12(a2)
   10f04:	00812403          	lw	s0,8(sp)
   10f08:	00c12083          	lw	ra,12(sp)
   10f0c:	00048513          	mv	a0,s1
   10f10:	00412483          	lw	s1,4(sp)
   10f14:	01010113          	addi	sp,sp,16
   10f18:	1d50006f          	j	118ec <__malloc_unlock>
   10f1c:	00482503          	lw	a0,4(a6)
   10f20:	00157513          	andi	a0,a0,1
   10f24:	08050663          	beqz	a0,10fb0 <_free_r+0x188>
   10f28:	0017e693          	ori	a3,a5,1
   10f2c:	fed42e23          	sw	a3,-4(s0)
   10f30:	00f62023          	sw	a5,0(a2)
   10f34:	1ff00693          	li	a3,511
   10f38:	f8f6f8e3          	bgeu	a3,a5,10ec8 <_free_r+0xa0>
   10f3c:	0097d693          	srli	a3,a5,0x9
   10f40:	00400613          	li	a2,4
   10f44:	12d66063          	bltu	a2,a3,11064 <_free_r+0x23c>
   10f48:	0067d693          	srli	a3,a5,0x6
   10f4c:	03968513          	addi	a0,a3,57
   10f50:	03868613          	addi	a2,a3,56
   10f54:	00351513          	slli	a0,a0,0x3
   10f58:	00a58533          	add	a0,a1,a0
   10f5c:	00052683          	lw	a3,0(a0)
   10f60:	ff850513          	addi	a0,a0,-8
   10f64:	00d51863          	bne	a0,a3,10f74 <_free_r+0x14c>
   10f68:	1540006f          	j	110bc <_free_r+0x294>
   10f6c:	0086a683          	lw	a3,8(a3)
   10f70:	00d50863          	beq	a0,a3,10f80 <_free_r+0x158>
   10f74:	0046a603          	lw	a2,4(a3)
   10f78:	ffc67613          	andi	a2,a2,-4
   10f7c:	fec7e8e3          	bltu	a5,a2,10f6c <_free_r+0x144>
   10f80:	00c6a503          	lw	a0,12(a3)
   10f84:	00a72623          	sw	a0,12(a4)
   10f88:	00d72423          	sw	a3,8(a4)
   10f8c:	00812403          	lw	s0,8(sp)
   10f90:	00e52423          	sw	a4,8(a0)
   10f94:	00c12083          	lw	ra,12(sp)
   10f98:	00048513          	mv	a0,s1
   10f9c:	00412483          	lw	s1,4(sp)
   10fa0:	00e6a623          	sw	a4,12(a3)
   10fa4:	01010113          	addi	sp,sp,16
   10fa8:	1450006f          	j	118ec <__malloc_unlock>
   10fac:	00008067          	ret
   10fb0:	00023537          	lui	a0,0x23
   10fb4:	00d787b3          	add	a5,a5,a3
   10fb8:	40050513          	addi	a0,a0,1024 # 23400 <__malloc_av_+0x8>
   10fbc:	00862683          	lw	a3,8(a2)
   10fc0:	0ca68c63          	beq	a3,a0,11098 <_free_r+0x270>
   10fc4:	00c62803          	lw	a6,12(a2)
   10fc8:	0017e513          	ori	a0,a5,1
   10fcc:	00f70633          	add	a2,a4,a5
   10fd0:	0106a623          	sw	a6,12(a3)
   10fd4:	00d82423          	sw	a3,8(a6)
   10fd8:	00a72223          	sw	a0,4(a4)
   10fdc:	00f62023          	sw	a5,0(a2)
   10fe0:	ee1ff06f          	j	10ec0 <_free_r+0x98>
   10fe4:	12081c63          	bnez	a6,1111c <_free_r+0x2f4>
   10fe8:	00862583          	lw	a1,8(a2)
   10fec:	00c62603          	lw	a2,12(a2)
   10ff0:	00f686b3          	add	a3,a3,a5
   10ff4:	0016e793          	ori	a5,a3,1
   10ff8:	00c5a623          	sw	a2,12(a1)
   10ffc:	00b62423          	sw	a1,8(a2)
   11000:	00f72223          	sw	a5,4(a4)
   11004:	00d70733          	add	a4,a4,a3
   11008:	00d72023          	sw	a3,0(a4)
   1100c:	ef9ff06f          	j	10f04 <_free_r+0xdc>
   11010:	00157513          	andi	a0,a0,1
   11014:	00d786b3          	add	a3,a5,a3
   11018:	02051063          	bnez	a0,11038 <_free_r+0x210>
   1101c:	ff842503          	lw	a0,-8(s0)
   11020:	40a70733          	sub	a4,a4,a0
   11024:	00c72783          	lw	a5,12(a4)
   11028:	00872603          	lw	a2,8(a4)
   1102c:	00a686b3          	add	a3,a3,a0
   11030:	00f62623          	sw	a5,12(a2)
   11034:	00c7a423          	sw	a2,8(a5)
   11038:	0016e613          	ori	a2,a3,1
   1103c:	f141a783          	lw	a5,-236(gp) # 239dc <__malloc_trim_threshold>
   11040:	00c72223          	sw	a2,4(a4)
   11044:	00e5a423          	sw	a4,8(a1)
   11048:	eaf6eee3          	bltu	a3,a5,10f04 <_free_r+0xdc>
   1104c:	f2c1a583          	lw	a1,-212(gp) # 239f4 <__malloc_top_pad>
   11050:	00048513          	mv	a0,s1
   11054:	c9dff0ef          	jal	ra,10cf0 <_malloc_trim_r>
   11058:	eadff06f          	j	10f04 <_free_r+0xdc>
   1105c:	00d787b3          	add	a5,a5,a3
   11060:	f5dff06f          	j	10fbc <_free_r+0x194>
   11064:	01400613          	li	a2,20
   11068:	02d67063          	bgeu	a2,a3,11088 <_free_r+0x260>
   1106c:	05400613          	li	a2,84
   11070:	06d66463          	bltu	a2,a3,110d8 <_free_r+0x2b0>
   11074:	00c7d693          	srli	a3,a5,0xc
   11078:	06f68513          	addi	a0,a3,111
   1107c:	06e68613          	addi	a2,a3,110
   11080:	00351513          	slli	a0,a0,0x3
   11084:	ed5ff06f          	j	10f58 <_free_r+0x130>
   11088:	05c68513          	addi	a0,a3,92
   1108c:	05b68613          	addi	a2,a3,91
   11090:	00351513          	slli	a0,a0,0x3
   11094:	ec5ff06f          	j	10f58 <_free_r+0x130>
   11098:	00e5aa23          	sw	a4,20(a1)
   1109c:	00e5a823          	sw	a4,16(a1)
   110a0:	0017e693          	ori	a3,a5,1
   110a4:	00a72623          	sw	a0,12(a4)
   110a8:	00a72423          	sw	a0,8(a4)
   110ac:	00d72223          	sw	a3,4(a4)
   110b0:	00f70733          	add	a4,a4,a5
   110b4:	00f72023          	sw	a5,0(a4)
   110b8:	e4dff06f          	j	10f04 <_free_r+0xdc>
   110bc:	0045a803          	lw	a6,4(a1)
   110c0:	40265613          	srai	a2,a2,0x2
   110c4:	00100793          	li	a5,1
   110c8:	00c797b3          	sll	a5,a5,a2
   110cc:	0107e7b3          	or	a5,a5,a6
   110d0:	00f5a223          	sw	a5,4(a1)
   110d4:	eb1ff06f          	j	10f84 <_free_r+0x15c>
   110d8:	15400613          	li	a2,340
   110dc:	00d66c63          	bltu	a2,a3,110f4 <_free_r+0x2cc>
   110e0:	00f7d693          	srli	a3,a5,0xf
   110e4:	07868513          	addi	a0,a3,120
   110e8:	07768613          	addi	a2,a3,119
   110ec:	00351513          	slli	a0,a0,0x3
   110f0:	e69ff06f          	j	10f58 <_free_r+0x130>
   110f4:	55400613          	li	a2,1364
   110f8:	00d66c63          	bltu	a2,a3,11110 <_free_r+0x2e8>
   110fc:	0127d693          	srli	a3,a5,0x12
   11100:	07d68513          	addi	a0,a3,125
   11104:	07c68613          	addi	a2,a3,124
   11108:	00351513          	slli	a0,a0,0x3
   1110c:	e4dff06f          	j	10f58 <_free_r+0x130>
   11110:	3f800513          	li	a0,1016
   11114:	07e00613          	li	a2,126
   11118:	e41ff06f          	j	10f58 <_free_r+0x130>
   1111c:	0017e693          	ori	a3,a5,1
   11120:	00d72223          	sw	a3,4(a4)
   11124:	00f62023          	sw	a5,0(a2)
   11128:	dddff06f          	j	10f04 <_free_r+0xdc>

0001112c <_malloc_r>:
   1112c:	fd010113          	addi	sp,sp,-48
   11130:	01312e23          	sw	s3,28(sp)
   11134:	02112623          	sw	ra,44(sp)
   11138:	02812423          	sw	s0,40(sp)
   1113c:	02912223          	sw	s1,36(sp)
   11140:	03212023          	sw	s2,32(sp)
   11144:	00b58793          	addi	a5,a1,11
   11148:	01600713          	li	a4,22
   1114c:	00050993          	mv	s3,a0
   11150:	08f76263          	bltu	a4,a5,111d4 <_malloc_r+0xa8>
   11154:	01000793          	li	a5,16
   11158:	20b7e663          	bltu	a5,a1,11364 <_malloc_r+0x238>
   1115c:	78c000ef          	jal	ra,118e8 <__malloc_lock>
   11160:	01800793          	li	a5,24
   11164:	00200593          	li	a1,2
   11168:	01000493          	li	s1,16
   1116c:	00023937          	lui	s2,0x23
   11170:	3f890913          	addi	s2,s2,1016 # 233f8 <__malloc_av_>
   11174:	00f907b3          	add	a5,s2,a5
   11178:	0047a403          	lw	s0,4(a5)
   1117c:	ff878713          	addi	a4,a5,-8
   11180:	34e40463          	beq	s0,a4,114c8 <_malloc_r+0x39c>
   11184:	00442783          	lw	a5,4(s0)
   11188:	00c42683          	lw	a3,12(s0)
   1118c:	00842603          	lw	a2,8(s0)
   11190:	ffc7f793          	andi	a5,a5,-4
   11194:	00f407b3          	add	a5,s0,a5
   11198:	0047a703          	lw	a4,4(a5)
   1119c:	00d62623          	sw	a3,12(a2)
   111a0:	00c6a423          	sw	a2,8(a3)
   111a4:	00176713          	ori	a4,a4,1
   111a8:	00098513          	mv	a0,s3
   111ac:	00e7a223          	sw	a4,4(a5)
   111b0:	73c000ef          	jal	ra,118ec <__malloc_unlock>
   111b4:	00840513          	addi	a0,s0,8
   111b8:	02c12083          	lw	ra,44(sp)
   111bc:	02812403          	lw	s0,40(sp)
   111c0:	02412483          	lw	s1,36(sp)
   111c4:	02012903          	lw	s2,32(sp)
   111c8:	01c12983          	lw	s3,28(sp)
   111cc:	03010113          	addi	sp,sp,48
   111d0:	00008067          	ret
   111d4:	ff87f493          	andi	s1,a5,-8
   111d8:	1807c663          	bltz	a5,11364 <_malloc_r+0x238>
   111dc:	18b4e463          	bltu	s1,a1,11364 <_malloc_r+0x238>
   111e0:	708000ef          	jal	ra,118e8 <__malloc_lock>
   111e4:	1f700793          	li	a5,503
   111e8:	3e97fa63          	bgeu	a5,s1,115dc <_malloc_r+0x4b0>
   111ec:	0094d793          	srli	a5,s1,0x9
   111f0:	18078263          	beqz	a5,11374 <_malloc_r+0x248>
   111f4:	00400713          	li	a4,4
   111f8:	34f76063          	bltu	a4,a5,11538 <_malloc_r+0x40c>
   111fc:	0064d793          	srli	a5,s1,0x6
   11200:	03978593          	addi	a1,a5,57
   11204:	03878813          	addi	a6,a5,56
   11208:	00359613          	slli	a2,a1,0x3
   1120c:	00023937          	lui	s2,0x23
   11210:	3f890913          	addi	s2,s2,1016 # 233f8 <__malloc_av_>
   11214:	00c90633          	add	a2,s2,a2
   11218:	00462403          	lw	s0,4(a2)
   1121c:	ff860613          	addi	a2,a2,-8
   11220:	02860863          	beq	a2,s0,11250 <_malloc_r+0x124>
   11224:	00f00513          	li	a0,15
   11228:	0140006f          	j	1123c <_malloc_r+0x110>
   1122c:	00c42683          	lw	a3,12(s0)
   11230:	28075863          	bgez	a4,114c0 <_malloc_r+0x394>
   11234:	00d60e63          	beq	a2,a3,11250 <_malloc_r+0x124>
   11238:	00068413          	mv	s0,a3
   1123c:	00442783          	lw	a5,4(s0)
   11240:	ffc7f793          	andi	a5,a5,-4
   11244:	40978733          	sub	a4,a5,s1
   11248:	fee552e3          	bge	a0,a4,1122c <_malloc_r+0x100>
   1124c:	00080593          	mv	a1,a6
   11250:	01092403          	lw	s0,16(s2)
   11254:	00023837          	lui	a6,0x23
   11258:	40080813          	addi	a6,a6,1024 # 23400 <__malloc_av_+0x8>
   1125c:	25040e63          	beq	s0,a6,114b8 <_malloc_r+0x38c>
   11260:	00442783          	lw	a5,4(s0)
   11264:	00f00693          	li	a3,15
   11268:	ffc7f793          	andi	a5,a5,-4
   1126c:	40978733          	sub	a4,a5,s1
   11270:	36e6cc63          	blt	a3,a4,115e8 <_malloc_r+0x4bc>
   11274:	01092a23          	sw	a6,20(s2)
   11278:	01092823          	sw	a6,16(s2)
   1127c:	34075063          	bgez	a4,115bc <_malloc_r+0x490>
   11280:	1ff00713          	li	a4,511
   11284:	00492503          	lw	a0,4(s2)
   11288:	24f76863          	bltu	a4,a5,114d8 <_malloc_r+0x3ac>
   1128c:	ff87f713          	andi	a4,a5,-8
   11290:	00870713          	addi	a4,a4,8
   11294:	00e90733          	add	a4,s2,a4
   11298:	00072683          	lw	a3,0(a4)
   1129c:	0057d613          	srli	a2,a5,0x5
   112a0:	00100793          	li	a5,1
   112a4:	00c797b3          	sll	a5,a5,a2
   112a8:	00f56533          	or	a0,a0,a5
   112ac:	ff870793          	addi	a5,a4,-8
   112b0:	00f42623          	sw	a5,12(s0)
   112b4:	00d42423          	sw	a3,8(s0)
   112b8:	00a92223          	sw	a0,4(s2)
   112bc:	00872023          	sw	s0,0(a4)
   112c0:	0086a623          	sw	s0,12(a3)
   112c4:	4025d793          	srai	a5,a1,0x2
   112c8:	00100613          	li	a2,1
   112cc:	00f61633          	sll	a2,a2,a5
   112d0:	0ac56a63          	bltu	a0,a2,11384 <_malloc_r+0x258>
   112d4:	00a677b3          	and	a5,a2,a0
   112d8:	02079463          	bnez	a5,11300 <_malloc_r+0x1d4>
   112dc:	00161613          	slli	a2,a2,0x1
   112e0:	ffc5f593          	andi	a1,a1,-4
   112e4:	00a677b3          	and	a5,a2,a0
   112e8:	00458593          	addi	a1,a1,4
   112ec:	00079a63          	bnez	a5,11300 <_malloc_r+0x1d4>
   112f0:	00161613          	slli	a2,a2,0x1
   112f4:	00a677b3          	and	a5,a2,a0
   112f8:	00458593          	addi	a1,a1,4
   112fc:	fe078ae3          	beqz	a5,112f0 <_malloc_r+0x1c4>
   11300:	00f00893          	li	a7,15
   11304:	00359313          	slli	t1,a1,0x3
   11308:	00690333          	add	t1,s2,t1
   1130c:	00030513          	mv	a0,t1
   11310:	00c52783          	lw	a5,12(a0)
   11314:	00058e13          	mv	t3,a1
   11318:	24f50263          	beq	a0,a5,1155c <_malloc_r+0x430>
   1131c:	0047a703          	lw	a4,4(a5)
   11320:	00078413          	mv	s0,a5
   11324:	00c7a783          	lw	a5,12(a5)
   11328:	ffc77713          	andi	a4,a4,-4
   1132c:	409706b3          	sub	a3,a4,s1
   11330:	24d8c263          	blt	a7,a3,11574 <_malloc_r+0x448>
   11334:	fe06c2e3          	bltz	a3,11318 <_malloc_r+0x1ec>
   11338:	00e40733          	add	a4,s0,a4
   1133c:	00472683          	lw	a3,4(a4)
   11340:	00842603          	lw	a2,8(s0)
   11344:	00098513          	mv	a0,s3
   11348:	0016e693          	ori	a3,a3,1
   1134c:	00d72223          	sw	a3,4(a4)
   11350:	00f62623          	sw	a5,12(a2)
   11354:	00c7a423          	sw	a2,8(a5)
   11358:	594000ef          	jal	ra,118ec <__malloc_unlock>
   1135c:	00840513          	addi	a0,s0,8
   11360:	e59ff06f          	j	111b8 <_malloc_r+0x8c>
   11364:	00c00793          	li	a5,12
   11368:	00f9a023          	sw	a5,0(s3)
   1136c:	00000513          	li	a0,0
   11370:	e49ff06f          	j	111b8 <_malloc_r+0x8c>
   11374:	20000613          	li	a2,512
   11378:	04000593          	li	a1,64
   1137c:	03f00813          	li	a6,63
   11380:	e8dff06f          	j	1120c <_malloc_r+0xe0>
   11384:	00892403          	lw	s0,8(s2)
   11388:	01612823          	sw	s6,16(sp)
   1138c:	00442783          	lw	a5,4(s0)
   11390:	ffc7fb13          	andi	s6,a5,-4
   11394:	009b6863          	bltu	s6,s1,113a4 <_malloc_r+0x278>
   11398:	409b0733          	sub	a4,s6,s1
   1139c:	00f00793          	li	a5,15
   113a0:	0ce7ca63          	blt	a5,a4,11474 <_malloc_r+0x348>
   113a4:	01912223          	sw	s9,4(sp)
   113a8:	01512a23          	sw	s5,20(sp)
   113ac:	f101a703          	lw	a4,-240(gp) # 239d8 <__malloc_sbrk_base>
   113b0:	f2c1aa83          	lw	s5,-212(gp) # 239f4 <__malloc_top_pad>
   113b4:	01412c23          	sw	s4,24(sp)
   113b8:	01712623          	sw	s7,12(sp)
   113bc:	fff00793          	li	a5,-1
   113c0:	01640a33          	add	s4,s0,s6
   113c4:	01548ab3          	add	s5,s1,s5
   113c8:	3cf70663          	beq	a4,a5,11794 <_malloc_r+0x668>
   113cc:	000017b7          	lui	a5,0x1
   113d0:	00f78793          	addi	a5,a5,15 # 100f <exit-0xf085>
   113d4:	00fa8ab3          	add	s5,s5,a5
   113d8:	fffff7b7          	lui	a5,0xfffff
   113dc:	00fafab3          	and	s5,s5,a5
   113e0:	000a8593          	mv	a1,s5
   113e4:	00098513          	mv	a0,s3
   113e8:	238050ef          	jal	ra,16620 <_sbrk_r>
   113ec:	fff00793          	li	a5,-1
   113f0:	00050b93          	mv	s7,a0
   113f4:	44f50a63          	beq	a0,a5,11848 <_malloc_r+0x71c>
   113f8:	01812423          	sw	s8,8(sp)
   113fc:	23456e63          	bltu	a0,s4,11638 <_malloc_r+0x50c>
   11400:	08c18c13          	addi	s8,gp,140 # 23b54 <__malloc_current_mallinfo>
   11404:	000c2583          	lw	a1,0(s8)
   11408:	00ba85b3          	add	a1,s5,a1
   1140c:	00bc2023          	sw	a1,0(s8)
   11410:	00058713          	mv	a4,a1
   11414:	2aaa1663          	bne	s4,a0,116c0 <_malloc_r+0x594>
   11418:	01451793          	slli	a5,a0,0x14
   1141c:	2a079263          	bnez	a5,116c0 <_malloc_r+0x594>
   11420:	00892b83          	lw	s7,8(s2)
   11424:	015b07b3          	add	a5,s6,s5
   11428:	0017e793          	ori	a5,a5,1
   1142c:	00fba223          	sw	a5,4(s7)
   11430:	f281a683          	lw	a3,-216(gp) # 239f0 <__malloc_max_sbrked_mem>
   11434:	00b6f463          	bgeu	a3,a1,1143c <_malloc_r+0x310>
   11438:	f2b1a423          	sw	a1,-216(gp) # 239f0 <__malloc_max_sbrked_mem>
   1143c:	f241a683          	lw	a3,-220(gp) # 239ec <__malloc_max_total_mem>
   11440:	00b6f463          	bgeu	a3,a1,11448 <_malloc_r+0x31c>
   11444:	f2b1a223          	sw	a1,-220(gp) # 239ec <__malloc_max_total_mem>
   11448:	00812c03          	lw	s8,8(sp)
   1144c:	000b8413          	mv	s0,s7
   11450:	ffc7f793          	andi	a5,a5,-4
   11454:	40978733          	sub	a4,a5,s1
   11458:	3897ea63          	bltu	a5,s1,117ec <_malloc_r+0x6c0>
   1145c:	00f00793          	li	a5,15
   11460:	38e7d663          	bge	a5,a4,117ec <_malloc_r+0x6c0>
   11464:	01812a03          	lw	s4,24(sp)
   11468:	01412a83          	lw	s5,20(sp)
   1146c:	00c12b83          	lw	s7,12(sp)
   11470:	00412c83          	lw	s9,4(sp)
   11474:	0014e793          	ori	a5,s1,1
   11478:	00f42223          	sw	a5,4(s0)
   1147c:	009404b3          	add	s1,s0,s1
   11480:	00992423          	sw	s1,8(s2)
   11484:	00176713          	ori	a4,a4,1
   11488:	00098513          	mv	a0,s3
   1148c:	00e4a223          	sw	a4,4(s1)
   11490:	45c000ef          	jal	ra,118ec <__malloc_unlock>
   11494:	02c12083          	lw	ra,44(sp)
   11498:	00840513          	addi	a0,s0,8
   1149c:	02812403          	lw	s0,40(sp)
   114a0:	01012b03          	lw	s6,16(sp)
   114a4:	02412483          	lw	s1,36(sp)
   114a8:	02012903          	lw	s2,32(sp)
   114ac:	01c12983          	lw	s3,28(sp)
   114b0:	03010113          	addi	sp,sp,48
   114b4:	00008067          	ret
   114b8:	00492503          	lw	a0,4(s2)
   114bc:	e09ff06f          	j	112c4 <_malloc_r+0x198>
   114c0:	00842603          	lw	a2,8(s0)
   114c4:	cd1ff06f          	j	11194 <_malloc_r+0x68>
   114c8:	00c7a403          	lw	s0,12(a5) # fffff00c <__BSS_END__+0xfffdb300>
   114cc:	00258593          	addi	a1,a1,2
   114d0:	d88780e3          	beq	a5,s0,11250 <_malloc_r+0x124>
   114d4:	cb1ff06f          	j	11184 <_malloc_r+0x58>
   114d8:	0097d713          	srli	a4,a5,0x9
   114dc:	00400693          	li	a3,4
   114e0:	14e6f263          	bgeu	a3,a4,11624 <_malloc_r+0x4f8>
   114e4:	01400693          	li	a3,20
   114e8:	32e6e463          	bltu	a3,a4,11810 <_malloc_r+0x6e4>
   114ec:	05c70613          	addi	a2,a4,92
   114f0:	05b70693          	addi	a3,a4,91
   114f4:	00361613          	slli	a2,a2,0x3
   114f8:	00c90633          	add	a2,s2,a2
   114fc:	00062703          	lw	a4,0(a2)
   11500:	ff860613          	addi	a2,a2,-8
   11504:	00e61863          	bne	a2,a4,11514 <_malloc_r+0x3e8>
   11508:	2940006f          	j	1179c <_malloc_r+0x670>
   1150c:	00872703          	lw	a4,8(a4)
   11510:	00e60863          	beq	a2,a4,11520 <_malloc_r+0x3f4>
   11514:	00472683          	lw	a3,4(a4)
   11518:	ffc6f693          	andi	a3,a3,-4
   1151c:	fed7e8e3          	bltu	a5,a3,1150c <_malloc_r+0x3e0>
   11520:	00c72603          	lw	a2,12(a4)
   11524:	00c42623          	sw	a2,12(s0)
   11528:	00e42423          	sw	a4,8(s0)
   1152c:	00862423          	sw	s0,8(a2)
   11530:	00872623          	sw	s0,12(a4)
   11534:	d91ff06f          	j	112c4 <_malloc_r+0x198>
   11538:	01400713          	li	a4,20
   1153c:	10f77863          	bgeu	a4,a5,1164c <_malloc_r+0x520>
   11540:	05400713          	li	a4,84
   11544:	2ef76463          	bltu	a4,a5,1182c <_malloc_r+0x700>
   11548:	00c4d793          	srli	a5,s1,0xc
   1154c:	06f78593          	addi	a1,a5,111
   11550:	06e78813          	addi	a6,a5,110
   11554:	00359613          	slli	a2,a1,0x3
   11558:	cb5ff06f          	j	1120c <_malloc_r+0xe0>
   1155c:	001e0e13          	addi	t3,t3,1
   11560:	003e7793          	andi	a5,t3,3
   11564:	00850513          	addi	a0,a0,8
   11568:	10078063          	beqz	a5,11668 <_malloc_r+0x53c>
   1156c:	00c52783          	lw	a5,12(a0)
   11570:	da9ff06f          	j	11318 <_malloc_r+0x1ec>
   11574:	00842603          	lw	a2,8(s0)
   11578:	0014e593          	ori	a1,s1,1
   1157c:	00b42223          	sw	a1,4(s0)
   11580:	00f62623          	sw	a5,12(a2)
   11584:	00c7a423          	sw	a2,8(a5)
   11588:	009404b3          	add	s1,s0,s1
   1158c:	00992a23          	sw	s1,20(s2)
   11590:	00992823          	sw	s1,16(s2)
   11594:	0016e793          	ori	a5,a3,1
   11598:	0104a623          	sw	a6,12(s1)
   1159c:	0104a423          	sw	a6,8(s1)
   115a0:	00f4a223          	sw	a5,4(s1)
   115a4:	00e40733          	add	a4,s0,a4
   115a8:	00098513          	mv	a0,s3
   115ac:	00d72023          	sw	a3,0(a4)
   115b0:	33c000ef          	jal	ra,118ec <__malloc_unlock>
   115b4:	00840513          	addi	a0,s0,8
   115b8:	c01ff06f          	j	111b8 <_malloc_r+0x8c>
   115bc:	00f407b3          	add	a5,s0,a5
   115c0:	0047a703          	lw	a4,4(a5)
   115c4:	00098513          	mv	a0,s3
   115c8:	00176713          	ori	a4,a4,1
   115cc:	00e7a223          	sw	a4,4(a5)
   115d0:	31c000ef          	jal	ra,118ec <__malloc_unlock>
   115d4:	00840513          	addi	a0,s0,8
   115d8:	be1ff06f          	j	111b8 <_malloc_r+0x8c>
   115dc:	0034d593          	srli	a1,s1,0x3
   115e0:	00848793          	addi	a5,s1,8
   115e4:	b89ff06f          	j	1116c <_malloc_r+0x40>
   115e8:	0014e693          	ori	a3,s1,1
   115ec:	00d42223          	sw	a3,4(s0)
   115f0:	009404b3          	add	s1,s0,s1
   115f4:	00992a23          	sw	s1,20(s2)
   115f8:	00992823          	sw	s1,16(s2)
   115fc:	00176693          	ori	a3,a4,1
   11600:	0104a623          	sw	a6,12(s1)
   11604:	0104a423          	sw	a6,8(s1)
   11608:	00d4a223          	sw	a3,4(s1)
   1160c:	00f407b3          	add	a5,s0,a5
   11610:	00098513          	mv	a0,s3
   11614:	00e7a023          	sw	a4,0(a5)
   11618:	2d4000ef          	jal	ra,118ec <__malloc_unlock>
   1161c:	00840513          	addi	a0,s0,8
   11620:	b99ff06f          	j	111b8 <_malloc_r+0x8c>
   11624:	0067d713          	srli	a4,a5,0x6
   11628:	03970613          	addi	a2,a4,57
   1162c:	03870693          	addi	a3,a4,56
   11630:	00361613          	slli	a2,a2,0x3
   11634:	ec5ff06f          	j	114f8 <_malloc_r+0x3cc>
   11638:	07240c63          	beq	s0,s2,116b0 <_malloc_r+0x584>
   1163c:	00892403          	lw	s0,8(s2)
   11640:	00812c03          	lw	s8,8(sp)
   11644:	00442783          	lw	a5,4(s0)
   11648:	e09ff06f          	j	11450 <_malloc_r+0x324>
   1164c:	05c78593          	addi	a1,a5,92
   11650:	05b78813          	addi	a6,a5,91
   11654:	00359613          	slli	a2,a1,0x3
   11658:	bb5ff06f          	j	1120c <_malloc_r+0xe0>
   1165c:	00832783          	lw	a5,8(t1)
   11660:	fff58593          	addi	a1,a1,-1
   11664:	26679e63          	bne	a5,t1,118e0 <_malloc_r+0x7b4>
   11668:	0035f793          	andi	a5,a1,3
   1166c:	ff830313          	addi	t1,t1,-8
   11670:	fe0796e3          	bnez	a5,1165c <_malloc_r+0x530>
   11674:	00492703          	lw	a4,4(s2)
   11678:	fff64793          	not	a5,a2
   1167c:	00e7f7b3          	and	a5,a5,a4
   11680:	00f92223          	sw	a5,4(s2)
   11684:	00161613          	slli	a2,a2,0x1
   11688:	cec7eee3          	bltu	a5,a2,11384 <_malloc_r+0x258>
   1168c:	ce060ce3          	beqz	a2,11384 <_malloc_r+0x258>
   11690:	00f67733          	and	a4,a2,a5
   11694:	00071a63          	bnez	a4,116a8 <_malloc_r+0x57c>
   11698:	00161613          	slli	a2,a2,0x1
   1169c:	00f67733          	and	a4,a2,a5
   116a0:	004e0e13          	addi	t3,t3,4
   116a4:	fe070ae3          	beqz	a4,11698 <_malloc_r+0x56c>
   116a8:	000e0593          	mv	a1,t3
   116ac:	c59ff06f          	j	11304 <_malloc_r+0x1d8>
   116b0:	08c18c13          	addi	s8,gp,140 # 23b54 <__malloc_current_mallinfo>
   116b4:	000c2703          	lw	a4,0(s8)
   116b8:	00ea8733          	add	a4,s5,a4
   116bc:	00ec2023          	sw	a4,0(s8)
   116c0:	f101a683          	lw	a3,-240(gp) # 239d8 <__malloc_sbrk_base>
   116c4:	fff00793          	li	a5,-1
   116c8:	18f68663          	beq	a3,a5,11854 <_malloc_r+0x728>
   116cc:	414b87b3          	sub	a5,s7,s4
   116d0:	00e787b3          	add	a5,a5,a4
   116d4:	00fc2023          	sw	a5,0(s8)
   116d8:	007bfc93          	andi	s9,s7,7
   116dc:	0c0c8c63          	beqz	s9,117b4 <_malloc_r+0x688>
   116e0:	419b8bb3          	sub	s7,s7,s9
   116e4:	000017b7          	lui	a5,0x1
   116e8:	00878793          	addi	a5,a5,8 # 1008 <exit-0xf08c>
   116ec:	008b8b93          	addi	s7,s7,8
   116f0:	419785b3          	sub	a1,a5,s9
   116f4:	015b8ab3          	add	s5,s7,s5
   116f8:	415585b3          	sub	a1,a1,s5
   116fc:	01459593          	slli	a1,a1,0x14
   11700:	0145da13          	srli	s4,a1,0x14
   11704:	000a0593          	mv	a1,s4
   11708:	00098513          	mv	a0,s3
   1170c:	715040ef          	jal	ra,16620 <_sbrk_r>
   11710:	fff00793          	li	a5,-1
   11714:	18f50063          	beq	a0,a5,11894 <_malloc_r+0x768>
   11718:	41750533          	sub	a0,a0,s7
   1171c:	01450ab3          	add	s5,a0,s4
   11720:	000c2703          	lw	a4,0(s8)
   11724:	01792423          	sw	s7,8(s2)
   11728:	001ae793          	ori	a5,s5,1
   1172c:	00ea05b3          	add	a1,s4,a4
   11730:	00bc2023          	sw	a1,0(s8)
   11734:	00fba223          	sw	a5,4(s7)
   11738:	cf240ce3          	beq	s0,s2,11430 <_malloc_r+0x304>
   1173c:	00f00693          	li	a3,15
   11740:	0b66f063          	bgeu	a3,s6,117e0 <_malloc_r+0x6b4>
   11744:	00442703          	lw	a4,4(s0)
   11748:	ff4b0793          	addi	a5,s6,-12
   1174c:	ff87f793          	andi	a5,a5,-8
   11750:	00177713          	andi	a4,a4,1
   11754:	00f76733          	or	a4,a4,a5
   11758:	00e42223          	sw	a4,4(s0)
   1175c:	00500613          	li	a2,5
   11760:	00f40733          	add	a4,s0,a5
   11764:	00c72223          	sw	a2,4(a4)
   11768:	00c72423          	sw	a2,8(a4)
   1176c:	00f6e663          	bltu	a3,a5,11778 <_malloc_r+0x64c>
   11770:	004ba783          	lw	a5,4(s7)
   11774:	cbdff06f          	j	11430 <_malloc_r+0x304>
   11778:	00840593          	addi	a1,s0,8
   1177c:	00098513          	mv	a0,s3
   11780:	ea8ff0ef          	jal	ra,10e28 <_free_r>
   11784:	00892b83          	lw	s7,8(s2)
   11788:	000c2583          	lw	a1,0(s8)
   1178c:	004ba783          	lw	a5,4(s7)
   11790:	ca1ff06f          	j	11430 <_malloc_r+0x304>
   11794:	010a8a93          	addi	s5,s5,16
   11798:	c49ff06f          	j	113e0 <_malloc_r+0x2b4>
   1179c:	4026d693          	srai	a3,a3,0x2
   117a0:	00100793          	li	a5,1
   117a4:	00d797b3          	sll	a5,a5,a3
   117a8:	00f56533          	or	a0,a0,a5
   117ac:	00a92223          	sw	a0,4(s2)
   117b0:	d75ff06f          	j	11524 <_malloc_r+0x3f8>
   117b4:	015b85b3          	add	a1,s7,s5
   117b8:	40b005b3          	neg	a1,a1
   117bc:	01459593          	slli	a1,a1,0x14
   117c0:	0145da13          	srli	s4,a1,0x14
   117c4:	000a0593          	mv	a1,s4
   117c8:	00098513          	mv	a0,s3
   117cc:	655040ef          	jal	ra,16620 <_sbrk_r>
   117d0:	fff00793          	li	a5,-1
   117d4:	f4f512e3          	bne	a0,a5,11718 <_malloc_r+0x5ec>
   117d8:	00000a13          	li	s4,0
   117dc:	f45ff06f          	j	11720 <_malloc_r+0x5f4>
   117e0:	00812c03          	lw	s8,8(sp)
   117e4:	00100793          	li	a5,1
   117e8:	00fba223          	sw	a5,4(s7)
   117ec:	00098513          	mv	a0,s3
   117f0:	0fc000ef          	jal	ra,118ec <__malloc_unlock>
   117f4:	00000513          	li	a0,0
   117f8:	01812a03          	lw	s4,24(sp)
   117fc:	01412a83          	lw	s5,20(sp)
   11800:	01012b03          	lw	s6,16(sp)
   11804:	00c12b83          	lw	s7,12(sp)
   11808:	00412c83          	lw	s9,4(sp)
   1180c:	9adff06f          	j	111b8 <_malloc_r+0x8c>
   11810:	05400693          	li	a3,84
   11814:	04e6e463          	bltu	a3,a4,1185c <_malloc_r+0x730>
   11818:	00c7d713          	srli	a4,a5,0xc
   1181c:	06f70613          	addi	a2,a4,111
   11820:	06e70693          	addi	a3,a4,110
   11824:	00361613          	slli	a2,a2,0x3
   11828:	cd1ff06f          	j	114f8 <_malloc_r+0x3cc>
   1182c:	15400713          	li	a4,340
   11830:	04f76463          	bltu	a4,a5,11878 <_malloc_r+0x74c>
   11834:	00f4d793          	srli	a5,s1,0xf
   11838:	07878593          	addi	a1,a5,120
   1183c:	07778813          	addi	a6,a5,119
   11840:	00359613          	slli	a2,a1,0x3
   11844:	9c9ff06f          	j	1120c <_malloc_r+0xe0>
   11848:	00892403          	lw	s0,8(s2)
   1184c:	00442783          	lw	a5,4(s0)
   11850:	c01ff06f          	j	11450 <_malloc_r+0x324>
   11854:	f171a823          	sw	s7,-240(gp) # 239d8 <__malloc_sbrk_base>
   11858:	e81ff06f          	j	116d8 <_malloc_r+0x5ac>
   1185c:	15400693          	li	a3,340
   11860:	04e6e463          	bltu	a3,a4,118a8 <_malloc_r+0x77c>
   11864:	00f7d713          	srli	a4,a5,0xf
   11868:	07870613          	addi	a2,a4,120
   1186c:	07770693          	addi	a3,a4,119
   11870:	00361613          	slli	a2,a2,0x3
   11874:	c85ff06f          	j	114f8 <_malloc_r+0x3cc>
   11878:	55400713          	li	a4,1364
   1187c:	04f76463          	bltu	a4,a5,118c4 <_malloc_r+0x798>
   11880:	0124d793          	srli	a5,s1,0x12
   11884:	07d78593          	addi	a1,a5,125
   11888:	07c78813          	addi	a6,a5,124
   1188c:	00359613          	slli	a2,a1,0x3
   11890:	97dff06f          	j	1120c <_malloc_r+0xe0>
   11894:	ff8c8c93          	addi	s9,s9,-8
   11898:	019a8ab3          	add	s5,s5,s9
   1189c:	417a8ab3          	sub	s5,s5,s7
   118a0:	00000a13          	li	s4,0
   118a4:	e7dff06f          	j	11720 <_malloc_r+0x5f4>
   118a8:	55400693          	li	a3,1364
   118ac:	02e6e463          	bltu	a3,a4,118d4 <_malloc_r+0x7a8>
   118b0:	0127d713          	srli	a4,a5,0x12
   118b4:	07d70613          	addi	a2,a4,125
   118b8:	07c70693          	addi	a3,a4,124
   118bc:	00361613          	slli	a2,a2,0x3
   118c0:	c39ff06f          	j	114f8 <_malloc_r+0x3cc>
   118c4:	3f800613          	li	a2,1016
   118c8:	07f00593          	li	a1,127
   118cc:	07e00813          	li	a6,126
   118d0:	93dff06f          	j	1120c <_malloc_r+0xe0>
   118d4:	3f800613          	li	a2,1016
   118d8:	07e00693          	li	a3,126
   118dc:	c1dff06f          	j	114f8 <_malloc_r+0x3cc>
   118e0:	00492783          	lw	a5,4(s2)
   118e4:	da1ff06f          	j	11684 <_malloc_r+0x558>

000118e8 <__malloc_lock>:
   118e8:	00008067          	ret

000118ec <__malloc_unlock>:
   118ec:	00008067          	ret

000118f0 <_vfprintf_r>:
   118f0:	e3010113          	addi	sp,sp,-464
   118f4:	1c112623          	sw	ra,460(sp)
   118f8:	1c812423          	sw	s0,456(sp)
   118fc:	1c912223          	sw	s1,452(sp)
   11900:	1b612823          	sw	s6,432(sp)
   11904:	00058493          	mv	s1,a1
   11908:	00060b13          	mv	s6,a2
   1190c:	00d12623          	sw	a3,12(sp)
   11910:	00050413          	mv	s0,a0
   11914:	02a12223          	sw	a0,36(sp)
   11918:	4f9040ef          	jal	ra,16610 <_localeconv_r>
   1191c:	00052703          	lw	a4,0(a0)
   11920:	00070513          	mv	a0,a4
   11924:	02e12623          	sw	a4,44(sp)
   11928:	060050ef          	jal	ra,16988 <strlen>
   1192c:	02a12423          	sw	a0,40(sp)
   11930:	0c012823          	sw	zero,208(sp)
   11934:	0c012a23          	sw	zero,212(sp)
   11938:	0c012c23          	sw	zero,216(sp)
   1193c:	0c012e23          	sw	zero,220(sp)
   11940:	00040863          	beqz	s0,11950 <_vfprintf_r+0x60>
   11944:	03442703          	lw	a4,52(s0)
   11948:	00071463          	bnez	a4,11950 <_vfprintf_r+0x60>
   1194c:	1150106f          	j	13260 <_vfprintf_r+0x1970>
   11950:	00c49703          	lh	a4,12(s1)
   11954:	01271693          	slli	a3,a4,0x12
   11958:	0206c663          	bltz	a3,11984 <_vfprintf_r+0x94>
   1195c:	0644a683          	lw	a3,100(s1)
   11960:	000025b7          	lui	a1,0x2
   11964:	ffffe637          	lui	a2,0xffffe
   11968:	00b76733          	or	a4,a4,a1
   1196c:	fff60613          	addi	a2,a2,-1 # ffffdfff <__BSS_END__+0xfffda2f3>
   11970:	01071713          	slli	a4,a4,0x10
   11974:	41075713          	srai	a4,a4,0x10
   11978:	00c6f6b3          	and	a3,a3,a2
   1197c:	00e49623          	sh	a4,12(s1)
   11980:	06d4a223          	sw	a3,100(s1)
   11984:	00877693          	andi	a3,a4,8
   11988:	30068463          	beqz	a3,11c90 <_vfprintf_r+0x3a0>
   1198c:	0104a683          	lw	a3,16(s1)
   11990:	30068063          	beqz	a3,11c90 <_vfprintf_r+0x3a0>
   11994:	01a77713          	andi	a4,a4,26
   11998:	00a00693          	li	a3,10
   1199c:	30d70c63          	beq	a4,a3,11cb4 <_vfprintf_r+0x3c4>
   119a0:	1b312e23          	sw	s3,444(sp)
   119a4:	1b512a23          	sw	s5,436(sp)
   119a8:	1b712623          	sw	s7,428(sp)
   119ac:	1ba12023          	sw	s10,416(sp)
   119b0:	00022737          	lui	a4,0x22
   119b4:	1d212023          	sw	s2,448(sp)
   119b8:	1b412c23          	sw	s4,440(sp)
   119bc:	1b812423          	sw	s8,424(sp)
   119c0:	1b912223          	sw	s9,420(sp)
   119c4:	19b12e23          	sw	s11,412(sp)
   119c8:	000b0d13          	mv	s10,s6
   119cc:	adc70793          	addi	a5,a4,-1316 # 21adc <__clzsi2+0x168>
   119d0:	000d4703          	lbu	a4,0(s10)
   119d4:	0ec10993          	addi	s3,sp,236
   119d8:	00022ab7          	lui	s5,0x22
   119dc:	0d312223          	sw	s3,196(sp)
   119e0:	0c012623          	sw	zero,204(sp)
   119e4:	0c012423          	sw	zero,200(sp)
   119e8:	00012c23          	sw	zero,24(sp)
   119ec:	02012823          	sw	zero,48(sp)
   119f0:	02012e23          	sw	zero,60(sp)
   119f4:	02012c23          	sw	zero,56(sp)
   119f8:	04012023          	sw	zero,64(sp)
   119fc:	04012223          	sw	zero,68(sp)
   11a00:	00012223          	sw	zero,4(sp)
   11a04:	00f12823          	sw	a5,16(sp)
   11a08:	02412b83          	lw	s7,36(sp)
   11a0c:	00098413          	mv	s0,s3
   11a10:	ce0a8a93          	addi	s5,s5,-800 # 21ce0 <zeroes.0>
   11a14:	22070063          	beqz	a4,11c34 <_vfprintf_r+0x344>
   11a18:	000d0913          	mv	s2,s10
   11a1c:	02500693          	li	a3,37
   11a20:	3ed70863          	beq	a4,a3,11e10 <_vfprintf_r+0x520>
   11a24:	00194703          	lbu	a4,1(s2)
   11a28:	00190913          	addi	s2,s2,1
   11a2c:	fe071ae3          	bnez	a4,11a20 <_vfprintf_r+0x130>
   11a30:	41a90a33          	sub	s4,s2,s10
   11a34:	21a90063          	beq	s2,s10,11c34 <_vfprintf_r+0x344>
   11a38:	0cc12683          	lw	a3,204(sp)
   11a3c:	0c812703          	lw	a4,200(sp)
   11a40:	01a42023          	sw	s10,0(s0)
   11a44:	014686b3          	add	a3,a3,s4
   11a48:	00170713          	addi	a4,a4,1
   11a4c:	01442223          	sw	s4,4(s0)
   11a50:	0cd12623          	sw	a3,204(sp)
   11a54:	0ce12423          	sw	a4,200(sp)
   11a58:	00700693          	li	a3,7
   11a5c:	00840413          	addi	s0,s0,8
   11a60:	3ce6c063          	blt	a3,a4,11e20 <_vfprintf_r+0x530>
   11a64:	00412783          	lw	a5,4(sp)
   11a68:	00094703          	lbu	a4,0(s2)
   11a6c:	014787b3          	add	a5,a5,s4
   11a70:	00f12223          	sw	a5,4(sp)
   11a74:	1c070063          	beqz	a4,11c34 <_vfprintf_r+0x344>
   11a78:	00194883          	lbu	a7,1(s2)
   11a7c:	0a0103a3          	sb	zero,167(sp)
   11a80:	00190913          	addi	s2,s2,1
   11a84:	fff00a13          	li	s4,-1
   11a88:	00000c93          	li	s9,0
   11a8c:	00000d93          	li	s11,0
   11a90:	05a00b13          	li	s6,90
   11a94:	00190913          	addi	s2,s2,1
   11a98:	fe088793          	addi	a5,a7,-32
   11a9c:	04fb6663          	bltu	s6,a5,11ae8 <_vfprintf_r+0x1f8>
   11aa0:	01012703          	lw	a4,16(sp)
   11aa4:	00279793          	slli	a5,a5,0x2
   11aa8:	00e787b3          	add	a5,a5,a4
   11aac:	0007a783          	lw	a5,0(a5)
   11ab0:	00078067          	jr	a5
   11ab4:	00000c93          	li	s9,0
   11ab8:	fd088793          	addi	a5,a7,-48
   11abc:	00900693          	li	a3,9
   11ac0:	00094883          	lbu	a7,0(s2)
   11ac4:	002c9713          	slli	a4,s9,0x2
   11ac8:	01970cb3          	add	s9,a4,s9
   11acc:	001c9c93          	slli	s9,s9,0x1
   11ad0:	01978cb3          	add	s9,a5,s9
   11ad4:	fd088793          	addi	a5,a7,-48
   11ad8:	00190913          	addi	s2,s2,1
   11adc:	fef6f2e3          	bgeu	a3,a5,11ac0 <_vfprintf_r+0x1d0>
   11ae0:	fe088793          	addi	a5,a7,-32
   11ae4:	fafb7ee3          	bgeu	s6,a5,11aa0 <_vfprintf_r+0x1b0>
   11ae8:	14088663          	beqz	a7,11c34 <_vfprintf_r+0x344>
   11aec:	13110623          	sb	a7,300(sp)
   11af0:	0a0103a3          	sb	zero,167(sp)
   11af4:	00100c13          	li	s8,1
   11af8:	00100b13          	li	s6,1
   11afc:	12c10d13          	addi	s10,sp,300
   11b00:	00012423          	sw	zero,8(sp)
   11b04:	00000a13          	li	s4,0
   11b08:	02012023          	sw	zero,32(sp)
   11b0c:	00012e23          	sw	zero,28(sp)
   11b10:	00012a23          	sw	zero,20(sp)
   11b14:	002df293          	andi	t0,s11,2
   11b18:	00028463          	beqz	t0,11b20 <_vfprintf_r+0x230>
   11b1c:	002c0c13          	addi	s8,s8,2
   11b20:	084dff93          	andi	t6,s11,132
   11b24:	0cc12603          	lw	a2,204(sp)
   11b28:	000f9663          	bnez	t6,11b34 <_vfprintf_r+0x244>
   11b2c:	418c8733          	sub	a4,s9,s8
   11b30:	46e04ce3          	bgtz	a4,127a8 <_vfprintf_r+0xeb8>
   11b34:	0a714703          	lbu	a4,167(sp)
   11b38:	02070a63          	beqz	a4,11b6c <_vfprintf_r+0x27c>
   11b3c:	0c812703          	lw	a4,200(sp)
   11b40:	0a710593          	addi	a1,sp,167
   11b44:	00b42023          	sw	a1,0(s0)
   11b48:	00160613          	addi	a2,a2,1
   11b4c:	00100593          	li	a1,1
   11b50:	00170713          	addi	a4,a4,1
   11b54:	00b42223          	sw	a1,4(s0)
   11b58:	0cc12623          	sw	a2,204(sp)
   11b5c:	0ce12423          	sw	a4,200(sp)
   11b60:	00700593          	li	a1,7
   11b64:	00840413          	addi	s0,s0,8
   11b68:	3ee5c463          	blt	a1,a4,11f50 <_vfprintf_r+0x660>
   11b6c:	02028a63          	beqz	t0,11ba0 <_vfprintf_r+0x2b0>
   11b70:	0c812703          	lw	a4,200(sp)
   11b74:	00200593          	li	a1,2
   11b78:	00260613          	addi	a2,a2,2
   11b7c:	00170713          	addi	a4,a4,1
   11b80:	0a810793          	addi	a5,sp,168
   11b84:	00b42223          	sw	a1,4(s0)
   11b88:	00f42023          	sw	a5,0(s0)
   11b8c:	0cc12623          	sw	a2,204(sp)
   11b90:	0ce12423          	sw	a4,200(sp)
   11b94:	00700593          	li	a1,7
   11b98:	00840413          	addi	s0,s0,8
   11b9c:	50e5cce3          	blt	a1,a4,128b4 <_vfprintf_r+0xfc4>
   11ba0:	08000713          	li	a4,128
   11ba4:	1eef8ee3          	beq	t6,a4,125a0 <_vfprintf_r+0xcb0>
   11ba8:	416a0a33          	sub	s4,s4,s6
   11bac:	2f4044e3          	bgtz	s4,12694 <_vfprintf_r+0xda4>
   11bb0:	100df713          	andi	a4,s11,256
   11bb4:	040718e3          	bnez	a4,12404 <_vfprintf_r+0xb14>
   11bb8:	0c812783          	lw	a5,200(sp)
   11bbc:	01660633          	add	a2,a2,s6
   11bc0:	01a42023          	sw	s10,0(s0)
   11bc4:	00178793          	addi	a5,a5,1
   11bc8:	01642223          	sw	s6,4(s0)
   11bcc:	0cc12623          	sw	a2,204(sp)
   11bd0:	0cf12423          	sw	a5,200(sp)
   11bd4:	00700713          	li	a4,7
   11bd8:	4cf74063          	blt	a4,a5,12098 <_vfprintf_r+0x7a8>
   11bdc:	00840413          	addi	s0,s0,8
   11be0:	004dfe13          	andi	t3,s11,4
   11be4:	000e0663          	beqz	t3,11bf0 <_vfprintf_r+0x300>
   11be8:	418c8a33          	sub	s4,s9,s8
   11bec:	4f404ce3          	bgtz	s4,128e4 <_vfprintf_r+0xff4>
   11bf0:	000c8313          	mv	t1,s9
   11bf4:	018cd463          	bge	s9,s8,11bfc <_vfprintf_r+0x30c>
   11bf8:	000c0313          	mv	t1,s8
   11bfc:	00412783          	lw	a5,4(sp)
   11c00:	006787b3          	add	a5,a5,t1
   11c04:	00f12223          	sw	a5,4(sp)
   11c08:	360618e3          	bnez	a2,12778 <_vfprintf_r+0xe88>
   11c0c:	00812783          	lw	a5,8(sp)
   11c10:	0c012423          	sw	zero,200(sp)
   11c14:	00078863          	beqz	a5,11c24 <_vfprintf_r+0x334>
   11c18:	00812583          	lw	a1,8(sp)
   11c1c:	000b8513          	mv	a0,s7
   11c20:	a08ff0ef          	jal	ra,10e28 <_free_r>
   11c24:	00098413          	mv	s0,s3
   11c28:	00090d13          	mv	s10,s2
   11c2c:	000d4703          	lbu	a4,0(s10)
   11c30:	de0714e3          	bnez	a4,11a18 <_vfprintf_r+0x128>
   11c34:	0cc12783          	lw	a5,204(sp)
   11c38:	00078463          	beqz	a5,11c40 <_vfprintf_r+0x350>
   11c3c:	3890106f          	j	137c4 <_vfprintf_r+0x1ed4>
   11c40:	00c4d783          	lhu	a5,12(s1)
   11c44:	1c012903          	lw	s2,448(sp)
   11c48:	1bc12983          	lw	s3,444(sp)
   11c4c:	0407f793          	andi	a5,a5,64
   11c50:	1b812a03          	lw	s4,440(sp)
   11c54:	1b412a83          	lw	s5,436(sp)
   11c58:	1ac12b83          	lw	s7,428(sp)
   11c5c:	1a812c03          	lw	s8,424(sp)
   11c60:	1a412c83          	lw	s9,420(sp)
   11c64:	1a012d03          	lw	s10,416(sp)
   11c68:	19c12d83          	lw	s11,412(sp)
   11c6c:	00078463          	beqz	a5,11c74 <_vfprintf_r+0x384>
   11c70:	1640206f          	j	13dd4 <_vfprintf_r+0x24e4>
   11c74:	1cc12083          	lw	ra,460(sp)
   11c78:	1c812403          	lw	s0,456(sp)
   11c7c:	00412503          	lw	a0,4(sp)
   11c80:	1c412483          	lw	s1,452(sp)
   11c84:	1b012b03          	lw	s6,432(sp)
   11c88:	1d010113          	addi	sp,sp,464
   11c8c:	00008067          	ret
   11c90:	02412503          	lw	a0,36(sp)
   11c94:	00048593          	mv	a1,s1
   11c98:	41c040ef          	jal	ra,160b4 <__swsetup_r>
   11c9c:	00050463          	beqz	a0,11ca4 <_vfprintf_r+0x3b4>
   11ca0:	1340206f          	j	13dd4 <_vfprintf_r+0x24e4>
   11ca4:	00c49703          	lh	a4,12(s1)
   11ca8:	00a00693          	li	a3,10
   11cac:	01a77713          	andi	a4,a4,26
   11cb0:	ced718e3          	bne	a4,a3,119a0 <_vfprintf_r+0xb0>
   11cb4:	00e49703          	lh	a4,14(s1)
   11cb8:	ce0744e3          	bltz	a4,119a0 <_vfprintf_r+0xb0>
   11cbc:	00c12683          	lw	a3,12(sp)
   11cc0:	02412503          	lw	a0,36(sp)
   11cc4:	000b0613          	mv	a2,s6
   11cc8:	00048593          	mv	a1,s1
   11ccc:	4c4020ef          	jal	ra,14190 <__sbprintf>
   11cd0:	00a12223          	sw	a0,4(sp)
   11cd4:	fa1ff06f          	j	11c74 <_vfprintf_r+0x384>
   11cd8:	000b8513          	mv	a0,s7
   11cdc:	135040ef          	jal	ra,16610 <_localeconv_r>
   11ce0:	00452783          	lw	a5,4(a0)
   11ce4:	00078513          	mv	a0,a5
   11ce8:	04f12223          	sw	a5,68(sp)
   11cec:	49d040ef          	jal	ra,16988 <strlen>
   11cf0:	00050793          	mv	a5,a0
   11cf4:	000b8513          	mv	a0,s7
   11cf8:	00078c13          	mv	s8,a5
   11cfc:	04f12023          	sw	a5,64(sp)
   11d00:	111040ef          	jal	ra,16610 <_localeconv_r>
   11d04:	00852703          	lw	a4,8(a0)
   11d08:	02e12c23          	sw	a4,56(sp)
   11d0c:	760c10e3          	bnez	s8,12c6c <_vfprintf_r+0x137c>
   11d10:	00094883          	lbu	a7,0(s2)
   11d14:	d81ff06f          	j	11a94 <_vfprintf_r+0x1a4>
   11d18:	00094883          	lbu	a7,0(s2)
   11d1c:	020ded93          	ori	s11,s11,32
   11d20:	d75ff06f          	j	11a94 <_vfprintf_r+0x1a4>
   11d24:	010ded93          	ori	s11,s11,16
   11d28:	020df793          	andi	a5,s11,32
   11d2c:	3a078e63          	beqz	a5,120e8 <_vfprintf_r+0x7f8>
   11d30:	00c12783          	lw	a5,12(sp)
   11d34:	00778c13          	addi	s8,a5,7
   11d38:	ff8c7c13          	andi	s8,s8,-8
   11d3c:	004c2783          	lw	a5,4(s8)
   11d40:	000c2b03          	lw	s6,0(s8)
   11d44:	008c0713          	addi	a4,s8,8
   11d48:	00e12623          	sw	a4,12(sp)
   11d4c:	00078813          	mv	a6,a5
   11d50:	3c07c663          	bltz	a5,1211c <_vfprintf_r+0x82c>
   11d54:	000d8613          	mv	a2,s11
   11d58:	4e0a4e63          	bltz	s4,12254 <_vfprintf_r+0x964>
   11d5c:	010b67b3          	or	a5,s6,a6
   11d60:	f7fdf613          	andi	a2,s11,-129
   11d64:	4e079863          	bnez	a5,12254 <_vfprintf_r+0x964>
   11d68:	4e0a1c63          	bnez	s4,12260 <_vfprintf_r+0x970>
   11d6c:	00000b13          	li	s6,0
   11d70:	00060d93          	mv	s11,a2
   11d74:	19010d13          	addi	s10,sp,400
   11d78:	0a714703          	lbu	a4,167(sp)
   11d7c:	000a0c13          	mv	s8,s4
   11d80:	016a5463          	bge	s4,s6,11d88 <_vfprintf_r+0x498>
   11d84:	000b0c13          	mv	s8,s6
   11d88:	00012423          	sw	zero,8(sp)
   11d8c:	02012023          	sw	zero,32(sp)
   11d90:	00012e23          	sw	zero,28(sp)
   11d94:	00012a23          	sw	zero,20(sp)
   11d98:	d6070ee3          	beqz	a4,11b14 <_vfprintf_r+0x224>
   11d9c:	001c0c13          	addi	s8,s8,1
   11da0:	d75ff06f          	j	11b14 <_vfprintf_r+0x224>
   11da4:	010ded93          	ori	s11,s11,16
   11da8:	020df793          	andi	a5,s11,32
   11dac:	30078663          	beqz	a5,120b8 <_vfprintf_r+0x7c8>
   11db0:	00c12783          	lw	a5,12(sp)
   11db4:	00778c13          	addi	s8,a5,7
   11db8:	ff8c7c13          	andi	s8,s8,-8
   11dbc:	000c2b03          	lw	s6,0(s8)
   11dc0:	004c2803          	lw	a6,4(s8)
   11dc4:	008c0793          	addi	a5,s8,8
   11dc8:	00f12623          	sw	a5,12(sp)
   11dcc:	bffdf613          	andi	a2,s11,-1025
   11dd0:	00000793          	li	a5,0
   11dd4:	00000693          	li	a3,0
   11dd8:	0ad103a3          	sb	a3,167(sp)
   11ddc:	360a4263          	bltz	s4,12140 <_vfprintf_r+0x850>
   11de0:	010b66b3          	or	a3,s6,a6
   11de4:	f7f67d93          	andi	s11,a2,-129
   11de8:	1a069ce3          	bnez	a3,127a0 <_vfprintf_r+0xeb0>
   11dec:	740a1c63          	bnez	s4,12544 <_vfprintf_r+0xc54>
   11df0:	5e0796e3          	bnez	a5,12bdc <_vfprintf_r+0x12ec>
   11df4:	00167b13          	andi	s6,a2,1
   11df8:	19010d13          	addi	s10,sp,400
   11dfc:	f60b0ee3          	beqz	s6,11d78 <_vfprintf_r+0x488>
   11e00:	03000793          	li	a5,48
   11e04:	18f107a3          	sb	a5,399(sp)
   11e08:	18f10d13          	addi	s10,sp,399
   11e0c:	f6dff06f          	j	11d78 <_vfprintf_r+0x488>
   11e10:	41a90a33          	sub	s4,s2,s10
   11e14:	c3a912e3          	bne	s2,s10,11a38 <_vfprintf_r+0x148>
   11e18:	00094703          	lbu	a4,0(s2)
   11e1c:	c59ff06f          	j	11a74 <_vfprintf_r+0x184>
   11e20:	0c410613          	addi	a2,sp,196
   11e24:	00048593          	mv	a1,s1
   11e28:	000b8513          	mv	a0,s7
   11e2c:	554020ef          	jal	ra,14380 <__sprint_r>
   11e30:	e00518e3          	bnez	a0,11c40 <_vfprintf_r+0x350>
   11e34:	00098413          	mv	s0,s3
   11e38:	c2dff06f          	j	11a64 <_vfprintf_r+0x174>
   11e3c:	008df713          	andi	a4,s11,8
   11e40:	600714e3          	bnez	a4,12c48 <_vfprintf_r+0x1358>
   11e44:	00c12783          	lw	a5,12(sp)
   11e48:	09010513          	addi	a0,sp,144
   11e4c:	01112423          	sw	a7,8(sp)
   11e50:	00778c13          	addi	s8,a5,7
   11e54:	ff8c7c13          	andi	s8,s8,-8
   11e58:	000c2583          	lw	a1,0(s8)
   11e5c:	004c2603          	lw	a2,4(s8)
   11e60:	008c0793          	addi	a5,s8,8
   11e64:	00f12623          	sw	a5,12(sp)
   11e68:	02d0f0ef          	jal	ra,21694 <__extenddftf2>
   11e6c:	09012583          	lw	a1,144(sp)
   11e70:	09412603          	lw	a2,148(sp)
   11e74:	09812683          	lw	a3,152(sp)
   11e78:	09c12703          	lw	a4,156(sp)
   11e7c:	00812883          	lw	a7,8(sp)
   11e80:	0d010513          	addi	a0,sp,208
   11e84:	01112423          	sw	a7,8(sp)
   11e88:	0ce12e23          	sw	a4,220(sp)
   11e8c:	0cb12823          	sw	a1,208(sp)
   11e90:	0cc12a23          	sw	a2,212(sp)
   11e94:	0cd12c23          	sw	a3,216(sp)
   11e98:	1cc050ef          	jal	ra,17064 <_ldcheck>
   11e9c:	0aa12623          	sw	a0,172(sp)
   11ea0:	00200713          	li	a4,2
   11ea4:	00812883          	lw	a7,8(sp)
   11ea8:	00e51463          	bne	a0,a4,11eb0 <_vfprintf_r+0x5c0>
   11eac:	4100106f          	j	132bc <_vfprintf_r+0x19cc>
   11eb0:	00100713          	li	a4,1
   11eb4:	00e51463          	bne	a0,a4,11ebc <_vfprintf_r+0x5cc>
   11eb8:	5640106f          	j	1341c <_vfprintf_r+0x1b2c>
   11ebc:	06100713          	li	a4,97
   11ec0:	00e89463          	bne	a7,a4,11ec8 <_vfprintf_r+0x5d8>
   11ec4:	7b10006f          	j	12e74 <_vfprintf_r+0x1584>
   11ec8:	04100713          	li	a4,65
   11ecc:	05800793          	li	a5,88
   11ed0:	00e89463          	bne	a7,a4,11ed8 <_vfprintf_r+0x5e8>
   11ed4:	7a50006f          	j	12e78 <_vfprintf_r+0x1588>
   11ed8:	fff00713          	li	a4,-1
   11edc:	00ea1463          	bne	s4,a4,11ee4 <_vfprintf_r+0x5f4>
   11ee0:	0ec0206f          	j	13fcc <_vfprintf_r+0x26dc>
   11ee4:	fdf8f713          	andi	a4,a7,-33
   11ee8:	04700693          	li	a3,71
   11eec:	00012423          	sw	zero,8(sp)
   11ef0:	00d71663          	bne	a4,a3,11efc <_vfprintf_r+0x60c>
   11ef4:	000a1463          	bnez	s4,11efc <_vfprintf_r+0x60c>
   11ef8:	00100a13          	li	s4,1
   11efc:	0dc12c03          	lw	s8,220(sp)
   11f00:	100de793          	ori	a5,s11,256
   11f04:	04f12423          	sw	a5,72(sp)
   11f08:	02012a23          	sw	zero,52(sp)
   11f0c:	0d012f83          	lw	t6,208(sp)
   11f10:	0d412f03          	lw	t5,212(sp)
   11f14:	0d812e83          	lw	t4,216(sp)
   11f18:	000c5a63          	bgez	s8,11f2c <_vfprintf_r+0x63c>
   11f1c:	80000737          	lui	a4,0x80000
   11f20:	02d00793          	li	a5,45
   11f24:	01874c33          	xor	s8,a4,s8
   11f28:	02f12a23          	sw	a5,52(sp)
   11f2c:	fbf88713          	addi	a4,a7,-65
   11f30:	02500693          	li	a3,37
   11f34:	78e6e6e3          	bltu	a3,a4,12ec0 <_vfprintf_r+0x15d0>
   11f38:	000226b7          	lui	a3,0x22
   11f3c:	00271713          	slli	a4,a4,0x2
   11f40:	c4868693          	addi	a3,a3,-952 # 21c48 <__clzsi2+0x2d4>
   11f44:	00d70733          	add	a4,a4,a3
   11f48:	00072703          	lw	a4,0(a4) # 80000000 <__BSS_END__+0x7ffdc2f4>
   11f4c:	00070067          	jr	a4
   11f50:	0c410613          	addi	a2,sp,196
   11f54:	00048593          	mv	a1,s1
   11f58:	000b8513          	mv	a0,s7
   11f5c:	05112623          	sw	a7,76(sp)
   11f60:	05f12423          	sw	t6,72(sp)
   11f64:	02512a23          	sw	t0,52(sp)
   11f68:	418020ef          	jal	ra,14380 <__sprint_r>
   11f6c:	020510e3          	bnez	a0,1278c <_vfprintf_r+0xe9c>
   11f70:	0cc12603          	lw	a2,204(sp)
   11f74:	04c12883          	lw	a7,76(sp)
   11f78:	04812f83          	lw	t6,72(sp)
   11f7c:	03412283          	lw	t0,52(sp)
   11f80:	00098413          	mv	s0,s3
   11f84:	be9ff06f          	j	11b6c <_vfprintf_r+0x27c>
   11f88:	0c812a03          	lw	s4,200(sp)
   11f8c:	01812783          	lw	a5,24(sp)
   11f90:	00100713          	li	a4,1
   11f94:	01a42023          	sw	s10,0(s0)
   11f98:	00160613          	addi	a2,a2,1
   11f9c:	001a0a13          	addi	s4,s4,1
   11fa0:	00840b13          	addi	s6,s0,8
   11fa4:	34f752e3          	bge	a4,a5,12ae8 <_vfprintf_r+0x11f8>
   11fa8:	00100713          	li	a4,1
   11fac:	00e42223          	sw	a4,4(s0)
   11fb0:	0cc12623          	sw	a2,204(sp)
   11fb4:	0d412423          	sw	s4,200(sp)
   11fb8:	00700713          	li	a4,7
   11fbc:	01475463          	bge	a4,s4,11fc4 <_vfprintf_r+0x6d4>
   11fc0:	0fc0106f          	j	130bc <_vfprintf_r+0x17cc>
   11fc4:	02812783          	lw	a5,40(sp)
   11fc8:	02c12703          	lw	a4,44(sp)
   11fcc:	001a0a13          	addi	s4,s4,1
   11fd0:	00f60633          	add	a2,a2,a5
   11fd4:	00eb2023          	sw	a4,0(s6)
   11fd8:	00fb2223          	sw	a5,4(s6)
   11fdc:	0cc12623          	sw	a2,204(sp)
   11fe0:	0d412423          	sw	s4,200(sp)
   11fe4:	00700713          	li	a4,7
   11fe8:	008b0b13          	addi	s6,s6,8
   11fec:	01475463          	bge	a4,s4,11ff4 <_vfprintf_r+0x704>
   11ff0:	0f00106f          	j	130e0 <_vfprintf_r+0x17f0>
   11ff4:	0d012703          	lw	a4,208(sp)
   11ff8:	01812783          	lw	a5,24(sp)
   11ffc:	08010593          	addi	a1,sp,128
   12000:	08e12823          	sw	a4,144(sp)
   12004:	0d412703          	lw	a4,212(sp)
   12008:	09010513          	addi	a0,sp,144
   1200c:	00c12a23          	sw	a2,20(sp)
   12010:	08e12a23          	sw	a4,148(sp)
   12014:	0d812703          	lw	a4,216(sp)
   12018:	08012023          	sw	zero,128(sp)
   1201c:	08012223          	sw	zero,132(sp)
   12020:	08e12c23          	sw	a4,152(sp)
   12024:	0dc12703          	lw	a4,220(sp)
   12028:	08012423          	sw	zero,136(sp)
   1202c:	08012623          	sw	zero,140(sp)
   12030:	08e12e23          	sw	a4,156(sp)
   12034:	fff78413          	addi	s0,a5,-1
   12038:	7c40c0ef          	jal	ra,1e7fc <__eqtf2>
   1203c:	01412603          	lw	a2,20(sp)
   12040:	2e0504e3          	beqz	a0,12b28 <_vfprintf_r+0x1238>
   12044:	001d0793          	addi	a5,s10,1
   12048:	001a0a13          	addi	s4,s4,1
   1204c:	00860633          	add	a2,a2,s0
   12050:	00fb2023          	sw	a5,0(s6)
   12054:	008b2223          	sw	s0,4(s6)
   12058:	0cc12623          	sw	a2,204(sp)
   1205c:	0d412423          	sw	s4,200(sp)
   12060:	00700793          	li	a5,7
   12064:	008b0b13          	addi	s6,s6,8
   12068:	2947cee3          	blt	a5,s4,12b04 <_vfprintf_r+0x1214>
   1206c:	03c12683          	lw	a3,60(sp)
   12070:	0b410713          	addi	a4,sp,180
   12074:	001a0793          	addi	a5,s4,1
   12078:	00c68633          	add	a2,a3,a2
   1207c:	00eb2023          	sw	a4,0(s6)
   12080:	00db2223          	sw	a3,4(s6)
   12084:	0cc12623          	sw	a2,204(sp)
   12088:	0cf12423          	sw	a5,200(sp)
   1208c:	00700713          	li	a4,7
   12090:	008b0413          	addi	s0,s6,8
   12094:	b4f756e3          	bge	a4,a5,11be0 <_vfprintf_r+0x2f0>
   12098:	0c410613          	addi	a2,sp,196
   1209c:	00048593          	mv	a1,s1
   120a0:	000b8513          	mv	a0,s7
   120a4:	2dc020ef          	jal	ra,14380 <__sprint_r>
   120a8:	6e051263          	bnez	a0,1278c <_vfprintf_r+0xe9c>
   120ac:	0cc12603          	lw	a2,204(sp)
   120b0:	00098413          	mv	s0,s3
   120b4:	b2dff06f          	j	11be0 <_vfprintf_r+0x2f0>
   120b8:	00c12683          	lw	a3,12(sp)
   120bc:	010df793          	andi	a5,s11,16
   120c0:	0006a703          	lw	a4,0(a3)
   120c4:	00468693          	addi	a3,a3,4
   120c8:	00d12623          	sw	a3,12(sp)
   120cc:	360798e3          	bnez	a5,12c3c <_vfprintf_r+0x134c>
   120d0:	040df793          	andi	a5,s11,64
   120d4:	360780e3          	beqz	a5,12c34 <_vfprintf_r+0x1344>
   120d8:	01071b13          	slli	s6,a4,0x10
   120dc:	010b5b13          	srli	s6,s6,0x10
   120e0:	00000813          	li	a6,0
   120e4:	ce9ff06f          	j	11dcc <_vfprintf_r+0x4dc>
   120e8:	00c12683          	lw	a3,12(sp)
   120ec:	010df793          	andi	a5,s11,16
   120f0:	0006a703          	lw	a4,0(a3)
   120f4:	00468693          	addi	a3,a3,4
   120f8:	00d12623          	sw	a3,12(sp)
   120fc:	320794e3          	bnez	a5,12c24 <_vfprintf_r+0x1334>
   12100:	040df793          	andi	a5,s11,64
   12104:	30078ce3          	beqz	a5,12c1c <_vfprintf_r+0x132c>
   12108:	01071b13          	slli	s6,a4,0x10
   1210c:	410b5b13          	srai	s6,s6,0x10
   12110:	41fb5813          	srai	a6,s6,0x1f
   12114:	00080793          	mv	a5,a6
   12118:	c207dee3          	bgez	a5,11d54 <_vfprintf_r+0x464>
   1211c:	02d00693          	li	a3,45
   12120:	016037b3          	snez	a5,s6
   12124:	41000833          	neg	a6,a6
   12128:	0ad103a3          	sb	a3,167(sp)
   1212c:	40f80833          	sub	a6,a6,a5
   12130:	41600b33          	neg	s6,s6
   12134:	000d8613          	mv	a2,s11
   12138:	00100793          	li	a5,1
   1213c:	ca0a52e3          	bgez	s4,11de0 <_vfprintf_r+0x4f0>
   12140:	00100693          	li	a3,1
   12144:	10d78863          	beq	a5,a3,12254 <_vfprintf_r+0x964>
   12148:	00200693          	li	a3,2
   1214c:	40d78863          	beq	a5,a3,1255c <_vfprintf_r+0xc6c>
   12150:	19010d13          	addi	s10,sp,400
   12154:	01d81793          	slli	a5,a6,0x1d
   12158:	007b7693          	andi	a3,s6,7
   1215c:	003b5b13          	srli	s6,s6,0x3
   12160:	03068693          	addi	a3,a3,48
   12164:	0167eb33          	or	s6,a5,s6
   12168:	00385813          	srli	a6,a6,0x3
   1216c:	fedd0fa3          	sb	a3,-1(s10)
   12170:	010b67b3          	or	a5,s6,a6
   12174:	000d0513          	mv	a0,s10
   12178:	fffd0d13          	addi	s10,s10,-1
   1217c:	fc079ce3          	bnez	a5,12154 <_vfprintf_r+0x864>
   12180:	00167713          	andi	a4,a2,1
   12184:	40070663          	beqz	a4,12590 <_vfprintf_r+0xca0>
   12188:	03000713          	li	a4,48
   1218c:	40e68263          	beq	a3,a4,12590 <_vfprintf_r+0xca0>
   12190:	ffe50513          	addi	a0,a0,-2
   12194:	19010793          	addi	a5,sp,400
   12198:	feed0fa3          	sb	a4,-1(s10)
   1219c:	40a78b33          	sub	s6,a5,a0
   121a0:	00060d93          	mv	s11,a2
   121a4:	00050d13          	mv	s10,a0
   121a8:	bd1ff06f          	j	11d78 <_vfprintf_r+0x488>
   121ac:	00c12703          	lw	a4,12(sp)
   121b0:	0a0103a3          	sb	zero,167(sp)
   121b4:	00100c13          	li	s8,1
   121b8:	00072783          	lw	a5,0(a4)
   121bc:	00470713          	addi	a4,a4,4
   121c0:	00e12623          	sw	a4,12(sp)
   121c4:	12f10623          	sb	a5,300(sp)
   121c8:	00100b13          	li	s6,1
   121cc:	12c10d13          	addi	s10,sp,300
   121d0:	931ff06f          	j	11b00 <_vfprintf_r+0x210>
   121d4:	00c12783          	lw	a5,12(sp)
   121d8:	0a0103a3          	sb	zero,167(sp)
   121dc:	0007ad03          	lw	s10,0(a5)
   121e0:	00478813          	addi	a6,a5,4
   121e4:	3a0d02e3          	beqz	s10,12d88 <_vfprintf_r+0x1498>
   121e8:	000a5463          	bgez	s4,121f0 <_vfprintf_r+0x900>
   121ec:	1c80106f          	j	133b4 <_vfprintf_r+0x1ac4>
   121f0:	000a0613          	mv	a2,s4
   121f4:	00000593          	li	a1,0
   121f8:	000d0513          	mv	a0,s10
   121fc:	01012a23          	sw	a6,20(sp)
   12200:	01112623          	sw	a7,12(sp)
   12204:	18c040ef          	jal	ra,16390 <memchr>
   12208:	00a12423          	sw	a0,8(sp)
   1220c:	00c12883          	lw	a7,12(sp)
   12210:	01412803          	lw	a6,20(sp)
   12214:	00051463          	bnez	a0,1221c <_vfprintf_r+0x92c>
   12218:	3450106f          	j	13d5c <_vfprintf_r+0x246c>
   1221c:	00812783          	lw	a5,8(sp)
   12220:	0a714703          	lbu	a4,167(sp)
   12224:	01012623          	sw	a6,12(sp)
   12228:	41a78b33          	sub	s6,a5,s10
   1222c:	fffb4693          	not	a3,s6
   12230:	41f6d693          	srai	a3,a3,0x1f
   12234:	00012423          	sw	zero,8(sp)
   12238:	02012023          	sw	zero,32(sp)
   1223c:	00012e23          	sw	zero,28(sp)
   12240:	00012a23          	sw	zero,20(sp)
   12244:	00db7c33          	and	s8,s6,a3
   12248:	00000a13          	li	s4,0
   1224c:	b40718e3          	bnez	a4,11d9c <_vfprintf_r+0x4ac>
   12250:	8c5ff06f          	j	11b14 <_vfprintf_r+0x224>
   12254:	6c0812e3          	bnez	a6,13118 <_vfprintf_r+0x1828>
   12258:	00900793          	li	a5,9
   1225c:	6b67eee3          	bltu	a5,s6,13118 <_vfprintf_r+0x1828>
   12260:	030b0713          	addi	a4,s6,48
   12264:	18e107a3          	sb	a4,399(sp)
   12268:	00060d93          	mv	s11,a2
   1226c:	00100b13          	li	s6,1
   12270:	18f10d13          	addi	s10,sp,399
   12274:	b05ff06f          	j	11d78 <_vfprintf_r+0x488>
   12278:	00c12783          	lw	a5,12(sp)
   1227c:	0007ac83          	lw	s9,0(a5)
   12280:	00478793          	addi	a5,a5,4
   12284:	160cdae3          	bgez	s9,12bf8 <_vfprintf_r+0x1308>
   12288:	41900cb3          	neg	s9,s9
   1228c:	00f12623          	sw	a5,12(sp)
   12290:	00094883          	lbu	a7,0(s2)
   12294:	004ded93          	ori	s11,s11,4
   12298:	ffcff06f          	j	11a94 <_vfprintf_r+0x1a4>
   1229c:	010de613          	ori	a2,s11,16
   122a0:	02067793          	andi	a5,a2,32
   122a4:	100782e3          	beqz	a5,12ba8 <_vfprintf_r+0x12b8>
   122a8:	00c12783          	lw	a5,12(sp)
   122ac:	00778c13          	addi	s8,a5,7
   122b0:	ff8c7c13          	andi	s8,s8,-8
   122b4:	008c0793          	addi	a5,s8,8
   122b8:	00f12623          	sw	a5,12(sp)
   122bc:	000c2b03          	lw	s6,0(s8)
   122c0:	004c2803          	lw	a6,4(s8)
   122c4:	00100793          	li	a5,1
   122c8:	b0dff06f          	j	11dd4 <_vfprintf_r+0x4e4>
   122cc:	02b00793          	li	a5,43
   122d0:	00094883          	lbu	a7,0(s2)
   122d4:	0af103a3          	sb	a5,167(sp)
   122d8:	fbcff06f          	j	11a94 <_vfprintf_r+0x1a4>
   122dc:	00c12703          	lw	a4,12(sp)
   122e0:	000087b7          	lui	a5,0x8
   122e4:	83078793          	addi	a5,a5,-2000 # 7830 <exit-0x8864>
   122e8:	0af11423          	sh	a5,168(sp)
   122ec:	00470793          	addi	a5,a4,4
   122f0:	00f12623          	sw	a5,12(sp)
   122f4:	000227b7          	lui	a5,0x22
   122f8:	9d478793          	addi	a5,a5,-1580 # 219d4 <__clzsi2+0x60>
   122fc:	02f12823          	sw	a5,48(sp)
   12300:	00072b03          	lw	s6,0(a4)
   12304:	00000813          	li	a6,0
   12308:	002de613          	ori	a2,s11,2
   1230c:	00200793          	li	a5,2
   12310:	07800893          	li	a7,120
   12314:	ac1ff06f          	j	11dd4 <_vfprintf_r+0x4e4>
   12318:	020df793          	andi	a5,s11,32
   1231c:	16078ae3          	beqz	a5,12c90 <_vfprintf_r+0x13a0>
   12320:	00c12783          	lw	a5,12(sp)
   12324:	00412683          	lw	a3,4(sp)
   12328:	0007a783          	lw	a5,0(a5)
   1232c:	41f6d713          	srai	a4,a3,0x1f
   12330:	00d7a023          	sw	a3,0(a5)
   12334:	00e7a223          	sw	a4,4(a5)
   12338:	00c12783          	lw	a5,12(sp)
   1233c:	00090d13          	mv	s10,s2
   12340:	00478793          	addi	a5,a5,4
   12344:	00f12623          	sw	a5,12(sp)
   12348:	8e5ff06f          	j	11c2c <_vfprintf_r+0x33c>
   1234c:	00094883          	lbu	a7,0(s2)
   12350:	06c00793          	li	a5,108
   12354:	22f882e3          	beq	a7,a5,12d78 <_vfprintf_r+0x1488>
   12358:	010ded93          	ori	s11,s11,16
   1235c:	f38ff06f          	j	11a94 <_vfprintf_r+0x1a4>
   12360:	00094883          	lbu	a7,0(s2)
   12364:	06800793          	li	a5,104
   12368:	20f880e3          	beq	a7,a5,12d68 <_vfprintf_r+0x1478>
   1236c:	040ded93          	ori	s11,s11,64
   12370:	f24ff06f          	j	11a94 <_vfprintf_r+0x1a4>
   12374:	00094883          	lbu	a7,0(s2)
   12378:	008ded93          	ori	s11,s11,8
   1237c:	f18ff06f          	j	11a94 <_vfprintf_r+0x1a4>
   12380:	00094883          	lbu	a7,0(s2)
   12384:	001ded93          	ori	s11,s11,1
   12388:	f0cff06f          	j	11a94 <_vfprintf_r+0x1a4>
   1238c:	0a714783          	lbu	a5,167(sp)
   12390:	00094883          	lbu	a7,0(s2)
   12394:	f0079063          	bnez	a5,11a94 <_vfprintf_r+0x1a4>
   12398:	02000793          	li	a5,32
   1239c:	0af103a3          	sb	a5,167(sp)
   123a0:	ef4ff06f          	j	11a94 <_vfprintf_r+0x1a4>
   123a4:	00094883          	lbu	a7,0(s2)
   123a8:	080ded93          	ori	s11,s11,128
   123ac:	ee8ff06f          	j	11a94 <_vfprintf_r+0x1a4>
   123b0:	00094883          	lbu	a7,0(s2)
   123b4:	02a00793          	li	a5,42
   123b8:	00190693          	addi	a3,s2,1
   123bc:	00f89463          	bne	a7,a5,123c4 <_vfprintf_r+0xad4>
   123c0:	56d0106f          	j	1412c <_vfprintf_r+0x283c>
   123c4:	fd088793          	addi	a5,a7,-48
   123c8:	00900713          	li	a4,9
   123cc:	00000a13          	li	s4,0
   123d0:	00900613          	li	a2,9
   123d4:	02f76463          	bltu	a4,a5,123fc <_vfprintf_r+0xb0c>
   123d8:	0006c883          	lbu	a7,0(a3)
   123dc:	002a1713          	slli	a4,s4,0x2
   123e0:	01470a33          	add	s4,a4,s4
   123e4:	001a1a13          	slli	s4,s4,0x1
   123e8:	00fa0a33          	add	s4,s4,a5
   123ec:	fd088793          	addi	a5,a7,-48
   123f0:	00168693          	addi	a3,a3,1
   123f4:	fef672e3          	bgeu	a2,a5,123d8 <_vfprintf_r+0xae8>
   123f8:	0c0a48e3          	bltz	s4,12cc8 <_vfprintf_r+0x13d8>
   123fc:	00068913          	mv	s2,a3
   12400:	e98ff06f          	j	11a98 <_vfprintf_r+0x1a8>
   12404:	06500713          	li	a4,101
   12408:	b91750e3          	bge	a4,a7,11f88 <_vfprintf_r+0x698>
   1240c:	0d012703          	lw	a4,208(sp)
   12410:	08010593          	addi	a1,sp,128
   12414:	09010513          	addi	a0,sp,144
   12418:	08e12823          	sw	a4,144(sp)
   1241c:	0d412703          	lw	a4,212(sp)
   12420:	02c12a23          	sw	a2,52(sp)
   12424:	08012023          	sw	zero,128(sp)
   12428:	08e12a23          	sw	a4,148(sp)
   1242c:	0d812703          	lw	a4,216(sp)
   12430:	08012223          	sw	zero,132(sp)
   12434:	08012423          	sw	zero,136(sp)
   12438:	08e12c23          	sw	a4,152(sp)
   1243c:	0dc12703          	lw	a4,220(sp)
   12440:	08012623          	sw	zero,140(sp)
   12444:	08e12e23          	sw	a4,156(sp)
   12448:	3b40c0ef          	jal	ra,1e7fc <__eqtf2>
   1244c:	03412603          	lw	a2,52(sp)
   12450:	54051463          	bnez	a0,12998 <_vfprintf_r+0x10a8>
   12454:	0c812783          	lw	a5,200(sp)
   12458:	00022737          	lui	a4,0x22
   1245c:	a0470713          	addi	a4,a4,-1532 # 21a04 <__clzsi2+0x90>
   12460:	00e42023          	sw	a4,0(s0)
   12464:	00160613          	addi	a2,a2,1
   12468:	00100713          	li	a4,1
   1246c:	00178793          	addi	a5,a5,1
   12470:	00e42223          	sw	a4,4(s0)
   12474:	0cc12623          	sw	a2,204(sp)
   12478:	0cf12423          	sw	a5,200(sp)
   1247c:	00700713          	li	a4,7
   12480:	00840413          	addi	s0,s0,8
   12484:	5ef744e3          	blt	a4,a5,1326c <_vfprintf_r+0x197c>
   12488:	0ac12783          	lw	a5,172(sp)
   1248c:	01812703          	lw	a4,24(sp)
   12490:	74e7dc63          	bge	a5,a4,12be8 <_vfprintf_r+0x12f8>
   12494:	02c12783          	lw	a5,44(sp)
   12498:	02812703          	lw	a4,40(sp)
   1249c:	00840413          	addi	s0,s0,8
   124a0:	fef42c23          	sw	a5,-8(s0)
   124a4:	0c812783          	lw	a5,200(sp)
   124a8:	00e60633          	add	a2,a2,a4
   124ac:	fee42e23          	sw	a4,-4(s0)
   124b0:	00178793          	addi	a5,a5,1
   124b4:	0cc12623          	sw	a2,204(sp)
   124b8:	0cf12423          	sw	a5,200(sp)
   124bc:	00700713          	li	a4,7
   124c0:	08f744e3          	blt	a4,a5,12d48 <_vfprintf_r+0x1458>
   124c4:	01812783          	lw	a5,24(sp)
   124c8:	fff78a13          	addi	s4,a5,-1
   124cc:	f1405a63          	blez	s4,11be0 <_vfprintf_r+0x2f0>
   124d0:	00022837          	lui	a6,0x22
   124d4:	01000713          	li	a4,16
   124d8:	0c812783          	lw	a5,200(sp)
   124dc:	ce080813          	addi	a6,a6,-800 # 21ce0 <zeroes.0>
   124e0:	5b475ae3          	bge	a4,s4,13294 <_vfprintf_r+0x19a4>
   124e4:	01212a23          	sw	s2,20(sp)
   124e8:	01000b13          	li	s6,16
   124ec:	00700d13          	li	s10,7
   124f0:	00080913          	mv	s2,a6
   124f4:	00c0006f          	j	12500 <_vfprintf_r+0xc10>
   124f8:	ff0a0a13          	addi	s4,s4,-16
   124fc:	594b58e3          	bge	s6,s4,1328c <_vfprintf_r+0x199c>
   12500:	01060613          	addi	a2,a2,16
   12504:	00178793          	addi	a5,a5,1
   12508:	01242023          	sw	s2,0(s0)
   1250c:	01642223          	sw	s6,4(s0)
   12510:	0cc12623          	sw	a2,204(sp)
   12514:	0cf12423          	sw	a5,200(sp)
   12518:	00840413          	addi	s0,s0,8
   1251c:	fcfd5ee3          	bge	s10,a5,124f8 <_vfprintf_r+0xc08>
   12520:	0c410613          	addi	a2,sp,196
   12524:	00048593          	mv	a1,s1
   12528:	000b8513          	mv	a0,s7
   1252c:	655010ef          	jal	ra,14380 <__sprint_r>
   12530:	24051e63          	bnez	a0,1278c <_vfprintf_r+0xe9c>
   12534:	0cc12603          	lw	a2,204(sp)
   12538:	0c812783          	lw	a5,200(sp)
   1253c:	00098413          	mv	s0,s3
   12540:	fb9ff06f          	j	124f8 <_vfprintf_r+0xc08>
   12544:	00100693          	li	a3,1
   12548:	00d79463          	bne	a5,a3,12550 <_vfprintf_r+0xc60>
   1254c:	1f90106f          	j	13f44 <_vfprintf_r+0x2654>
   12550:	00200693          	li	a3,2
   12554:	000d8613          	mv	a2,s11
   12558:	bed79ce3          	bne	a5,a3,12150 <_vfprintf_r+0x860>
   1255c:	03012683          	lw	a3,48(sp)
   12560:	19010d13          	addi	s10,sp,400
   12564:	00fb7793          	andi	a5,s6,15
   12568:	00f687b3          	add	a5,a3,a5
   1256c:	0007c703          	lbu	a4,0(a5)
   12570:	004b5b13          	srli	s6,s6,0x4
   12574:	01c81793          	slli	a5,a6,0x1c
   12578:	0167eb33          	or	s6,a5,s6
   1257c:	00485813          	srli	a6,a6,0x4
   12580:	feed0fa3          	sb	a4,-1(s10)
   12584:	010b67b3          	or	a5,s6,a6
   12588:	fffd0d13          	addi	s10,s10,-1
   1258c:	fc079ce3          	bnez	a5,12564 <_vfprintf_r+0xc74>
   12590:	19010793          	addi	a5,sp,400
   12594:	41a78b33          	sub	s6,a5,s10
   12598:	00060d93          	mv	s11,a2
   1259c:	fdcff06f          	j	11d78 <_vfprintf_r+0x488>
   125a0:	418c8733          	sub	a4,s9,s8
   125a4:	e0e05263          	blez	a4,11ba8 <_vfprintf_r+0x2b8>
   125a8:	00022837          	lui	a6,0x22
   125ac:	01000513          	li	a0,16
   125b0:	0c812583          	lw	a1,200(sp)
   125b4:	ce080813          	addi	a6,a6,-800 # 21ce0 <zeroes.0>
   125b8:	08e55863          	bge	a0,a4,12648 <_vfprintf_r+0xd58>
   125bc:	03212a23          	sw	s2,52(sp)
   125c0:	00040793          	mv	a5,s0
   125c4:	01000e93          	li	t4,16
   125c8:	00700f93          	li	t6,7
   125cc:	05112423          	sw	a7,72(sp)
   125d0:	00070413          	mv	s0,a4
   125d4:	00080913          	mv	s2,a6
   125d8:	00c0006f          	j	125e4 <_vfprintf_r+0xcf4>
   125dc:	ff040413          	addi	s0,s0,-16
   125e0:	048eda63          	bge	t4,s0,12634 <_vfprintf_r+0xd44>
   125e4:	01060613          	addi	a2,a2,16
   125e8:	00158593          	addi	a1,a1,1 # 2001 <exit-0xe093>
   125ec:	0127a023          	sw	s2,0(a5)
   125f0:	01d7a223          	sw	t4,4(a5)
   125f4:	0cc12623          	sw	a2,204(sp)
   125f8:	0cb12423          	sw	a1,200(sp)
   125fc:	00878793          	addi	a5,a5,8
   12600:	fcbfdee3          	bge	t6,a1,125dc <_vfprintf_r+0xcec>
   12604:	0c410613          	addi	a2,sp,196
   12608:	00048593          	mv	a1,s1
   1260c:	000b8513          	mv	a0,s7
   12610:	571010ef          	jal	ra,14380 <__sprint_r>
   12614:	16051c63          	bnez	a0,1278c <_vfprintf_r+0xe9c>
   12618:	01000e93          	li	t4,16
   1261c:	ff040413          	addi	s0,s0,-16
   12620:	0cc12603          	lw	a2,204(sp)
   12624:	0c812583          	lw	a1,200(sp)
   12628:	00098793          	mv	a5,s3
   1262c:	00700f93          	li	t6,7
   12630:	fa8ecae3          	blt	t4,s0,125e4 <_vfprintf_r+0xcf4>
   12634:	00090813          	mv	a6,s2
   12638:	04812883          	lw	a7,72(sp)
   1263c:	03412903          	lw	s2,52(sp)
   12640:	00040713          	mv	a4,s0
   12644:	00078413          	mv	s0,a5
   12648:	00e60633          	add	a2,a2,a4
   1264c:	00158593          	addi	a1,a1,1
   12650:	00e42223          	sw	a4,4(s0)
   12654:	01042023          	sw	a6,0(s0)
   12658:	0cc12623          	sw	a2,204(sp)
   1265c:	0cb12423          	sw	a1,200(sp)
   12660:	00700713          	li	a4,7
   12664:	00840413          	addi	s0,s0,8
   12668:	d4b75063          	bge	a4,a1,11ba8 <_vfprintf_r+0x2b8>
   1266c:	0c410613          	addi	a2,sp,196
   12670:	00048593          	mv	a1,s1
   12674:	000b8513          	mv	a0,s7
   12678:	03112a23          	sw	a7,52(sp)
   1267c:	505010ef          	jal	ra,14380 <__sprint_r>
   12680:	10051663          	bnez	a0,1278c <_vfprintf_r+0xe9c>
   12684:	0cc12603          	lw	a2,204(sp)
   12688:	03412883          	lw	a7,52(sp)
   1268c:	00098413          	mv	s0,s3
   12690:	d18ff06f          	j	11ba8 <_vfprintf_r+0x2b8>
   12694:	00022837          	lui	a6,0x22
   12698:	01000713          	li	a4,16
   1269c:	0c812583          	lw	a1,200(sp)
   126a0:	ce080813          	addi	a6,a6,-800 # 21ce0 <zeroes.0>
   126a4:	09475463          	bge	a4,s4,1272c <_vfprintf_r+0xe3c>
   126a8:	00040793          	mv	a5,s0
   126ac:	01000713          	li	a4,16
   126b0:	000a0413          	mv	s0,s4
   126b4:	00700e93          	li	t4,7
   126b8:	03112a23          	sw	a7,52(sp)
   126bc:	000a8a13          	mv	s4,s5
   126c0:	00c0006f          	j	126cc <_vfprintf_r+0xddc>
   126c4:	ff040413          	addi	s0,s0,-16
   126c8:	04875a63          	bge	a4,s0,1271c <_vfprintf_r+0xe2c>
   126cc:	01060613          	addi	a2,a2,16
   126d0:	00158593          	addi	a1,a1,1
   126d4:	0157a023          	sw	s5,0(a5)
   126d8:	00e7a223          	sw	a4,4(a5)
   126dc:	0cc12623          	sw	a2,204(sp)
   126e0:	0cb12423          	sw	a1,200(sp)
   126e4:	00878793          	addi	a5,a5,8
   126e8:	fcbedee3          	bge	t4,a1,126c4 <_vfprintf_r+0xdd4>
   126ec:	0c410613          	addi	a2,sp,196
   126f0:	00048593          	mv	a1,s1
   126f4:	000b8513          	mv	a0,s7
   126f8:	489010ef          	jal	ra,14380 <__sprint_r>
   126fc:	08051863          	bnez	a0,1278c <_vfprintf_r+0xe9c>
   12700:	01000713          	li	a4,16
   12704:	ff040413          	addi	s0,s0,-16
   12708:	0cc12603          	lw	a2,204(sp)
   1270c:	0c812583          	lw	a1,200(sp)
   12710:	00098793          	mv	a5,s3
   12714:	00700e93          	li	t4,7
   12718:	fa874ae3          	blt	a4,s0,126cc <_vfprintf_r+0xddc>
   1271c:	03412883          	lw	a7,52(sp)
   12720:	000a0813          	mv	a6,s4
   12724:	00040a13          	mv	s4,s0
   12728:	00078413          	mv	s0,a5
   1272c:	01460633          	add	a2,a2,s4
   12730:	00158593          	addi	a1,a1,1
   12734:	01042023          	sw	a6,0(s0)
   12738:	01442223          	sw	s4,4(s0)
   1273c:	0cc12623          	sw	a2,204(sp)
   12740:	0cb12423          	sw	a1,200(sp)
   12744:	00700713          	li	a4,7
   12748:	00840413          	addi	s0,s0,8
   1274c:	c6b75263          	bge	a4,a1,11bb0 <_vfprintf_r+0x2c0>
   12750:	0c410613          	addi	a2,sp,196
   12754:	00048593          	mv	a1,s1
   12758:	000b8513          	mv	a0,s7
   1275c:	03112a23          	sw	a7,52(sp)
   12760:	421010ef          	jal	ra,14380 <__sprint_r>
   12764:	02051463          	bnez	a0,1278c <_vfprintf_r+0xe9c>
   12768:	0cc12603          	lw	a2,204(sp)
   1276c:	03412883          	lw	a7,52(sp)
   12770:	00098413          	mv	s0,s3
   12774:	c3cff06f          	j	11bb0 <_vfprintf_r+0x2c0>
   12778:	0c410613          	addi	a2,sp,196
   1277c:	00048593          	mv	a1,s1
   12780:	000b8513          	mv	a0,s7
   12784:	3fd010ef          	jal	ra,14380 <__sprint_r>
   12788:	c8050263          	beqz	a0,11c0c <_vfprintf_r+0x31c>
   1278c:	00812583          	lw	a1,8(sp)
   12790:	ca058863          	beqz	a1,11c40 <_vfprintf_r+0x350>
   12794:	02412503          	lw	a0,36(sp)
   12798:	e90fe0ef          	jal	ra,10e28 <_free_r>
   1279c:	ca4ff06f          	j	11c40 <_vfprintf_r+0x350>
   127a0:	000d8613          	mv	a2,s11
   127a4:	99dff06f          	j	12140 <_vfprintf_r+0x850>
   127a8:	00022837          	lui	a6,0x22
   127ac:	01000513          	li	a0,16
   127b0:	0c812583          	lw	a1,200(sp)
   127b4:	cf080813          	addi	a6,a6,-784 # 21cf0 <blanks.1>
   127b8:	0ae55063          	bge	a0,a4,12858 <_vfprintf_r+0xf68>
   127bc:	05212623          	sw	s2,76(sp)
   127c0:	00040793          	mv	a5,s0
   127c4:	01000e93          	li	t4,16
   127c8:	00700393          	li	t2,7
   127cc:	02512a23          	sw	t0,52(sp)
   127d0:	05f12423          	sw	t6,72(sp)
   127d4:	05112823          	sw	a7,80(sp)
   127d8:	00070413          	mv	s0,a4
   127dc:	00080913          	mv	s2,a6
   127e0:	00c0006f          	j	127ec <_vfprintf_r+0xefc>
   127e4:	ff040413          	addi	s0,s0,-16
   127e8:	048eda63          	bge	t4,s0,1283c <_vfprintf_r+0xf4c>
   127ec:	01060613          	addi	a2,a2,16
   127f0:	00158593          	addi	a1,a1,1
   127f4:	0127a023          	sw	s2,0(a5)
   127f8:	01d7a223          	sw	t4,4(a5)
   127fc:	0cc12623          	sw	a2,204(sp)
   12800:	0cb12423          	sw	a1,200(sp)
   12804:	00878793          	addi	a5,a5,8
   12808:	fcb3dee3          	bge	t2,a1,127e4 <_vfprintf_r+0xef4>
   1280c:	0c410613          	addi	a2,sp,196
   12810:	00048593          	mv	a1,s1
   12814:	000b8513          	mv	a0,s7
   12818:	369010ef          	jal	ra,14380 <__sprint_r>
   1281c:	f60518e3          	bnez	a0,1278c <_vfprintf_r+0xe9c>
   12820:	01000e93          	li	t4,16
   12824:	ff040413          	addi	s0,s0,-16
   12828:	0cc12603          	lw	a2,204(sp)
   1282c:	0c812583          	lw	a1,200(sp)
   12830:	00098793          	mv	a5,s3
   12834:	00700393          	li	t2,7
   12838:	fa8ecae3          	blt	t4,s0,127ec <_vfprintf_r+0xefc>
   1283c:	00090813          	mv	a6,s2
   12840:	03412283          	lw	t0,52(sp)
   12844:	04812f83          	lw	t6,72(sp)
   12848:	05012883          	lw	a7,80(sp)
   1284c:	04c12903          	lw	s2,76(sp)
   12850:	00040713          	mv	a4,s0
   12854:	00078413          	mv	s0,a5
   12858:	00e60633          	add	a2,a2,a4
   1285c:	00158593          	addi	a1,a1,1
   12860:	00e42223          	sw	a4,4(s0)
   12864:	01042023          	sw	a6,0(s0)
   12868:	0cc12623          	sw	a2,204(sp)
   1286c:	0cb12423          	sw	a1,200(sp)
   12870:	00700713          	li	a4,7
   12874:	00840413          	addi	s0,s0,8
   12878:	aab75e63          	bge	a4,a1,11b34 <_vfprintf_r+0x244>
   1287c:	0c410613          	addi	a2,sp,196
   12880:	00048593          	mv	a1,s1
   12884:	000b8513          	mv	a0,s7
   12888:	05112623          	sw	a7,76(sp)
   1288c:	05f12423          	sw	t6,72(sp)
   12890:	02512a23          	sw	t0,52(sp)
   12894:	2ed010ef          	jal	ra,14380 <__sprint_r>
   12898:	ee051ae3          	bnez	a0,1278c <_vfprintf_r+0xe9c>
   1289c:	0cc12603          	lw	a2,204(sp)
   128a0:	04c12883          	lw	a7,76(sp)
   128a4:	04812f83          	lw	t6,72(sp)
   128a8:	03412283          	lw	t0,52(sp)
   128ac:	00098413          	mv	s0,s3
   128b0:	a84ff06f          	j	11b34 <_vfprintf_r+0x244>
   128b4:	0c410613          	addi	a2,sp,196
   128b8:	00048593          	mv	a1,s1
   128bc:	000b8513          	mv	a0,s7
   128c0:	05112423          	sw	a7,72(sp)
   128c4:	03f12a23          	sw	t6,52(sp)
   128c8:	2b9010ef          	jal	ra,14380 <__sprint_r>
   128cc:	ec0510e3          	bnez	a0,1278c <_vfprintf_r+0xe9c>
   128d0:	0cc12603          	lw	a2,204(sp)
   128d4:	04812883          	lw	a7,72(sp)
   128d8:	03412f83          	lw	t6,52(sp)
   128dc:	00098413          	mv	s0,s3
   128e0:	ac0ff06f          	j	11ba0 <_vfprintf_r+0x2b0>
   128e4:	00022837          	lui	a6,0x22
   128e8:	cf080813          	addi	a6,a6,-784 # 21cf0 <blanks.1>
   128ec:	01000713          	li	a4,16
   128f0:	0c812783          	lw	a5,200(sp)
   128f4:	01000b13          	li	s6,16
   128f8:	00700d13          	li	s10,7
   128fc:	00080d93          	mv	s11,a6
   12900:	01474863          	blt	a4,s4,12910 <_vfprintf_r+0x1020>
   12904:	0580006f          	j	1295c <_vfprintf_r+0x106c>
   12908:	ff0a0a13          	addi	s4,s4,-16
   1290c:	054b5663          	bge	s6,s4,12958 <_vfprintf_r+0x1068>
   12910:	01060613          	addi	a2,a2,16
   12914:	00178793          	addi	a5,a5,1
   12918:	01b42023          	sw	s11,0(s0)
   1291c:	01642223          	sw	s6,4(s0)
   12920:	0cc12623          	sw	a2,204(sp)
   12924:	0cf12423          	sw	a5,200(sp)
   12928:	00840413          	addi	s0,s0,8
   1292c:	fcfd5ee3          	bge	s10,a5,12908 <_vfprintf_r+0x1018>
   12930:	0c410613          	addi	a2,sp,196
   12934:	00048593          	mv	a1,s1
   12938:	000b8513          	mv	a0,s7
   1293c:	245010ef          	jal	ra,14380 <__sprint_r>
   12940:	e40516e3          	bnez	a0,1278c <_vfprintf_r+0xe9c>
   12944:	ff0a0a13          	addi	s4,s4,-16
   12948:	0cc12603          	lw	a2,204(sp)
   1294c:	0c812783          	lw	a5,200(sp)
   12950:	00098413          	mv	s0,s3
   12954:	fb4b4ee3          	blt	s6,s4,12910 <_vfprintf_r+0x1020>
   12958:	000d8813          	mv	a6,s11
   1295c:	01460633          	add	a2,a2,s4
   12960:	00178793          	addi	a5,a5,1
   12964:	01042023          	sw	a6,0(s0)
   12968:	01442223          	sw	s4,4(s0)
   1296c:	0cc12623          	sw	a2,204(sp)
   12970:	0cf12423          	sw	a5,200(sp)
   12974:	00700713          	li	a4,7
   12978:	a6f75c63          	bge	a4,a5,11bf0 <_vfprintf_r+0x300>
   1297c:	0c410613          	addi	a2,sp,196
   12980:	00048593          	mv	a1,s1
   12984:	000b8513          	mv	a0,s7
   12988:	1f9010ef          	jal	ra,14380 <__sprint_r>
   1298c:	e00510e3          	bnez	a0,1278c <_vfprintf_r+0xe9c>
   12990:	0cc12603          	lw	a2,204(sp)
   12994:	a5cff06f          	j	11bf0 <_vfprintf_r+0x300>
   12998:	0ac12503          	lw	a0,172(sp)
   1299c:	04a052e3          	blez	a0,131e0 <_vfprintf_r+0x18f0>
   129a0:	01412783          	lw	a5,20(sp)
   129a4:	01812703          	lw	a4,24(sp)
   129a8:	00078a13          	mv	s4,a5
   129ac:	30f74863          	blt	a4,a5,12cbc <_vfprintf_r+0x13cc>
   129b0:	03405663          	blez	s4,129dc <_vfprintf_r+0x10ec>
   129b4:	0c812703          	lw	a4,200(sp)
   129b8:	01460633          	add	a2,a2,s4
   129bc:	01a42023          	sw	s10,0(s0)
   129c0:	00170713          	addi	a4,a4,1
   129c4:	01442223          	sw	s4,4(s0)
   129c8:	0cc12623          	sw	a2,204(sp)
   129cc:	0ce12423          	sw	a4,200(sp)
   129d0:	00700593          	li	a1,7
   129d4:	00840413          	addi	s0,s0,8
   129d8:	56e5c0e3          	blt	a1,a4,13738 <_vfprintf_r+0x1e48>
   129dc:	fffa4713          	not	a4,s4
   129e0:	01412783          	lw	a5,20(sp)
   129e4:	41f75713          	srai	a4,a4,0x1f
   129e8:	00ea7a33          	and	s4,s4,a4
   129ec:	41478a33          	sub	s4,a5,s4
   129f0:	3b404c63          	bgtz	s4,12da8 <_vfprintf_r+0x14b8>
   129f4:	01412783          	lw	a5,20(sp)
   129f8:	400df713          	andi	a4,s11,1024
   129fc:	00fd0a33          	add	s4,s10,a5
   12a00:	280714e3          	bnez	a4,13488 <_vfprintf_r+0x1b98>
   12a04:	0ac12583          	lw	a1,172(sp)
   12a08:	01812783          	lw	a5,24(sp)
   12a0c:	40f5ca63          	blt	a1,a5,12e20 <_vfprintf_r+0x1530>
   12a10:	001df713          	andi	a4,s11,1
   12a14:	40071663          	bnez	a4,12e20 <_vfprintf_r+0x1530>
   12a18:	01812703          	lw	a4,24(sp)
   12a1c:	00ed07b3          	add	a5,s10,a4
   12a20:	40b705b3          	sub	a1,a4,a1
   12a24:	41478b33          	sub	s6,a5,s4
   12a28:	0165d463          	bge	a1,s6,12a30 <_vfprintf_r+0x1140>
   12a2c:	00058b13          	mv	s6,a1
   12a30:	03605863          	blez	s6,12a60 <_vfprintf_r+0x1170>
   12a34:	0c812703          	lw	a4,200(sp)
   12a38:	01660633          	add	a2,a2,s6
   12a3c:	01442023          	sw	s4,0(s0)
   12a40:	00170713          	addi	a4,a4,1
   12a44:	01642223          	sw	s6,4(s0)
   12a48:	0cc12623          	sw	a2,204(sp)
   12a4c:	0ce12423          	sw	a4,200(sp)
   12a50:	00700793          	li	a5,7
   12a54:	00840413          	addi	s0,s0,8
   12a58:	00e7d463          	bge	a5,a4,12a60 <_vfprintf_r+0x1170>
   12a5c:	3380106f          	j	13d94 <_vfprintf_r+0x24a4>
   12a60:	fffb4713          	not	a4,s6
   12a64:	41f75713          	srai	a4,a4,0x1f
   12a68:	00eb77b3          	and	a5,s6,a4
   12a6c:	40f58a33          	sub	s4,a1,a5
   12a70:	97405863          	blez	s4,11be0 <_vfprintf_r+0x2f0>
   12a74:	00022837          	lui	a6,0x22
   12a78:	01000713          	li	a4,16
   12a7c:	0c812783          	lw	a5,200(sp)
   12a80:	ce080813          	addi	a6,a6,-800 # 21ce0 <zeroes.0>
   12a84:	014758e3          	bge	a4,s4,13294 <_vfprintf_r+0x19a4>
   12a88:	01212a23          	sw	s2,20(sp)
   12a8c:	01000b13          	li	s6,16
   12a90:	00700d13          	li	s10,7
   12a94:	00080913          	mv	s2,a6
   12a98:	00c0006f          	j	12aa4 <_vfprintf_r+0x11b4>
   12a9c:	ff0a0a13          	addi	s4,s4,-16
   12aa0:	7f4b5663          	bge	s6,s4,1328c <_vfprintf_r+0x199c>
   12aa4:	01060613          	addi	a2,a2,16
   12aa8:	00178793          	addi	a5,a5,1
   12aac:	01242023          	sw	s2,0(s0)
   12ab0:	01642223          	sw	s6,4(s0)
   12ab4:	0cc12623          	sw	a2,204(sp)
   12ab8:	0cf12423          	sw	a5,200(sp)
   12abc:	00840413          	addi	s0,s0,8
   12ac0:	fcfd5ee3          	bge	s10,a5,12a9c <_vfprintf_r+0x11ac>
   12ac4:	0c410613          	addi	a2,sp,196
   12ac8:	00048593          	mv	a1,s1
   12acc:	000b8513          	mv	a0,s7
   12ad0:	0b1010ef          	jal	ra,14380 <__sprint_r>
   12ad4:	ca051ce3          	bnez	a0,1278c <_vfprintf_r+0xe9c>
   12ad8:	0cc12603          	lw	a2,204(sp)
   12adc:	0c812783          	lw	a5,200(sp)
   12ae0:	00098413          	mv	s0,s3
   12ae4:	fb9ff06f          	j	12a9c <_vfprintf_r+0x11ac>
   12ae8:	001df593          	andi	a1,s11,1
   12aec:	ca059e63          	bnez	a1,11fa8 <_vfprintf_r+0x6b8>
   12af0:	00e42223          	sw	a4,4(s0)
   12af4:	0cc12623          	sw	a2,204(sp)
   12af8:	0d412423          	sw	s4,200(sp)
   12afc:	00700793          	li	a5,7
   12b00:	d747d663          	bge	a5,s4,1206c <_vfprintf_r+0x77c>
   12b04:	0c410613          	addi	a2,sp,196
   12b08:	00048593          	mv	a1,s1
   12b0c:	000b8513          	mv	a0,s7
   12b10:	071010ef          	jal	ra,14380 <__sprint_r>
   12b14:	c6051ce3          	bnez	a0,1278c <_vfprintf_r+0xe9c>
   12b18:	0cc12603          	lw	a2,204(sp)
   12b1c:	0c812a03          	lw	s4,200(sp)
   12b20:	00098b13          	mv	s6,s3
   12b24:	d48ff06f          	j	1206c <_vfprintf_r+0x77c>
   12b28:	01812703          	lw	a4,24(sp)
   12b2c:	00100793          	li	a5,1
   12b30:	d2e7de63          	bge	a5,a4,1206c <_vfprintf_r+0x77c>
   12b34:	00022837          	lui	a6,0x22
   12b38:	01100793          	li	a5,17
   12b3c:	ce080813          	addi	a6,a6,-800 # 21ce0 <zeroes.0>
   12b40:	0ce7d6e3          	bge	a5,a4,1340c <_vfprintf_r+0x1b1c>
   12b44:	01212a23          	sw	s2,20(sp)
   12b48:	01000793          	li	a5,16
   12b4c:	00700d13          	li	s10,7
   12b50:	00080913          	mv	s2,a6
   12b54:	00c0006f          	j	12b60 <_vfprintf_r+0x1270>
   12b58:	ff040413          	addi	s0,s0,-16
   12b5c:	0a87d4e3          	bge	a5,s0,13404 <_vfprintf_r+0x1b14>
   12b60:	01060613          	addi	a2,a2,16
   12b64:	001a0a13          	addi	s4,s4,1
   12b68:	012b2023          	sw	s2,0(s6)
   12b6c:	00fb2223          	sw	a5,4(s6)
   12b70:	0cc12623          	sw	a2,204(sp)
   12b74:	0d412423          	sw	s4,200(sp)
   12b78:	008b0b13          	addi	s6,s6,8
   12b7c:	fd4d5ee3          	bge	s10,s4,12b58 <_vfprintf_r+0x1268>
   12b80:	0c410613          	addi	a2,sp,196
   12b84:	00048593          	mv	a1,s1
   12b88:	000b8513          	mv	a0,s7
   12b8c:	7f4010ef          	jal	ra,14380 <__sprint_r>
   12b90:	be051ee3          	bnez	a0,1278c <_vfprintf_r+0xe9c>
   12b94:	0cc12603          	lw	a2,204(sp)
   12b98:	0c812a03          	lw	s4,200(sp)
   12b9c:	00098b13          	mv	s6,s3
   12ba0:	01000793          	li	a5,16
   12ba4:	fb5ff06f          	j	12b58 <_vfprintf_r+0x1268>
   12ba8:	00c12683          	lw	a3,12(sp)
   12bac:	01067793          	andi	a5,a2,16
   12bb0:	0006a703          	lw	a4,0(a3)
   12bb4:	00468693          	addi	a3,a3,4
   12bb8:	00d12623          	sw	a3,12(sp)
   12bbc:	04079863          	bnez	a5,12c0c <_vfprintf_r+0x131c>
   12bc0:	04067793          	andi	a5,a2,64
   12bc4:	04078063          	beqz	a5,12c04 <_vfprintf_r+0x1314>
   12bc8:	01071b13          	slli	s6,a4,0x10
   12bcc:	010b5b13          	srli	s6,s6,0x10
   12bd0:	00000813          	li	a6,0
   12bd4:	00100793          	li	a5,1
   12bd8:	9fcff06f          	j	11dd4 <_vfprintf_r+0x4e4>
   12bdc:	00000b13          	li	s6,0
   12be0:	19010d13          	addi	s10,sp,400
   12be4:	994ff06f          	j	11d78 <_vfprintf_r+0x488>
   12be8:	001df793          	andi	a5,s11,1
   12bec:	00079463          	bnez	a5,12bf4 <_vfprintf_r+0x1304>
   12bf0:	ff1fe06f          	j	11be0 <_vfprintf_r+0x2f0>
   12bf4:	8a1ff06f          	j	12494 <_vfprintf_r+0xba4>
   12bf8:	00094883          	lbu	a7,0(s2)
   12bfc:	00f12623          	sw	a5,12(sp)
   12c00:	e95fe06f          	j	11a94 <_vfprintf_r+0x1a4>
   12c04:	20067793          	andi	a5,a2,512
   12c08:	360798e3          	bnez	a5,13778 <_vfprintf_r+0x1e88>
   12c0c:	00070b13          	mv	s6,a4
   12c10:	00000813          	li	a6,0
   12c14:	00100793          	li	a5,1
   12c18:	9bcff06f          	j	11dd4 <_vfprintf_r+0x4e4>
   12c1c:	200df793          	andi	a5,s11,512
   12c20:	360794e3          	bnez	a5,13788 <_vfprintf_r+0x1e98>
   12c24:	41f75813          	srai	a6,a4,0x1f
   12c28:	00070b13          	mv	s6,a4
   12c2c:	00080793          	mv	a5,a6
   12c30:	920ff06f          	j	11d50 <_vfprintf_r+0x460>
   12c34:	200df793          	andi	a5,s11,512
   12c38:	360798e3          	bnez	a5,137a8 <_vfprintf_r+0x1eb8>
   12c3c:	00070b13          	mv	s6,a4
   12c40:	00000813          	li	a6,0
   12c44:	988ff06f          	j	11dcc <_vfprintf_r+0x4dc>
   12c48:	00c12783          	lw	a5,12(sp)
   12c4c:	0007a703          	lw	a4,0(a5)
   12c50:	00478793          	addi	a5,a5,4
   12c54:	00f12623          	sw	a5,12(sp)
   12c58:	00072583          	lw	a1,0(a4)
   12c5c:	00472603          	lw	a2,4(a4)
   12c60:	00872683          	lw	a3,8(a4)
   12c64:	00c72703          	lw	a4,12(a4)
   12c68:	a18ff06f          	j	11e80 <_vfprintf_r+0x590>
   12c6c:	03812783          	lw	a5,56(sp)
   12c70:	00094883          	lbu	a7,0(s2)
   12c74:	00079463          	bnez	a5,12c7c <_vfprintf_r+0x138c>
   12c78:	e1dfe06f          	j	11a94 <_vfprintf_r+0x1a4>
   12c7c:	0007c783          	lbu	a5,0(a5)
   12c80:	00079463          	bnez	a5,12c88 <_vfprintf_r+0x1398>
   12c84:	e11fe06f          	j	11a94 <_vfprintf_r+0x1a4>
   12c88:	400ded93          	ori	s11,s11,1024
   12c8c:	e09fe06f          	j	11a94 <_vfprintf_r+0x1a4>
   12c90:	010df793          	andi	a5,s11,16
   12c94:	6a079663          	bnez	a5,13340 <_vfprintf_r+0x1a50>
   12c98:	040df793          	andi	a5,s11,64
   12c9c:	2c0794e3          	bnez	a5,13764 <_vfprintf_r+0x1e74>
   12ca0:	200dfe13          	andi	t3,s11,512
   12ca4:	680e0e63          	beqz	t3,13340 <_vfprintf_r+0x1a50>
   12ca8:	00c12783          	lw	a5,12(sp)
   12cac:	00412703          	lw	a4,4(sp)
   12cb0:	0007a783          	lw	a5,0(a5)
   12cb4:	00e78023          	sb	a4,0(a5)
   12cb8:	e80ff06f          	j	12338 <_vfprintf_r+0xa48>
   12cbc:	00070a13          	mv	s4,a4
   12cc0:	cf404ae3          	bgtz	s4,129b4 <_vfprintf_r+0x10c4>
   12cc4:	d19ff06f          	j	129dc <_vfprintf_r+0x10ec>
   12cc8:	fff00a13          	li	s4,-1
   12ccc:	00068913          	mv	s2,a3
   12cd0:	dc9fe06f          	j	11a98 <_vfprintf_r+0x1a8>
   12cd4:	000227b7          	lui	a5,0x22
   12cd8:	9e878793          	addi	a5,a5,-1560 # 219e8 <__clzsi2+0x74>
   12cdc:	02f12823          	sw	a5,48(sp)
   12ce0:	020df793          	andi	a5,s11,32
   12ce4:	3a078463          	beqz	a5,1308c <_vfprintf_r+0x179c>
   12ce8:	00c12783          	lw	a5,12(sp)
   12cec:	00778c13          	addi	s8,a5,7
   12cf0:	ff8c7c13          	andi	s8,s8,-8
   12cf4:	000c2b03          	lw	s6,0(s8)
   12cf8:	004c2803          	lw	a6,4(s8)
   12cfc:	008c0793          	addi	a5,s8,8
   12d00:	00f12623          	sw	a5,12(sp)
   12d04:	001df793          	andi	a5,s11,1
   12d08:	00078e63          	beqz	a5,12d24 <_vfprintf_r+0x1434>
   12d0c:	010b67b3          	or	a5,s6,a6
   12d10:	00078a63          	beqz	a5,12d24 <_vfprintf_r+0x1434>
   12d14:	03000793          	li	a5,48
   12d18:	0af10423          	sb	a5,168(sp)
   12d1c:	0b1104a3          	sb	a7,169(sp)
   12d20:	002ded93          	ori	s11,s11,2
   12d24:	bffdf613          	andi	a2,s11,-1025
   12d28:	00200793          	li	a5,2
   12d2c:	8a8ff06f          	j	11dd4 <_vfprintf_r+0x4e4>
   12d30:	000d8613          	mv	a2,s11
   12d34:	d6cff06f          	j	122a0 <_vfprintf_r+0x9b0>
   12d38:	000227b7          	lui	a5,0x22
   12d3c:	9d478793          	addi	a5,a5,-1580 # 219d4 <__clzsi2+0x60>
   12d40:	02f12823          	sw	a5,48(sp)
   12d44:	f9dff06f          	j	12ce0 <_vfprintf_r+0x13f0>
   12d48:	0c410613          	addi	a2,sp,196
   12d4c:	00048593          	mv	a1,s1
   12d50:	000b8513          	mv	a0,s7
   12d54:	62c010ef          	jal	ra,14380 <__sprint_r>
   12d58:	a2051ae3          	bnez	a0,1278c <_vfprintf_r+0xe9c>
   12d5c:	0cc12603          	lw	a2,204(sp)
   12d60:	00098413          	mv	s0,s3
   12d64:	f60ff06f          	j	124c4 <_vfprintf_r+0xbd4>
   12d68:	00194883          	lbu	a7,1(s2)
   12d6c:	200ded93          	ori	s11,s11,512
   12d70:	00190913          	addi	s2,s2,1
   12d74:	d21fe06f          	j	11a94 <_vfprintf_r+0x1a4>
   12d78:	00194883          	lbu	a7,1(s2)
   12d7c:	020ded93          	ori	s11,s11,32
   12d80:	00190913          	addi	s2,s2,1
   12d84:	d11fe06f          	j	11a94 <_vfprintf_r+0x1a4>
   12d88:	00600793          	li	a5,6
   12d8c:	000a0b13          	mv	s6,s4
   12d90:	1d47e6e3          	bltu	a5,s4,1375c <_vfprintf_r+0x1e6c>
   12d94:	000227b7          	lui	a5,0x22
   12d98:	000b0c13          	mv	s8,s6
   12d9c:	01012623          	sw	a6,12(sp)
   12da0:	9fc78d13          	addi	s10,a5,-1540 # 219fc <__clzsi2+0x88>
   12da4:	d5dfe06f          	j	11b00 <_vfprintf_r+0x210>
   12da8:	00022837          	lui	a6,0x22
   12dac:	01000593          	li	a1,16
   12db0:	0c812703          	lw	a4,200(sp)
   12db4:	ce080813          	addi	a6,a6,-800 # 21ce0 <zeroes.0>
   12db8:	6945d663          	bge	a1,s4,13444 <_vfprintf_r+0x1b54>
   12dbc:	03212a23          	sw	s2,52(sp)
   12dc0:	01000893          	li	a7,16
   12dc4:	00700b13          	li	s6,7
   12dc8:	00080913          	mv	s2,a6
   12dcc:	00c0006f          	j	12dd8 <_vfprintf_r+0x14e8>
   12dd0:	ff0a0a13          	addi	s4,s4,-16
   12dd4:	6748d463          	bge	a7,s4,1343c <_vfprintf_r+0x1b4c>
   12dd8:	01060613          	addi	a2,a2,16
   12ddc:	00170713          	addi	a4,a4,1
   12de0:	01242023          	sw	s2,0(s0)
   12de4:	01142223          	sw	a7,4(s0)
   12de8:	0cc12623          	sw	a2,204(sp)
   12dec:	0ce12423          	sw	a4,200(sp)
   12df0:	00840413          	addi	s0,s0,8
   12df4:	fceb5ee3          	bge	s6,a4,12dd0 <_vfprintf_r+0x14e0>
   12df8:	0c410613          	addi	a2,sp,196
   12dfc:	00048593          	mv	a1,s1
   12e00:	000b8513          	mv	a0,s7
   12e04:	57c010ef          	jal	ra,14380 <__sprint_r>
   12e08:	980512e3          	bnez	a0,1278c <_vfprintf_r+0xe9c>
   12e0c:	0cc12603          	lw	a2,204(sp)
   12e10:	0c812703          	lw	a4,200(sp)
   12e14:	00098413          	mv	s0,s3
   12e18:	01000893          	li	a7,16
   12e1c:	fb5ff06f          	j	12dd0 <_vfprintf_r+0x14e0>
   12e20:	02c12703          	lw	a4,44(sp)
   12e24:	02812783          	lw	a5,40(sp)
   12e28:	00700513          	li	a0,7
   12e2c:	00e42023          	sw	a4,0(s0)
   12e30:	0c812703          	lw	a4,200(sp)
   12e34:	00f60633          	add	a2,a2,a5
   12e38:	00f42223          	sw	a5,4(s0)
   12e3c:	00170713          	addi	a4,a4,1
   12e40:	0cc12623          	sw	a2,204(sp)
   12e44:	0ce12423          	sw	a4,200(sp)
   12e48:	00840413          	addi	s0,s0,8
   12e4c:	bce556e3          	bge	a0,a4,12a18 <_vfprintf_r+0x1128>
   12e50:	0c410613          	addi	a2,sp,196
   12e54:	00048593          	mv	a1,s1
   12e58:	000b8513          	mv	a0,s7
   12e5c:	524010ef          	jal	ra,14380 <__sprint_r>
   12e60:	920516e3          	bnez	a0,1278c <_vfprintf_r+0xe9c>
   12e64:	0ac12583          	lw	a1,172(sp)
   12e68:	0cc12603          	lw	a2,204(sp)
   12e6c:	00098413          	mv	s0,s3
   12e70:	ba9ff06f          	j	12a18 <_vfprintf_r+0x1128>
   12e74:	07800793          	li	a5,120
   12e78:	03000713          	li	a4,48
   12e7c:	0ae10423          	sb	a4,168(sp)
   12e80:	0af104a3          	sb	a5,169(sp)
   12e84:	06300713          	li	a4,99
   12e88:	00012423          	sw	zero,8(sp)
   12e8c:	002ded93          	ori	s11,s11,2
   12e90:	12c10d13          	addi	s10,sp,300
   12e94:	87475463          	bge	a4,s4,11efc <_vfprintf_r+0x60c>
   12e98:	001a0593          	addi	a1,s4,1
   12e9c:	000b8513          	mv	a0,s7
   12ea0:	01112423          	sw	a7,8(sp)
   12ea4:	a88fe0ef          	jal	ra,1112c <_malloc_r>
   12ea8:	00812883          	lw	a7,8(sp)
   12eac:	00050d13          	mv	s10,a0
   12eb0:	00051463          	bnez	a0,12eb8 <_vfprintf_r+0x15c8>
   12eb4:	2b40106f          	j	14168 <_vfprintf_r+0x2878>
   12eb8:	00a12423          	sw	a0,8(sp)
   12ebc:	840ff06f          	j	11efc <_vfprintf_r+0x60c>
   12ec0:	09010b13          	addi	s6,sp,144
   12ec4:	0ac10713          	addi	a4,sp,172
   12ec8:	0bc10813          	addi	a6,sp,188
   12ecc:	0b010793          	addi	a5,sp,176
   12ed0:	000a0693          	mv	a3,s4
   12ed4:	00200613          	li	a2,2
   12ed8:	000b0593          	mv	a1,s6
   12edc:	000b8513          	mv	a0,s7
   12ee0:	03112023          	sw	a7,32(sp)
   12ee4:	09f12823          	sw	t6,144(sp)
   12ee8:	01f12e23          	sw	t6,28(sp)
   12eec:	09e12a23          	sw	t5,148(sp)
   12ef0:	01e12c23          	sw	t5,24(sp)
   12ef4:	09d12c23          	sw	t4,152(sp)
   12ef8:	01d12a23          	sw	t4,20(sp)
   12efc:	09812e23          	sw	s8,156(sp)
   12f00:	6ad030ef          	jal	ra,16dac <_ldtoa_r>
   12f04:	001df713          	andi	a4,s11,1
   12f08:	01412e83          	lw	t4,20(sp)
   12f0c:	01812f03          	lw	t5,24(sp)
   12f10:	01c12f83          	lw	t6,28(sp)
   12f14:	02012883          	lw	a7,32(sp)
   12f18:	00050d13          	mv	s10,a0
   12f1c:	0e0714e3          	bnez	a4,13804 <_vfprintf_r+0x1f14>
   12f20:	0ac12783          	lw	a5,172(sp)
   12f24:	00f12a23          	sw	a5,20(sp)
   12f28:	0bc12783          	lw	a5,188(sp)
   12f2c:	40a787b3          	sub	a5,a5,a0
   12f30:	00f12c23          	sw	a5,24(sp)
   12f34:	01412783          	lw	a5,20(sp)
   12f38:	ffd00713          	li	a4,-3
   12f3c:	00e7c463          	blt	a5,a4,12f44 <_vfprintf_r+0x1654>
   12f40:	56fa5ae3          	bge	s4,a5,13cb4 <_vfprintf_r+0x23c4>
   12f44:	01412783          	lw	a5,20(sp)
   12f48:	ffe88893          	addi	a7,a7,-2
   12f4c:	fff78a13          	addi	s4,a5,-1
   12f50:	0b412623          	sw	s4,172(sp)
   12f54:	0ff8f693          	andi	a3,a7,255
   12f58:	00000613          	li	a2,0
   12f5c:	0ad10a23          	sb	a3,180(sp)
   12f60:	02b00693          	li	a3,43
   12f64:	000a5a63          	bgez	s4,12f78 <_vfprintf_r+0x1688>
   12f68:	01412783          	lw	a5,20(sp)
   12f6c:	00100713          	li	a4,1
   12f70:	02d00693          	li	a3,45
   12f74:	40f70a33          	sub	s4,a4,a5
   12f78:	0ad10aa3          	sb	a3,181(sp)
   12f7c:	00900693          	li	a3,9
   12f80:	0146c463          	blt	a3,s4,12f88 <_vfprintf_r+0x1698>
   12f84:	0180106f          	j	13f9c <_vfprintf_r+0x26ac>
   12f88:	0c310613          	addi	a2,sp,195
   12f8c:	00812a23          	sw	s0,20(sp)
   12f90:	00088b13          	mv	s6,a7
   12f94:	00060413          	mv	s0,a2
   12f98:	00912e23          	sw	s1,28(sp)
   12f9c:	00a00593          	li	a1,10
   12fa0:	000a0513          	mv	a0,s4
   12fa4:	1a10e0ef          	jal	ra,21944 <__modsi3>
   12fa8:	03050793          	addi	a5,a0,48
   12fac:	00040c13          	mv	s8,s0
   12fb0:	fefc0fa3          	sb	a5,-1(s8)
   12fb4:	000a0513          	mv	a0,s4
   12fb8:	00a00593          	li	a1,10
   12fbc:	1050e0ef          	jal	ra,218c0 <__divsi3>
   12fc0:	000a0493          	mv	s1,s4
   12fc4:	06300793          	li	a5,99
   12fc8:	fff40413          	addi	s0,s0,-1
   12fcc:	00050a13          	mv	s4,a0
   12fd0:	fc97c6e3          	blt	a5,s1,12f9c <_vfprintf_r+0x16ac>
   12fd4:	00040613          	mv	a2,s0
   12fd8:	03050713          	addi	a4,a0,48
   12fdc:	ffec0693          	addi	a3,s8,-2
   12fe0:	fee60fa3          	sb	a4,-1(a2)
   12fe4:	0c310793          	addi	a5,sp,195
   12fe8:	01412403          	lw	s0,20(sp)
   12fec:	01c12483          	lw	s1,28(sp)
   12ff0:	000b0893          	mv	a7,s6
   12ff4:	00f6e463          	bltu	a3,a5,12ffc <_vfprintf_r+0x170c>
   12ff8:	1280106f          	j	14120 <_vfprintf_r+0x2830>
   12ffc:	0b610613          	addi	a2,sp,182
   13000:	0006c783          	lbu	a5,0(a3)
   13004:	00168693          	addi	a3,a3,1
   13008:	00160613          	addi	a2,a2,1
   1300c:	fef60fa3          	sb	a5,-1(a2)
   13010:	0c310793          	addi	a5,sp,195
   13014:	fef696e3          	bne	a3,a5,13000 <_vfprintf_r+0x1710>
   13018:	19010793          	addi	a5,sp,400
   1301c:	41878733          	sub	a4,a5,s8
   13020:	f3770793          	addi	a5,a4,-201
   13024:	02f12e23          	sw	a5,60(sp)
   13028:	01812783          	lw	a5,24(sp)
   1302c:	03c12683          	lw	a3,60(sp)
   13030:	00100713          	li	a4,1
   13034:	00d78b33          	add	s6,a5,a3
   13038:	00f74463          	blt	a4,a5,13040 <_vfprintf_r+0x1750>
   1303c:	79d0006f          	j	13fd8 <_vfprintf_r+0x26e8>
   13040:	02812783          	lw	a5,40(sp)
   13044:	00fb0b33          	add	s6,s6,a5
   13048:	fffb4693          	not	a3,s6
   1304c:	bffdfe13          	andi	t3,s11,-1025
   13050:	41f6d693          	srai	a3,a3,0x1f
   13054:	100e6793          	ori	a5,t3,256
   13058:	04f12423          	sw	a5,72(sp)
   1305c:	00db7c33          	and	s8,s6,a3
   13060:	02012023          	sw	zero,32(sp)
   13064:	00012e23          	sw	zero,28(sp)
   13068:	00012a23          	sw	zero,20(sp)
   1306c:	03412783          	lw	a5,52(sp)
   13070:	420786e3          	beqz	a5,13c9c <_vfprintf_r+0x23ac>
   13074:	02d00713          	li	a4,45
   13078:	04812d83          	lw	s11,72(sp)
   1307c:	0ae103a3          	sb	a4,167(sp)
   13080:	00000a13          	li	s4,0
   13084:	001c0c13          	addi	s8,s8,1
   13088:	a8dfe06f          	j	11b14 <_vfprintf_r+0x224>
   1308c:	00c12683          	lw	a3,12(sp)
   13090:	010df793          	andi	a5,s11,16
   13094:	0006a703          	lw	a4,0(a3)
   13098:	00468693          	addi	a3,a3,4
   1309c:	00d12623          	sw	a3,12(sp)
   130a0:	06079663          	bnez	a5,1310c <_vfprintf_r+0x181c>
   130a4:	040df793          	andi	a5,s11,64
   130a8:	04078e63          	beqz	a5,13104 <_vfprintf_r+0x1814>
   130ac:	01071b13          	slli	s6,a4,0x10
   130b0:	010b5b13          	srli	s6,s6,0x10
   130b4:	00000813          	li	a6,0
   130b8:	c4dff06f          	j	12d04 <_vfprintf_r+0x1414>
   130bc:	0c410613          	addi	a2,sp,196
   130c0:	00048593          	mv	a1,s1
   130c4:	000b8513          	mv	a0,s7
   130c8:	2b8010ef          	jal	ra,14380 <__sprint_r>
   130cc:	ec051063          	bnez	a0,1278c <_vfprintf_r+0xe9c>
   130d0:	0cc12603          	lw	a2,204(sp)
   130d4:	0c812a03          	lw	s4,200(sp)
   130d8:	00098b13          	mv	s6,s3
   130dc:	ee9fe06f          	j	11fc4 <_vfprintf_r+0x6d4>
   130e0:	0c410613          	addi	a2,sp,196
   130e4:	00048593          	mv	a1,s1
   130e8:	000b8513          	mv	a0,s7
   130ec:	294010ef          	jal	ra,14380 <__sprint_r>
   130f0:	e8051e63          	bnez	a0,1278c <_vfprintf_r+0xe9c>
   130f4:	0cc12603          	lw	a2,204(sp)
   130f8:	0c812a03          	lw	s4,200(sp)
   130fc:	00098b13          	mv	s6,s3
   13100:	ef5fe06f          	j	11ff4 <_vfprintf_r+0x704>
   13104:	200df793          	andi	a5,s11,512
   13108:	68079a63          	bnez	a5,1379c <_vfprintf_r+0x1eac>
   1310c:	00070b13          	mv	s6,a4
   13110:	00000813          	li	a6,0
   13114:	bf1ff06f          	j	12d04 <_vfprintf_r+0x1414>
   13118:	19010c13          	addi	s8,sp,400
   1311c:	01212423          	sw	s2,8(sp)
   13120:	02812023          	sw	s0,32(sp)
   13124:	02912a23          	sw	s1,52(sp)
   13128:	03812403          	lw	s0,56(sp)
   1312c:	40067d93          	andi	s11,a2,1024
   13130:	00000d13          	li	s10,0
   13134:	01112a23          	sw	a7,20(sp)
   13138:	00c12e23          	sw	a2,28(sp)
   1313c:	000c0493          	mv	s1,s8
   13140:	00080913          	mv	s2,a6
   13144:	0280006f          	j	1316c <_vfprintf_r+0x187c>
   13148:	00a00613          	li	a2,10
   1314c:	00000693          	li	a3,0
   13150:	000b0513          	mv	a0,s6
   13154:	00090593          	mv	a1,s2
   13158:	2d9080ef          	jal	ra,1bc30 <__udivdi3>
   1315c:	3e0902e3          	beqz	s2,13d40 <_vfprintf_r+0x2450>
   13160:	00050b13          	mv	s6,a0
   13164:	00058913          	mv	s2,a1
   13168:	000c0493          	mv	s1,s8
   1316c:	00a00613          	li	a2,10
   13170:	00000693          	li	a3,0
   13174:	000b0513          	mv	a0,s6
   13178:	00090593          	mv	a1,s2
   1317c:	078090ef          	jal	ra,1c1f4 <__umoddi3>
   13180:	03050513          	addi	a0,a0,48
   13184:	fea48fa3          	sb	a0,-1(s1)
   13188:	fff48c13          	addi	s8,s1,-1
   1318c:	001d0d13          	addi	s10,s10,1
   13190:	fa0d8ce3          	beqz	s11,13148 <_vfprintf_r+0x1858>
   13194:	00044783          	lbu	a5,0(s0)
   13198:	fafd18e3          	bne	s10,a5,13148 <_vfprintf_r+0x1858>
   1319c:	0ff00793          	li	a5,255
   131a0:	fafd04e3          	beq	s10,a5,13148 <_vfprintf_r+0x1858>
   131a4:	52091063          	bnez	s2,136c4 <_vfprintf_r+0x1dd4>
   131a8:	00900793          	li	a5,9
   131ac:	5167ec63          	bltu	a5,s6,136c4 <_vfprintf_r+0x1dd4>
   131b0:	01c12603          	lw	a2,28(sp)
   131b4:	01a12c23          	sw	s10,24(sp)
   131b8:	19010793          	addi	a5,sp,400
   131bc:	000c0d13          	mv	s10,s8
   131c0:	02812c23          	sw	s0,56(sp)
   131c4:	00812903          	lw	s2,8(sp)
   131c8:	01412883          	lw	a7,20(sp)
   131cc:	02012403          	lw	s0,32(sp)
   131d0:	03412483          	lw	s1,52(sp)
   131d4:	41a78b33          	sub	s6,a5,s10
   131d8:	00060d93          	mv	s11,a2
   131dc:	b9dfe06f          	j	11d78 <_vfprintf_r+0x488>
   131e0:	0c812703          	lw	a4,200(sp)
   131e4:	000225b7          	lui	a1,0x22
   131e8:	a0458593          	addi	a1,a1,-1532 # 21a04 <__clzsi2+0x90>
   131ec:	00b42023          	sw	a1,0(s0)
   131f0:	00160613          	addi	a2,a2,1
   131f4:	00100593          	li	a1,1
   131f8:	00170713          	addi	a4,a4,1
   131fc:	00b42223          	sw	a1,4(s0)
   13200:	0cc12623          	sw	a2,204(sp)
   13204:	0ce12423          	sw	a4,200(sp)
   13208:	00700593          	li	a1,7
   1320c:	00840413          	addi	s0,s0,8
   13210:	4ee5ca63          	blt	a1,a4,13704 <_vfprintf_r+0x1e14>
   13214:	14051063          	bnez	a0,13354 <_vfprintf_r+0x1a64>
   13218:	01812783          	lw	a5,24(sp)
   1321c:	001df713          	andi	a4,s11,1
   13220:	00f76733          	or	a4,a4,a5
   13224:	00071463          	bnez	a4,1322c <_vfprintf_r+0x193c>
   13228:	9b9fe06f          	j	11be0 <_vfprintf_r+0x2f0>
   1322c:	02c12703          	lw	a4,44(sp)
   13230:	02812783          	lw	a5,40(sp)
   13234:	00700593          	li	a1,7
   13238:	00e42023          	sw	a4,0(s0)
   1323c:	0c812703          	lw	a4,200(sp)
   13240:	00c78633          	add	a2,a5,a2
   13244:	00f42223          	sw	a5,4(s0)
   13248:	00170713          	addi	a4,a4,1
   1324c:	0cc12623          	sw	a2,204(sp)
   13250:	0ce12423          	sw	a4,200(sp)
   13254:	58e5c263          	blt	a1,a4,137d8 <_vfprintf_r+0x1ee8>
   13258:	00840413          	addi	s0,s0,8
   1325c:	12c0006f          	j	13388 <_vfprintf_r+0x1a98>
   13260:	02412503          	lw	a0,36(sp)
   13264:	a6cfd0ef          	jal	ra,104d0 <__sinit>
   13268:	ee8fe06f          	j	11950 <_vfprintf_r+0x60>
   1326c:	0c410613          	addi	a2,sp,196
   13270:	00048593          	mv	a1,s1
   13274:	000b8513          	mv	a0,s7
   13278:	108010ef          	jal	ra,14380 <__sprint_r>
   1327c:	d0051863          	bnez	a0,1278c <_vfprintf_r+0xe9c>
   13280:	0cc12603          	lw	a2,204(sp)
   13284:	00098413          	mv	s0,s3
   13288:	a00ff06f          	j	12488 <_vfprintf_r+0xb98>
   1328c:	00090813          	mv	a6,s2
   13290:	01412903          	lw	s2,20(sp)
   13294:	01042023          	sw	a6,0(s0)
   13298:	01442223          	sw	s4,4(s0)
   1329c:	01460633          	add	a2,a2,s4
   132a0:	00178793          	addi	a5,a5,1
   132a4:	0cc12623          	sw	a2,204(sp)
   132a8:	0cf12423          	sw	a5,200(sp)
   132ac:	00700713          	li	a4,7
   132b0:	00f74463          	blt	a4,a5,132b8 <_vfprintf_r+0x19c8>
   132b4:	929fe06f          	j	11bdc <_vfprintf_r+0x2ec>
   132b8:	de1fe06f          	j	12098 <_vfprintf_r+0x7a8>
   132bc:	0d012783          	lw	a5,208(sp)
   132c0:	08010593          	addi	a1,sp,128
   132c4:	09010513          	addi	a0,sp,144
   132c8:	08f12823          	sw	a5,144(sp)
   132cc:	0d412783          	lw	a5,212(sp)
   132d0:	08012023          	sw	zero,128(sp)
   132d4:	08012223          	sw	zero,132(sp)
   132d8:	08f12a23          	sw	a5,148(sp)
   132dc:	0d812783          	lw	a5,216(sp)
   132e0:	08012423          	sw	zero,136(sp)
   132e4:	08012623          	sw	zero,140(sp)
   132e8:	08f12c23          	sw	a5,152(sp)
   132ec:	0dc12783          	lw	a5,220(sp)
   132f0:	08f12e23          	sw	a5,156(sp)
   132f4:	7040b0ef          	jal	ra,1e9f8 <__letf2>
   132f8:	00812883          	lw	a7,8(sp)
   132fc:	240548e3          	bltz	a0,13d4c <_vfprintf_r+0x245c>
   13300:	0a714703          	lbu	a4,167(sp)
   13304:	04700793          	li	a5,71
   13308:	4317d263          	bge	a5,a7,1372c <_vfprintf_r+0x1e3c>
   1330c:	000227b7          	lui	a5,0x22
   13310:	9c878d13          	addi	s10,a5,-1592 # 219c8 <__clzsi2+0x54>
   13314:	00012423          	sw	zero,8(sp)
   13318:	02012023          	sw	zero,32(sp)
   1331c:	00012e23          	sw	zero,28(sp)
   13320:	00012a23          	sw	zero,20(sp)
   13324:	f7fdfd93          	andi	s11,s11,-129
   13328:	00300c13          	li	s8,3
   1332c:	00300b13          	li	s6,3
   13330:	00000a13          	li	s4,0
   13334:	00070463          	beqz	a4,1333c <_vfprintf_r+0x1a4c>
   13338:	a65fe06f          	j	11d9c <_vfprintf_r+0x4ac>
   1333c:	fd8fe06f          	j	11b14 <_vfprintf_r+0x224>
   13340:	00c12783          	lw	a5,12(sp)
   13344:	00412703          	lw	a4,4(sp)
   13348:	0007a783          	lw	a5,0(a5)
   1334c:	00e7a023          	sw	a4,0(a5)
   13350:	fe9fe06f          	j	12338 <_vfprintf_r+0xa48>
   13354:	02c12703          	lw	a4,44(sp)
   13358:	02812783          	lw	a5,40(sp)
   1335c:	00700593          	li	a1,7
   13360:	00e42023          	sw	a4,0(s0)
   13364:	0c812703          	lw	a4,200(sp)
   13368:	00c78633          	add	a2,a5,a2
   1336c:	00f42223          	sw	a5,4(s0)
   13370:	00170713          	addi	a4,a4,1
   13374:	0cc12623          	sw	a2,204(sp)
   13378:	0ce12423          	sw	a4,200(sp)
   1337c:	00840413          	addi	s0,s0,8
   13380:	44e5cc63          	blt	a1,a4,137d8 <_vfprintf_r+0x1ee8>
   13384:	340542e3          	bltz	a0,13ec8 <_vfprintf_r+0x25d8>
   13388:	01812783          	lw	a5,24(sp)
   1338c:	00170713          	addi	a4,a4,1
   13390:	01a42023          	sw	s10,0(s0)
   13394:	00c78633          	add	a2,a5,a2
   13398:	00f42223          	sw	a5,4(s0)
   1339c:	0cc12623          	sw	a2,204(sp)
   133a0:	0ce12423          	sw	a4,200(sp)
   133a4:	00700793          	li	a5,7
   133a8:	00e7c463          	blt	a5,a4,133b0 <_vfprintf_r+0x1ac0>
   133ac:	831fe06f          	j	11bdc <_vfprintf_r+0x2ec>
   133b0:	ce9fe06f          	j	12098 <_vfprintf_r+0x7a8>
   133b4:	000d0513          	mv	a0,s10
   133b8:	01012423          	sw	a6,8(sp)
   133bc:	03112a23          	sw	a7,52(sp)
   133c0:	5c8030ef          	jal	ra,16988 <strlen>
   133c4:	00812803          	lw	a6,8(sp)
   133c8:	0a714703          	lbu	a4,167(sp)
   133cc:	fff54693          	not	a3,a0
   133d0:	41f6d693          	srai	a3,a3,0x1f
   133d4:	01012623          	sw	a6,12(sp)
   133d8:	00012423          	sw	zero,8(sp)
   133dc:	02012023          	sw	zero,32(sp)
   133e0:	00012e23          	sw	zero,28(sp)
   133e4:	00012a23          	sw	zero,20(sp)
   133e8:	03412883          	lw	a7,52(sp)
   133ec:	00050b13          	mv	s6,a0
   133f0:	00d57c33          	and	s8,a0,a3
   133f4:	00000a13          	li	s4,0
   133f8:	00070463          	beqz	a4,13400 <_vfprintf_r+0x1b10>
   133fc:	9a1fe06f          	j	11d9c <_vfprintf_r+0x4ac>
   13400:	f14fe06f          	j	11b14 <_vfprintf_r+0x224>
   13404:	00090813          	mv	a6,s2
   13408:	01412903          	lw	s2,20(sp)
   1340c:	00860633          	add	a2,a2,s0
   13410:	001a0a13          	addi	s4,s4,1
   13414:	010b2023          	sw	a6,0(s6)
   13418:	c3dfe06f          	j	12054 <_vfprintf_r+0x764>
   1341c:	0dc12783          	lw	a5,220(sp)
   13420:	3807ca63          	bltz	a5,137b4 <_vfprintf_r+0x1ec4>
   13424:	0a714703          	lbu	a4,167(sp)
   13428:	04700793          	li	a5,71
   1342c:	1517cee3          	blt	a5,a7,13d88 <_vfprintf_r+0x2498>
   13430:	000227b7          	lui	a5,0x22
   13434:	9cc78d13          	addi	s10,a5,-1588 # 219cc <__clzsi2+0x58>
   13438:	eddff06f          	j	13314 <_vfprintf_r+0x1a24>
   1343c:	00090813          	mv	a6,s2
   13440:	03412903          	lw	s2,52(sp)
   13444:	01460633          	add	a2,a2,s4
   13448:	00170713          	addi	a4,a4,1
   1344c:	01042023          	sw	a6,0(s0)
   13450:	01442223          	sw	s4,4(s0)
   13454:	0cc12623          	sw	a2,204(sp)
   13458:	0ce12423          	sw	a4,200(sp)
   1345c:	00700593          	li	a1,7
   13460:	00840413          	addi	s0,s0,8
   13464:	d8e5d863          	bge	a1,a4,129f4 <_vfprintf_r+0x1104>
   13468:	0c410613          	addi	a2,sp,196
   1346c:	00048593          	mv	a1,s1
   13470:	000b8513          	mv	a0,s7
   13474:	70d000ef          	jal	ra,14380 <__sprint_r>
   13478:	b0051a63          	bnez	a0,1278c <_vfprintf_r+0xe9c>
   1347c:	0cc12603          	lw	a2,204(sp)
   13480:	00098413          	mv	s0,s3
   13484:	d70ff06f          	j	129f4 <_vfprintf_r+0x1104>
   13488:	01812783          	lw	a5,24(sp)
   1348c:	01c12b03          	lw	s6,28(sp)
   13490:	000228b7          	lui	a7,0x22
   13494:	00fd07b3          	add	a5,s10,a5
   13498:	03212a23          	sw	s2,52(sp)
   1349c:	05912623          	sw	s9,76(sp)
   134a0:	01812e23          	sw	s8,28(sp)
   134a4:	05a12823          	sw	s10,80(sp)
   134a8:	05b12423          	sw	s11,72(sp)
   134ac:	000a0c93          	mv	s9,s4
   134b0:	00040693          	mv	a3,s0
   134b4:	04012a03          	lw	s4,64(sp)
   134b8:	04412403          	lw	s0,68(sp)
   134bc:	03812c03          	lw	s8,56(sp)
   134c0:	02012d03          	lw	s10,32(sp)
   134c4:	00700813          	li	a6,7
   134c8:	01000713          	li	a4,16
   134cc:	ce088893          	addi	a7,a7,-800 # 21ce0 <zeroes.0>
   134d0:	00078913          	mv	s2,a5
   134d4:	09605463          	blez	s6,1355c <_vfprintf_r+0x1c6c>
   134d8:	17a05e63          	blez	s10,13654 <_vfprintf_r+0x1d64>
   134dc:	fffd0d13          	addi	s10,s10,-1
   134e0:	0c812783          	lw	a5,200(sp)
   134e4:	01460633          	add	a2,a2,s4
   134e8:	0086a023          	sw	s0,0(a3)
   134ec:	00178793          	addi	a5,a5,1
   134f0:	0146a223          	sw	s4,4(a3)
   134f4:	0cc12623          	sw	a2,204(sp)
   134f8:	0cf12423          	sw	a5,200(sp)
   134fc:	00868693          	addi	a3,a3,8
   13500:	16f84063          	blt	a6,a5,13660 <_vfprintf_r+0x1d70>
   13504:	000c4583          	lbu	a1,0(s8)
   13508:	41990db3          	sub	s11,s2,s9
   1350c:	01b5d463          	bge	a1,s11,13514 <_vfprintf_r+0x1c24>
   13510:	00058d93          	mv	s11,a1
   13514:	03b05663          	blez	s11,13540 <_vfprintf_r+0x1c50>
   13518:	0c812583          	lw	a1,200(sp)
   1351c:	01b60633          	add	a2,a2,s11
   13520:	0196a023          	sw	s9,0(a3)
   13524:	00158593          	addi	a1,a1,1
   13528:	01b6a223          	sw	s11,4(a3)
   1352c:	0cc12623          	sw	a2,204(sp)
   13530:	0cb12423          	sw	a1,200(sp)
   13534:	14b84e63          	blt	a6,a1,13690 <_vfprintf_r+0x1da0>
   13538:	000c4583          	lbu	a1,0(s8)
   1353c:	00868693          	addi	a3,a3,8
   13540:	fffdc513          	not	a0,s11
   13544:	41f55513          	srai	a0,a0,0x1f
   13548:	00adf7b3          	and	a5,s11,a0
   1354c:	40f58db3          	sub	s11,a1,a5
   13550:	05b04263          	bgtz	s11,13594 <_vfprintf_r+0x1ca4>
   13554:	00bc8cb3          	add	s9,s9,a1
   13558:	f96040e3          	bgtz	s6,134d8 <_vfprintf_r+0x1be8>
   1355c:	f9a040e3          	bgtz	s10,134dc <_vfprintf_r+0x1bec>
   13560:	05012d03          	lw	s10,80(sp)
   13564:	01812783          	lw	a5,24(sp)
   13568:	03812c23          	sw	s8,56(sp)
   1356c:	000c8a13          	mv	s4,s9
   13570:	00fd0733          	add	a4,s10,a5
   13574:	03412903          	lw	s2,52(sp)
   13578:	04812d83          	lw	s11,72(sp)
   1357c:	04c12c83          	lw	s9,76(sp)
   13580:	01c12c03          	lw	s8,28(sp)
   13584:	00068413          	mv	s0,a3
   13588:	c7477e63          	bgeu	a4,s4,12a04 <_vfprintf_r+0x1114>
   1358c:	00070a13          	mv	s4,a4
   13590:	c74ff06f          	j	12a04 <_vfprintf_r+0x1114>
   13594:	00022fb7          	lui	t6,0x22
   13598:	0c812583          	lw	a1,200(sp)
   1359c:	ce0f8f93          	addi	t6,t6,-800 # 21ce0 <zeroes.0>
   135a0:	09b75463          	bge	a4,s11,13628 <_vfprintf_r+0x1d38>
   135a4:	00812a23          	sw	s0,20(sp)
   135a8:	000d8413          	mv	s0,s11
   135ac:	00090d93          	mv	s11,s2
   135b0:	00088913          	mv	s2,a7
   135b4:	00c0006f          	j	135c0 <_vfprintf_r+0x1cd0>
   135b8:	ff040413          	addi	s0,s0,-16
   135bc:	04875e63          	bge	a4,s0,13618 <_vfprintf_r+0x1d28>
   135c0:	01060613          	addi	a2,a2,16
   135c4:	00158593          	addi	a1,a1,1
   135c8:	0116a023          	sw	a7,0(a3)
   135cc:	00e6a223          	sw	a4,4(a3)
   135d0:	0cc12623          	sw	a2,204(sp)
   135d4:	0cb12423          	sw	a1,200(sp)
   135d8:	00868693          	addi	a3,a3,8
   135dc:	fcb85ee3          	bge	a6,a1,135b8 <_vfprintf_r+0x1cc8>
   135e0:	0c410613          	addi	a2,sp,196
   135e4:	00048593          	mv	a1,s1
   135e8:	000b8513          	mv	a0,s7
   135ec:	595000ef          	jal	ra,14380 <__sprint_r>
   135f0:	98051e63          	bnez	a0,1278c <_vfprintf_r+0xe9c>
   135f4:	000227b7          	lui	a5,0x22
   135f8:	01000713          	li	a4,16
   135fc:	ff040413          	addi	s0,s0,-16
   13600:	0cc12603          	lw	a2,204(sp)
   13604:	0c812583          	lw	a1,200(sp)
   13608:	00098693          	mv	a3,s3
   1360c:	ce078893          	addi	a7,a5,-800 # 21ce0 <zeroes.0>
   13610:	00700813          	li	a6,7
   13614:	fa8746e3          	blt	a4,s0,135c0 <_vfprintf_r+0x1cd0>
   13618:	00090f93          	mv	t6,s2
   1361c:	000d8913          	mv	s2,s11
   13620:	00040d93          	mv	s11,s0
   13624:	01412403          	lw	s0,20(sp)
   13628:	01b60633          	add	a2,a2,s11
   1362c:	00158593          	addi	a1,a1,1
   13630:	01f6a023          	sw	t6,0(a3)
   13634:	01b6a223          	sw	s11,4(a3)
   13638:	0cc12623          	sw	a2,204(sp)
   1363c:	0cb12423          	sw	a1,200(sp)
   13640:	6cb84263          	blt	a6,a1,13d04 <_vfprintf_r+0x2414>
   13644:	000c4583          	lbu	a1,0(s8)
   13648:	00868693          	addi	a3,a3,8
   1364c:	00bc8cb3          	add	s9,s9,a1
   13650:	f09ff06f          	j	13558 <_vfprintf_r+0x1c68>
   13654:	fffc0c13          	addi	s8,s8,-1
   13658:	fffb0b13          	addi	s6,s6,-1
   1365c:	e85ff06f          	j	134e0 <_vfprintf_r+0x1bf0>
   13660:	0c410613          	addi	a2,sp,196
   13664:	00048593          	mv	a1,s1
   13668:	000b8513          	mv	a0,s7
   1366c:	515000ef          	jal	ra,14380 <__sprint_r>
   13670:	90051e63          	bnez	a0,1278c <_vfprintf_r+0xe9c>
   13674:	000227b7          	lui	a5,0x22
   13678:	0cc12603          	lw	a2,204(sp)
   1367c:	00098693          	mv	a3,s3
   13680:	ce078893          	addi	a7,a5,-800 # 21ce0 <zeroes.0>
   13684:	01000713          	li	a4,16
   13688:	00700813          	li	a6,7
   1368c:	e79ff06f          	j	13504 <_vfprintf_r+0x1c14>
   13690:	0c410613          	addi	a2,sp,196
   13694:	00048593          	mv	a1,s1
   13698:	000b8513          	mv	a0,s7
   1369c:	4e5000ef          	jal	ra,14380 <__sprint_r>
   136a0:	8e051663          	bnez	a0,1278c <_vfprintf_r+0xe9c>
   136a4:	000227b7          	lui	a5,0x22
   136a8:	000c4583          	lbu	a1,0(s8)
   136ac:	0cc12603          	lw	a2,204(sp)
   136b0:	00098693          	mv	a3,s3
   136b4:	ce078893          	addi	a7,a5,-800 # 21ce0 <zeroes.0>
   136b8:	01000713          	li	a4,16
   136bc:	00700813          	li	a6,7
   136c0:	e81ff06f          	j	13540 <_vfprintf_r+0x1c50>
   136c4:	04012783          	lw	a5,64(sp)
   136c8:	04412583          	lw	a1,68(sp)
   136cc:	00000d13          	li	s10,0
   136d0:	40fc0c33          	sub	s8,s8,a5
   136d4:	00078613          	mv	a2,a5
   136d8:	000c0513          	mv	a0,s8
   136dc:	579020ef          	jal	ra,16454 <strncpy>
   136e0:	00144783          	lbu	a5,1(s0)
   136e4:	00a00613          	li	a2,10
   136e8:	00000693          	li	a3,0
   136ec:	00f037b3          	snez	a5,a5
   136f0:	000b0513          	mv	a0,s6
   136f4:	00090593          	mv	a1,s2
   136f8:	00f40433          	add	s0,s0,a5
   136fc:	534080ef          	jal	ra,1bc30 <__udivdi3>
   13700:	a61ff06f          	j	13160 <_vfprintf_r+0x1870>
   13704:	0c410613          	addi	a2,sp,196
   13708:	00048593          	mv	a1,s1
   1370c:	000b8513          	mv	a0,s7
   13710:	471000ef          	jal	ra,14380 <__sprint_r>
   13714:	00050463          	beqz	a0,1371c <_vfprintf_r+0x1e2c>
   13718:	874ff06f          	j	1278c <_vfprintf_r+0xe9c>
   1371c:	0ac12503          	lw	a0,172(sp)
   13720:	0cc12603          	lw	a2,204(sp)
   13724:	00098413          	mv	s0,s3
   13728:	aedff06f          	j	13214 <_vfprintf_r+0x1924>
   1372c:	000227b7          	lui	a5,0x22
   13730:	9c478d13          	addi	s10,a5,-1596 # 219c4 <__clzsi2+0x50>
   13734:	be1ff06f          	j	13314 <_vfprintf_r+0x1a24>
   13738:	0c410613          	addi	a2,sp,196
   1373c:	00048593          	mv	a1,s1
   13740:	000b8513          	mv	a0,s7
   13744:	43d000ef          	jal	ra,14380 <__sprint_r>
   13748:	00050463          	beqz	a0,13750 <_vfprintf_r+0x1e60>
   1374c:	840ff06f          	j	1278c <_vfprintf_r+0xe9c>
   13750:	0cc12603          	lw	a2,204(sp)
   13754:	00098413          	mv	s0,s3
   13758:	a84ff06f          	j	129dc <_vfprintf_r+0x10ec>
   1375c:	00600b13          	li	s6,6
   13760:	e34ff06f          	j	12d94 <_vfprintf_r+0x14a4>
   13764:	00c12783          	lw	a5,12(sp)
   13768:	00412703          	lw	a4,4(sp)
   1376c:	0007a783          	lw	a5,0(a5)
   13770:	00e79023          	sh	a4,0(a5)
   13774:	bc5fe06f          	j	12338 <_vfprintf_r+0xa48>
   13778:	0ff77b13          	andi	s6,a4,255
   1377c:	00000813          	li	a6,0
   13780:	00100793          	li	a5,1
   13784:	e50fe06f          	j	11dd4 <_vfprintf_r+0x4e4>
   13788:	01871b13          	slli	s6,a4,0x18
   1378c:	418b5b13          	srai	s6,s6,0x18
   13790:	41fb5813          	srai	a6,s6,0x1f
   13794:	00080793          	mv	a5,a6
   13798:	db8fe06f          	j	11d50 <_vfprintf_r+0x460>
   1379c:	0ff77b13          	andi	s6,a4,255
   137a0:	00000813          	li	a6,0
   137a4:	d60ff06f          	j	12d04 <_vfprintf_r+0x1414>
   137a8:	0ff77b13          	andi	s6,a4,255
   137ac:	00000813          	li	a6,0
   137b0:	e1cfe06f          	j	11dcc <_vfprintf_r+0x4dc>
   137b4:	02d00793          	li	a5,45
   137b8:	0af103a3          	sb	a5,167(sp)
   137bc:	02d00713          	li	a4,45
   137c0:	c69ff06f          	j	13428 <_vfprintf_r+0x1b38>
   137c4:	02412503          	lw	a0,36(sp)
   137c8:	0c410613          	addi	a2,sp,196
   137cc:	00048593          	mv	a1,s1
   137d0:	3b1000ef          	jal	ra,14380 <__sprint_r>
   137d4:	c6cfe06f          	j	11c40 <_vfprintf_r+0x350>
   137d8:	0c410613          	addi	a2,sp,196
   137dc:	00048593          	mv	a1,s1
   137e0:	000b8513          	mv	a0,s7
   137e4:	39d000ef          	jal	ra,14380 <__sprint_r>
   137e8:	00050463          	beqz	a0,137f0 <_vfprintf_r+0x1f00>
   137ec:	fa1fe06f          	j	1278c <_vfprintf_r+0xe9c>
   137f0:	0ac12503          	lw	a0,172(sp)
   137f4:	0cc12603          	lw	a2,204(sp)
   137f8:	0c812703          	lw	a4,200(sp)
   137fc:	00098413          	mv	s0,s3
   13800:	b85ff06f          	j	13384 <_vfprintf_r+0x1a94>
   13804:	01450733          	add	a4,a0,s4
   13808:	04700613          	li	a2,71
   1380c:	08010593          	addi	a1,sp,128
   13810:	000b0513          	mv	a0,s6
   13814:	00e12e23          	sw	a4,28(sp)
   13818:	00c12c23          	sw	a2,24(sp)
   1381c:	01112a23          	sw	a7,20(sp)
   13820:	09f12823          	sw	t6,144(sp)
   13824:	09e12a23          	sw	t5,148(sp)
   13828:	09d12c23          	sw	t4,152(sp)
   1382c:	09812e23          	sw	s8,156(sp)
   13830:	08012023          	sw	zero,128(sp)
   13834:	08012223          	sw	zero,132(sp)
   13838:	08012423          	sw	zero,136(sp)
   1383c:	08012623          	sw	zero,140(sp)
   13840:	7bd0a0ef          	jal	ra,1e7fc <__eqtf2>
   13844:	01412883          	lw	a7,20(sp)
   13848:	01812603          	lw	a2,24(sp)
   1384c:	01c12703          	lw	a4,28(sp)
   13850:	56050a63          	beqz	a0,13dc4 <_vfprintf_r+0x24d4>
   13854:	0bc12783          	lw	a5,188(sp)
   13858:	00e7fe63          	bgeu	a5,a4,13874 <_vfprintf_r+0x1f84>
   1385c:	03000593          	li	a1,48
   13860:	00178693          	addi	a3,a5,1
   13864:	0ad12e23          	sw	a3,188(sp)
   13868:	00b78023          	sb	a1,0(a5)
   1386c:	0bc12783          	lw	a5,188(sp)
   13870:	fee7e8e3          	bltu	a5,a4,13860 <_vfprintf_r+0x1f70>
   13874:	0ac12703          	lw	a4,172(sp)
   13878:	00e12a23          	sw	a4,20(sp)
   1387c:	41a787b3          	sub	a5,a5,s10
   13880:	04700713          	li	a4,71
   13884:	00f12c23          	sw	a5,24(sp)
   13888:	eae60663          	beq	a2,a4,12f34 <_vfprintf_r+0x1644>
   1388c:	04600713          	li	a4,70
   13890:	5ce60a63          	beq	a2,a4,13e64 <_vfprintf_r+0x2574>
   13894:	01412783          	lw	a5,20(sp)
   13898:	fff78a13          	addi	s4,a5,-1
   1389c:	eb4ff06f          	j	12f50 <_vfprintf_r+0x1660>
   138a0:	001a0693          	addi	a3,s4,1
   138a4:	00200613          	li	a2,2
   138a8:	09010b13          	addi	s6,sp,144
   138ac:	0ac10713          	addi	a4,sp,172
   138b0:	000b0593          	mv	a1,s6
   138b4:	0bc10813          	addi	a6,sp,188
   138b8:	0b010793          	addi	a5,sp,176
   138bc:	000b8513          	mv	a0,s7
   138c0:	05112623          	sw	a7,76(sp)
   138c4:	02d12023          	sw	a3,32(sp)
   138c8:	09f12823          	sw	t6,144(sp)
   138cc:	01f12e23          	sw	t6,28(sp)
   138d0:	09e12a23          	sw	t5,148(sp)
   138d4:	01e12c23          	sw	t5,24(sp)
   138d8:	09d12c23          	sw	t4,152(sp)
   138dc:	01d12a23          	sw	t4,20(sp)
   138e0:	09812e23          	sw	s8,156(sp)
   138e4:	4c8030ef          	jal	ra,16dac <_ldtoa_r>
   138e8:	04c12883          	lw	a7,76(sp)
   138ec:	02012683          	lw	a3,32(sp)
   138f0:	04600593          	li	a1,70
   138f4:	fdf8f613          	andi	a2,a7,-33
   138f8:	01412e83          	lw	t4,20(sp)
   138fc:	01812f03          	lw	t5,24(sp)
   13900:	01c12f83          	lw	t6,28(sp)
   13904:	00050d13          	mv	s10,a0
   13908:	00d50733          	add	a4,a0,a3
   1390c:	04b618e3          	bne	a2,a1,1415c <_vfprintf_r+0x286c>
   13910:	000d4503          	lbu	a0,0(s10)
   13914:	03000593          	li	a1,48
   13918:	4cb50463          	beq	a0,a1,13de0 <_vfprintf_r+0x24f0>
   1391c:	0ac12683          	lw	a3,172(sp)
   13920:	08010593          	addi	a1,sp,128
   13924:	00d70733          	add	a4,a4,a3
   13928:	ee9ff06f          	j	13810 <_vfprintf_r+0x1f20>
   1392c:	09010b13          	addi	s6,sp,144
   13930:	08010593          	addi	a1,sp,128
   13934:	0ac10613          	addi	a2,sp,172
   13938:	000b0513          	mv	a0,s6
   1393c:	05112423          	sw	a7,72(sp)
   13940:	09f12023          	sw	t6,128(sp)
   13944:	09e12223          	sw	t5,132(sp)
   13948:	09d12423          	sw	t4,136(sp)
   1394c:	00b12a23          	sw	a1,20(sp)
   13950:	09812623          	sw	s8,140(sp)
   13954:	23c030ef          	jal	ra,16b90 <frexpl>
   13958:	09012703          	lw	a4,144(sp)
   1395c:	01412583          	lw	a1,20(sp)
   13960:	07010613          	addi	a2,sp,112
   13964:	08e12023          	sw	a4,128(sp)
   13968:	09412703          	lw	a4,148(sp)
   1396c:	000b0513          	mv	a0,s6
   13970:	06012823          	sw	zero,112(sp)
   13974:	08e12223          	sw	a4,132(sp)
   13978:	09812703          	lw	a4,152(sp)
   1397c:	06012a23          	sw	zero,116(sp)
   13980:	06012c23          	sw	zero,120(sp)
   13984:	08e12423          	sw	a4,136(sp)
   13988:	09c12703          	lw	a4,156(sp)
   1398c:	08e12623          	sw	a4,140(sp)
   13990:	3ffc0737          	lui	a4,0x3ffc0
   13994:	06e12e23          	sw	a4,124(sp)
   13998:	1900b0ef          	jal	ra,1eb28 <__multf3>
   1399c:	01412583          	lw	a1,20(sp)
   139a0:	09012f03          	lw	t5,144(sp)
   139a4:	09412e83          	lw	t4,148(sp)
   139a8:	09812803          	lw	a6,152(sp)
   139ac:	09c12603          	lw	a2,156(sp)
   139b0:	000b0513          	mv	a0,s6
   139b4:	02b12e23          	sw	a1,60(sp)
   139b8:	03e12023          	sw	t5,32(sp)
   139bc:	01d12e23          	sw	t4,28(sp)
   139c0:	01012c23          	sw	a6,24(sp)
   139c4:	00c12a23          	sw	a2,20(sp)
   139c8:	08012023          	sw	zero,128(sp)
   139cc:	08012223          	sw	zero,132(sp)
   139d0:	08012423          	sw	zero,136(sp)
   139d4:	08012623          	sw	zero,140(sp)
   139d8:	6250a0ef          	jal	ra,1e7fc <__eqtf2>
   139dc:	01412603          	lw	a2,20(sp)
   139e0:	01812803          	lw	a6,24(sp)
   139e4:	01c12e83          	lw	t4,28(sp)
   139e8:	02012f03          	lw	t5,32(sp)
   139ec:	03c12583          	lw	a1,60(sp)
   139f0:	04812883          	lw	a7,72(sp)
   139f4:	00051663          	bnez	a0,13a00 <_vfprintf_r+0x2110>
   139f8:	00100713          	li	a4,1
   139fc:	0ae12623          	sw	a4,172(sp)
   13a00:	06100713          	li	a4,97
   13a04:	6ce88263          	beq	a7,a4,140c8 <_vfprintf_r+0x27d8>
   13a08:	00022737          	lui	a4,0x22
   13a0c:	9e870793          	addi	a5,a4,-1560 # 219e8 <__clzsi2+0x74>
   13a10:	00f12a23          	sw	a5,20(sp)
   13a14:	01212c23          	sw	s2,24(sp)
   13a18:	03912e23          	sw	s9,60(sp)
   13a1c:	04812423          	sw	s0,72(sp)
   13a20:	000d0913          	mv	s2,s10
   13a24:	05712623          	sw	s7,76(sp)
   13a28:	04912823          	sw	s1,80(sp)
   13a2c:	05a12a23          	sw	s10,84(sp)
   13a30:	01412483          	lw	s1,20(sp)
   13a34:	fffa0a13          	addi	s4,s4,-1
   13a38:	01112e23          	sw	a7,28(sp)
   13a3c:	03b12023          	sw	s11,32(sp)
   13a40:	000f0b93          	mv	s7,t5
   13a44:	000e8c13          	mv	s8,t4
   13a48:	00080c93          	mv	s9,a6
   13a4c:	00060d13          	mv	s10,a2
   13a50:	00058413          	mv	s0,a1
   13a54:	03c0006f          	j	13a90 <_vfprintf_r+0x21a0>
   13a58:	00040593          	mv	a1,s0
   13a5c:	000b0513          	mv	a0,s6
   13a60:	09712823          	sw	s7,144(sp)
   13a64:	09812a23          	sw	s8,148(sp)
   13a68:	09912c23          	sw	s9,152(sp)
   13a6c:	09a12e23          	sw	s10,156(sp)
   13a70:	08012023          	sw	zero,128(sp)
   13a74:	08012223          	sw	zero,132(sp)
   13a78:	08012423          	sw	zero,136(sp)
   13a7c:	08012623          	sw	zero,140(sp)
   13a80:	fffa0d93          	addi	s11,s4,-1
   13a84:	5790a0ef          	jal	ra,1e7fc <__eqtf2>
   13a88:	5e050463          	beqz	a0,14070 <_vfprintf_r+0x2780>
   13a8c:	000d8a13          	mv	s4,s11
   13a90:	400307b7          	lui	a5,0x40030
   13a94:	07010613          	addi	a2,sp,112
   13a98:	00040593          	mv	a1,s0
   13a9c:	000b0513          	mv	a0,s6
   13aa0:	06f12e23          	sw	a5,124(sp)
   13aa4:	09712023          	sw	s7,128(sp)
   13aa8:	09812223          	sw	s8,132(sp)
   13aac:	09912423          	sw	s9,136(sp)
   13ab0:	09a12623          	sw	s10,140(sp)
   13ab4:	06012823          	sw	zero,112(sp)
   13ab8:	06012a23          	sw	zero,116(sp)
   13abc:	06012c23          	sw	zero,120(sp)
   13ac0:	0680b0ef          	jal	ra,1eb28 <__multf3>
   13ac4:	000b0513          	mv	a0,s6
   13ac8:	1810d0ef          	jal	ra,21448 <__fixtfsi>
   13acc:	00050593          	mv	a1,a0
   13ad0:	00050d93          	mv	s11,a0
   13ad4:	000b0513          	mv	a0,s6
   13ad8:	09012d03          	lw	s10,144(sp)
   13adc:	09412c83          	lw	s9,148(sp)
   13ae0:	09812c03          	lw	s8,152(sp)
   13ae4:	09c12b83          	lw	s7,156(sp)
   13ae8:	2590d0ef          	jal	ra,21540 <__floatsitf>
   13aec:	09012683          	lw	a3,144(sp)
   13af0:	06010613          	addi	a2,sp,96
   13af4:	07010593          	addi	a1,sp,112
   13af8:	06d12023          	sw	a3,96(sp)
   13afc:	09412683          	lw	a3,148(sp)
   13b00:	00040513          	mv	a0,s0
   13b04:	07a12823          	sw	s10,112(sp)
   13b08:	06d12223          	sw	a3,100(sp)
   13b0c:	09812683          	lw	a3,152(sp)
   13b10:	07912a23          	sw	s9,116(sp)
   13b14:	07812c23          	sw	s8,120(sp)
   13b18:	06d12423          	sw	a3,104(sp)
   13b1c:	09c12683          	lw	a3,156(sp)
   13b20:	07712e23          	sw	s7,124(sp)
   13b24:	06d12623          	sw	a3,108(sp)
   13b28:	3b40c0ef          	jal	ra,1fedc <__subtf3>
   13b2c:	01b486b3          	add	a3,s1,s11
   13b30:	0006c683          	lbu	a3,0(a3)
   13b34:	00090f93          	mv	t6,s2
   13b38:	00190913          	addi	s2,s2,1
   13b3c:	08012b83          	lw	s7,128(sp)
   13b40:	08412c03          	lw	s8,132(sp)
   13b44:	08812c83          	lw	s9,136(sp)
   13b48:	08c12d03          	lw	s10,140(sp)
   13b4c:	fff00793          	li	a5,-1
   13b50:	fed90fa3          	sb	a3,-1(s2)
   13b54:	f0fa12e3          	bne	s4,a5,13a58 <_vfprintf_r+0x2168>
   13b58:	000b8f13          	mv	t5,s7
   13b5c:	000c0e93          	mv	t4,s8
   13b60:	000c8813          	mv	a6,s9
   13b64:	000d0613          	mv	a2,s10
   13b68:	00040593          	mv	a1,s0
   13b6c:	3ffe0a37          	lui	s4,0x3ffe0
   13b70:	000b0513          	mv	a0,s6
   13b74:	05f12e23          	sw	t6,92(sp)
   13b78:	05b12c23          	sw	s11,88(sp)
   13b7c:	05012483          	lw	s1,80(sp)
   13b80:	02012d83          	lw	s11,32(sp)
   13b84:	04c12b83          	lw	s7,76(sp)
   13b88:	03c12c83          	lw	s9,60(sp)
   13b8c:	04812403          	lw	s0,72(sp)
   13b90:	09e12823          	sw	t5,144(sp)
   13b94:	05e12823          	sw	t5,80(sp)
   13b98:	09d12a23          	sw	t4,148(sp)
   13b9c:	05d12623          	sw	t4,76(sp)
   13ba0:	09012c23          	sw	a6,152(sp)
   13ba4:	05012423          	sw	a6,72(sp)
   13ba8:	08c12e23          	sw	a2,156(sp)
   13bac:	02c12e23          	sw	a2,60(sp)
   13bb0:	08012023          	sw	zero,128(sp)
   13bb4:	08012223          	sw	zero,132(sp)
   13bb8:	08012423          	sw	zero,136(sp)
   13bbc:	09412623          	sw	s4,140(sp)
   13bc0:	02b12023          	sw	a1,32(sp)
   13bc4:	5050a0ef          	jal	ra,1e8c8 <__getf2>
   13bc8:	00090c13          	mv	s8,s2
   13bcc:	05412d03          	lw	s10,84(sp)
   13bd0:	01812903          	lw	s2,24(sp)
   13bd4:	01c12883          	lw	a7,28(sp)
   13bd8:	05c12f83          	lw	t6,92(sp)
   13bdc:	02a04663          	bgtz	a0,13c08 <_vfprintf_r+0x2318>
   13be0:	02012583          	lw	a1,32(sp)
   13be4:	000b0513          	mv	a0,s6
   13be8:	01f12c23          	sw	t6,24(sp)
   13bec:	4110a0ef          	jal	ra,1e7fc <__eqtf2>
   13bf0:	01c12883          	lw	a7,28(sp)
   13bf4:	04051e63          	bnez	a0,13c50 <_vfprintf_r+0x2360>
   13bf8:	05812783          	lw	a5,88(sp)
   13bfc:	01812f83          	lw	t6,24(sp)
   13c00:	0017f693          	andi	a3,a5,1
   13c04:	04068663          	beqz	a3,13c50 <_vfprintf_r+0x2360>
   13c08:	01412783          	lw	a5,20(sp)
   13c0c:	0bf12e23          	sw	t6,188(sp)
   13c10:	fffc4603          	lbu	a2,-1(s8)
   13c14:	00f7c583          	lbu	a1,15(a5) # 4003000f <__BSS_END__+0x4000c303>
   13c18:	000c0693          	mv	a3,s8
   13c1c:	02b61063          	bne	a2,a1,13c3c <_vfprintf_r+0x234c>
   13c20:	03000513          	li	a0,48
   13c24:	fea68fa3          	sb	a0,-1(a3)
   13c28:	0bc12683          	lw	a3,188(sp)
   13c2c:	fff68793          	addi	a5,a3,-1
   13c30:	0af12e23          	sw	a5,188(sp)
   13c34:	fff6c603          	lbu	a2,-1(a3)
   13c38:	fec586e3          	beq	a1,a2,13c24 <_vfprintf_r+0x2334>
   13c3c:	00160593          	addi	a1,a2,1
   13c40:	03900513          	li	a0,57
   13c44:	0ff5f593          	andi	a1,a1,255
   13c48:	04a60463          	beq	a2,a0,13c90 <_vfprintf_r+0x23a0>
   13c4c:	feb68fa3          	sb	a1,-1(a3)
   13c50:	0ac12783          	lw	a5,172(sp)
   13c54:	41ac0733          	sub	a4,s8,s10
   13c58:	06100613          	li	a2,97
   13c5c:	fff78a13          	addi	s4,a5,-1
   13c60:	00f12a23          	sw	a5,20(sp)
   13c64:	00e12c23          	sw	a4,24(sp)
   13c68:	0b412623          	sw	s4,172(sp)
   13c6c:	07000693          	li	a3,112
   13c70:	00c88663          	beq	a7,a2,13c7c <_vfprintf_r+0x238c>
   13c74:	05000693          	li	a3,80
   13c78:	04100893          	li	a7,65
   13c7c:	00100613          	li	a2,1
   13c80:	adcff06f          	j	12f5c <_vfprintf_r+0x166c>
   13c84:	000a0693          	mv	a3,s4
   13c88:	00300613          	li	a2,3
   13c8c:	c1dff06f          	j	138a8 <_vfprintf_r+0x1fb8>
   13c90:	01412783          	lw	a5,20(sp)
   13c94:	00a7c583          	lbu	a1,10(a5)
   13c98:	fb5ff06f          	j	13c4c <_vfprintf_r+0x235c>
   13c9c:	0a714703          	lbu	a4,167(sp)
   13ca0:	04812d83          	lw	s11,72(sp)
   13ca4:	00000a13          	li	s4,0
   13ca8:	00070463          	beqz	a4,13cb0 <_vfprintf_r+0x23c0>
   13cac:	8f0fe06f          	j	11d9c <_vfprintf_r+0x4ac>
   13cb0:	e65fd06f          	j	11b14 <_vfprintf_r+0x224>
   13cb4:	01812783          	lw	a5,24(sp)
   13cb8:	01412703          	lw	a4,20(sp)
   13cbc:	1cf74e63          	blt	a4,a5,13e98 <_vfprintf_r+0x25a8>
   13cc0:	01412783          	lw	a5,20(sp)
   13cc4:	001df713          	andi	a4,s11,1
   13cc8:	00078b13          	mv	s6,a5
   13ccc:	00070663          	beqz	a4,13cd8 <_vfprintf_r+0x23e8>
   13cd0:	02812703          	lw	a4,40(sp)
   13cd4:	00e78b33          	add	s6,a5,a4
   13cd8:	400dfe13          	andi	t3,s11,1024
   13cdc:	000e0663          	beqz	t3,13ce8 <_vfprintf_r+0x23f8>
   13ce0:	01412783          	lw	a5,20(sp)
   13ce4:	30f04263          	bgtz	a5,13fe8 <_vfprintf_r+0x26f8>
   13ce8:	fffb4693          	not	a3,s6
   13cec:	41f6d693          	srai	a3,a3,0x1f
   13cf0:	00db7c33          	and	s8,s6,a3
   13cf4:	06700893          	li	a7,103
   13cf8:	02012023          	sw	zero,32(sp)
   13cfc:	00012e23          	sw	zero,28(sp)
   13d00:	b6cff06f          	j	1306c <_vfprintf_r+0x177c>
   13d04:	0c410613          	addi	a2,sp,196
   13d08:	00048593          	mv	a1,s1
   13d0c:	000b8513          	mv	a0,s7
   13d10:	670000ef          	jal	ra,14380 <__sprint_r>
   13d14:	00050463          	beqz	a0,13d1c <_vfprintf_r+0x242c>
   13d18:	a75fe06f          	j	1278c <_vfprintf_r+0xe9c>
   13d1c:	000c4583          	lbu	a1,0(s8)
   13d20:	000227b7          	lui	a5,0x22
   13d24:	0cc12603          	lw	a2,204(sp)
   13d28:	00098693          	mv	a3,s3
   13d2c:	ce078893          	addi	a7,a5,-800 # 21ce0 <zeroes.0>
   13d30:	01000713          	li	a4,16
   13d34:	00700813          	li	a6,7
   13d38:	00bc8cb3          	add	s9,s9,a1
   13d3c:	81dff06f          	j	13558 <_vfprintf_r+0x1c68>
   13d40:	00900793          	li	a5,9
   13d44:	c167ee63          	bltu	a5,s6,13160 <_vfprintf_r+0x1870>
   13d48:	c68ff06f          	j	131b0 <_vfprintf_r+0x18c0>
   13d4c:	02d00793          	li	a5,45
   13d50:	0af103a3          	sb	a5,167(sp)
   13d54:	02d00713          	li	a4,45
   13d58:	dacff06f          	j	13304 <_vfprintf_r+0x1a14>
   13d5c:	0a714703          	lbu	a4,167(sp)
   13d60:	01012623          	sw	a6,12(sp)
   13d64:	02012023          	sw	zero,32(sp)
   13d68:	00012e23          	sw	zero,28(sp)
   13d6c:	00012a23          	sw	zero,20(sp)
   13d70:	000a0c13          	mv	s8,s4
   13d74:	000a0b13          	mv	s6,s4
   13d78:	00000a13          	li	s4,0
   13d7c:	00070463          	beqz	a4,13d84 <_vfprintf_r+0x2494>
   13d80:	81cfe06f          	j	11d9c <_vfprintf_r+0x4ac>
   13d84:	d91fd06f          	j	11b14 <_vfprintf_r+0x224>
   13d88:	000227b7          	lui	a5,0x22
   13d8c:	9d078d13          	addi	s10,a5,-1584 # 219d0 <__clzsi2+0x5c>
   13d90:	d84ff06f          	j	13314 <_vfprintf_r+0x1a24>
   13d94:	0c410613          	addi	a2,sp,196
   13d98:	00048593          	mv	a1,s1
   13d9c:	000b8513          	mv	a0,s7
   13da0:	5e0000ef          	jal	ra,14380 <__sprint_r>
   13da4:	00050463          	beqz	a0,13dac <_vfprintf_r+0x24bc>
   13da8:	9e5fe06f          	j	1278c <_vfprintf_r+0xe9c>
   13dac:	0ac12583          	lw	a1,172(sp)
   13db0:	01812783          	lw	a5,24(sp)
   13db4:	0cc12603          	lw	a2,204(sp)
   13db8:	00098413          	mv	s0,s3
   13dbc:	40b785b3          	sub	a1,a5,a1
   13dc0:	ca1fe06f          	j	12a60 <_vfprintf_r+0x1170>
   13dc4:	0ac12783          	lw	a5,172(sp)
   13dc8:	00f12a23          	sw	a5,20(sp)
   13dcc:	00070793          	mv	a5,a4
   13dd0:	aadff06f          	j	1387c <_vfprintf_r+0x1f8c>
   13dd4:	fff00793          	li	a5,-1
   13dd8:	00f12223          	sw	a5,4(sp)
   13ddc:	e99fd06f          	j	11c74 <_vfprintf_r+0x384>
   13de0:	08010593          	addi	a1,sp,128
   13de4:	000b0513          	mv	a0,s6
   13de8:	04e12c23          	sw	a4,88(sp)
   13dec:	04c12a23          	sw	a2,84(sp)
   13df0:	05112823          	sw	a7,80(sp)
   13df4:	04d12623          	sw	a3,76(sp)
   13df8:	09f12823          	sw	t6,144(sp)
   13dfc:	03f12023          	sw	t6,32(sp)
   13e00:	09e12a23          	sw	t5,148(sp)
   13e04:	01e12e23          	sw	t5,28(sp)
   13e08:	09d12c23          	sw	t4,152(sp)
   13e0c:	01d12c23          	sw	t4,24(sp)
   13e10:	00b12a23          	sw	a1,20(sp)
   13e14:	09812e23          	sw	s8,156(sp)
   13e18:	08012023          	sw	zero,128(sp)
   13e1c:	08012223          	sw	zero,132(sp)
   13e20:	08012423          	sw	zero,136(sp)
   13e24:	08012623          	sw	zero,140(sp)
   13e28:	1d50a0ef          	jal	ra,1e7fc <__eqtf2>
   13e2c:	01412583          	lw	a1,20(sp)
   13e30:	01812e83          	lw	t4,24(sp)
   13e34:	01c12f03          	lw	t5,28(sp)
   13e38:	02012f83          	lw	t6,32(sp)
   13e3c:	04c12683          	lw	a3,76(sp)
   13e40:	05012883          	lw	a7,80(sp)
   13e44:	05412603          	lw	a2,84(sp)
   13e48:	05812703          	lw	a4,88(sp)
   13e4c:	28051663          	bnez	a0,140d8 <_vfprintf_r+0x27e8>
   13e50:	0ac12783          	lw	a5,172(sp)
   13e54:	00f70733          	add	a4,a4,a5
   13e58:	00f12a23          	sw	a5,20(sp)
   13e5c:	41a707b3          	sub	a5,a4,s10
   13e60:	00f12c23          	sw	a5,24(sp)
   13e64:	01412783          	lw	a5,20(sp)
   13e68:	001df713          	andi	a4,s11,1
   13e6c:	01476733          	or	a4,a4,s4
   13e70:	26f05e63          	blez	a5,140ec <_vfprintf_r+0x27fc>
   13e74:	24071063          	bnez	a4,140b4 <_vfprintf_r+0x27c4>
   13e78:	01412b03          	lw	s6,20(sp)
   13e7c:	06600893          	li	a7,102
   13e80:	400dfe13          	andi	t3,s11,1024
   13e84:	160e1463          	bnez	t3,13fec <_vfprintf_r+0x26fc>
   13e88:	fffb4693          	not	a3,s6
   13e8c:	41f6d693          	srai	a3,a3,0x1f
   13e90:	00db7c33          	and	s8,s6,a3
   13e94:	e65ff06f          	j	13cf8 <_vfprintf_r+0x2408>
   13e98:	01812783          	lw	a5,24(sp)
   13e9c:	02812703          	lw	a4,40(sp)
   13ea0:	06700893          	li	a7,103
   13ea4:	00e78b33          	add	s6,a5,a4
   13ea8:	01412783          	lw	a5,20(sp)
   13eac:	fcf04ae3          	bgtz	a5,13e80 <_vfprintf_r+0x2590>
   13eb0:	40fb0f33          	sub	t5,s6,a5
   13eb4:	001f0b13          	addi	s6,t5,1
   13eb8:	fffb4693          	not	a3,s6
   13ebc:	41f6d693          	srai	a3,a3,0x1f
   13ec0:	00db7c33          	and	s8,s6,a3
   13ec4:	e35ff06f          	j	13cf8 <_vfprintf_r+0x2408>
   13ec8:	00022837          	lui	a6,0x22
   13ecc:	ff000593          	li	a1,-16
   13ed0:	40a00a33          	neg	s4,a0
   13ed4:	ce080813          	addi	a6,a6,-800 # 21ce0 <zeroes.0>
   13ed8:	06b55e63          	bge	a0,a1,13f54 <_vfprintf_r+0x2664>
   13edc:	01212a23          	sw	s2,20(sp)
   13ee0:	01000b13          	li	s6,16
   13ee4:	00700893          	li	a7,7
   13ee8:	00080913          	mv	s2,a6
   13eec:	00c0006f          	j	13ef8 <_vfprintf_r+0x2608>
   13ef0:	ff0a0a13          	addi	s4,s4,-16 # 3ffdfff0 <__BSS_END__+0x3ffbc2e4>
   13ef4:	054b5c63          	bge	s6,s4,13f4c <_vfprintf_r+0x265c>
   13ef8:	01060613          	addi	a2,a2,16
   13efc:	00170713          	addi	a4,a4,1
   13f00:	01242023          	sw	s2,0(s0)
   13f04:	01642223          	sw	s6,4(s0)
   13f08:	0cc12623          	sw	a2,204(sp)
   13f0c:	0ce12423          	sw	a4,200(sp)
   13f10:	00840413          	addi	s0,s0,8
   13f14:	fce8dee3          	bge	a7,a4,13ef0 <_vfprintf_r+0x2600>
   13f18:	0c410613          	addi	a2,sp,196
   13f1c:	00048593          	mv	a1,s1
   13f20:	000b8513          	mv	a0,s7
   13f24:	45c000ef          	jal	ra,14380 <__sprint_r>
   13f28:	00050463          	beqz	a0,13f30 <_vfprintf_r+0x2640>
   13f2c:	861fe06f          	j	1278c <_vfprintf_r+0xe9c>
   13f30:	0cc12603          	lw	a2,204(sp)
   13f34:	0c812703          	lw	a4,200(sp)
   13f38:	00098413          	mv	s0,s3
   13f3c:	00700893          	li	a7,7
   13f40:	fb1ff06f          	j	13ef0 <_vfprintf_r+0x2600>
   13f44:	000d8613          	mv	a2,s11
   13f48:	b18fe06f          	j	12260 <_vfprintf_r+0x970>
   13f4c:	00090813          	mv	a6,s2
   13f50:	01412903          	lw	s2,20(sp)
   13f54:	01460633          	add	a2,a2,s4
   13f58:	00170713          	addi	a4,a4,1
   13f5c:	01042023          	sw	a6,0(s0)
   13f60:	01442223          	sw	s4,4(s0)
   13f64:	0cc12623          	sw	a2,204(sp)
   13f68:	0ce12423          	sw	a4,200(sp)
   13f6c:	00700593          	li	a1,7
   13f70:	aee5d463          	bge	a1,a4,13258 <_vfprintf_r+0x1968>
   13f74:	0c410613          	addi	a2,sp,196
   13f78:	00048593          	mv	a1,s1
   13f7c:	000b8513          	mv	a0,s7
   13f80:	400000ef          	jal	ra,14380 <__sprint_r>
   13f84:	00050463          	beqz	a0,13f8c <_vfprintf_r+0x269c>
   13f88:	805fe06f          	j	1278c <_vfprintf_r+0xe9c>
   13f8c:	0cc12603          	lw	a2,204(sp)
   13f90:	0c812703          	lw	a4,200(sp)
   13f94:	00098413          	mv	s0,s3
   13f98:	bf0ff06f          	j	13388 <_vfprintf_r+0x1a98>
   13f9c:	0b610693          	addi	a3,sp,182
   13fa0:	00061863          	bnez	a2,13fb0 <_vfprintf_r+0x26c0>
   13fa4:	03000693          	li	a3,48
   13fa8:	0ad10b23          	sb	a3,182(sp)
   13fac:	0b710693          	addi	a3,sp,183
   13fb0:	19010793          	addi	a5,sp,400
   13fb4:	40f68633          	sub	a2,a3,a5
   13fb8:	030a0713          	addi	a4,s4,48
   13fbc:	0dd60793          	addi	a5,a2,221
   13fc0:	00e68023          	sb	a4,0(a3)
   13fc4:	02f12e23          	sw	a5,60(sp)
   13fc8:	860ff06f          	j	13028 <_vfprintf_r+0x1738>
   13fcc:	00012423          	sw	zero,8(sp)
   13fd0:	00600a13          	li	s4,6
   13fd4:	f29fd06f          	j	11efc <_vfprintf_r+0x60c>
   13fd8:	001df713          	andi	a4,s11,1
   13fdc:	00071463          	bnez	a4,13fe4 <_vfprintf_r+0x26f4>
   13fe0:	868ff06f          	j	13048 <_vfprintf_r+0x1758>
   13fe4:	85cff06f          	j	13040 <_vfprintf_r+0x1750>
   13fe8:	06700893          	li	a7,103
   13fec:	03812603          	lw	a2,56(sp)
   13ff0:	0ff00693          	li	a3,255
   13ff4:	00064703          	lbu	a4,0(a2)
   13ff8:	14d70c63          	beq	a4,a3,14150 <_vfprintf_r+0x2860>
   13ffc:	01412783          	lw	a5,20(sp)
   14000:	00000513          	li	a0,0
   14004:	00000593          	li	a1,0
   14008:	00f75e63          	bge	a4,a5,14024 <_vfprintf_r+0x2734>
   1400c:	40e787b3          	sub	a5,a5,a4
   14010:	00164703          	lbu	a4,1(a2)
   14014:	04070863          	beqz	a4,14064 <_vfprintf_r+0x2774>
   14018:	00158593          	addi	a1,a1,1
   1401c:	00160613          	addi	a2,a2,1
   14020:	fed714e3          	bne	a4,a3,14008 <_vfprintf_r+0x2718>
   14024:	02c12c23          	sw	a2,56(sp)
   14028:	00b12e23          	sw	a1,28(sp)
   1402c:	02a12023          	sw	a0,32(sp)
   14030:	00f12a23          	sw	a5,20(sp)
   14034:	02012783          	lw	a5,32(sp)
   14038:	01c12703          	lw	a4,28(sp)
   1403c:	04012583          	lw	a1,64(sp)
   14040:	05112623          	sw	a7,76(sp)
   14044:	00e78533          	add	a0,a5,a4
   14048:	0550d0ef          	jal	ra,2189c <__mulsi3>
   1404c:	01650b33          	add	s6,a0,s6
   14050:	fffb4693          	not	a3,s6
   14054:	41f6d693          	srai	a3,a3,0x1f
   14058:	04c12883          	lw	a7,76(sp)
   1405c:	00db7c33          	and	s8,s6,a3
   14060:	80cff06f          	j	1306c <_vfprintf_r+0x177c>
   14064:	00064703          	lbu	a4,0(a2)
   14068:	00150513          	addi	a0,a0,1
   1406c:	fb5ff06f          	j	14020 <_vfprintf_r+0x2730>
   14070:	00090c13          	mv	s8,s2
   14074:	001a0693          	addi	a3,s4,1
   14078:	01c12883          	lw	a7,28(sp)
   1407c:	02012d83          	lw	s11,32(sp)
   14080:	03c12c83          	lw	s9,60(sp)
   14084:	04812403          	lw	s0,72(sp)
   14088:	01812903          	lw	s2,24(sp)
   1408c:	04c12b83          	lw	s7,76(sp)
   14090:	05012483          	lw	s1,80(sp)
   14094:	05412d03          	lw	s10,84(sp)
   14098:	00dc06b3          	add	a3,s8,a3
   1409c:	03000613          	li	a2,48
   140a0:	ba0a48e3          	bltz	s4,13c50 <_vfprintf_r+0x2360>
   140a4:	001c0c13          	addi	s8,s8,1
   140a8:	fecc0fa3          	sb	a2,-1(s8)
   140ac:	ff869ce3          	bne	a3,s8,140a4 <_vfprintf_r+0x27b4>
   140b0:	ba1ff06f          	j	13c50 <_vfprintf_r+0x2360>
   140b4:	02812703          	lw	a4,40(sp)
   140b8:	06600893          	li	a7,102
   140bc:	00ea0f33          	add	t5,s4,a4
   140c0:	00ff0b33          	add	s6,t5,a5
   140c4:	dbdff06f          	j	13e80 <_vfprintf_r+0x2590>
   140c8:	00022737          	lui	a4,0x22
   140cc:	9d470793          	addi	a5,a4,-1580 # 219d4 <__clzsi2+0x60>
   140d0:	00f12a23          	sw	a5,20(sp)
   140d4:	941ff06f          	j	13a14 <_vfprintf_r+0x2124>
   140d8:	00100513          	li	a0,1
   140dc:	40d506b3          	sub	a3,a0,a3
   140e0:	0ad12623          	sw	a3,172(sp)
   140e4:	00d70733          	add	a4,a4,a3
   140e8:	f28ff06f          	j	13810 <_vfprintf_r+0x1f20>
   140ec:	00071a63          	bnez	a4,14100 <_vfprintf_r+0x2810>
   140f0:	00100c13          	li	s8,1
   140f4:	06600893          	li	a7,102
   140f8:	00100b13          	li	s6,1
   140fc:	bfdff06f          	j	13cf8 <_vfprintf_r+0x2408>
   14100:	02812783          	lw	a5,40(sp)
   14104:	06600893          	li	a7,102
   14108:	00178f13          	addi	t5,a5,1
   1410c:	014f0b33          	add	s6,t5,s4
   14110:	fffb4693          	not	a3,s6
   14114:	41f6d693          	srai	a3,a3,0x1f
   14118:	00db7c33          	and	s8,s6,a3
   1411c:	bddff06f          	j	13cf8 <_vfprintf_r+0x2408>
   14120:	00200793          	li	a5,2
   14124:	02f12e23          	sw	a5,60(sp)
   14128:	f01fe06f          	j	13028 <_vfprintf_r+0x1738>
   1412c:	00c12783          	lw	a5,12(sp)
   14130:	0007aa03          	lw	s4,0(a5)
   14134:	00478793          	addi	a5,a5,4
   14138:	000a5463          	bgez	s4,14140 <_vfprintf_r+0x2850>
   1413c:	fff00a13          	li	s4,-1
   14140:	00194883          	lbu	a7,1(s2)
   14144:	00f12623          	sw	a5,12(sp)
   14148:	00068913          	mv	s2,a3
   1414c:	949fd06f          	j	11a94 <_vfprintf_r+0x1a4>
   14150:	02012023          	sw	zero,32(sp)
   14154:	00012e23          	sw	zero,28(sp)
   14158:	eddff06f          	j	14034 <_vfprintf_r+0x2744>
   1415c:	04500613          	li	a2,69
   14160:	08010593          	addi	a1,sp,128
   14164:	eacff06f          	j	13810 <_vfprintf_r+0x1f20>
   14168:	00c4d783          	lhu	a5,12(s1)
   1416c:	0407e793          	ori	a5,a5,64
   14170:	00f49623          	sh	a5,12(s1)
   14174:	acdfd06f          	j	11c40 <_vfprintf_r+0x350>

00014178 <vfprintf>:
   14178:	00050793          	mv	a5,a0
   1417c:	f0c1a503          	lw	a0,-244(gp) # 239d4 <_impure_ptr>
   14180:	00060693          	mv	a3,a2
   14184:	00058613          	mv	a2,a1
   14188:	00078593          	mv	a1,a5
   1418c:	f64fd06f          	j	118f0 <_vfprintf_r>

00014190 <__sbprintf>:
   14190:	b8010113          	addi	sp,sp,-1152
   14194:	00c59783          	lh	a5,12(a1)
   14198:	00e5d703          	lhu	a4,14(a1)
   1419c:	46812c23          	sw	s0,1144(sp)
   141a0:	00058413          	mv	s0,a1
   141a4:	000105b7          	lui	a1,0x10
   141a8:	ffd58593          	addi	a1,a1,-3 # fffd <exit-0x97>
   141ac:	06442e03          	lw	t3,100(s0)
   141b0:	01c42303          	lw	t1,28(s0)
   141b4:	02442883          	lw	a7,36(s0)
   141b8:	01071713          	slli	a4,a4,0x10
   141bc:	00b7f7b3          	and	a5,a5,a1
   141c0:	00e7e7b3          	or	a5,a5,a4
   141c4:	40000813          	li	a6,1024
   141c8:	00f12a23          	sw	a5,20(sp)
   141cc:	00810593          	addi	a1,sp,8
   141d0:	07010793          	addi	a5,sp,112
   141d4:	46912a23          	sw	s1,1140(sp)
   141d8:	47212823          	sw	s2,1136(sp)
   141dc:	46112e23          	sw	ra,1148(sp)
   141e0:	00050913          	mv	s2,a0
   141e4:	07c12623          	sw	t3,108(sp)
   141e8:	02612223          	sw	t1,36(sp)
   141ec:	03112623          	sw	a7,44(sp)
   141f0:	00f12423          	sw	a5,8(sp)
   141f4:	00f12c23          	sw	a5,24(sp)
   141f8:	01012823          	sw	a6,16(sp)
   141fc:	01012e23          	sw	a6,28(sp)
   14200:	02012023          	sw	zero,32(sp)
   14204:	eecfd0ef          	jal	ra,118f0 <_vfprintf_r>
   14208:	00050493          	mv	s1,a0
   1420c:	02055c63          	bgez	a0,14244 <__sbprintf+0xb4>
   14210:	01415783          	lhu	a5,20(sp)
   14214:	0407f793          	andi	a5,a5,64
   14218:	00078863          	beqz	a5,14228 <__sbprintf+0x98>
   1421c:	00c45783          	lhu	a5,12(s0)
   14220:	0407e793          	ori	a5,a5,64
   14224:	00f41623          	sh	a5,12(s0)
   14228:	47c12083          	lw	ra,1148(sp)
   1422c:	47812403          	lw	s0,1144(sp)
   14230:	47012903          	lw	s2,1136(sp)
   14234:	00048513          	mv	a0,s1
   14238:	47412483          	lw	s1,1140(sp)
   1423c:	48010113          	addi	sp,sp,1152
   14240:	00008067          	ret
   14244:	00810593          	addi	a1,sp,8
   14248:	00090513          	mv	a0,s2
   1424c:	071010ef          	jal	ra,15abc <_fflush_r>
   14250:	fc0500e3          	beqz	a0,14210 <__sbprintf+0x80>
   14254:	fff00493          	li	s1,-1
   14258:	fb9ff06f          	j	14210 <__sbprintf+0x80>

0001425c <__sprint_r.part.0>:
   1425c:	0645a783          	lw	a5,100(a1)
   14260:	fd010113          	addi	sp,sp,-48
   14264:	01612823          	sw	s6,16(sp)
   14268:	02112623          	sw	ra,44(sp)
   1426c:	01279713          	slli	a4,a5,0x12
   14270:	00060b13          	mv	s6,a2
   14274:	0e075863          	bgez	a4,14364 <__sprint_r.part.0+0x108>
   14278:	00862783          	lw	a5,8(a2)
   1427c:	03212023          	sw	s2,32(sp)
   14280:	01312e23          	sw	s3,28(sp)
   14284:	01512a23          	sw	s5,20(sp)
   14288:	01712623          	sw	s7,12(sp)
   1428c:	00058913          	mv	s2,a1
   14290:	00062b83          	lw	s7,0(a2)
   14294:	00050993          	mv	s3,a0
   14298:	fff00a93          	li	s5,-1
   1429c:	0a078863          	beqz	a5,1434c <__sprint_r.part.0+0xf0>
   142a0:	02812423          	sw	s0,40(sp)
   142a4:	02912223          	sw	s1,36(sp)
   142a8:	01412c23          	sw	s4,24(sp)
   142ac:	01812423          	sw	s8,8(sp)
   142b0:	004bac03          	lw	s8,4(s7)
   142b4:	000ba403          	lw	s0,0(s7)
   142b8:	002c5a13          	srli	s4,s8,0x2
   142bc:	060a0663          	beqz	s4,14328 <__sprint_r.part.0+0xcc>
   142c0:	00000493          	li	s1,0
   142c4:	00c0006f          	j	142d0 <__sprint_r.part.0+0x74>
   142c8:	00440413          	addi	s0,s0,4
   142cc:	049a0c63          	beq	s4,s1,14324 <__sprint_r.part.0+0xc8>
   142d0:	00042583          	lw	a1,0(s0)
   142d4:	00090613          	mv	a2,s2
   142d8:	00098513          	mv	a0,s3
   142dc:	00c020ef          	jal	ra,162e8 <_fputwc_r>
   142e0:	00148493          	addi	s1,s1,1
   142e4:	ff5512e3          	bne	a0,s5,142c8 <__sprint_r.part.0+0x6c>
   142e8:	02812403          	lw	s0,40(sp)
   142ec:	02412483          	lw	s1,36(sp)
   142f0:	02012903          	lw	s2,32(sp)
   142f4:	01c12983          	lw	s3,28(sp)
   142f8:	01812a03          	lw	s4,24(sp)
   142fc:	01412a83          	lw	s5,20(sp)
   14300:	00c12b83          	lw	s7,12(sp)
   14304:	00812c03          	lw	s8,8(sp)
   14308:	fff00513          	li	a0,-1
   1430c:	02c12083          	lw	ra,44(sp)
   14310:	000b2423          	sw	zero,8(s6)
   14314:	000b2223          	sw	zero,4(s6)
   14318:	01012b03          	lw	s6,16(sp)
   1431c:	03010113          	addi	sp,sp,48
   14320:	00008067          	ret
   14324:	008b2783          	lw	a5,8(s6)
   14328:	ffcc7c13          	andi	s8,s8,-4
   1432c:	418787b3          	sub	a5,a5,s8
   14330:	00fb2423          	sw	a5,8(s6)
   14334:	008b8b93          	addi	s7,s7,8
   14338:	f6079ce3          	bnez	a5,142b0 <__sprint_r.part.0+0x54>
   1433c:	02812403          	lw	s0,40(sp)
   14340:	02412483          	lw	s1,36(sp)
   14344:	01812a03          	lw	s4,24(sp)
   14348:	00812c03          	lw	s8,8(sp)
   1434c:	02012903          	lw	s2,32(sp)
   14350:	01c12983          	lw	s3,28(sp)
   14354:	01412a83          	lw	s5,20(sp)
   14358:	00c12b83          	lw	s7,12(sp)
   1435c:	00000513          	li	a0,0
   14360:	fadff06f          	j	1430c <__sprint_r.part.0+0xb0>
   14364:	03d010ef          	jal	ra,15ba0 <__sfvwrite_r>
   14368:	02c12083          	lw	ra,44(sp)
   1436c:	000b2423          	sw	zero,8(s6)
   14370:	000b2223          	sw	zero,4(s6)
   14374:	01012b03          	lw	s6,16(sp)
   14378:	03010113          	addi	sp,sp,48
   1437c:	00008067          	ret

00014380 <__sprint_r>:
   14380:	00862703          	lw	a4,8(a2)
   14384:	00070463          	beqz	a4,1438c <__sprint_r+0xc>
   14388:	ed5ff06f          	j	1425c <__sprint_r.part.0>
   1438c:	00062223          	sw	zero,4(a2)
   14390:	00000513          	li	a0,0
   14394:	00008067          	ret

00014398 <_vfiprintf_r>:
   14398:	ed010113          	addi	sp,sp,-304
   1439c:	13212023          	sw	s2,288(sp)
   143a0:	11312e23          	sw	s3,284(sp)
   143a4:	11412c23          	sw	s4,280(sp)
   143a8:	11812423          	sw	s8,264(sp)
   143ac:	12112623          	sw	ra,300(sp)
   143b0:	11612823          	sw	s6,272(sp)
   143b4:	00050a13          	mv	s4,a0
   143b8:	00058913          	mv	s2,a1
   143bc:	00060c13          	mv	s8,a2
   143c0:	00068993          	mv	s3,a3
   143c4:	00050863          	beqz	a0,143d4 <_vfiprintf_r+0x3c>
   143c8:	03452783          	lw	a5,52(a0)
   143cc:	00079463          	bnez	a5,143d4 <_vfiprintf_r+0x3c>
   143d0:	16c0106f          	j	1553c <_vfiprintf_r+0x11a4>
   143d4:	00c91783          	lh	a5,12(s2)
   143d8:	01279713          	slli	a4,a5,0x12
   143dc:	02074663          	bltz	a4,14408 <_vfiprintf_r+0x70>
   143e0:	06492703          	lw	a4,100(s2)
   143e4:	00002637          	lui	a2,0x2
   143e8:	ffffe6b7          	lui	a3,0xffffe
   143ec:	00c7e7b3          	or	a5,a5,a2
   143f0:	fff68693          	addi	a3,a3,-1 # ffffdfff <__BSS_END__+0xfffda2f3>
   143f4:	01079793          	slli	a5,a5,0x10
   143f8:	4107d793          	srai	a5,a5,0x10
   143fc:	00d77733          	and	a4,a4,a3
   14400:	00f91623          	sh	a5,12(s2)
   14404:	06e92223          	sw	a4,100(s2)
   14408:	0087f713          	andi	a4,a5,8
   1440c:	14070463          	beqz	a4,14554 <_vfiprintf_r+0x1bc>
   14410:	01092703          	lw	a4,16(s2)
   14414:	14070063          	beqz	a4,14554 <_vfiprintf_r+0x1bc>
   14418:	01a7f793          	andi	a5,a5,26
   1441c:	00a00713          	li	a4,10
   14420:	14e78c63          	beq	a5,a4,14578 <_vfiprintf_r+0x1e0>
   14424:	000227b7          	lui	a5,0x22
   14428:	12912223          	sw	s1,292(sp)
   1442c:	11512a23          	sw	s5,276(sp)
   14430:	04c10493          	addi	s1,sp,76
   14434:	00000b13          	li	s6,0
   14438:	d0078793          	addi	a5,a5,-768 # 21d00 <blanks.1+0x10>
   1443c:	00022ab7          	lui	s5,0x22
   14440:	12812423          	sw	s0,296(sp)
   14444:	11912223          	sw	s9,260(sp)
   14448:	11712623          	sw	s7,268(sp)
   1444c:	11a12023          	sw	s10,256(sp)
   14450:	0fb12e23          	sw	s11,252(sp)
   14454:	04912023          	sw	s1,64(sp)
   14458:	04012423          	sw	zero,72(sp)
   1445c:	04012223          	sw	zero,68(sp)
   14460:	00048713          	mv	a4,s1
   14464:	00012223          	sw	zero,4(sp)
   14468:	00012c23          	sw	zero,24(sp)
   1446c:	00012e23          	sw	zero,28(sp)
   14470:	02012023          	sw	zero,32(sp)
   14474:	00f12023          	sw	a5,0(sp)
   14478:	01000413          	li	s0,16
   1447c:	e6ca8a93          	addi	s5,s5,-404 # 21e6c <zeroes.0>
   14480:	000b0c93          	mv	s9,s6
   14484:	00098813          	mv	a6,s3
   14488:	000c4783          	lbu	a5,0(s8)
   1448c:	34078263          	beqz	a5,147d0 <_vfiprintf_r+0x438>
   14490:	000c0b93          	mv	s7,s8
   14494:	02500693          	li	a3,37
   14498:	36d78c63          	beq	a5,a3,14810 <_vfiprintf_r+0x478>
   1449c:	001bc783          	lbu	a5,1(s7)
   144a0:	001b8b93          	addi	s7,s7,1
   144a4:	fe079ae3          	bnez	a5,14498 <_vfiprintf_r+0x100>
   144a8:	418b89b3          	sub	s3,s7,s8
   144ac:	338b8263          	beq	s7,s8,147d0 <_vfiprintf_r+0x438>
   144b0:	04812683          	lw	a3,72(sp)
   144b4:	04412783          	lw	a5,68(sp)
   144b8:	01872023          	sw	s8,0(a4)
   144bc:	00d986b3          	add	a3,s3,a3
   144c0:	00178793          	addi	a5,a5,1
   144c4:	01372223          	sw	s3,4(a4)
   144c8:	04d12423          	sw	a3,72(sp)
   144cc:	04f12223          	sw	a5,68(sp)
   144d0:	00700613          	li	a2,7
   144d4:	00870713          	addi	a4,a4,8
   144d8:	02f65463          	bge	a2,a5,14500 <_vfiprintf_r+0x168>
   144dc:	4e0688e3          	beqz	a3,151cc <_vfiprintf_r+0xe34>
   144e0:	04010613          	addi	a2,sp,64
   144e4:	00090593          	mv	a1,s2
   144e8:	000a0513          	mv	a0,s4
   144ec:	01012423          	sw	a6,8(sp)
   144f0:	d6dff0ef          	jal	ra,1425c <__sprint_r.part.0>
   144f4:	00812803          	lw	a6,8(sp)
   144f8:	0c051a63          	bnez	a0,145cc <_vfiprintf_r+0x234>
   144fc:	00048713          	mv	a4,s1
   14500:	000bc783          	lbu	a5,0(s7)
   14504:	013c8cb3          	add	s9,s9,s3
   14508:	2c078463          	beqz	a5,147d0 <_vfiprintf_r+0x438>
   1450c:	00000313          	li	t1,0
   14510:	001bc783          	lbu	a5,1(s7)
   14514:	001b8c13          	addi	s8,s7,1
   14518:	02010da3          	sb	zero,59(sp)
   1451c:	fff00d13          	li	s10,-1
   14520:	00000b13          	li	s6,0
   14524:	05a00993          	li	s3,90
   14528:	00030b93          	mv	s7,t1
   1452c:	00070d93          	mv	s11,a4
   14530:	001c0c13          	addi	s8,s8,1
   14534:	00078613          	mv	a2,a5
   14538:	fe060693          	addi	a3,a2,-32 # 1fe0 <exit-0xe0b4>
   1453c:	10d9ec63          	bltu	s3,a3,14654 <_vfiprintf_r+0x2bc>
   14540:	00012783          	lw	a5,0(sp)
   14544:	00269693          	slli	a3,a3,0x2
   14548:	00f686b3          	add	a3,a3,a5
   1454c:	0006a783          	lw	a5,0(a3)
   14550:	00078067          	jr	a5
   14554:	00090593          	mv	a1,s2
   14558:	000a0513          	mv	a0,s4
   1455c:	359010ef          	jal	ra,160b4 <__swsetup_r>
   14560:	00050463          	beqz	a0,14568 <_vfiprintf_r+0x1d0>
   14564:	0f00106f          	j	15654 <_vfiprintf_r+0x12bc>
   14568:	00c91783          	lh	a5,12(s2)
   1456c:	00a00713          	li	a4,10
   14570:	01a7f793          	andi	a5,a5,26
   14574:	eae798e3          	bne	a5,a4,14424 <_vfiprintf_r+0x8c>
   14578:	00e91783          	lh	a5,14(s2)
   1457c:	ea07c4e3          	bltz	a5,14424 <_vfiprintf_r+0x8c>
   14580:	12c12083          	lw	ra,300(sp)
   14584:	11012b03          	lw	s6,272(sp)
   14588:	00098693          	mv	a3,s3
   1458c:	000c0613          	mv	a2,s8
   14590:	11c12983          	lw	s3,284(sp)
   14594:	10812c03          	lw	s8,264(sp)
   14598:	00090593          	mv	a1,s2
   1459c:	000a0513          	mv	a0,s4
   145a0:	12012903          	lw	s2,288(sp)
   145a4:	11812a03          	lw	s4,280(sp)
   145a8:	13010113          	addi	sp,sp,304
   145ac:	0e40106f          	j	15690 <__sbprintf>
   145b0:	04010613          	addi	a2,sp,64
   145b4:	00090593          	mv	a1,s2
   145b8:	000a0513          	mv	a0,s4
   145bc:	01012423          	sw	a6,8(sp)
   145c0:	c9dff0ef          	jal	ra,1425c <__sprint_r.part.0>
   145c4:	00812803          	lw	a6,8(sp)
   145c8:	1e050c63          	beqz	a0,147c0 <_vfiprintf_r+0x428>
   145cc:	000c8b13          	mv	s6,s9
   145d0:	00c95783          	lhu	a5,12(s2)
   145d4:	12812403          	lw	s0,296(sp)
   145d8:	12412483          	lw	s1,292(sp)
   145dc:	0407f793          	andi	a5,a5,64
   145e0:	11412a83          	lw	s5,276(sp)
   145e4:	10c12b83          	lw	s7,268(sp)
   145e8:	10412c83          	lw	s9,260(sp)
   145ec:	10012d03          	lw	s10,256(sp)
   145f0:	0fc12d83          	lw	s11,252(sp)
   145f4:	00078463          	beqz	a5,145fc <_vfiprintf_r+0x264>
   145f8:	05c0106f          	j	15654 <_vfiprintf_r+0x12bc>
   145fc:	12c12083          	lw	ra,300(sp)
   14600:	12012903          	lw	s2,288(sp)
   14604:	11c12983          	lw	s3,284(sp)
   14608:	11812a03          	lw	s4,280(sp)
   1460c:	10812c03          	lw	s8,264(sp)
   14610:	000b0513          	mv	a0,s6
   14614:	11012b03          	lw	s6,272(sp)
   14618:	13010113          	addi	sp,sp,304
   1461c:	00008067          	ret
   14620:	00000b13          	li	s6,0
   14624:	fd060793          	addi	a5,a2,-48
   14628:	00900593          	li	a1,9
   1462c:	000c4603          	lbu	a2,0(s8)
   14630:	002b1693          	slli	a3,s6,0x2
   14634:	01668b33          	add	s6,a3,s6
   14638:	001b1b13          	slli	s6,s6,0x1
   1463c:	01678b33          	add	s6,a5,s6
   14640:	fd060793          	addi	a5,a2,-48
   14644:	001c0c13          	addi	s8,s8,1
   14648:	fef5f2e3          	bgeu	a1,a5,1462c <_vfiprintf_r+0x294>
   1464c:	fe060693          	addi	a3,a2,-32
   14650:	eed9f8e3          	bgeu	s3,a3,14540 <_vfiprintf_r+0x1a8>
   14654:	000b8313          	mv	t1,s7
   14658:	000d8713          	mv	a4,s11
   1465c:	16060a63          	beqz	a2,147d0 <_vfiprintf_r+0x438>
   14660:	08c10623          	sb	a2,140(sp)
   14664:	02010da3          	sb	zero,59(sp)
   14668:	00100d93          	li	s11,1
   1466c:	00100e93          	li	t4,1
   14670:	08c10b93          	addi	s7,sp,140
   14674:	00000d13          	li	s10,0
   14678:	00000f93          	li	t6,0
   1467c:	04412683          	lw	a3,68(sp)
   14680:	08437293          	andi	t0,t1,132
   14684:	04812783          	lw	a5,72(sp)
   14688:	00168613          	addi	a2,a3,1
   1468c:	00060593          	mv	a1,a2
   14690:	00029663          	bnez	t0,1469c <_vfiprintf_r+0x304>
   14694:	41bb09b3          	sub	s3,s6,s11
   14698:	1f3044e3          	bgtz	s3,15080 <_vfiprintf_r+0xce8>
   1469c:	03b14603          	lbu	a2,59(sp)
   146a0:	02060a63          	beqz	a2,146d4 <_vfiprintf_r+0x33c>
   146a4:	03b10693          	addi	a3,sp,59
   146a8:	00178793          	addi	a5,a5,1
   146ac:	00d72023          	sw	a3,0(a4)
   146b0:	00100693          	li	a3,1
   146b4:	00d72223          	sw	a3,4(a4)
   146b8:	04f12423          	sw	a5,72(sp)
   146bc:	04b12223          	sw	a1,68(sp)
   146c0:	00700693          	li	a3,7
   146c4:	0eb6c2e3          	blt	a3,a1,14fa8 <_vfiprintf_r+0xc10>
   146c8:	00058693          	mv	a3,a1
   146cc:	00870713          	addi	a4,a4,8
   146d0:	00158593          	addi	a1,a1,1
   146d4:	060f8863          	beqz	t6,14744 <_vfiprintf_r+0x3ac>
   146d8:	03c10693          	addi	a3,sp,60
   146dc:	00278793          	addi	a5,a5,2
   146e0:	00d72023          	sw	a3,0(a4)
   146e4:	00200693          	li	a3,2
   146e8:	00d72223          	sw	a3,4(a4)
   146ec:	04f12423          	sw	a5,72(sp)
   146f0:	04b12223          	sw	a1,68(sp)
   146f4:	00700693          	li	a3,7
   146f8:	12b6d0e3          	bge	a3,a1,15018 <_vfiprintf_r+0xc80>
   146fc:	360784e3          	beqz	a5,15264 <_vfiprintf_r+0xecc>
   14700:	04010613          	addi	a2,sp,64
   14704:	00090593          	mv	a1,s2
   14708:	000a0513          	mv	a0,s4
   1470c:	01012a23          	sw	a6,20(sp)
   14710:	01d12823          	sw	t4,16(sp)
   14714:	00512623          	sw	t0,12(sp)
   14718:	00612423          	sw	t1,8(sp)
   1471c:	b41ff0ef          	jal	ra,1425c <__sprint_r.part.0>
   14720:	ea0516e3          	bnez	a0,145cc <_vfiprintf_r+0x234>
   14724:	04412683          	lw	a3,68(sp)
   14728:	04812783          	lw	a5,72(sp)
   1472c:	01412803          	lw	a6,20(sp)
   14730:	01012e83          	lw	t4,16(sp)
   14734:	00c12283          	lw	t0,12(sp)
   14738:	00812303          	lw	t1,8(sp)
   1473c:	00048713          	mv	a4,s1
   14740:	00168593          	addi	a1,a3,1
   14744:	08000613          	li	a2,128
   14748:	64c28e63          	beq	t0,a2,14da4 <_vfiprintf_r+0xa0c>
   1474c:	41dd0d33          	sub	s10,s10,t4
   14750:	77a04663          	bgtz	s10,14ebc <_vfiprintf_r+0xb24>
   14754:	00fe87b3          	add	a5,t4,a5
   14758:	01772023          	sw	s7,0(a4)
   1475c:	01d72223          	sw	t4,4(a4)
   14760:	04f12423          	sw	a5,72(sp)
   14764:	04b12223          	sw	a1,68(sp)
   14768:	00700693          	li	a3,7
   1476c:	62b6d063          	bge	a3,a1,14d8c <_vfiprintf_r+0x9f4>
   14770:	0a078863          	beqz	a5,14820 <_vfiprintf_r+0x488>
   14774:	04010613          	addi	a2,sp,64
   14778:	00090593          	mv	a1,s2
   1477c:	000a0513          	mv	a0,s4
   14780:	01012623          	sw	a6,12(sp)
   14784:	00612423          	sw	t1,8(sp)
   14788:	ad5ff0ef          	jal	ra,1425c <__sprint_r.part.0>
   1478c:	e40510e3          	bnez	a0,145cc <_vfiprintf_r+0x234>
   14790:	04812783          	lw	a5,72(sp)
   14794:	00c12803          	lw	a6,12(sp)
   14798:	00812303          	lw	t1,8(sp)
   1479c:	00048713          	mv	a4,s1
   147a0:	00437313          	andi	t1,t1,4
   147a4:	00030663          	beqz	t1,147b0 <_vfiprintf_r+0x418>
   147a8:	41bb09b3          	sub	s3,s6,s11
   147ac:	09304663          	bgtz	s3,14838 <_vfiprintf_r+0x4a0>
   147b0:	01bb5463          	bge	s6,s11,147b8 <_vfiprintf_r+0x420>
   147b4:	000d8b13          	mv	s6,s11
   147b8:	016c8cb3          	add	s9,s9,s6
   147bc:	de079ae3          	bnez	a5,145b0 <_vfiprintf_r+0x218>
   147c0:	000c4783          	lbu	a5,0(s8)
   147c4:	04012223          	sw	zero,68(sp)
   147c8:	00048713          	mv	a4,s1
   147cc:	cc0792e3          	bnez	a5,14490 <_vfiprintf_r+0xf8>
   147d0:	04812783          	lw	a5,72(sp)
   147d4:	000c8b13          	mv	s6,s9
   147d8:	de078ce3          	beqz	a5,145d0 <_vfiprintf_r+0x238>
   147dc:	04010613          	addi	a2,sp,64
   147e0:	00090593          	mv	a1,s2
   147e4:	000a0513          	mv	a0,s4
   147e8:	a75ff0ef          	jal	ra,1425c <__sprint_r.part.0>
   147ec:	de5ff06f          	j	145d0 <_vfiprintf_r+0x238>
   147f0:	00082b03          	lw	s6,0(a6)
   147f4:	00480813          	addi	a6,a6,4
   147f8:	200b4a63          	bltz	s6,14a0c <_vfiprintf_r+0x674>
   147fc:	000c4783          	lbu	a5,0(s8)
   14800:	d31ff06f          	j	14530 <_vfiprintf_r+0x198>
   14804:	000c4783          	lbu	a5,0(s8)
   14808:	020beb93          	ori	s7,s7,32
   1480c:	d25ff06f          	j	14530 <_vfiprintf_r+0x198>
   14810:	418b89b3          	sub	s3,s7,s8
   14814:	c98b9ee3          	bne	s7,s8,144b0 <_vfiprintf_r+0x118>
   14818:	000bc783          	lbu	a5,0(s7)
   1481c:	cedff06f          	j	14508 <_vfiprintf_r+0x170>
   14820:	04012223          	sw	zero,68(sp)
   14824:	00437313          	andi	t1,t1,4
   14828:	140308e3          	beqz	t1,15178 <_vfiprintf_r+0xde0>
   1482c:	41bb09b3          	sub	s3,s6,s11
   14830:	153054e3          	blez	s3,15178 <_vfiprintf_r+0xde0>
   14834:	00048713          	mv	a4,s1
   14838:	01000693          	li	a3,16
   1483c:	04412603          	lw	a2,68(sp)
   14840:	5f36dae3          	bge	a3,s3,15634 <_vfiprintf_r+0x129c>
   14844:	00022e37          	lui	t3,0x22
   14848:	e7ce0e13          	addi	t3,t3,-388 # 21e7c <blanks.1>
   1484c:	01612423          	sw	s6,8(sp)
   14850:	01000b93          	li	s7,16
   14854:	00700d13          	li	s10,7
   14858:	01012623          	sw	a6,12(sp)
   1485c:	000e0b13          	mv	s6,t3
   14860:	0180006f          	j	14878 <_vfiprintf_r+0x4e0>
   14864:	00260593          	addi	a1,a2,2
   14868:	00870713          	addi	a4,a4,8
   1486c:	00068613          	mv	a2,a3
   14870:	ff098993          	addi	s3,s3,-16
   14874:	053bd863          	bge	s7,s3,148c4 <_vfiprintf_r+0x52c>
   14878:	01078793          	addi	a5,a5,16
   1487c:	00160693          	addi	a3,a2,1
   14880:	01672023          	sw	s6,0(a4)
   14884:	01772223          	sw	s7,4(a4)
   14888:	04f12423          	sw	a5,72(sp)
   1488c:	04d12223          	sw	a3,68(sp)
   14890:	fcdd5ae3          	bge	s10,a3,14864 <_vfiprintf_r+0x4cc>
   14894:	50078063          	beqz	a5,14d94 <_vfiprintf_r+0x9fc>
   14898:	04010613          	addi	a2,sp,64
   1489c:	00090593          	mv	a1,s2
   148a0:	000a0513          	mv	a0,s4
   148a4:	9b9ff0ef          	jal	ra,1425c <__sprint_r.part.0>
   148a8:	d20512e3          	bnez	a0,145cc <_vfiprintf_r+0x234>
   148ac:	04412603          	lw	a2,68(sp)
   148b0:	ff098993          	addi	s3,s3,-16
   148b4:	04812783          	lw	a5,72(sp)
   148b8:	00048713          	mv	a4,s1
   148bc:	00160593          	addi	a1,a2,1
   148c0:	fb3bcce3          	blt	s7,s3,14878 <_vfiprintf_r+0x4e0>
   148c4:	000b0e13          	mv	t3,s6
   148c8:	00c12803          	lw	a6,12(sp)
   148cc:	00812b03          	lw	s6,8(sp)
   148d0:	013787b3          	add	a5,a5,s3
   148d4:	01c72023          	sw	t3,0(a4)
   148d8:	01372223          	sw	s3,4(a4)
   148dc:	04f12423          	sw	a5,72(sp)
   148e0:	04b12223          	sw	a1,68(sp)
   148e4:	00700713          	li	a4,7
   148e8:	ecb754e3          	bge	a4,a1,147b0 <_vfiprintf_r+0x418>
   148ec:	080786e3          	beqz	a5,15178 <_vfiprintf_r+0xde0>
   148f0:	04010613          	addi	a2,sp,64
   148f4:	00090593          	mv	a1,s2
   148f8:	000a0513          	mv	a0,s4
   148fc:	01012423          	sw	a6,8(sp)
   14900:	95dff0ef          	jal	ra,1425c <__sprint_r.part.0>
   14904:	cc0514e3          	bnez	a0,145cc <_vfiprintf_r+0x234>
   14908:	04812783          	lw	a5,72(sp)
   1490c:	00812803          	lw	a6,8(sp)
   14910:	ea1ff06f          	j	147b0 <_vfiprintf_r+0x418>
   14914:	000b8313          	mv	t1,s7
   14918:	00082b83          	lw	s7,0(a6)
   1491c:	02010da3          	sb	zero,59(sp)
   14920:	000d8713          	mv	a4,s11
   14924:	00480993          	addi	s3,a6,4
   14928:	440b86e3          	beqz	s7,15574 <_vfiprintf_r+0x11dc>
   1492c:	01b12623          	sw	s11,12(sp)
   14930:	00612423          	sw	t1,8(sp)
   14934:	360d46e3          	bltz	s10,154a0 <_vfiprintf_r+0x1108>
   14938:	000d0613          	mv	a2,s10
   1493c:	00000593          	li	a1,0
   14940:	000b8513          	mv	a0,s7
   14944:	24d010ef          	jal	ra,16390 <memchr>
   14948:	00812303          	lw	t1,8(sp)
   1494c:	00c12703          	lw	a4,12(sp)
   14950:	000d0e93          	mv	t4,s10
   14954:	00050463          	beqz	a0,1495c <_vfiprintf_r+0x5c4>
   14958:	41750eb3          	sub	t4,a0,s7
   1495c:	03b14783          	lbu	a5,59(sp)
   14960:	fffecd93          	not	s11,t4
   14964:	41fddd93          	srai	s11,s11,0x1f
   14968:	01befdb3          	and	s11,t4,s11
   1496c:	00098813          	mv	a6,s3
   14970:	00000d13          	li	s10,0
   14974:	00000f93          	li	t6,0
   14978:	d00782e3          	beqz	a5,1467c <_vfiprintf_r+0x2e4>
   1497c:	001d8d93          	addi	s11,s11,1
   14980:	00237f93          	andi	t6,t1,2
   14984:	ce0f8ce3          	beqz	t6,1467c <_vfiprintf_r+0x2e4>
   14988:	002d8d93          	addi	s11,s11,2
   1498c:	00200f93          	li	t6,2
   14990:	cedff06f          	j	1467c <_vfiprintf_r+0x2e4>
   14994:	00082783          	lw	a5,0(a6)
   14998:	000b8313          	mv	t1,s7
   1499c:	000d8713          	mv	a4,s11
   149a0:	02010da3          	sb	zero,59(sp)
   149a4:	00480813          	addi	a6,a6,4
   149a8:	08f10623          	sb	a5,140(sp)
   149ac:	00100d93          	li	s11,1
   149b0:	00100e93          	li	t4,1
   149b4:	08c10b93          	addi	s7,sp,140
   149b8:	cbdff06f          	j	14674 <_vfiprintf_r+0x2dc>
   149bc:	000b8313          	mv	t1,s7
   149c0:	02037793          	andi	a5,t1,32
   149c4:	000d8713          	mv	a4,s11
   149c8:	24078a63          	beqz	a5,14c1c <_vfiprintf_r+0x884>
   149cc:	00780813          	addi	a6,a6,7
   149d0:	ff887813          	andi	a6,a6,-8
   149d4:	00482683          	lw	a3,4(a6)
   149d8:	00082983          	lw	s3,0(a6)
   149dc:	00880813          	addi	a6,a6,8
   149e0:	00068d93          	mv	s11,a3
   149e4:	0c06c063          	bltz	a3,14aa4 <_vfiprintf_r+0x70c>
   149e8:	0c0d4e63          	bltz	s10,14ac4 <_vfiprintf_r+0x72c>
   149ec:	01b9e6b3          	or	a3,s3,s11
   149f0:	f7f37313          	andi	t1,t1,-129
   149f4:	0c069863          	bnez	a3,14ac4 <_vfiprintf_r+0x72c>
   149f8:	420d12e3          	bnez	s10,1561c <_vfiprintf_r+0x1284>
   149fc:	00000d93          	li	s11,0
   14a00:	00000e93          	li	t4,0
   14a04:	0f010b93          	addi	s7,sp,240
   14a08:	0e80006f          	j	14af0 <_vfiprintf_r+0x758>
   14a0c:	41600b33          	neg	s6,s6
   14a10:	000c4783          	lbu	a5,0(s8)
   14a14:	004beb93          	ori	s7,s7,4
   14a18:	b19ff06f          	j	14530 <_vfiprintf_r+0x198>
   14a1c:	02b00693          	li	a3,43
   14a20:	000c4783          	lbu	a5,0(s8)
   14a24:	02d10da3          	sb	a3,59(sp)
   14a28:	b09ff06f          	j	14530 <_vfiprintf_r+0x198>
   14a2c:	000c4783          	lbu	a5,0(s8)
   14a30:	06800693          	li	a3,104
   14a34:	32d780e3          	beq	a5,a3,15554 <_vfiprintf_r+0x11bc>
   14a38:	040beb93          	ori	s7,s7,64
   14a3c:	af5ff06f          	j	14530 <_vfiprintf_r+0x198>
   14a40:	000d8713          	mv	a4,s11
   14a44:	010bee93          	ori	t4,s7,16
   14a48:	020ef793          	andi	a5,t4,32
   14a4c:	7a078263          	beqz	a5,151f0 <_vfiprintf_r+0xe58>
   14a50:	00780813          	addi	a6,a6,7
   14a54:	ff887813          	andi	a6,a6,-8
   14a58:	00082983          	lw	s3,0(a6)
   14a5c:	00482d83          	lw	s11,4(a6)
   14a60:	00880813          	addi	a6,a6,8
   14a64:	02010da3          	sb	zero,59(sp)
   14a68:	000e8313          	mv	t1,t4
   14a6c:	040d4c63          	bltz	s10,14ac4 <_vfiprintf_r+0x72c>
   14a70:	01b9e6b3          	or	a3,s3,s11
   14a74:	f7fef313          	andi	t1,t4,-129
   14a78:	00100793          	li	a5,1
   14a7c:	04069463          	bnez	a3,14ac4 <_vfiprintf_r+0x72c>
   14a80:	0c0d1663          	bnez	s10,14b4c <_vfiprintf_r+0x7b4>
   14a84:	f6079ce3          	bnez	a5,149fc <_vfiprintf_r+0x664>
   14a88:	001efe93          	andi	t4,t4,1
   14a8c:	100e82e3          	beqz	t4,15390 <_vfiprintf_r+0xff8>
   14a90:	03000793          	li	a5,48
   14a94:	0ef107a3          	sb	a5,239(sp)
   14a98:	000e8d93          	mv	s11,t4
   14a9c:	0ef10b93          	addi	s7,sp,239
   14aa0:	0500006f          	j	14af0 <_vfiprintf_r+0x758>
   14aa4:	02d00613          	li	a2,45
   14aa8:	013036b3          	snez	a3,s3
   14aac:	41b00e33          	neg	t3,s11
   14ab0:	02c10da3          	sb	a2,59(sp)
   14ab4:	40de0db3          	sub	s11,t3,a3
   14ab8:	413009b3          	neg	s3,s3
   14abc:	000d4463          	bltz	s10,14ac4 <_vfiprintf_r+0x72c>
   14ac0:	f7f37313          	andi	t1,t1,-129
   14ac4:	000d92e3          	bnez	s11,152c8 <_vfiprintf_r+0xf30>
   14ac8:	00900693          	li	a3,9
   14acc:	7f36ee63          	bltu	a3,s3,152c8 <_vfiprintf_r+0xf30>
   14ad0:	03098793          	addi	a5,s3,48
   14ad4:	0ff7f793          	andi	a5,a5,255
   14ad8:	0ef107a3          	sb	a5,239(sp)
   14adc:	000d0d93          	mv	s11,s10
   14ae0:	01a04463          	bgtz	s10,14ae8 <_vfiprintf_r+0x750>
   14ae4:	00100d93          	li	s11,1
   14ae8:	00100e93          	li	t4,1
   14aec:	0ef10b93          	addi	s7,sp,239
   14af0:	03b14783          	lbu	a5,59(sp)
   14af4:	e80794e3          	bnez	a5,1497c <_vfiprintf_r+0x5e4>
   14af8:	e89ff06f          	j	14980 <_vfiprintf_r+0x5e8>
   14afc:	000086b7          	lui	a3,0x8
   14b00:	83068693          	addi	a3,a3,-2000 # 7830 <exit-0x8864>
   14b04:	02d11e23          	sh	a3,60(sp)
   14b08:	000226b7          	lui	a3,0x22
   14b0c:	9d468693          	addi	a3,a3,-1580 # 219d4 <__clzsi2+0x60>
   14b10:	00082783          	lw	a5,0(a6)
   14b14:	000d8713          	mv	a4,s11
   14b18:	00000593          	li	a1,0
   14b1c:	002be313          	ori	t1,s7,2
   14b20:	00480813          	addi	a6,a6,4
   14b24:	00d12223          	sw	a3,4(sp)
   14b28:	02010da3          	sb	zero,59(sp)
   14b2c:	500d4463          	bltz	s10,15034 <_vfiprintf_r+0xc9c>
   14b30:	00b7e6b3          	or	a3,a5,a1
   14b34:	f7f37613          	andi	a2,t1,-129
   14b38:	4e069863          	bnez	a3,15028 <_vfiprintf_r+0xc90>
   14b3c:	00030e93          	mv	t4,t1
   14b40:	00200793          	li	a5,2
   14b44:	00060313          	mv	t1,a2
   14b48:	f20d0ee3          	beqz	s10,14a84 <_vfiprintf_r+0x6ec>
   14b4c:	00100693          	li	a3,1
   14b50:	2cd786e3          	beq	a5,a3,1561c <_vfiprintf_r+0x1284>
   14b54:	00200693          	li	a3,2
   14b58:	22d78ee3          	beq	a5,a3,15594 <_vfiprintf_r+0x11fc>
   14b5c:	00000793          	li	a5,0
   14b60:	00000593          	li	a1,0
   14b64:	0f010b93          	addi	s7,sp,240
   14b68:	01d59613          	slli	a2,a1,0x1d
   14b6c:	0077f693          	andi	a3,a5,7
   14b70:	0037d793          	srli	a5,a5,0x3
   14b74:	03068693          	addi	a3,a3,48
   14b78:	00f667b3          	or	a5,a2,a5
   14b7c:	0035d593          	srli	a1,a1,0x3
   14b80:	fedb8fa3          	sb	a3,-1(s7)
   14b84:	00b7e633          	or	a2,a5,a1
   14b88:	000b8513          	mv	a0,s7
   14b8c:	fffb8b93          	addi	s7,s7,-1
   14b90:	fc061ce3          	bnez	a2,14b68 <_vfiprintf_r+0x7d0>
   14b94:	00137793          	andi	a5,t1,1
   14b98:	4c078863          	beqz	a5,15068 <_vfiprintf_r+0xcd0>
   14b9c:	03000793          	li	a5,48
   14ba0:	4cf68463          	beq	a3,a5,15068 <_vfiprintf_r+0xcd0>
   14ba4:	ffe50513          	addi	a0,a0,-2
   14ba8:	fefb8fa3          	sb	a5,-1(s7)
   14bac:	0f010793          	addi	a5,sp,240
   14bb0:	40a78eb3          	sub	t4,a5,a0
   14bb4:	000d0d93          	mv	s11,s10
   14bb8:	01dd4ee3          	blt	s10,t4,153d4 <_vfiprintf_r+0x103c>
   14bbc:	00050b93          	mv	s7,a0
   14bc0:	f31ff06f          	j	14af0 <_vfiprintf_r+0x758>
   14bc4:	020bf793          	andi	a5,s7,32
   14bc8:	000d8713          	mv	a4,s11
   14bcc:	7e079063          	bnez	a5,153ac <_vfiprintf_r+0x1014>
   14bd0:	010bf793          	andi	a5,s7,16
   14bd4:	180798e3          	bnez	a5,15564 <_vfiprintf_r+0x11cc>
   14bd8:	040bf793          	andi	a5,s7,64
   14bdc:	1e079ce3          	bnez	a5,155d4 <_vfiprintf_r+0x123c>
   14be0:	200bf313          	andi	t1,s7,512
   14be4:	180300e3          	beqz	t1,15564 <_vfiprintf_r+0x11cc>
   14be8:	00082783          	lw	a5,0(a6)
   14bec:	00480813          	addi	a6,a6,4
   14bf0:	01978023          	sb	s9,0(a5)
   14bf4:	895ff06f          	j	14488 <_vfiprintf_r+0xf0>
   14bf8:	000c4783          	lbu	a5,0(s8)
   14bfc:	06c00693          	li	a3,108
   14c00:	14d782e3          	beq	a5,a3,15544 <_vfiprintf_r+0x11ac>
   14c04:	010beb93          	ori	s7,s7,16
   14c08:	929ff06f          	j	14530 <_vfiprintf_r+0x198>
   14c0c:	010be313          	ori	t1,s7,16
   14c10:	02037793          	andi	a5,t1,32
   14c14:	000d8713          	mv	a4,s11
   14c18:	da079ae3          	bnez	a5,149cc <_vfiprintf_r+0x634>
   14c1c:	01037693          	andi	a3,t1,16
   14c20:	00082783          	lw	a5,0(a6)
   14c24:	00480813          	addi	a6,a6,4
   14c28:	5a069c63          	bnez	a3,151e0 <_vfiprintf_r+0xe48>
   14c2c:	04037693          	andi	a3,t1,64
   14c30:	5a068463          	beqz	a3,151d8 <_vfiprintf_r+0xe40>
   14c34:	01079993          	slli	s3,a5,0x10
   14c38:	4109d993          	srai	s3,s3,0x10
   14c3c:	41f9dd93          	srai	s11,s3,0x1f
   14c40:	000d8693          	mv	a3,s11
   14c44:	da1ff06f          	j	149e4 <_vfiprintf_r+0x64c>
   14c48:	000d8713          	mv	a4,s11
   14c4c:	010be693          	ori	a3,s7,16
   14c50:	0206f793          	andi	a5,a3,32
   14c54:	5c078c63          	beqz	a5,1522c <_vfiprintf_r+0xe94>
   14c58:	00780813          	addi	a6,a6,7
   14c5c:	ff887813          	andi	a6,a6,-8
   14c60:	00082783          	lw	a5,0(a6)
   14c64:	00482583          	lw	a1,4(a6)
   14c68:	00880813          	addi	a6,a6,8
   14c6c:	02010da3          	sb	zero,59(sp)
   14c70:	bff6f313          	andi	t1,a3,-1025
   14c74:	ee0d48e3          	bltz	s10,14b64 <_vfiprintf_r+0x7cc>
   14c78:	00b7e633          	or	a2,a5,a1
   14c7c:	b7f6f693          	andi	a3,a3,-1153
   14c80:	0a0616e3          	bnez	a2,1552c <_vfiprintf_r+0x1194>
   14c84:	00030e93          	mv	t4,t1
   14c88:	00000793          	li	a5,0
   14c8c:	00068313          	mv	t1,a3
   14c90:	df1ff06f          	j	14a80 <_vfiprintf_r+0x6e8>
   14c94:	000a0513          	mv	a0,s4
   14c98:	01012423          	sw	a6,8(sp)
   14c9c:	175010ef          	jal	ra,16610 <_localeconv_r>
   14ca0:	00452783          	lw	a5,4(a0)
   14ca4:	00078513          	mv	a0,a5
   14ca8:	02f12023          	sw	a5,32(sp)
   14cac:	4dd010ef          	jal	ra,16988 <strlen>
   14cb0:	00050793          	mv	a5,a0
   14cb4:	000a0513          	mv	a0,s4
   14cb8:	00f12e23          	sw	a5,28(sp)
   14cbc:	155010ef          	jal	ra,16610 <_localeconv_r>
   14cc0:	00852703          	lw	a4,8(a0)
   14cc4:	01c12783          	lw	a5,28(sp)
   14cc8:	00812803          	lw	a6,8(sp)
   14ccc:	00e12c23          	sw	a4,24(sp)
   14cd0:	b20786e3          	beqz	a5,147fc <_vfiprintf_r+0x464>
   14cd4:	01812703          	lw	a4,24(sp)
   14cd8:	000c4783          	lbu	a5,0(s8)
   14cdc:	84070ae3          	beqz	a4,14530 <_vfiprintf_r+0x198>
   14ce0:	00074683          	lbu	a3,0(a4)
   14ce4:	840686e3          	beqz	a3,14530 <_vfiprintf_r+0x198>
   14ce8:	400beb93          	ori	s7,s7,1024
   14cec:	845ff06f          	j	14530 <_vfiprintf_r+0x198>
   14cf0:	000c4783          	lbu	a5,0(s8)
   14cf4:	080beb93          	ori	s7,s7,128
   14cf8:	839ff06f          	j	14530 <_vfiprintf_r+0x198>
   14cfc:	000c4603          	lbu	a2,0(s8)
   14d00:	02a00793          	li	a5,42
   14d04:	001c0593          	addi	a1,s8,1
   14d08:	14f60ae3          	beq	a2,a5,1565c <_vfiprintf_r+0x12c4>
   14d0c:	fd060793          	addi	a5,a2,-48
   14d10:	00900693          	li	a3,9
   14d14:	00000d13          	li	s10,0
   14d18:	00900513          	li	a0,9
   14d1c:	02f6e463          	bltu	a3,a5,14d44 <_vfiprintf_r+0x9ac>
   14d20:	0005c603          	lbu	a2,0(a1)
   14d24:	002d1693          	slli	a3,s10,0x2
   14d28:	01a68d33          	add	s10,a3,s10
   14d2c:	001d1d13          	slli	s10,s10,0x1
   14d30:	00fd0d33          	add	s10,s10,a5
   14d34:	fd060793          	addi	a5,a2,-48
   14d38:	00158593          	addi	a1,a1,1
   14d3c:	fef572e3          	bgeu	a0,a5,14d20 <_vfiprintf_r+0x988>
   14d40:	6a0d4063          	bltz	s10,153e0 <_vfiprintf_r+0x1048>
   14d44:	00058c13          	mv	s8,a1
   14d48:	ff0ff06f          	j	14538 <_vfiprintf_r+0x1a0>
   14d4c:	000c4783          	lbu	a5,0(s8)
   14d50:	001beb93          	ori	s7,s7,1
   14d54:	fdcff06f          	j	14530 <_vfiprintf_r+0x198>
   14d58:	03b14683          	lbu	a3,59(sp)
   14d5c:	000c4783          	lbu	a5,0(s8)
   14d60:	fc069863          	bnez	a3,14530 <_vfiprintf_r+0x198>
   14d64:	02000693          	li	a3,32
   14d68:	02d10da3          	sb	a3,59(sp)
   14d6c:	fc4ff06f          	j	14530 <_vfiprintf_r+0x198>
   14d70:	00100713          	li	a4,1
   14d74:	04e12223          	sw	a4,68(sp)
   14d78:	000e8793          	mv	a5,t4
   14d7c:	05712623          	sw	s7,76(sp)
   14d80:	05d12823          	sw	t4,80(sp)
   14d84:	05d12423          	sw	t4,72(sp)
   14d88:	00048713          	mv	a4,s1
   14d8c:	00870713          	addi	a4,a4,8
   14d90:	a11ff06f          	j	147a0 <_vfiprintf_r+0x408>
   14d94:	00100593          	li	a1,1
   14d98:	00000613          	li	a2,0
   14d9c:	00048713          	mv	a4,s1
   14da0:	ad1ff06f          	j	14870 <_vfiprintf_r+0x4d8>
   14da4:	41bb09b3          	sub	s3,s6,s11
   14da8:	9b3052e3          	blez	s3,1474c <_vfiprintf_r+0x3b4>
   14dac:	01000613          	li	a2,16
   14db0:	09365ae3          	bge	a2,s3,15644 <_vfiprintf_r+0x12ac>
   14db4:	00022e37          	lui	t3,0x22
   14db8:	e6ce0e13          	addi	t3,t3,-404 # 21e6c <zeroes.0>
   14dbc:	01612823          	sw	s6,16(sp)
   14dc0:	01000f13          	li	t5,16
   14dc4:	00700f93          	li	t6,7
   14dc8:	00612423          	sw	t1,8(sp)
   14dcc:	01d12623          	sw	t4,12(sp)
   14dd0:	01012a23          	sw	a6,20(sp)
   14dd4:	000e0b13          	mv	s6,t3
   14dd8:	0180006f          	j	14df0 <_vfiprintf_r+0xa58>
   14ddc:	00268513          	addi	a0,a3,2
   14de0:	00870713          	addi	a4,a4,8
   14de4:	00060693          	mv	a3,a2
   14de8:	ff098993          	addi	s3,s3,-16
   14dec:	053f5c63          	bge	t5,s3,14e44 <_vfiprintf_r+0xaac>
   14df0:	01078793          	addi	a5,a5,16
   14df4:	00168613          	addi	a2,a3,1
   14df8:	01672023          	sw	s6,0(a4)
   14dfc:	01e72223          	sw	t5,4(a4)
   14e00:	04f12423          	sw	a5,72(sp)
   14e04:	04c12223          	sw	a2,68(sp)
   14e08:	fccfdae3          	bge	t6,a2,14ddc <_vfiprintf_r+0xa44>
   14e0c:	18078663          	beqz	a5,14f98 <_vfiprintf_r+0xc00>
   14e10:	04010613          	addi	a2,sp,64
   14e14:	00090593          	mv	a1,s2
   14e18:	000a0513          	mv	a0,s4
   14e1c:	c40ff0ef          	jal	ra,1425c <__sprint_r.part.0>
   14e20:	fa051663          	bnez	a0,145cc <_vfiprintf_r+0x234>
   14e24:	04412683          	lw	a3,68(sp)
   14e28:	01000f13          	li	t5,16
   14e2c:	ff098993          	addi	s3,s3,-16
   14e30:	04812783          	lw	a5,72(sp)
   14e34:	00048713          	mv	a4,s1
   14e38:	00168513          	addi	a0,a3,1
   14e3c:	00700f93          	li	t6,7
   14e40:	fb3f48e3          	blt	t5,s3,14df0 <_vfiprintf_r+0xa58>
   14e44:	000b0e13          	mv	t3,s6
   14e48:	00812303          	lw	t1,8(sp)
   14e4c:	00c12e83          	lw	t4,12(sp)
   14e50:	01412803          	lw	a6,20(sp)
   14e54:	01012b03          	lw	s6,16(sp)
   14e58:	013787b3          	add	a5,a5,s3
   14e5c:	01c72023          	sw	t3,0(a4)
   14e60:	01372223          	sw	s3,4(a4)
   14e64:	04f12423          	sw	a5,72(sp)
   14e68:	04a12223          	sw	a0,68(sp)
   14e6c:	00700693          	li	a3,7
   14e70:	52a6d663          	bge	a3,a0,1539c <_vfiprintf_r+0x1004>
   14e74:	72078663          	beqz	a5,155a0 <_vfiprintf_r+0x1208>
   14e78:	04010613          	addi	a2,sp,64
   14e7c:	00090593          	mv	a1,s2
   14e80:	000a0513          	mv	a0,s4
   14e84:	01012823          	sw	a6,16(sp)
   14e88:	01d12623          	sw	t4,12(sp)
   14e8c:	00612423          	sw	t1,8(sp)
   14e90:	bccff0ef          	jal	ra,1425c <__sprint_r.part.0>
   14e94:	f2051c63          	bnez	a0,145cc <_vfiprintf_r+0x234>
   14e98:	00c12e83          	lw	t4,12(sp)
   14e9c:	04412683          	lw	a3,68(sp)
   14ea0:	04812783          	lw	a5,72(sp)
   14ea4:	41dd0d33          	sub	s10,s10,t4
   14ea8:	01012803          	lw	a6,16(sp)
   14eac:	00812303          	lw	t1,8(sp)
   14eb0:	00048713          	mv	a4,s1
   14eb4:	00168593          	addi	a1,a3,1
   14eb8:	89a05ee3          	blez	s10,14754 <_vfiprintf_r+0x3bc>
   14ebc:	00022e37          	lui	t3,0x22
   14ec0:	e6ce0e13          	addi	t3,t3,-404 # 21e6c <zeroes.0>
   14ec4:	09a45e63          	bge	s0,s10,14f60 <_vfiprintf_r+0xbc8>
   14ec8:	01612823          	sw	s6,16(sp)
   14ecc:	00700993          	li	s3,7
   14ed0:	000d0b13          	mv	s6,s10
   14ed4:	00612423          	sw	t1,8(sp)
   14ed8:	01d12623          	sw	t4,12(sp)
   14edc:	01012a23          	sw	a6,20(sp)
   14ee0:	000a8d13          	mv	s10,s5
   14ee4:	0180006f          	j	14efc <_vfiprintf_r+0xb64>
   14ee8:	00268593          	addi	a1,a3,2
   14eec:	00870713          	addi	a4,a4,8
   14ef0:	00060693          	mv	a3,a2
   14ef4:	ff0b0b13          	addi	s6,s6,-16
   14ef8:	05645863          	bge	s0,s6,14f48 <_vfiprintf_r+0xbb0>
   14efc:	01078793          	addi	a5,a5,16
   14f00:	00168613          	addi	a2,a3,1
   14f04:	01572023          	sw	s5,0(a4)
   14f08:	00872223          	sw	s0,4(a4)
   14f0c:	04f12423          	sw	a5,72(sp)
   14f10:	04c12223          	sw	a2,68(sp)
   14f14:	fcc9dae3          	bge	s3,a2,14ee8 <_vfiprintf_r+0xb50>
   14f18:	06078863          	beqz	a5,14f88 <_vfiprintf_r+0xbf0>
   14f1c:	04010613          	addi	a2,sp,64
   14f20:	00090593          	mv	a1,s2
   14f24:	000a0513          	mv	a0,s4
   14f28:	b34ff0ef          	jal	ra,1425c <__sprint_r.part.0>
   14f2c:	ea051063          	bnez	a0,145cc <_vfiprintf_r+0x234>
   14f30:	04412683          	lw	a3,68(sp)
   14f34:	ff0b0b13          	addi	s6,s6,-16
   14f38:	04812783          	lw	a5,72(sp)
   14f3c:	00048713          	mv	a4,s1
   14f40:	00168593          	addi	a1,a3,1
   14f44:	fb644ce3          	blt	s0,s6,14efc <_vfiprintf_r+0xb64>
   14f48:	000d0e13          	mv	t3,s10
   14f4c:	00812303          	lw	t1,8(sp)
   14f50:	000b0d13          	mv	s10,s6
   14f54:	00c12e83          	lw	t4,12(sp)
   14f58:	01412803          	lw	a6,20(sp)
   14f5c:	01012b03          	lw	s6,16(sp)
   14f60:	01a787b3          	add	a5,a5,s10
   14f64:	01c72023          	sw	t3,0(a4)
   14f68:	01a72223          	sw	s10,4(a4)
   14f6c:	04f12423          	sw	a5,72(sp)
   14f70:	04b12223          	sw	a1,68(sp)
   14f74:	00700693          	li	a3,7
   14f78:	20b6c863          	blt	a3,a1,15188 <_vfiprintf_r+0xdf0>
   14f7c:	00870713          	addi	a4,a4,8
   14f80:	00158593          	addi	a1,a1,1
   14f84:	fd0ff06f          	j	14754 <_vfiprintf_r+0x3bc>
   14f88:	00100593          	li	a1,1
   14f8c:	00000693          	li	a3,0
   14f90:	00048713          	mv	a4,s1
   14f94:	f61ff06f          	j	14ef4 <_vfiprintf_r+0xb5c>
   14f98:	00100513          	li	a0,1
   14f9c:	00000693          	li	a3,0
   14fa0:	00048713          	mv	a4,s1
   14fa4:	e45ff06f          	j	14de8 <_vfiprintf_r+0xa50>
   14fa8:	04078a63          	beqz	a5,14ffc <_vfiprintf_r+0xc64>
   14fac:	04010613          	addi	a2,sp,64
   14fb0:	00090593          	mv	a1,s2
   14fb4:	000a0513          	mv	a0,s4
   14fb8:	03012223          	sw	a6,36(sp)
   14fbc:	01d12a23          	sw	t4,20(sp)
   14fc0:	00512823          	sw	t0,16(sp)
   14fc4:	01f12623          	sw	t6,12(sp)
   14fc8:	00612423          	sw	t1,8(sp)
   14fcc:	a90ff0ef          	jal	ra,1425c <__sprint_r.part.0>
   14fd0:	de051e63          	bnez	a0,145cc <_vfiprintf_r+0x234>
   14fd4:	04412683          	lw	a3,68(sp)
   14fd8:	04812783          	lw	a5,72(sp)
   14fdc:	02412803          	lw	a6,36(sp)
   14fe0:	01412e83          	lw	t4,20(sp)
   14fe4:	01012283          	lw	t0,16(sp)
   14fe8:	00c12f83          	lw	t6,12(sp)
   14fec:	00812303          	lw	t1,8(sp)
   14ff0:	00048713          	mv	a4,s1
   14ff4:	00168593          	addi	a1,a3,1
   14ff8:	edcff06f          	j	146d4 <_vfiprintf_r+0x33c>
   14ffc:	3c0f8463          	beqz	t6,153c4 <_vfiprintf_r+0x102c>
   15000:	03c10793          	addi	a5,sp,60
   15004:	04f12623          	sw	a5,76(sp)
   15008:	00200793          	li	a5,2
   1500c:	04f12823          	sw	a5,80(sp)
   15010:	00100593          	li	a1,1
   15014:	00048713          	mv	a4,s1
   15018:	00058693          	mv	a3,a1
   1501c:	00870713          	addi	a4,a4,8
   15020:	00158593          	addi	a1,a1,1
   15024:	f20ff06f          	j	14744 <_vfiprintf_r+0x3ac>
   15028:	00200693          	li	a3,2
   1502c:	00060313          	mv	t1,a2
   15030:	b2068ae3          	beqz	a3,14b64 <_vfiprintf_r+0x7cc>
   15034:	00412503          	lw	a0,4(sp)
   15038:	0f010b93          	addi	s7,sp,240
   1503c:	00f7f693          	andi	a3,a5,15
   15040:	00d506b3          	add	a3,a0,a3
   15044:	0006c603          	lbu	a2,0(a3)
   15048:	0047d793          	srli	a5,a5,0x4
   1504c:	01c59693          	slli	a3,a1,0x1c
   15050:	00f6e7b3          	or	a5,a3,a5
   15054:	0045d593          	srli	a1,a1,0x4
   15058:	fecb8fa3          	sb	a2,-1(s7)
   1505c:	00b7e6b3          	or	a3,a5,a1
   15060:	fffb8b93          	addi	s7,s7,-1
   15064:	fc069ce3          	bnez	a3,1503c <_vfiprintf_r+0xca4>
   15068:	0f010793          	addi	a5,sp,240
   1506c:	41778eb3          	sub	t4,a5,s7
   15070:	000d0d93          	mv	s11,s10
   15074:	a7dd5ee3          	bge	s10,t4,14af0 <_vfiprintf_r+0x758>
   15078:	000e8d93          	mv	s11,t4
   1507c:	a75ff06f          	j	14af0 <_vfiprintf_r+0x758>
   15080:	01000593          	li	a1,16
   15084:	5b35d063          	bge	a1,s3,15624 <_vfiprintf_r+0x128c>
   15088:	00022e37          	lui	t3,0x22
   1508c:	e7ce0e13          	addi	t3,t3,-388 # 21e7c <blanks.1>
   15090:	03612223          	sw	s6,36(sp)
   15094:	01000f13          	li	t5,16
   15098:	00700393          	li	t2,7
   1509c:	00612423          	sw	t1,8(sp)
   150a0:	01f12623          	sw	t6,12(sp)
   150a4:	00512823          	sw	t0,16(sp)
   150a8:	01d12a23          	sw	t4,20(sp)
   150ac:	03012423          	sw	a6,40(sp)
   150b0:	000e0b13          	mv	s6,t3
   150b4:	01c0006f          	j	150d0 <_vfiprintf_r+0xd38>
   150b8:	00268513          	addi	a0,a3,2
   150bc:	00870713          	addi	a4,a4,8
   150c0:	00060693          	mv	a3,a2
   150c4:	ff098993          	addi	s3,s3,-16
   150c8:	053f5c63          	bge	t5,s3,15120 <_vfiprintf_r+0xd88>
   150cc:	00168613          	addi	a2,a3,1
   150d0:	01078793          	addi	a5,a5,16
   150d4:	01672023          	sw	s6,0(a4)
   150d8:	01e72223          	sw	t5,4(a4)
   150dc:	04f12423          	sw	a5,72(sp)
   150e0:	04c12223          	sw	a2,68(sp)
   150e4:	fcc3dae3          	bge	t2,a2,150b8 <_vfiprintf_r+0xd20>
   150e8:	08078063          	beqz	a5,15168 <_vfiprintf_r+0xdd0>
   150ec:	04010613          	addi	a2,sp,64
   150f0:	00090593          	mv	a1,s2
   150f4:	000a0513          	mv	a0,s4
   150f8:	964ff0ef          	jal	ra,1425c <__sprint_r.part.0>
   150fc:	cc051863          	bnez	a0,145cc <_vfiprintf_r+0x234>
   15100:	04412683          	lw	a3,68(sp)
   15104:	01000f13          	li	t5,16
   15108:	ff098993          	addi	s3,s3,-16
   1510c:	04812783          	lw	a5,72(sp)
   15110:	00048713          	mv	a4,s1
   15114:	00168513          	addi	a0,a3,1
   15118:	00700393          	li	t2,7
   1511c:	fb3f48e3          	blt	t5,s3,150cc <_vfiprintf_r+0xd34>
   15120:	000b0e13          	mv	t3,s6
   15124:	00812303          	lw	t1,8(sp)
   15128:	00c12f83          	lw	t6,12(sp)
   1512c:	01012283          	lw	t0,16(sp)
   15130:	01412e83          	lw	t4,20(sp)
   15134:	02812803          	lw	a6,40(sp)
   15138:	02412b03          	lw	s6,36(sp)
   1513c:	013787b3          	add	a5,a5,s3
   15140:	01c72023          	sw	t3,0(a4)
   15144:	01372223          	sw	s3,4(a4)
   15148:	04f12423          	sw	a5,72(sp)
   1514c:	04a12223          	sw	a0,68(sp)
   15150:	00700693          	li	a3,7
   15154:	12a6c063          	blt	a3,a0,15274 <_vfiprintf_r+0xedc>
   15158:	00870713          	addi	a4,a4,8
   1515c:	00150593          	addi	a1,a0,1
   15160:	00050693          	mv	a3,a0
   15164:	d38ff06f          	j	1469c <_vfiprintf_r+0x304>
   15168:	00000693          	li	a3,0
   1516c:	00100513          	li	a0,1
   15170:	00048713          	mv	a4,s1
   15174:	f51ff06f          	j	150c4 <_vfiprintf_r+0xd2c>
   15178:	01bb5463          	bge	s6,s11,15180 <_vfiprintf_r+0xde8>
   1517c:	000d8b13          	mv	s6,s11
   15180:	016c8cb3          	add	s9,s9,s6
   15184:	e3cff06f          	j	147c0 <_vfiprintf_r+0x428>
   15188:	be0784e3          	beqz	a5,14d70 <_vfiprintf_r+0x9d8>
   1518c:	04010613          	addi	a2,sp,64
   15190:	00090593          	mv	a1,s2
   15194:	000a0513          	mv	a0,s4
   15198:	01012823          	sw	a6,16(sp)
   1519c:	01d12623          	sw	t4,12(sp)
   151a0:	00612423          	sw	t1,8(sp)
   151a4:	8b8ff0ef          	jal	ra,1425c <__sprint_r.part.0>
   151a8:	c2051263          	bnez	a0,145cc <_vfiprintf_r+0x234>
   151ac:	04412583          	lw	a1,68(sp)
   151b0:	04812783          	lw	a5,72(sp)
   151b4:	01012803          	lw	a6,16(sp)
   151b8:	00c12e83          	lw	t4,12(sp)
   151bc:	00812303          	lw	t1,8(sp)
   151c0:	00048713          	mv	a4,s1
   151c4:	00158593          	addi	a1,a1,1
   151c8:	d8cff06f          	j	14754 <_vfiprintf_r+0x3bc>
   151cc:	04012223          	sw	zero,68(sp)
   151d0:	00048713          	mv	a4,s1
   151d4:	b2cff06f          	j	14500 <_vfiprintf_r+0x168>
   151d8:	20037693          	andi	a3,t1,512
   151dc:	40069a63          	bnez	a3,155f0 <_vfiprintf_r+0x1258>
   151e0:	41f7dd93          	srai	s11,a5,0x1f
   151e4:	00078993          	mv	s3,a5
   151e8:	000d8693          	mv	a3,s11
   151ec:	ff8ff06f          	j	149e4 <_vfiprintf_r+0x64c>
   151f0:	010ef693          	andi	a3,t4,16
   151f4:	00082783          	lw	a5,0(a6)
   151f8:	00480813          	addi	a6,a6,4
   151fc:	02069263          	bnez	a3,15220 <_vfiprintf_r+0xe88>
   15200:	040ef693          	andi	a3,t4,64
   15204:	00068a63          	beqz	a3,15218 <_vfiprintf_r+0xe80>
   15208:	01079993          	slli	s3,a5,0x10
   1520c:	0109d993          	srli	s3,s3,0x10
   15210:	00000d93          	li	s11,0
   15214:	851ff06f          	j	14a64 <_vfiprintf_r+0x6cc>
   15218:	200ef693          	andi	a3,t4,512
   1521c:	3e069463          	bnez	a3,15604 <_vfiprintf_r+0x126c>
   15220:	00078993          	mv	s3,a5
   15224:	00000d93          	li	s11,0
   15228:	83dff06f          	j	14a64 <_vfiprintf_r+0x6cc>
   1522c:	0106f613          	andi	a2,a3,16
   15230:	00082783          	lw	a5,0(a6)
   15234:	00480813          	addi	a6,a6,4
   15238:	02061263          	bnez	a2,1525c <_vfiprintf_r+0xec4>
   1523c:	0406f613          	andi	a2,a3,64
   15240:	00060a63          	beqz	a2,15254 <_vfiprintf_r+0xebc>
   15244:	01079793          	slli	a5,a5,0x10
   15248:	0107d793          	srli	a5,a5,0x10
   1524c:	00000593          	li	a1,0
   15250:	a1dff06f          	j	14c6c <_vfiprintf_r+0x8d4>
   15254:	2006f613          	andi	a2,a3,512
   15258:	38061663          	bnez	a2,155e4 <_vfiprintf_r+0x124c>
   1525c:	00000593          	li	a1,0
   15260:	a0dff06f          	j	14c6c <_vfiprintf_r+0x8d4>
   15264:	00100593          	li	a1,1
   15268:	00000693          	li	a3,0
   1526c:	00048713          	mv	a4,s1
   15270:	cd4ff06f          	j	14744 <_vfiprintf_r+0x3ac>
   15274:	24078263          	beqz	a5,154b8 <_vfiprintf_r+0x1120>
   15278:	04010613          	addi	a2,sp,64
   1527c:	00090593          	mv	a1,s2
   15280:	000a0513          	mv	a0,s4
   15284:	03012223          	sw	a6,36(sp)
   15288:	01d12a23          	sw	t4,20(sp)
   1528c:	00512823          	sw	t0,16(sp)
   15290:	01f12623          	sw	t6,12(sp)
   15294:	00612423          	sw	t1,8(sp)
   15298:	fc5fe0ef          	jal	ra,1425c <__sprint_r.part.0>
   1529c:	b2051863          	bnez	a0,145cc <_vfiprintf_r+0x234>
   152a0:	04412683          	lw	a3,68(sp)
   152a4:	04812783          	lw	a5,72(sp)
   152a8:	02412803          	lw	a6,36(sp)
   152ac:	01412e83          	lw	t4,20(sp)
   152b0:	01012283          	lw	t0,16(sp)
   152b4:	00c12f83          	lw	t6,12(sp)
   152b8:	00812303          	lw	t1,8(sp)
   152bc:	00048713          	mv	a4,s1
   152c0:	00168593          	addi	a1,a3,1
   152c4:	bd8ff06f          	j	1469c <_vfiprintf_r+0x304>
   152c8:	40037793          	andi	a5,t1,1024
   152cc:	00000693          	li	a3,0
   152d0:	0f010e93          	addi	t4,sp,240
   152d4:	01612623          	sw	s6,12(sp)
   152d8:	01a12823          	sw	s10,16(sp)
   152dc:	03912223          	sw	s9,36(sp)
   152e0:	03212423          	sw	s2,40(sp)
   152e4:	01812d03          	lw	s10,24(sp)
   152e8:	00612423          	sw	t1,8(sp)
   152ec:	00068b13          	mv	s6,a3
   152f0:	00e12a23          	sw	a4,20(sp)
   152f4:	00078c93          	mv	s9,a5
   152f8:	000e8913          	mv	s2,t4
   152fc:	03012623          	sw	a6,44(sp)
   15300:	0280006f          	j	15328 <_vfiprintf_r+0xf90>
   15304:	00a00613          	li	a2,10
   15308:	00000693          	li	a3,0
   1530c:	00098513          	mv	a0,s3
   15310:	000d8593          	mv	a1,s11
   15314:	11d060ef          	jal	ra,1bc30 <__udivdi3>
   15318:	280d8c63          	beqz	s11,155b0 <_vfiprintf_r+0x1218>
   1531c:	00050993          	mv	s3,a0
   15320:	00058d93          	mv	s11,a1
   15324:	000b8913          	mv	s2,s7
   15328:	00a00613          	li	a2,10
   1532c:	00000693          	li	a3,0
   15330:	00098513          	mv	a0,s3
   15334:	000d8593          	mv	a1,s11
   15338:	6bd060ef          	jal	ra,1c1f4 <__umoddi3>
   1533c:	03050513          	addi	a0,a0,48
   15340:	fea90fa3          	sb	a0,-1(s2)
   15344:	fff90b93          	addi	s7,s2,-1
   15348:	001b0b13          	addi	s6,s6,1
   1534c:	fa0c8ce3          	beqz	s9,15304 <_vfiprintf_r+0xf6c>
   15350:	000d4783          	lbu	a5,0(s10)
   15354:	fb6798e3          	bne	a5,s6,15304 <_vfiprintf_r+0xf6c>
   15358:	0ff00793          	li	a5,255
   1535c:	fafb04e3          	beq	s6,a5,15304 <_vfiprintf_r+0xf6c>
   15360:	160d9e63          	bnez	s11,154dc <_vfiprintf_r+0x1144>
   15364:	00900793          	li	a5,9
   15368:	1737ea63          	bltu	a5,s3,154dc <_vfiprintf_r+0x1144>
   1536c:	01a12c23          	sw	s10,24(sp)
   15370:	00812303          	lw	t1,8(sp)
   15374:	00c12b03          	lw	s6,12(sp)
   15378:	01012d03          	lw	s10,16(sp)
   1537c:	01412703          	lw	a4,20(sp)
   15380:	02412c83          	lw	s9,36(sp)
   15384:	02812903          	lw	s2,40(sp)
   15388:	02c12803          	lw	a6,44(sp)
   1538c:	cddff06f          	j	15068 <_vfiprintf_r+0xcd0>
   15390:	00000d93          	li	s11,0
   15394:	0f010b93          	addi	s7,sp,240
   15398:	f58ff06f          	j	14af0 <_vfiprintf_r+0x758>
   1539c:	00870713          	addi	a4,a4,8
   153a0:	00150593          	addi	a1,a0,1
   153a4:	00050693          	mv	a3,a0
   153a8:	ba4ff06f          	j	1474c <_vfiprintf_r+0x3b4>
   153ac:	00082783          	lw	a5,0(a6)
   153b0:	41fcd693          	srai	a3,s9,0x1f
   153b4:	00480813          	addi	a6,a6,4
   153b8:	0197a023          	sw	s9,0(a5)
   153bc:	00d7a223          	sw	a3,4(a5)
   153c0:	8c8ff06f          	j	14488 <_vfiprintf_r+0xf0>
   153c4:	00000693          	li	a3,0
   153c8:	00100593          	li	a1,1
   153cc:	00048713          	mv	a4,s1
   153d0:	b74ff06f          	j	14744 <_vfiprintf_r+0x3ac>
   153d4:	000e8d93          	mv	s11,t4
   153d8:	00050b93          	mv	s7,a0
   153dc:	f14ff06f          	j	14af0 <_vfiprintf_r+0x758>
   153e0:	fff00d13          	li	s10,-1
   153e4:	00058c13          	mv	s8,a1
   153e8:	950ff06f          	j	14538 <_vfiprintf_r+0x1a0>
   153ec:	000d8713          	mv	a4,s11
   153f0:	000b8e93          	mv	t4,s7
   153f4:	e54ff06f          	j	14a48 <_vfiprintf_r+0x6b0>
   153f8:	000227b7          	lui	a5,0x22
   153fc:	9e878793          	addi	a5,a5,-1560 # 219e8 <__clzsi2+0x74>
   15400:	000b8313          	mv	t1,s7
   15404:	00f12223          	sw	a5,4(sp)
   15408:	02037793          	andi	a5,t1,32
   1540c:	000d8713          	mv	a4,s11
   15410:	06078463          	beqz	a5,15478 <_vfiprintf_r+0x10e0>
   15414:	00780813          	addi	a6,a6,7
   15418:	ff887813          	andi	a6,a6,-8
   1541c:	00082783          	lw	a5,0(a6)
   15420:	00482583          	lw	a1,4(a6)
   15424:	00880813          	addi	a6,a6,8
   15428:	00137693          	andi	a3,t1,1
   1542c:	00068e63          	beqz	a3,15448 <_vfiprintf_r+0x10b0>
   15430:	00b7e6b3          	or	a3,a5,a1
   15434:	00068a63          	beqz	a3,15448 <_vfiprintf_r+0x10b0>
   15438:	03000693          	li	a3,48
   1543c:	02d10e23          	sb	a3,60(sp)
   15440:	02c10ea3          	sb	a2,61(sp)
   15444:	00236313          	ori	t1,t1,2
   15448:	bff37313          	andi	t1,t1,-1025
   1544c:	edcff06f          	j	14b28 <_vfiprintf_r+0x790>
   15450:	000d8713          	mv	a4,s11
   15454:	000b8693          	mv	a3,s7
   15458:	ff8ff06f          	j	14c50 <_vfiprintf_r+0x8b8>
   1545c:	000227b7          	lui	a5,0x22
   15460:	9d478793          	addi	a5,a5,-1580 # 219d4 <__clzsi2+0x60>
   15464:	000b8313          	mv	t1,s7
   15468:	00f12223          	sw	a5,4(sp)
   1546c:	02037793          	andi	a5,t1,32
   15470:	000d8713          	mv	a4,s11
   15474:	fa0790e3          	bnez	a5,15414 <_vfiprintf_r+0x107c>
   15478:	01037693          	andi	a3,t1,16
   1547c:	00082783          	lw	a5,0(a6)
   15480:	00480813          	addi	a6,a6,4
   15484:	0a069063          	bnez	a3,15524 <_vfiprintf_r+0x118c>
   15488:	04037693          	andi	a3,t1,64
   1548c:	08068863          	beqz	a3,1551c <_vfiprintf_r+0x1184>
   15490:	01079793          	slli	a5,a5,0x10
   15494:	0107d793          	srli	a5,a5,0x10
   15498:	00000593          	li	a1,0
   1549c:	f8dff06f          	j	15428 <_vfiprintf_r+0x1090>
   154a0:	000b8513          	mv	a0,s7
   154a4:	4e4010ef          	jal	ra,16988 <strlen>
   154a8:	00812303          	lw	t1,8(sp)
   154ac:	00c12703          	lw	a4,12(sp)
   154b0:	00050e93          	mv	t4,a0
   154b4:	ca8ff06f          	j	1495c <_vfiprintf_r+0x5c4>
   154b8:	03b14703          	lbu	a4,59(sp)
   154bc:	10070463          	beqz	a4,155c4 <_vfiprintf_r+0x122c>
   154c0:	03b10793          	addi	a5,sp,59
   154c4:	04f12623          	sw	a5,76(sp)
   154c8:	00100793          	li	a5,1
   154cc:	04f12823          	sw	a5,80(sp)
   154d0:	00100593          	li	a1,1
   154d4:	00048713          	mv	a4,s1
   154d8:	9f0ff06f          	j	146c8 <_vfiprintf_r+0x330>
   154dc:	01c12783          	lw	a5,28(sp)
   154e0:	02012583          	lw	a1,32(sp)
   154e4:	00000b13          	li	s6,0
   154e8:	40fb8bb3          	sub	s7,s7,a5
   154ec:	00078613          	mv	a2,a5
   154f0:	000b8513          	mv	a0,s7
   154f4:	761000ef          	jal	ra,16454 <strncpy>
   154f8:	001d4783          	lbu	a5,1(s10)
   154fc:	00a00613          	li	a2,10
   15500:	00000693          	li	a3,0
   15504:	00f037b3          	snez	a5,a5
   15508:	00098513          	mv	a0,s3
   1550c:	000d8593          	mv	a1,s11
   15510:	00fd0d33          	add	s10,s10,a5
   15514:	71c060ef          	jal	ra,1bc30 <__udivdi3>
   15518:	e05ff06f          	j	1531c <_vfiprintf_r+0xf84>
   1551c:	20037693          	andi	a3,t1,512
   15520:	0e069863          	bnez	a3,15610 <_vfiprintf_r+0x1278>
   15524:	00000593          	li	a1,0
   15528:	f01ff06f          	j	15428 <_vfiprintf_r+0x1090>
   1552c:	00068313          	mv	t1,a3
   15530:	00000693          	li	a3,0
   15534:	e2068863          	beqz	a3,14b64 <_vfiprintf_r+0x7cc>
   15538:	afdff06f          	j	15034 <_vfiprintf_r+0xc9c>
   1553c:	f95fa0ef          	jal	ra,104d0 <__sinit>
   15540:	e95fe06f          	j	143d4 <_vfiprintf_r+0x3c>
   15544:	001c4783          	lbu	a5,1(s8)
   15548:	020beb93          	ori	s7,s7,32
   1554c:	001c0c13          	addi	s8,s8,1
   15550:	fe1fe06f          	j	14530 <_vfiprintf_r+0x198>
   15554:	001c4783          	lbu	a5,1(s8)
   15558:	200beb93          	ori	s7,s7,512
   1555c:	001c0c13          	addi	s8,s8,1
   15560:	fd1fe06f          	j	14530 <_vfiprintf_r+0x198>
   15564:	00082783          	lw	a5,0(a6)
   15568:	00480813          	addi	a6,a6,4
   1556c:	0197a023          	sw	s9,0(a5)
   15570:	f19fe06f          	j	14488 <_vfiprintf_r+0xf0>
   15574:	00600793          	li	a5,6
   15578:	000d0e93          	mv	t4,s10
   1557c:	05a7e063          	bltu	a5,s10,155bc <_vfiprintf_r+0x1224>
   15580:	00022bb7          	lui	s7,0x22
   15584:	000e8d93          	mv	s11,t4
   15588:	00098813          	mv	a6,s3
   1558c:	9fcb8b93          	addi	s7,s7,-1540 # 219fc <__clzsi2+0x88>
   15590:	8e4ff06f          	j	14674 <_vfiprintf_r+0x2dc>
   15594:	00000793          	li	a5,0
   15598:	00000593          	li	a1,0
   1559c:	a99ff06f          	j	15034 <_vfiprintf_r+0xc9c>
   155a0:	00100593          	li	a1,1
   155a4:	00000693          	li	a3,0
   155a8:	00048713          	mv	a4,s1
   155ac:	9a0ff06f          	j	1474c <_vfiprintf_r+0x3b4>
   155b0:	00900793          	li	a5,9
   155b4:	d737e4e3          	bltu	a5,s3,1531c <_vfiprintf_r+0xf84>
   155b8:	db5ff06f          	j	1536c <_vfiprintf_r+0xfd4>
   155bc:	00600e93          	li	t4,6
   155c0:	fc1ff06f          	j	15580 <_vfiprintf_r+0x11e8>
   155c4:	00000693          	li	a3,0
   155c8:	00100593          	li	a1,1
   155cc:	00048713          	mv	a4,s1
   155d0:	904ff06f          	j	146d4 <_vfiprintf_r+0x33c>
   155d4:	00082783          	lw	a5,0(a6)
   155d8:	00480813          	addi	a6,a6,4
   155dc:	01979023          	sh	s9,0(a5)
   155e0:	ea9fe06f          	j	14488 <_vfiprintf_r+0xf0>
   155e4:	0ff7f793          	andi	a5,a5,255
   155e8:	00000593          	li	a1,0
   155ec:	e80ff06f          	j	14c6c <_vfiprintf_r+0x8d4>
   155f0:	01879993          	slli	s3,a5,0x18
   155f4:	4189d993          	srai	s3,s3,0x18
   155f8:	41f9dd93          	srai	s11,s3,0x1f
   155fc:	000d8693          	mv	a3,s11
   15600:	be4ff06f          	j	149e4 <_vfiprintf_r+0x64c>
   15604:	0ff7f993          	andi	s3,a5,255
   15608:	00000d93          	li	s11,0
   1560c:	c58ff06f          	j	14a64 <_vfiprintf_r+0x6cc>
   15610:	0ff7f793          	andi	a5,a5,255
   15614:	00000593          	li	a1,0
   15618:	e11ff06f          	j	15428 <_vfiprintf_r+0x1090>
   1561c:	03000793          	li	a5,48
   15620:	cb8ff06f          	j	14ad8 <_vfiprintf_r+0x740>
   15624:	00022e37          	lui	t3,0x22
   15628:	00060513          	mv	a0,a2
   1562c:	e7ce0e13          	addi	t3,t3,-388 # 21e7c <blanks.1>
   15630:	b0dff06f          	j	1513c <_vfiprintf_r+0xda4>
   15634:	00022e37          	lui	t3,0x22
   15638:	00160593          	addi	a1,a2,1
   1563c:	e7ce0e13          	addi	t3,t3,-388 # 21e7c <blanks.1>
   15640:	a90ff06f          	j	148d0 <_vfiprintf_r+0x538>
   15644:	00022e37          	lui	t3,0x22
   15648:	00058513          	mv	a0,a1
   1564c:	e6ce0e13          	addi	t3,t3,-404 # 21e6c <zeroes.0>
   15650:	809ff06f          	j	14e58 <_vfiprintf_r+0xac0>
   15654:	fff00b13          	li	s6,-1
   15658:	fa5fe06f          	j	145fc <_vfiprintf_r+0x264>
   1565c:	00082d03          	lw	s10,0(a6)
   15660:	00480813          	addi	a6,a6,4
   15664:	000d5463          	bgez	s10,1566c <_vfiprintf_r+0x12d4>
   15668:	fff00d13          	li	s10,-1
   1566c:	001c4783          	lbu	a5,1(s8)
   15670:	00058c13          	mv	s8,a1
   15674:	ebdfe06f          	j	14530 <_vfiprintf_r+0x198>

00015678 <vfiprintf>:
   15678:	00050793          	mv	a5,a0
   1567c:	f0c1a503          	lw	a0,-244(gp) # 239d4 <_impure_ptr>
   15680:	00060693          	mv	a3,a2
   15684:	00058613          	mv	a2,a1
   15688:	00078593          	mv	a1,a5
   1568c:	d0dfe06f          	j	14398 <_vfiprintf_r>

00015690 <__sbprintf>:
   15690:	b8010113          	addi	sp,sp,-1152
   15694:	00c59783          	lh	a5,12(a1)
   15698:	00e5d703          	lhu	a4,14(a1)
   1569c:	46812c23          	sw	s0,1144(sp)
   156a0:	00058413          	mv	s0,a1
   156a4:	000105b7          	lui	a1,0x10
   156a8:	ffd58593          	addi	a1,a1,-3 # fffd <exit-0x97>
   156ac:	06442e03          	lw	t3,100(s0)
   156b0:	01c42303          	lw	t1,28(s0)
   156b4:	02442883          	lw	a7,36(s0)
   156b8:	01071713          	slli	a4,a4,0x10
   156bc:	00b7f7b3          	and	a5,a5,a1
   156c0:	00e7e7b3          	or	a5,a5,a4
   156c4:	40000813          	li	a6,1024
   156c8:	00f12a23          	sw	a5,20(sp)
   156cc:	00810593          	addi	a1,sp,8
   156d0:	07010793          	addi	a5,sp,112
   156d4:	46912a23          	sw	s1,1140(sp)
   156d8:	47212823          	sw	s2,1136(sp)
   156dc:	46112e23          	sw	ra,1148(sp)
   156e0:	00050913          	mv	s2,a0
   156e4:	07c12623          	sw	t3,108(sp)
   156e8:	02612223          	sw	t1,36(sp)
   156ec:	03112623          	sw	a7,44(sp)
   156f0:	00f12423          	sw	a5,8(sp)
   156f4:	00f12c23          	sw	a5,24(sp)
   156f8:	01012823          	sw	a6,16(sp)
   156fc:	01012e23          	sw	a6,28(sp)
   15700:	02012023          	sw	zero,32(sp)
   15704:	c95fe0ef          	jal	ra,14398 <_vfiprintf_r>
   15708:	00050493          	mv	s1,a0
   1570c:	02055c63          	bgez	a0,15744 <__sbprintf+0xb4>
   15710:	01415783          	lhu	a5,20(sp)
   15714:	0407f793          	andi	a5,a5,64
   15718:	00078863          	beqz	a5,15728 <__sbprintf+0x98>
   1571c:	00c45783          	lhu	a5,12(s0)
   15720:	0407e793          	ori	a5,a5,64
   15724:	00f41623          	sh	a5,12(s0)
   15728:	47c12083          	lw	ra,1148(sp)
   1572c:	47812403          	lw	s0,1144(sp)
   15730:	47012903          	lw	s2,1136(sp)
   15734:	00048513          	mv	a0,s1
   15738:	47412483          	lw	s1,1140(sp)
   1573c:	48010113          	addi	sp,sp,1152
   15740:	00008067          	ret
   15744:	00810593          	addi	a1,sp,8
   15748:	00090513          	mv	a0,s2
   1574c:	370000ef          	jal	ra,15abc <_fflush_r>
   15750:	fc0500e3          	beqz	a0,15710 <__sbprintf+0x80>
   15754:	fff00493          	li	s1,-1
   15758:	fb9ff06f          	j	15710 <__sbprintf+0x80>

0001575c <_fclose_r>:
   1575c:	ff010113          	addi	sp,sp,-16
   15760:	00112623          	sw	ra,12(sp)
   15764:	01212023          	sw	s2,0(sp)
   15768:	02058863          	beqz	a1,15798 <_fclose_r+0x3c>
   1576c:	00812423          	sw	s0,8(sp)
   15770:	00912223          	sw	s1,4(sp)
   15774:	00058413          	mv	s0,a1
   15778:	00050493          	mv	s1,a0
   1577c:	00050663          	beqz	a0,15788 <_fclose_r+0x2c>
   15780:	03452783          	lw	a5,52(a0)
   15784:	0c078c63          	beqz	a5,1585c <_fclose_r+0x100>
   15788:	00c41783          	lh	a5,12(s0)
   1578c:	02079263          	bnez	a5,157b0 <_fclose_r+0x54>
   15790:	00812403          	lw	s0,8(sp)
   15794:	00412483          	lw	s1,4(sp)
   15798:	00c12083          	lw	ra,12(sp)
   1579c:	00000913          	li	s2,0
   157a0:	00090513          	mv	a0,s2
   157a4:	00012903          	lw	s2,0(sp)
   157a8:	01010113          	addi	sp,sp,16
   157ac:	00008067          	ret
   157b0:	00040593          	mv	a1,s0
   157b4:	00048513          	mv	a0,s1
   157b8:	0b8000ef          	jal	ra,15870 <__sflush_r>
   157bc:	02c42783          	lw	a5,44(s0)
   157c0:	00050913          	mv	s2,a0
   157c4:	00078a63          	beqz	a5,157d8 <_fclose_r+0x7c>
   157c8:	01c42583          	lw	a1,28(s0)
   157cc:	00048513          	mv	a0,s1
   157d0:	000780e7          	jalr	a5
   157d4:	06054463          	bltz	a0,1583c <_fclose_r+0xe0>
   157d8:	00c45783          	lhu	a5,12(s0)
   157dc:	0807f793          	andi	a5,a5,128
   157e0:	06079663          	bnez	a5,1584c <_fclose_r+0xf0>
   157e4:	03042583          	lw	a1,48(s0)
   157e8:	00058c63          	beqz	a1,15800 <_fclose_r+0xa4>
   157ec:	04040793          	addi	a5,s0,64
   157f0:	00f58663          	beq	a1,a5,157fc <_fclose_r+0xa0>
   157f4:	00048513          	mv	a0,s1
   157f8:	e30fb0ef          	jal	ra,10e28 <_free_r>
   157fc:	02042823          	sw	zero,48(s0)
   15800:	04442583          	lw	a1,68(s0)
   15804:	00058863          	beqz	a1,15814 <_fclose_r+0xb8>
   15808:	00048513          	mv	a0,s1
   1580c:	e1cfb0ef          	jal	ra,10e28 <_free_r>
   15810:	04042223          	sw	zero,68(s0)
   15814:	ce1fa0ef          	jal	ra,104f4 <__sfp_lock_acquire>
   15818:	00041623          	sh	zero,12(s0)
   1581c:	cddfa0ef          	jal	ra,104f8 <__sfp_lock_release>
   15820:	00c12083          	lw	ra,12(sp)
   15824:	00812403          	lw	s0,8(sp)
   15828:	00412483          	lw	s1,4(sp)
   1582c:	00090513          	mv	a0,s2
   15830:	00012903          	lw	s2,0(sp)
   15834:	01010113          	addi	sp,sp,16
   15838:	00008067          	ret
   1583c:	00c45783          	lhu	a5,12(s0)
   15840:	fff00913          	li	s2,-1
   15844:	0807f793          	andi	a5,a5,128
   15848:	f8078ee3          	beqz	a5,157e4 <_fclose_r+0x88>
   1584c:	01042583          	lw	a1,16(s0)
   15850:	00048513          	mv	a0,s1
   15854:	dd4fb0ef          	jal	ra,10e28 <_free_r>
   15858:	f8dff06f          	j	157e4 <_fclose_r+0x88>
   1585c:	c75fa0ef          	jal	ra,104d0 <__sinit>
   15860:	f29ff06f          	j	15788 <_fclose_r+0x2c>

00015864 <fclose>:
   15864:	00050593          	mv	a1,a0
   15868:	f0c1a503          	lw	a0,-244(gp) # 239d4 <_impure_ptr>
   1586c:	ef1ff06f          	j	1575c <_fclose_r>

00015870 <__sflush_r>:
   15870:	00c59703          	lh	a4,12(a1)
   15874:	fe010113          	addi	sp,sp,-32
   15878:	00812c23          	sw	s0,24(sp)
   1587c:	01312623          	sw	s3,12(sp)
   15880:	00112e23          	sw	ra,28(sp)
   15884:	00877793          	andi	a5,a4,8
   15888:	00058413          	mv	s0,a1
   1588c:	00050993          	mv	s3,a0
   15890:	12079063          	bnez	a5,159b0 <__sflush_r+0x140>
   15894:	000017b7          	lui	a5,0x1
   15898:	80078793          	addi	a5,a5,-2048 # 800 <exit-0xf894>
   1589c:	0045a683          	lw	a3,4(a1)
   158a0:	00f767b3          	or	a5,a4,a5
   158a4:	00f59623          	sh	a5,12(a1)
   158a8:	18d05263          	blez	a3,15a2c <__sflush_r+0x1bc>
   158ac:	02842803          	lw	a6,40(s0)
   158b0:	0e080463          	beqz	a6,15998 <__sflush_r+0x128>
   158b4:	00912a23          	sw	s1,20(sp)
   158b8:	01371693          	slli	a3,a4,0x13
   158bc:	0009a483          	lw	s1,0(s3)
   158c0:	0009a023          	sw	zero,0(s3)
   158c4:	01c42583          	lw	a1,28(s0)
   158c8:	1606ce63          	bltz	a3,15a44 <__sflush_r+0x1d4>
   158cc:	00000613          	li	a2,0
   158d0:	00100693          	li	a3,1
   158d4:	00098513          	mv	a0,s3
   158d8:	000800e7          	jalr	a6
   158dc:	fff00793          	li	a5,-1
   158e0:	00050613          	mv	a2,a0
   158e4:	1af50463          	beq	a0,a5,15a8c <__sflush_r+0x21c>
   158e8:	00c41783          	lh	a5,12(s0)
   158ec:	02842803          	lw	a6,40(s0)
   158f0:	01c42583          	lw	a1,28(s0)
   158f4:	0047f793          	andi	a5,a5,4
   158f8:	00078e63          	beqz	a5,15914 <__sflush_r+0xa4>
   158fc:	00442703          	lw	a4,4(s0)
   15900:	03042783          	lw	a5,48(s0)
   15904:	40e60633          	sub	a2,a2,a4
   15908:	00078663          	beqz	a5,15914 <__sflush_r+0xa4>
   1590c:	03c42783          	lw	a5,60(s0)
   15910:	40f60633          	sub	a2,a2,a5
   15914:	00000693          	li	a3,0
   15918:	00098513          	mv	a0,s3
   1591c:	000800e7          	jalr	a6
   15920:	fff00793          	li	a5,-1
   15924:	12f51463          	bne	a0,a5,15a4c <__sflush_r+0x1dc>
   15928:	0009a683          	lw	a3,0(s3)
   1592c:	01d00793          	li	a5,29
   15930:	00c41703          	lh	a4,12(s0)
   15934:	16d7ea63          	bltu	a5,a3,15aa8 <__sflush_r+0x238>
   15938:	204007b7          	lui	a5,0x20400
   1593c:	00178793          	addi	a5,a5,1 # 20400001 <__BSS_END__+0x203dc2f5>
   15940:	00d7d7b3          	srl	a5,a5,a3
   15944:	0017f793          	andi	a5,a5,1
   15948:	16078063          	beqz	a5,15aa8 <__sflush_r+0x238>
   1594c:	01042603          	lw	a2,16(s0)
   15950:	fffff7b7          	lui	a5,0xfffff
   15954:	7ff78793          	addi	a5,a5,2047 # fffff7ff <__BSS_END__+0xfffdbaf3>
   15958:	00f777b3          	and	a5,a4,a5
   1595c:	00f41623          	sh	a5,12(s0)
   15960:	00042223          	sw	zero,4(s0)
   15964:	00c42023          	sw	a2,0(s0)
   15968:	01371793          	slli	a5,a4,0x13
   1596c:	0007d463          	bgez	a5,15974 <__sflush_r+0x104>
   15970:	10068263          	beqz	a3,15a74 <__sflush_r+0x204>
   15974:	03042583          	lw	a1,48(s0)
   15978:	0099a023          	sw	s1,0(s3)
   1597c:	10058463          	beqz	a1,15a84 <__sflush_r+0x214>
   15980:	04040793          	addi	a5,s0,64
   15984:	00f58663          	beq	a1,a5,15990 <__sflush_r+0x120>
   15988:	00098513          	mv	a0,s3
   1598c:	c9cfb0ef          	jal	ra,10e28 <_free_r>
   15990:	01412483          	lw	s1,20(sp)
   15994:	02042823          	sw	zero,48(s0)
   15998:	00000513          	li	a0,0
   1599c:	01c12083          	lw	ra,28(sp)
   159a0:	01812403          	lw	s0,24(sp)
   159a4:	00c12983          	lw	s3,12(sp)
   159a8:	02010113          	addi	sp,sp,32
   159ac:	00008067          	ret
   159b0:	01212823          	sw	s2,16(sp)
   159b4:	0105a903          	lw	s2,16(a1)
   159b8:	08090263          	beqz	s2,15a3c <__sflush_r+0x1cc>
   159bc:	00912a23          	sw	s1,20(sp)
   159c0:	0005a483          	lw	s1,0(a1)
   159c4:	00377713          	andi	a4,a4,3
   159c8:	0125a023          	sw	s2,0(a1)
   159cc:	412484b3          	sub	s1,s1,s2
   159d0:	00000793          	li	a5,0
   159d4:	00071463          	bnez	a4,159dc <__sflush_r+0x16c>
   159d8:	0145a783          	lw	a5,20(a1)
   159dc:	00f42423          	sw	a5,8(s0)
   159e0:	00904863          	bgtz	s1,159f0 <__sflush_r+0x180>
   159e4:	0540006f          	j	15a38 <__sflush_r+0x1c8>
   159e8:	00a90933          	add	s2,s2,a0
   159ec:	04905663          	blez	s1,15a38 <__sflush_r+0x1c8>
   159f0:	02442783          	lw	a5,36(s0)
   159f4:	01c42583          	lw	a1,28(s0)
   159f8:	00048693          	mv	a3,s1
   159fc:	00090613          	mv	a2,s2
   15a00:	00098513          	mv	a0,s3
   15a04:	000780e7          	jalr	a5
   15a08:	40a484b3          	sub	s1,s1,a0
   15a0c:	fca04ee3          	bgtz	a0,159e8 <__sflush_r+0x178>
   15a10:	00c41703          	lh	a4,12(s0)
   15a14:	01012903          	lw	s2,16(sp)
   15a18:	04076713          	ori	a4,a4,64
   15a1c:	01412483          	lw	s1,20(sp)
   15a20:	00e41623          	sh	a4,12(s0)
   15a24:	fff00513          	li	a0,-1
   15a28:	f75ff06f          	j	1599c <__sflush_r+0x12c>
   15a2c:	03c5a683          	lw	a3,60(a1)
   15a30:	e6d04ee3          	bgtz	a3,158ac <__sflush_r+0x3c>
   15a34:	f65ff06f          	j	15998 <__sflush_r+0x128>
   15a38:	01412483          	lw	s1,20(sp)
   15a3c:	01012903          	lw	s2,16(sp)
   15a40:	f59ff06f          	j	15998 <__sflush_r+0x128>
   15a44:	05042603          	lw	a2,80(s0)
   15a48:	eadff06f          	j	158f4 <__sflush_r+0x84>
   15a4c:	00c41703          	lh	a4,12(s0)
   15a50:	01042683          	lw	a3,16(s0)
   15a54:	fffff7b7          	lui	a5,0xfffff
   15a58:	7ff78793          	addi	a5,a5,2047 # fffff7ff <__BSS_END__+0xfffdbaf3>
   15a5c:	00f777b3          	and	a5,a4,a5
   15a60:	00f41623          	sh	a5,12(s0)
   15a64:	00042223          	sw	zero,4(s0)
   15a68:	00d42023          	sw	a3,0(s0)
   15a6c:	01371793          	slli	a5,a4,0x13
   15a70:	f007d2e3          	bgez	a5,15974 <__sflush_r+0x104>
   15a74:	03042583          	lw	a1,48(s0)
   15a78:	04a42823          	sw	a0,80(s0)
   15a7c:	0099a023          	sw	s1,0(s3)
   15a80:	f00590e3          	bnez	a1,15980 <__sflush_r+0x110>
   15a84:	01412483          	lw	s1,20(sp)
   15a88:	f11ff06f          	j	15998 <__sflush_r+0x128>
   15a8c:	0009a783          	lw	a5,0(s3)
   15a90:	e4078ce3          	beqz	a5,158e8 <__sflush_r+0x78>
   15a94:	01d00713          	li	a4,29
   15a98:	00e78c63          	beq	a5,a4,15ab0 <__sflush_r+0x240>
   15a9c:	01600713          	li	a4,22
   15aa0:	00e78863          	beq	a5,a4,15ab0 <__sflush_r+0x240>
   15aa4:	00c41703          	lh	a4,12(s0)
   15aa8:	04076713          	ori	a4,a4,64
   15aac:	f71ff06f          	j	15a1c <__sflush_r+0x1ac>
   15ab0:	0099a023          	sw	s1,0(s3)
   15ab4:	01412483          	lw	s1,20(sp)
   15ab8:	ee1ff06f          	j	15998 <__sflush_r+0x128>

00015abc <_fflush_r>:
   15abc:	fe010113          	addi	sp,sp,-32
   15ac0:	00812c23          	sw	s0,24(sp)
   15ac4:	00112e23          	sw	ra,28(sp)
   15ac8:	00050413          	mv	s0,a0
   15acc:	00050663          	beqz	a0,15ad8 <_fflush_r+0x1c>
   15ad0:	03452783          	lw	a5,52(a0)
   15ad4:	02078a63          	beqz	a5,15b08 <_fflush_r+0x4c>
   15ad8:	00c59783          	lh	a5,12(a1)
   15adc:	00079c63          	bnez	a5,15af4 <_fflush_r+0x38>
   15ae0:	01c12083          	lw	ra,28(sp)
   15ae4:	01812403          	lw	s0,24(sp)
   15ae8:	00000513          	li	a0,0
   15aec:	02010113          	addi	sp,sp,32
   15af0:	00008067          	ret
   15af4:	00040513          	mv	a0,s0
   15af8:	01812403          	lw	s0,24(sp)
   15afc:	01c12083          	lw	ra,28(sp)
   15b00:	02010113          	addi	sp,sp,32
   15b04:	d6dff06f          	j	15870 <__sflush_r>
   15b08:	00b12623          	sw	a1,12(sp)
   15b0c:	9c5fa0ef          	jal	ra,104d0 <__sinit>
   15b10:	00c12583          	lw	a1,12(sp)
   15b14:	fc5ff06f          	j	15ad8 <_fflush_r+0x1c>

00015b18 <fflush>:
   15b18:	06050063          	beqz	a0,15b78 <fflush+0x60>
   15b1c:	00050593          	mv	a1,a0
   15b20:	f0c1a503          	lw	a0,-244(gp) # 239d4 <_impure_ptr>
   15b24:	00050663          	beqz	a0,15b30 <fflush+0x18>
   15b28:	03452783          	lw	a5,52(a0)
   15b2c:	00078c63          	beqz	a5,15b44 <fflush+0x2c>
   15b30:	00c59783          	lh	a5,12(a1)
   15b34:	00079663          	bnez	a5,15b40 <fflush+0x28>
   15b38:	00000513          	li	a0,0
   15b3c:	00008067          	ret
   15b40:	d31ff06f          	j	15870 <__sflush_r>
   15b44:	fe010113          	addi	sp,sp,-32
   15b48:	00b12623          	sw	a1,12(sp)
   15b4c:	00a12423          	sw	a0,8(sp)
   15b50:	00112e23          	sw	ra,28(sp)
   15b54:	97dfa0ef          	jal	ra,104d0 <__sinit>
   15b58:	00c12583          	lw	a1,12(sp)
   15b5c:	00812503          	lw	a0,8(sp)
   15b60:	00c59783          	lh	a5,12(a1)
   15b64:	02079863          	bnez	a5,15b94 <fflush+0x7c>
   15b68:	01c12083          	lw	ra,28(sp)
   15b6c:	00000513          	li	a0,0
   15b70:	02010113          	addi	sp,sp,32
   15b74:	00008067          	ret
   15b78:	00023637          	lui	a2,0x23
   15b7c:	000165b7          	lui	a1,0x16
   15b80:	00023537          	lui	a0,0x23
   15b84:	2c860613          	addi	a2,a2,712 # 232c8 <__sglue>
   15b88:	abc58593          	addi	a1,a1,-1348 # 15abc <_fflush_r>
   15b8c:	2d850513          	addi	a0,a0,728 # 232d8 <_impure_data>
   15b90:	99dfa06f          	j	1052c <_fwalk_sglue>
   15b94:	01c12083          	lw	ra,28(sp)
   15b98:	02010113          	addi	sp,sp,32
   15b9c:	cd5ff06f          	j	15870 <__sflush_r>

00015ba0 <__sfvwrite_r>:
   15ba0:	00862783          	lw	a5,8(a2)
   15ba4:	2c078463          	beqz	a5,15e6c <__sfvwrite_r+0x2cc>
   15ba8:	00c59683          	lh	a3,12(a1)
   15bac:	fd010113          	addi	sp,sp,-48
   15bb0:	02812423          	sw	s0,40(sp)
   15bb4:	01412c23          	sw	s4,24(sp)
   15bb8:	01612823          	sw	s6,16(sp)
   15bbc:	02112623          	sw	ra,44(sp)
   15bc0:	0086f793          	andi	a5,a3,8
   15bc4:	00060b13          	mv	s6,a2
   15bc8:	00050a13          	mv	s4,a0
   15bcc:	00058413          	mv	s0,a1
   15bd0:	08078e63          	beqz	a5,15c6c <__sfvwrite_r+0xcc>
   15bd4:	0105a783          	lw	a5,16(a1)
   15bd8:	08078a63          	beqz	a5,15c6c <__sfvwrite_r+0xcc>
   15bdc:	02912223          	sw	s1,36(sp)
   15be0:	03212023          	sw	s2,32(sp)
   15be4:	01312e23          	sw	s3,28(sp)
   15be8:	01512a23          	sw	s5,20(sp)
   15bec:	0026f793          	andi	a5,a3,2
   15bf0:	000b2483          	lw	s1,0(s6)
   15bf4:	0a078463          	beqz	a5,15c9c <__sfvwrite_r+0xfc>
   15bf8:	02442783          	lw	a5,36(s0)
   15bfc:	01c42583          	lw	a1,28(s0)
   15c00:	80000ab7          	lui	s5,0x80000
   15c04:	00000993          	li	s3,0
   15c08:	00000913          	li	s2,0
   15c0c:	c00a8a93          	addi	s5,s5,-1024 # 7ffffc00 <__BSS_END__+0x7ffdbef4>
   15c10:	00098613          	mv	a2,s3
   15c14:	000a0513          	mv	a0,s4
   15c18:	04090263          	beqz	s2,15c5c <__sfvwrite_r+0xbc>
   15c1c:	00090693          	mv	a3,s2
   15c20:	012af463          	bgeu	s5,s2,15c28 <__sfvwrite_r+0x88>
   15c24:	000a8693          	mv	a3,s5
   15c28:	000780e7          	jalr	a5
   15c2c:	46a05263          	blez	a0,16090 <__sfvwrite_r+0x4f0>
   15c30:	008b2783          	lw	a5,8(s6)
   15c34:	00a989b3          	add	s3,s3,a0
   15c38:	40a90933          	sub	s2,s2,a0
   15c3c:	40a787b3          	sub	a5,a5,a0
   15c40:	00fb2423          	sw	a5,8(s6)
   15c44:	1a078663          	beqz	a5,15df0 <__sfvwrite_r+0x250>
   15c48:	02442783          	lw	a5,36(s0)
   15c4c:	01c42583          	lw	a1,28(s0)
   15c50:	00098613          	mv	a2,s3
   15c54:	000a0513          	mv	a0,s4
   15c58:	fc0912e3          	bnez	s2,15c1c <__sfvwrite_r+0x7c>
   15c5c:	0004a983          	lw	s3,0(s1)
   15c60:	0044a903          	lw	s2,4(s1)
   15c64:	00848493          	addi	s1,s1,8
   15c68:	fa9ff06f          	j	15c10 <__sfvwrite_r+0x70>
   15c6c:	00040593          	mv	a1,s0
   15c70:	000a0513          	mv	a0,s4
   15c74:	440000ef          	jal	ra,160b4 <__swsetup_r>
   15c78:	1c051c63          	bnez	a0,15e50 <__sfvwrite_r+0x2b0>
   15c7c:	00c41683          	lh	a3,12(s0)
   15c80:	02912223          	sw	s1,36(sp)
   15c84:	03212023          	sw	s2,32(sp)
   15c88:	01312e23          	sw	s3,28(sp)
   15c8c:	01512a23          	sw	s5,20(sp)
   15c90:	0026f793          	andi	a5,a3,2
   15c94:	000b2483          	lw	s1,0(s6)
   15c98:	f60790e3          	bnez	a5,15bf8 <__sfvwrite_r+0x58>
   15c9c:	01712623          	sw	s7,12(sp)
   15ca0:	01812423          	sw	s8,8(sp)
   15ca4:	0016f793          	andi	a5,a3,1
   15ca8:	1c079663          	bnez	a5,15e74 <__sfvwrite_r+0x2d4>
   15cac:	00042783          	lw	a5,0(s0)
   15cb0:	00842703          	lw	a4,8(s0)
   15cb4:	80000ab7          	lui	s5,0x80000
   15cb8:	01912223          	sw	s9,4(sp)
   15cbc:	00000b93          	li	s7,0
   15cc0:	00000993          	li	s3,0
   15cc4:	fffa8a93          	addi	s5,s5,-1 # 7fffffff <__BSS_END__+0x7ffdc2f3>
   15cc8:	00078513          	mv	a0,a5
   15ccc:	00070c13          	mv	s8,a4
   15cd0:	10098263          	beqz	s3,15dd4 <__sfvwrite_r+0x234>
   15cd4:	2006f613          	andi	a2,a3,512
   15cd8:	28060863          	beqz	a2,15f68 <__sfvwrite_r+0x3c8>
   15cdc:	00070c93          	mv	s9,a4
   15ce0:	32e9e863          	bltu	s3,a4,16010 <__sfvwrite_r+0x470>
   15ce4:	4806f713          	andi	a4,a3,1152
   15ce8:	08070a63          	beqz	a4,15d7c <__sfvwrite_r+0x1dc>
   15cec:	01442603          	lw	a2,20(s0)
   15cf0:	01042583          	lw	a1,16(s0)
   15cf4:	00161713          	slli	a4,a2,0x1
   15cf8:	00c70733          	add	a4,a4,a2
   15cfc:	40b78933          	sub	s2,a5,a1
   15d00:	01f75c13          	srli	s8,a4,0x1f
   15d04:	00ec0c33          	add	s8,s8,a4
   15d08:	00190793          	addi	a5,s2,1
   15d0c:	401c5c13          	srai	s8,s8,0x1
   15d10:	013787b3          	add	a5,a5,s3
   15d14:	000c0613          	mv	a2,s8
   15d18:	00fc7663          	bgeu	s8,a5,15d24 <__sfvwrite_r+0x184>
   15d1c:	00078c13          	mv	s8,a5
   15d20:	00078613          	mv	a2,a5
   15d24:	4006f693          	andi	a3,a3,1024
   15d28:	32068063          	beqz	a3,16048 <__sfvwrite_r+0x4a8>
   15d2c:	00060593          	mv	a1,a2
   15d30:	000a0513          	mv	a0,s4
   15d34:	bf8fb0ef          	jal	ra,1112c <_malloc_r>
   15d38:	00050c93          	mv	s9,a0
   15d3c:	34050e63          	beqz	a0,16098 <__sfvwrite_r+0x4f8>
   15d40:	01042583          	lw	a1,16(s0)
   15d44:	00090613          	mv	a2,s2
   15d48:	29d000ef          	jal	ra,167e4 <memcpy>
   15d4c:	00c45783          	lhu	a5,12(s0)
   15d50:	b7f7f793          	andi	a5,a5,-1153
   15d54:	0807e793          	ori	a5,a5,128
   15d58:	00f41623          	sh	a5,12(s0)
   15d5c:	012c8533          	add	a0,s9,s2
   15d60:	412c07b3          	sub	a5,s8,s2
   15d64:	01942823          	sw	s9,16(s0)
   15d68:	01842a23          	sw	s8,20(s0)
   15d6c:	00a42023          	sw	a0,0(s0)
   15d70:	00098c13          	mv	s8,s3
   15d74:	00f42423          	sw	a5,8(s0)
   15d78:	00098c93          	mv	s9,s3
   15d7c:	000c8613          	mv	a2,s9
   15d80:	000b8593          	mv	a1,s7
   15d84:	155000ef          	jal	ra,166d8 <memmove>
   15d88:	00842703          	lw	a4,8(s0)
   15d8c:	00042783          	lw	a5,0(s0)
   15d90:	00098913          	mv	s2,s3
   15d94:	41870733          	sub	a4,a4,s8
   15d98:	019787b3          	add	a5,a5,s9
   15d9c:	00e42423          	sw	a4,8(s0)
   15da0:	00f42023          	sw	a5,0(s0)
   15da4:	00000993          	li	s3,0
   15da8:	008b2783          	lw	a5,8(s6)
   15dac:	012b8bb3          	add	s7,s7,s2
   15db0:	412787b3          	sub	a5,a5,s2
   15db4:	00fb2423          	sw	a5,8(s6)
   15db8:	02078663          	beqz	a5,15de4 <__sfvwrite_r+0x244>
   15dbc:	00042783          	lw	a5,0(s0)
   15dc0:	00842703          	lw	a4,8(s0)
   15dc4:	00c41683          	lh	a3,12(s0)
   15dc8:	00078513          	mv	a0,a5
   15dcc:	00070c13          	mv	s8,a4
   15dd0:	f00992e3          	bnez	s3,15cd4 <__sfvwrite_r+0x134>
   15dd4:	0004ab83          	lw	s7,0(s1)
   15dd8:	0044a983          	lw	s3,4(s1)
   15ddc:	00848493          	addi	s1,s1,8
   15de0:	ee9ff06f          	j	15cc8 <__sfvwrite_r+0x128>
   15de4:	00c12b83          	lw	s7,12(sp)
   15de8:	00812c03          	lw	s8,8(sp)
   15dec:	00412c83          	lw	s9,4(sp)
   15df0:	02c12083          	lw	ra,44(sp)
   15df4:	02812403          	lw	s0,40(sp)
   15df8:	02412483          	lw	s1,36(sp)
   15dfc:	02012903          	lw	s2,32(sp)
   15e00:	01c12983          	lw	s3,28(sp)
   15e04:	01412a83          	lw	s5,20(sp)
   15e08:	01812a03          	lw	s4,24(sp)
   15e0c:	01012b03          	lw	s6,16(sp)
   15e10:	00000513          	li	a0,0
   15e14:	03010113          	addi	sp,sp,48
   15e18:	00008067          	ret
   15e1c:	00040593          	mv	a1,s0
   15e20:	000a0513          	mv	a0,s4
   15e24:	c99ff0ef          	jal	ra,15abc <_fflush_r>
   15e28:	0a050e63          	beqz	a0,15ee4 <__sfvwrite_r+0x344>
   15e2c:	00c41783          	lh	a5,12(s0)
   15e30:	00c12b83          	lw	s7,12(sp)
   15e34:	00812c03          	lw	s8,8(sp)
   15e38:	02412483          	lw	s1,36(sp)
   15e3c:	02012903          	lw	s2,32(sp)
   15e40:	01c12983          	lw	s3,28(sp)
   15e44:	01412a83          	lw	s5,20(sp)
   15e48:	0407e793          	ori	a5,a5,64
   15e4c:	00f41623          	sh	a5,12(s0)
   15e50:	02c12083          	lw	ra,44(sp)
   15e54:	02812403          	lw	s0,40(sp)
   15e58:	01812a03          	lw	s4,24(sp)
   15e5c:	01012b03          	lw	s6,16(sp)
   15e60:	fff00513          	li	a0,-1
   15e64:	03010113          	addi	sp,sp,48
   15e68:	00008067          	ret
   15e6c:	00000513          	li	a0,0
   15e70:	00008067          	ret
   15e74:	00000a93          	li	s5,0
   15e78:	00000513          	li	a0,0
   15e7c:	00000c13          	li	s8,0
   15e80:	00000993          	li	s3,0
   15e84:	08098263          	beqz	s3,15f08 <__sfvwrite_r+0x368>
   15e88:	08050a63          	beqz	a0,15f1c <__sfvwrite_r+0x37c>
   15e8c:	000a8793          	mv	a5,s5
   15e90:	00098b93          	mv	s7,s3
   15e94:	0137f463          	bgeu	a5,s3,15e9c <__sfvwrite_r+0x2fc>
   15e98:	00078b93          	mv	s7,a5
   15e9c:	00042503          	lw	a0,0(s0)
   15ea0:	01042783          	lw	a5,16(s0)
   15ea4:	00842903          	lw	s2,8(s0)
   15ea8:	01442683          	lw	a3,20(s0)
   15eac:	00a7f663          	bgeu	a5,a0,15eb8 <__sfvwrite_r+0x318>
   15eb0:	00d90933          	add	s2,s2,a3
   15eb4:	09794463          	blt	s2,s7,15f3c <__sfvwrite_r+0x39c>
   15eb8:	16dbc263          	blt	s7,a3,1601c <__sfvwrite_r+0x47c>
   15ebc:	02442783          	lw	a5,36(s0)
   15ec0:	01c42583          	lw	a1,28(s0)
   15ec4:	000c0613          	mv	a2,s8
   15ec8:	000a0513          	mv	a0,s4
   15ecc:	000780e7          	jalr	a5
   15ed0:	00050913          	mv	s2,a0
   15ed4:	f4a05ce3          	blez	a0,15e2c <__sfvwrite_r+0x28c>
   15ed8:	412a8ab3          	sub	s5,s5,s2
   15edc:	00100513          	li	a0,1
   15ee0:	f20a8ee3          	beqz	s5,15e1c <__sfvwrite_r+0x27c>
   15ee4:	008b2783          	lw	a5,8(s6)
   15ee8:	012c0c33          	add	s8,s8,s2
   15eec:	412989b3          	sub	s3,s3,s2
   15ef0:	412787b3          	sub	a5,a5,s2
   15ef4:	00fb2423          	sw	a5,8(s6)
   15ef8:	f80796e3          	bnez	a5,15e84 <__sfvwrite_r+0x2e4>
   15efc:	00c12b83          	lw	s7,12(sp)
   15f00:	00812c03          	lw	s8,8(sp)
   15f04:	eedff06f          	j	15df0 <__sfvwrite_r+0x250>
   15f08:	0044a983          	lw	s3,4(s1)
   15f0c:	00048793          	mv	a5,s1
   15f10:	00848493          	addi	s1,s1,8
   15f14:	fe098ae3          	beqz	s3,15f08 <__sfvwrite_r+0x368>
   15f18:	0007ac03          	lw	s8,0(a5)
   15f1c:	00098613          	mv	a2,s3
   15f20:	00a00593          	li	a1,10
   15f24:	000c0513          	mv	a0,s8
   15f28:	468000ef          	jal	ra,16390 <memchr>
   15f2c:	14050c63          	beqz	a0,16084 <__sfvwrite_r+0x4e4>
   15f30:	00150513          	addi	a0,a0,1
   15f34:	41850ab3          	sub	s5,a0,s8
   15f38:	f55ff06f          	j	15e8c <__sfvwrite_r+0x2ec>
   15f3c:	000c0593          	mv	a1,s8
   15f40:	00090613          	mv	a2,s2
   15f44:	794000ef          	jal	ra,166d8 <memmove>
   15f48:	00042783          	lw	a5,0(s0)
   15f4c:	00040593          	mv	a1,s0
   15f50:	000a0513          	mv	a0,s4
   15f54:	012787b3          	add	a5,a5,s2
   15f58:	00f42023          	sw	a5,0(s0)
   15f5c:	b61ff0ef          	jal	ra,15abc <_fflush_r>
   15f60:	f6050ce3          	beqz	a0,15ed8 <__sfvwrite_r+0x338>
   15f64:	ec9ff06f          	j	15e2c <__sfvwrite_r+0x28c>
   15f68:	01042683          	lw	a3,16(s0)
   15f6c:	04f6e463          	bltu	a3,a5,15fb4 <__sfvwrite_r+0x414>
   15f70:	01442583          	lw	a1,20(s0)
   15f74:	04b9e063          	bltu	s3,a1,15fb4 <__sfvwrite_r+0x414>
   15f78:	00098913          	mv	s2,s3
   15f7c:	013af463          	bgeu	s5,s3,15f84 <__sfvwrite_r+0x3e4>
   15f80:	000a8913          	mv	s2,s5
   15f84:	00090513          	mv	a0,s2
   15f88:	1bd0b0ef          	jal	ra,21944 <__modsi3>
   15f8c:	02442783          	lw	a5,36(s0)
   15f90:	01c42583          	lw	a1,28(s0)
   15f94:	40a906b3          	sub	a3,s2,a0
   15f98:	000b8613          	mv	a2,s7
   15f9c:	000a0513          	mv	a0,s4
   15fa0:	000780e7          	jalr	a5
   15fa4:	00050913          	mv	s2,a0
   15fa8:	04a05a63          	blez	a0,15ffc <__sfvwrite_r+0x45c>
   15fac:	412989b3          	sub	s3,s3,s2
   15fb0:	df9ff06f          	j	15da8 <__sfvwrite_r+0x208>
   15fb4:	00070913          	mv	s2,a4
   15fb8:	00e9f463          	bgeu	s3,a4,15fc0 <__sfvwrite_r+0x420>
   15fbc:	00098913          	mv	s2,s3
   15fc0:	00078513          	mv	a0,a5
   15fc4:	00090613          	mv	a2,s2
   15fc8:	000b8593          	mv	a1,s7
   15fcc:	70c000ef          	jal	ra,166d8 <memmove>
   15fd0:	00842703          	lw	a4,8(s0)
   15fd4:	00042783          	lw	a5,0(s0)
   15fd8:	41270733          	sub	a4,a4,s2
   15fdc:	012787b3          	add	a5,a5,s2
   15fe0:	00e42423          	sw	a4,8(s0)
   15fe4:	00f42023          	sw	a5,0(s0)
   15fe8:	fc0712e3          	bnez	a4,15fac <__sfvwrite_r+0x40c>
   15fec:	00040593          	mv	a1,s0
   15ff0:	000a0513          	mv	a0,s4
   15ff4:	ac9ff0ef          	jal	ra,15abc <_fflush_r>
   15ff8:	fa050ae3          	beqz	a0,15fac <__sfvwrite_r+0x40c>
   15ffc:	00c41783          	lh	a5,12(s0)
   16000:	00c12b83          	lw	s7,12(sp)
   16004:	00812c03          	lw	s8,8(sp)
   16008:	00412c83          	lw	s9,4(sp)
   1600c:	e2dff06f          	j	15e38 <__sfvwrite_r+0x298>
   16010:	00098c13          	mv	s8,s3
   16014:	00098c93          	mv	s9,s3
   16018:	d65ff06f          	j	15d7c <__sfvwrite_r+0x1dc>
   1601c:	000b8613          	mv	a2,s7
   16020:	000c0593          	mv	a1,s8
   16024:	6b4000ef          	jal	ra,166d8 <memmove>
   16028:	00842703          	lw	a4,8(s0)
   1602c:	00042783          	lw	a5,0(s0)
   16030:	000b8913          	mv	s2,s7
   16034:	41770733          	sub	a4,a4,s7
   16038:	017787b3          	add	a5,a5,s7
   1603c:	00e42423          	sw	a4,8(s0)
   16040:	00f42023          	sw	a5,0(s0)
   16044:	e95ff06f          	j	15ed8 <__sfvwrite_r+0x338>
   16048:	000a0513          	mv	a0,s4
   1604c:	4cc040ef          	jal	ra,1a518 <_realloc_r>
   16050:	00050c93          	mv	s9,a0
   16054:	d00514e3          	bnez	a0,15d5c <__sfvwrite_r+0x1bc>
   16058:	01042583          	lw	a1,16(s0)
   1605c:	000a0513          	mv	a0,s4
   16060:	dc9fa0ef          	jal	ra,10e28 <_free_r>
   16064:	00c41783          	lh	a5,12(s0)
   16068:	00c00713          	li	a4,12
   1606c:	00c12b83          	lw	s7,12(sp)
   16070:	00812c03          	lw	s8,8(sp)
   16074:	00412c83          	lw	s9,4(sp)
   16078:	00ea2023          	sw	a4,0(s4)
   1607c:	f7f7f793          	andi	a5,a5,-129
   16080:	db9ff06f          	j	15e38 <__sfvwrite_r+0x298>
   16084:	00198793          	addi	a5,s3,1
   16088:	00078a93          	mv	s5,a5
   1608c:	e05ff06f          	j	15e90 <__sfvwrite_r+0x2f0>
   16090:	00c41783          	lh	a5,12(s0)
   16094:	da5ff06f          	j	15e38 <__sfvwrite_r+0x298>
   16098:	00c00713          	li	a4,12
   1609c:	00c41783          	lh	a5,12(s0)
   160a0:	00c12b83          	lw	s7,12(sp)
   160a4:	00812c03          	lw	s8,8(sp)
   160a8:	00412c83          	lw	s9,4(sp)
   160ac:	00ea2023          	sw	a4,0(s4)
   160b0:	d89ff06f          	j	15e38 <__sfvwrite_r+0x298>

000160b4 <__swsetup_r>:
   160b4:	f0c1a783          	lw	a5,-244(gp) # 239d4 <_impure_ptr>
   160b8:	ff010113          	addi	sp,sp,-16
   160bc:	00812423          	sw	s0,8(sp)
   160c0:	00912223          	sw	s1,4(sp)
   160c4:	00112623          	sw	ra,12(sp)
   160c8:	00050493          	mv	s1,a0
   160cc:	00058413          	mv	s0,a1
   160d0:	00078663          	beqz	a5,160dc <__swsetup_r+0x28>
   160d4:	0347a703          	lw	a4,52(a5)
   160d8:	0e070c63          	beqz	a4,161d0 <__swsetup_r+0x11c>
   160dc:	00c41783          	lh	a5,12(s0)
   160e0:	0087f713          	andi	a4,a5,8
   160e4:	06070a63          	beqz	a4,16158 <__swsetup_r+0xa4>
   160e8:	01042703          	lw	a4,16(s0)
   160ec:	08070663          	beqz	a4,16178 <__swsetup_r+0xc4>
   160f0:	0017f693          	andi	a3,a5,1
   160f4:	02068863          	beqz	a3,16124 <__swsetup_r+0x70>
   160f8:	01442683          	lw	a3,20(s0)
   160fc:	00042423          	sw	zero,8(s0)
   16100:	00000513          	li	a0,0
   16104:	40d006b3          	neg	a3,a3
   16108:	00d42c23          	sw	a3,24(s0)
   1610c:	02070a63          	beqz	a4,16140 <__swsetup_r+0x8c>
   16110:	00c12083          	lw	ra,12(sp)
   16114:	00812403          	lw	s0,8(sp)
   16118:	00412483          	lw	s1,4(sp)
   1611c:	01010113          	addi	sp,sp,16
   16120:	00008067          	ret
   16124:	0027f693          	andi	a3,a5,2
   16128:	00000613          	li	a2,0
   1612c:	00069463          	bnez	a3,16134 <__swsetup_r+0x80>
   16130:	01442603          	lw	a2,20(s0)
   16134:	00c42423          	sw	a2,8(s0)
   16138:	00000513          	li	a0,0
   1613c:	fc071ae3          	bnez	a4,16110 <__swsetup_r+0x5c>
   16140:	0807f713          	andi	a4,a5,128
   16144:	fc0706e3          	beqz	a4,16110 <__swsetup_r+0x5c>
   16148:	0407e793          	ori	a5,a5,64
   1614c:	00f41623          	sh	a5,12(s0)
   16150:	fff00513          	li	a0,-1
   16154:	fbdff06f          	j	16110 <__swsetup_r+0x5c>
   16158:	0107f713          	andi	a4,a5,16
   1615c:	08070063          	beqz	a4,161dc <__swsetup_r+0x128>
   16160:	0047f713          	andi	a4,a5,4
   16164:	02071c63          	bnez	a4,1619c <__swsetup_r+0xe8>
   16168:	01042703          	lw	a4,16(s0)
   1616c:	0087e793          	ori	a5,a5,8
   16170:	00f41623          	sh	a5,12(s0)
   16174:	f6071ee3          	bnez	a4,160f0 <__swsetup_r+0x3c>
   16178:	2807f693          	andi	a3,a5,640
   1617c:	20000613          	li	a2,512
   16180:	f6c688e3          	beq	a3,a2,160f0 <__swsetup_r+0x3c>
   16184:	00040593          	mv	a1,s0
   16188:	00048513          	mv	a0,s1
   1618c:	235040ef          	jal	ra,1abc0 <__smakebuf_r>
   16190:	00c41783          	lh	a5,12(s0)
   16194:	01042703          	lw	a4,16(s0)
   16198:	f59ff06f          	j	160f0 <__swsetup_r+0x3c>
   1619c:	03042583          	lw	a1,48(s0)
   161a0:	00058e63          	beqz	a1,161bc <__swsetup_r+0x108>
   161a4:	04040713          	addi	a4,s0,64
   161a8:	00e58863          	beq	a1,a4,161b8 <__swsetup_r+0x104>
   161ac:	00048513          	mv	a0,s1
   161b0:	c79fa0ef          	jal	ra,10e28 <_free_r>
   161b4:	00c41783          	lh	a5,12(s0)
   161b8:	02042823          	sw	zero,48(s0)
   161bc:	01042703          	lw	a4,16(s0)
   161c0:	fdb7f793          	andi	a5,a5,-37
   161c4:	00042223          	sw	zero,4(s0)
   161c8:	00e42023          	sw	a4,0(s0)
   161cc:	fa1ff06f          	j	1616c <__swsetup_r+0xb8>
   161d0:	00078513          	mv	a0,a5
   161d4:	afcfa0ef          	jal	ra,104d0 <__sinit>
   161d8:	f05ff06f          	j	160dc <__swsetup_r+0x28>
   161dc:	00900713          	li	a4,9
   161e0:	00e4a023          	sw	a4,0(s1)
   161e4:	0407e793          	ori	a5,a5,64
   161e8:	00f41623          	sh	a5,12(s0)
   161ec:	fff00513          	li	a0,-1
   161f0:	f21ff06f          	j	16110 <__swsetup_r+0x5c>

000161f4 <__fputwc>:
   161f4:	fe010113          	addi	sp,sp,-32
   161f8:	00812c23          	sw	s0,24(sp)
   161fc:	00912a23          	sw	s1,20(sp)
   16200:	01212823          	sw	s2,16(sp)
   16204:	00112e23          	sw	ra,28(sp)
   16208:	00050913          	mv	s2,a0
   1620c:	00058493          	mv	s1,a1
   16210:	00060413          	mv	s0,a2
   16214:	36c000ef          	jal	ra,16580 <__locale_mb_cur_max>
   16218:	00100793          	li	a5,1
   1621c:	00f51c63          	bne	a0,a5,16234 <__fputwc+0x40>
   16220:	fff48793          	addi	a5,s1,-1
   16224:	0fe00713          	li	a4,254
   16228:	00f76663          	bltu	a4,a5,16234 <__fputwc+0x40>
   1622c:	00910623          	sb	s1,12(sp)
   16230:	0240006f          	j	16254 <__fputwc+0x60>
   16234:	05c40693          	addi	a3,s0,92
   16238:	00048613          	mv	a2,s1
   1623c:	00c10593          	addi	a1,sp,12
   16240:	00090513          	mv	a0,s2
   16244:	07d040ef          	jal	ra,1aac0 <_wcrtomb_r>
   16248:	fff00793          	li	a5,-1
   1624c:	08f50463          	beq	a0,a5,162d4 <__fputwc+0xe0>
   16250:	02050c63          	beqz	a0,16288 <__fputwc+0x94>
   16254:	00842783          	lw	a5,8(s0)
   16258:	00c14583          	lbu	a1,12(sp)
   1625c:	fff78793          	addi	a5,a5,-1
   16260:	00f42423          	sw	a5,8(s0)
   16264:	0007da63          	bgez	a5,16278 <__fputwc+0x84>
   16268:	01842703          	lw	a4,24(s0)
   1626c:	02e7cc63          	blt	a5,a4,162a4 <__fputwc+0xb0>
   16270:	00a00793          	li	a5,10
   16274:	02f58863          	beq	a1,a5,162a4 <__fputwc+0xb0>
   16278:	00042783          	lw	a5,0(s0)
   1627c:	00178713          	addi	a4,a5,1
   16280:	00e42023          	sw	a4,0(s0)
   16284:	00b78023          	sb	a1,0(a5)
   16288:	01c12083          	lw	ra,28(sp)
   1628c:	01812403          	lw	s0,24(sp)
   16290:	01012903          	lw	s2,16(sp)
   16294:	00048513          	mv	a0,s1
   16298:	01412483          	lw	s1,20(sp)
   1629c:	02010113          	addi	sp,sp,32
   162a0:	00008067          	ret
   162a4:	00040613          	mv	a2,s0
   162a8:	00090513          	mv	a0,s2
   162ac:	385040ef          	jal	ra,1ae30 <__swbuf_r>
   162b0:	fff00793          	li	a5,-1
   162b4:	fcf51ae3          	bne	a0,a5,16288 <__fputwc+0x94>
   162b8:	fff00513          	li	a0,-1
   162bc:	01c12083          	lw	ra,28(sp)
   162c0:	01812403          	lw	s0,24(sp)
   162c4:	01412483          	lw	s1,20(sp)
   162c8:	01012903          	lw	s2,16(sp)
   162cc:	02010113          	addi	sp,sp,32
   162d0:	00008067          	ret
   162d4:	00c45783          	lhu	a5,12(s0)
   162d8:	fff00513          	li	a0,-1
   162dc:	0407e793          	ori	a5,a5,64
   162e0:	00f41623          	sh	a5,12(s0)
   162e4:	fd9ff06f          	j	162bc <__fputwc+0xc8>

000162e8 <_fputwc_r>:
   162e8:	00c61783          	lh	a5,12(a2)
   162ec:	01279713          	slli	a4,a5,0x12
   162f0:	02074063          	bltz	a4,16310 <_fputwc_r+0x28>
   162f4:	06462703          	lw	a4,100(a2)
   162f8:	000026b7          	lui	a3,0x2
   162fc:	00d7e7b3          	or	a5,a5,a3
   16300:	000026b7          	lui	a3,0x2
   16304:	00d76733          	or	a4,a4,a3
   16308:	00f61623          	sh	a5,12(a2)
   1630c:	06e62223          	sw	a4,100(a2)
   16310:	ee5ff06f          	j	161f4 <__fputwc>

00016314 <fputwc>:
   16314:	fe010113          	addi	sp,sp,-32
   16318:	00812c23          	sw	s0,24(sp)
   1631c:	f0c1a403          	lw	s0,-244(gp) # 239d4 <_impure_ptr>
   16320:	00112e23          	sw	ra,28(sp)
   16324:	00058613          	mv	a2,a1
   16328:	00050593          	mv	a1,a0
   1632c:	00040663          	beqz	s0,16338 <fputwc+0x24>
   16330:	03442783          	lw	a5,52(s0)
   16334:	04078063          	beqz	a5,16374 <fputwc+0x60>
   16338:	00c61783          	lh	a5,12(a2)
   1633c:	01279713          	slli	a4,a5,0x12
   16340:	02074063          	bltz	a4,16360 <fputwc+0x4c>
   16344:	06462703          	lw	a4,100(a2)
   16348:	000026b7          	lui	a3,0x2
   1634c:	00d7e7b3          	or	a5,a5,a3
   16350:	000026b7          	lui	a3,0x2
   16354:	00d76733          	or	a4,a4,a3
   16358:	00f61623          	sh	a5,12(a2)
   1635c:	06e62223          	sw	a4,100(a2)
   16360:	00040513          	mv	a0,s0
   16364:	01812403          	lw	s0,24(sp)
   16368:	01c12083          	lw	ra,28(sp)
   1636c:	02010113          	addi	sp,sp,32
   16370:	e85ff06f          	j	161f4 <__fputwc>
   16374:	00a12423          	sw	a0,8(sp)
   16378:	00040513          	mv	a0,s0
   1637c:	00c12623          	sw	a2,12(sp)
   16380:	950fa0ef          	jal	ra,104d0 <__sinit>
   16384:	00c12603          	lw	a2,12(sp)
   16388:	00812583          	lw	a1,8(sp)
   1638c:	fadff06f          	j	16338 <fputwc+0x24>

00016390 <memchr>:
   16390:	00357793          	andi	a5,a0,3
   16394:	0ff5f693          	andi	a3,a1,255
   16398:	02078a63          	beqz	a5,163cc <memchr+0x3c>
   1639c:	fff60793          	addi	a5,a2,-1
   163a0:	02060e63          	beqz	a2,163dc <memchr+0x4c>
   163a4:	fff00613          	li	a2,-1
   163a8:	0180006f          	j	163c0 <memchr+0x30>
   163ac:	00150513          	addi	a0,a0,1
   163b0:	00357713          	andi	a4,a0,3
   163b4:	00070e63          	beqz	a4,163d0 <memchr+0x40>
   163b8:	fff78793          	addi	a5,a5,-1
   163bc:	02c78063          	beq	a5,a2,163dc <memchr+0x4c>
   163c0:	00054703          	lbu	a4,0(a0)
   163c4:	fed714e3          	bne	a4,a3,163ac <memchr+0x1c>
   163c8:	00008067          	ret
   163cc:	00060793          	mv	a5,a2
   163d0:	00300713          	li	a4,3
   163d4:	00f76863          	bltu	a4,a5,163e4 <memchr+0x54>
   163d8:	06079063          	bnez	a5,16438 <memchr+0xa8>
   163dc:	00000513          	li	a0,0
   163e0:	00008067          	ret
   163e4:	0ff5f593          	andi	a1,a1,255
   163e8:	00859713          	slli	a4,a1,0x8
   163ec:	00b705b3          	add	a1,a4,a1
   163f0:	01059713          	slli	a4,a1,0x10
   163f4:	feff08b7          	lui	a7,0xfeff0
   163f8:	80808837          	lui	a6,0x80808
   163fc:	00e585b3          	add	a1,a1,a4
   16400:	eff88893          	addi	a7,a7,-257 # fefefeff <__BSS_END__+0xfefcc1f3>
   16404:	08080813          	addi	a6,a6,128 # 80808080 <__BSS_END__+0x807e4374>
   16408:	00300313          	li	t1,3
   1640c:	0100006f          	j	1641c <memchr+0x8c>
   16410:	ffc78793          	addi	a5,a5,-4
   16414:	00450513          	addi	a0,a0,4
   16418:	fcf370e3          	bgeu	t1,a5,163d8 <memchr+0x48>
   1641c:	00052703          	lw	a4,0(a0)
   16420:	00e5c733          	xor	a4,a1,a4
   16424:	01170633          	add	a2,a4,a7
   16428:	fff74713          	not	a4,a4
   1642c:	00e67733          	and	a4,a2,a4
   16430:	01077733          	and	a4,a4,a6
   16434:	fc070ee3          	beqz	a4,16410 <memchr+0x80>
   16438:	00f507b3          	add	a5,a0,a5
   1643c:	00c0006f          	j	16448 <memchr+0xb8>
   16440:	00150513          	addi	a0,a0,1
   16444:	f8f50ce3          	beq	a0,a5,163dc <memchr+0x4c>
   16448:	00054703          	lbu	a4,0(a0)
   1644c:	fed71ae3          	bne	a4,a3,16440 <memchr+0xb0>
   16450:	00008067          	ret

00016454 <strncpy>:
   16454:	00a5e7b3          	or	a5,a1,a0
   16458:	0037f793          	andi	a5,a5,3
   1645c:	00079663          	bnez	a5,16468 <strncpy+0x14>
   16460:	00300793          	li	a5,3
   16464:	04c7e663          	bltu	a5,a2,164b0 <strncpy+0x5c>
   16468:	00050713          	mv	a4,a0
   1646c:	01c0006f          	j	16488 <strncpy+0x34>
   16470:	fff5c683          	lbu	a3,-1(a1)
   16474:	fff60813          	addi	a6,a2,-1
   16478:	fed78fa3          	sb	a3,-1(a5)
   1647c:	00068e63          	beqz	a3,16498 <strncpy+0x44>
   16480:	00078713          	mv	a4,a5
   16484:	00080613          	mv	a2,a6
   16488:	00158593          	addi	a1,a1,1
   1648c:	00170793          	addi	a5,a4,1
   16490:	fe0610e3          	bnez	a2,16470 <strncpy+0x1c>
   16494:	00008067          	ret
   16498:	00c70733          	add	a4,a4,a2
   1649c:	06080063          	beqz	a6,164fc <strncpy+0xa8>
   164a0:	00178793          	addi	a5,a5,1
   164a4:	fe078fa3          	sb	zero,-1(a5)
   164a8:	fee79ce3          	bne	a5,a4,164a0 <strncpy+0x4c>
   164ac:	00008067          	ret
   164b0:	feff0337          	lui	t1,0xfeff0
   164b4:	808088b7          	lui	a7,0x80808
   164b8:	00050713          	mv	a4,a0
   164bc:	eff30313          	addi	t1,t1,-257 # fefefeff <__BSS_END__+0xfefcc1f3>
   164c0:	08088893          	addi	a7,a7,128 # 80808080 <__BSS_END__+0x807e4374>
   164c4:	00300e13          	li	t3,3
   164c8:	0180006f          	j	164e0 <strncpy+0x8c>
   164cc:	00d72023          	sw	a3,0(a4)
   164d0:	ffc60613          	addi	a2,a2,-4
   164d4:	00470713          	addi	a4,a4,4
   164d8:	00458593          	addi	a1,a1,4
   164dc:	face76e3          	bgeu	t3,a2,16488 <strncpy+0x34>
   164e0:	0005a683          	lw	a3,0(a1)
   164e4:	006687b3          	add	a5,a3,t1
   164e8:	fff6c813          	not	a6,a3
   164ec:	0107f7b3          	and	a5,a5,a6
   164f0:	0117f7b3          	and	a5,a5,a7
   164f4:	fc078ce3          	beqz	a5,164cc <strncpy+0x78>
   164f8:	f91ff06f          	j	16488 <strncpy+0x34>
   164fc:	00008067          	ret

00016500 <_setlocale_r>:
   16500:	ff010113          	addi	sp,sp,-16
   16504:	00112623          	sw	ra,12(sp)
   16508:	00912223          	sw	s1,4(sp)
   1650c:	02060e63          	beqz	a2,16548 <_setlocale_r+0x48>
   16510:	000225b7          	lui	a1,0x22
   16514:	a0c58593          	addi	a1,a1,-1524 # 21a0c <__clzsi2+0x98>
   16518:	00060513          	mv	a0,a2
   1651c:	00812423          	sw	s0,8(sp)
   16520:	00060413          	mv	s0,a2
   16524:	4f0000ef          	jal	ra,16a14 <strcmp>
   16528:	000224b7          	lui	s1,0x22
   1652c:	02051263          	bnez	a0,16550 <_setlocale_r+0x50>
   16530:	00812403          	lw	s0,8(sp)
   16534:	a0848513          	addi	a0,s1,-1528 # 21a08 <__clzsi2+0x94>
   16538:	00c12083          	lw	ra,12(sp)
   1653c:	00412483          	lw	s1,4(sp)
   16540:	01010113          	addi	sp,sp,16
   16544:	00008067          	ret
   16548:	000224b7          	lui	s1,0x22
   1654c:	fe9ff06f          	j	16534 <_setlocale_r+0x34>
   16550:	a0848593          	addi	a1,s1,-1528 # 21a08 <__clzsi2+0x94>
   16554:	00040513          	mv	a0,s0
   16558:	4bc000ef          	jal	ra,16a14 <strcmp>
   1655c:	fc050ae3          	beqz	a0,16530 <_setlocale_r+0x30>
   16560:	000225b7          	lui	a1,0x22
   16564:	aa858593          	addi	a1,a1,-1368 # 21aa8 <__clzsi2+0x134>
   16568:	00040513          	mv	a0,s0
   1656c:	4a8000ef          	jal	ra,16a14 <strcmp>
   16570:	fc0500e3          	beqz	a0,16530 <_setlocale_r+0x30>
   16574:	00812403          	lw	s0,8(sp)
   16578:	00000513          	li	a0,0
   1657c:	fbdff06f          	j	16538 <_setlocale_r+0x38>

00016580 <__locale_mb_cur_max>:
   16580:	e601c503          	lbu	a0,-416(gp) # 23928 <__global_locale+0x128>
   16584:	00008067          	ret

00016588 <setlocale>:
   16588:	ff010113          	addi	sp,sp,-16
   1658c:	00112623          	sw	ra,12(sp)
   16590:	00912223          	sw	s1,4(sp)
   16594:	02058e63          	beqz	a1,165d0 <setlocale+0x48>
   16598:	00812423          	sw	s0,8(sp)
   1659c:	00058413          	mv	s0,a1
   165a0:	000225b7          	lui	a1,0x22
   165a4:	a0c58593          	addi	a1,a1,-1524 # 21a0c <__clzsi2+0x98>
   165a8:	00040513          	mv	a0,s0
   165ac:	468000ef          	jal	ra,16a14 <strcmp>
   165b0:	000224b7          	lui	s1,0x22
   165b4:	02051263          	bnez	a0,165d8 <setlocale+0x50>
   165b8:	00812403          	lw	s0,8(sp)
   165bc:	a0848513          	addi	a0,s1,-1528 # 21a08 <__clzsi2+0x94>
   165c0:	00c12083          	lw	ra,12(sp)
   165c4:	00412483          	lw	s1,4(sp)
   165c8:	01010113          	addi	sp,sp,16
   165cc:	00008067          	ret
   165d0:	000224b7          	lui	s1,0x22
   165d4:	fe9ff06f          	j	165bc <setlocale+0x34>
   165d8:	a0848593          	addi	a1,s1,-1528 # 21a08 <__clzsi2+0x94>
   165dc:	00040513          	mv	a0,s0
   165e0:	434000ef          	jal	ra,16a14 <strcmp>
   165e4:	fc050ae3          	beqz	a0,165b8 <setlocale+0x30>
   165e8:	000225b7          	lui	a1,0x22
   165ec:	aa858593          	addi	a1,a1,-1368 # 21aa8 <__clzsi2+0x134>
   165f0:	00040513          	mv	a0,s0
   165f4:	420000ef          	jal	ra,16a14 <strcmp>
   165f8:	fc0500e3          	beqz	a0,165b8 <setlocale+0x30>
   165fc:	00812403          	lw	s0,8(sp)
   16600:	00000513          	li	a0,0
   16604:	fbdff06f          	j	165c0 <setlocale+0x38>

00016608 <__localeconv_l>:
   16608:	0f050513          	addi	a0,a0,240
   1660c:	00008067          	ret

00016610 <_localeconv_r>:
   16610:	e2818513          	addi	a0,gp,-472 # 238f0 <__global_locale+0xf0>
   16614:	00008067          	ret

00016618 <localeconv>:
   16618:	e2818513          	addi	a0,gp,-472 # 238f0 <__global_locale+0xf0>
   1661c:	00008067          	ret

00016620 <_sbrk_r>:
   16620:	ff010113          	addi	sp,sp,-16
   16624:	00812423          	sw	s0,8(sp)
   16628:	00912223          	sw	s1,4(sp)
   1662c:	00050413          	mv	s0,a0
   16630:	00058513          	mv	a0,a1
   16634:	00112623          	sw	ra,12(sp)
   16638:	f001ae23          	sw	zero,-228(gp) # 239e4 <errno>
   1663c:	490050ef          	jal	ra,1bacc <_sbrk>
   16640:	fff00793          	li	a5,-1
   16644:	00f50c63          	beq	a0,a5,1665c <_sbrk_r+0x3c>
   16648:	00c12083          	lw	ra,12(sp)
   1664c:	00812403          	lw	s0,8(sp)
   16650:	00412483          	lw	s1,4(sp)
   16654:	01010113          	addi	sp,sp,16
   16658:	00008067          	ret
   1665c:	f1c1a783          	lw	a5,-228(gp) # 239e4 <errno>
   16660:	fe0784e3          	beqz	a5,16648 <_sbrk_r+0x28>
   16664:	00c12083          	lw	ra,12(sp)
   16668:	00f42023          	sw	a5,0(s0)
   1666c:	00812403          	lw	s0,8(sp)
   16670:	00412483          	lw	s1,4(sp)
   16674:	01010113          	addi	sp,sp,16
   16678:	00008067          	ret

0001667c <__libc_fini_array>:
   1667c:	ff010113          	addi	sp,sp,-16
   16680:	00812423          	sw	s0,8(sp)
   16684:	000237b7          	lui	a5,0x23
   16688:	00023437          	lui	s0,0x23
   1668c:	2c478793          	addi	a5,a5,708 # 232c4 <__do_global_dtors_aux_fini_array_entry>
   16690:	2c840413          	addi	s0,s0,712 # 232c8 <__sglue>
   16694:	40f40433          	sub	s0,s0,a5
   16698:	00912223          	sw	s1,4(sp)
   1669c:	00112623          	sw	ra,12(sp)
   166a0:	40245493          	srai	s1,s0,0x2
   166a4:	02048063          	beqz	s1,166c4 <__libc_fini_array+0x48>
   166a8:	ffc40413          	addi	s0,s0,-4
   166ac:	00f40433          	add	s0,s0,a5
   166b0:	00042783          	lw	a5,0(s0)
   166b4:	fff48493          	addi	s1,s1,-1
   166b8:	ffc40413          	addi	s0,s0,-4
   166bc:	000780e7          	jalr	a5
   166c0:	fe0498e3          	bnez	s1,166b0 <__libc_fini_array+0x34>
   166c4:	00c12083          	lw	ra,12(sp)
   166c8:	00812403          	lw	s0,8(sp)
   166cc:	00412483          	lw	s1,4(sp)
   166d0:	01010113          	addi	sp,sp,16
   166d4:	00008067          	ret

000166d8 <memmove>:
   166d8:	02a5f663          	bgeu	a1,a0,16704 <memmove+0x2c>
   166dc:	00c58733          	add	a4,a1,a2
   166e0:	02e57263          	bgeu	a0,a4,16704 <memmove+0x2c>
   166e4:	00c507b3          	add	a5,a0,a2
   166e8:	04060663          	beqz	a2,16734 <memmove+0x5c>
   166ec:	fff74683          	lbu	a3,-1(a4)
   166f0:	fff78793          	addi	a5,a5,-1
   166f4:	fff70713          	addi	a4,a4,-1
   166f8:	00d78023          	sb	a3,0(a5)
   166fc:	fef518e3          	bne	a0,a5,166ec <memmove+0x14>
   16700:	00008067          	ret
   16704:	00f00793          	li	a5,15
   16708:	02c7e863          	bltu	a5,a2,16738 <memmove+0x60>
   1670c:	00050793          	mv	a5,a0
   16710:	fff60693          	addi	a3,a2,-1
   16714:	0c060263          	beqz	a2,167d8 <memmove+0x100>
   16718:	00168693          	addi	a3,a3,1 # 2001 <exit-0xe093>
   1671c:	00d786b3          	add	a3,a5,a3
   16720:	0005c703          	lbu	a4,0(a1)
   16724:	00178793          	addi	a5,a5,1
   16728:	00158593          	addi	a1,a1,1
   1672c:	fee78fa3          	sb	a4,-1(a5)
   16730:	fed798e3          	bne	a5,a3,16720 <memmove+0x48>
   16734:	00008067          	ret
   16738:	00b567b3          	or	a5,a0,a1
   1673c:	0037f793          	andi	a5,a5,3
   16740:	08079663          	bnez	a5,167cc <memmove+0xf4>
   16744:	ff060893          	addi	a7,a2,-16
   16748:	ff08f893          	andi	a7,a7,-16
   1674c:	01088893          	addi	a7,a7,16
   16750:	011506b3          	add	a3,a0,a7
   16754:	00058713          	mv	a4,a1
   16758:	00050793          	mv	a5,a0
   1675c:	00072803          	lw	a6,0(a4)
   16760:	01070713          	addi	a4,a4,16
   16764:	01078793          	addi	a5,a5,16
   16768:	ff07a823          	sw	a6,-16(a5)
   1676c:	ff472803          	lw	a6,-12(a4)
   16770:	ff07aa23          	sw	a6,-12(a5)
   16774:	ff872803          	lw	a6,-8(a4)
   16778:	ff07ac23          	sw	a6,-8(a5)
   1677c:	ffc72803          	lw	a6,-4(a4)
   16780:	ff07ae23          	sw	a6,-4(a5)
   16784:	fcd79ce3          	bne	a5,a3,1675c <memmove+0x84>
   16788:	00c67813          	andi	a6,a2,12
   1678c:	011585b3          	add	a1,a1,a7
   16790:	00f67713          	andi	a4,a2,15
   16794:	04080463          	beqz	a6,167dc <memmove+0x104>
   16798:	ffc70813          	addi	a6,a4,-4
   1679c:	ffc87813          	andi	a6,a6,-4
   167a0:	00480813          	addi	a6,a6,4
   167a4:	010687b3          	add	a5,a3,a6
   167a8:	00058713          	mv	a4,a1
   167ac:	00072883          	lw	a7,0(a4)
   167b0:	00468693          	addi	a3,a3,4
   167b4:	00470713          	addi	a4,a4,4
   167b8:	ff16ae23          	sw	a7,-4(a3)
   167bc:	fef698e3          	bne	a3,a5,167ac <memmove+0xd4>
   167c0:	00367613          	andi	a2,a2,3
   167c4:	010585b3          	add	a1,a1,a6
   167c8:	f49ff06f          	j	16710 <memmove+0x38>
   167cc:	fff60693          	addi	a3,a2,-1
   167d0:	00050793          	mv	a5,a0
   167d4:	f45ff06f          	j	16718 <memmove+0x40>
   167d8:	00008067          	ret
   167dc:	00070613          	mv	a2,a4
   167e0:	f31ff06f          	j	16710 <memmove+0x38>

000167e4 <memcpy>:
   167e4:	00a5c7b3          	xor	a5,a1,a0
   167e8:	0037f793          	andi	a5,a5,3
   167ec:	00c508b3          	add	a7,a0,a2
   167f0:	06079463          	bnez	a5,16858 <memcpy+0x74>
   167f4:	00300793          	li	a5,3
   167f8:	06c7f063          	bgeu	a5,a2,16858 <memcpy+0x74>
   167fc:	00357793          	andi	a5,a0,3
   16800:	00050713          	mv	a4,a0
   16804:	06079a63          	bnez	a5,16878 <memcpy+0x94>
   16808:	ffc8f613          	andi	a2,a7,-4
   1680c:	40e606b3          	sub	a3,a2,a4
   16810:	02000793          	li	a5,32
   16814:	08d7ce63          	blt	a5,a3,168b0 <memcpy+0xcc>
   16818:	00058693          	mv	a3,a1
   1681c:	00070793          	mv	a5,a4
   16820:	02c77863          	bgeu	a4,a2,16850 <memcpy+0x6c>
   16824:	0006a803          	lw	a6,0(a3)
   16828:	00478793          	addi	a5,a5,4
   1682c:	00468693          	addi	a3,a3,4
   16830:	ff07ae23          	sw	a6,-4(a5)
   16834:	fec7e8e3          	bltu	a5,a2,16824 <memcpy+0x40>
   16838:	fff60793          	addi	a5,a2,-1
   1683c:	40e787b3          	sub	a5,a5,a4
   16840:	ffc7f793          	andi	a5,a5,-4
   16844:	00478793          	addi	a5,a5,4
   16848:	00f70733          	add	a4,a4,a5
   1684c:	00f585b3          	add	a1,a1,a5
   16850:	01176863          	bltu	a4,a7,16860 <memcpy+0x7c>
   16854:	00008067          	ret
   16858:	00050713          	mv	a4,a0
   1685c:	05157863          	bgeu	a0,a7,168ac <memcpy+0xc8>
   16860:	0005c783          	lbu	a5,0(a1)
   16864:	00170713          	addi	a4,a4,1
   16868:	00158593          	addi	a1,a1,1
   1686c:	fef70fa3          	sb	a5,-1(a4)
   16870:	fee898e3          	bne	a7,a4,16860 <memcpy+0x7c>
   16874:	00008067          	ret
   16878:	0005c683          	lbu	a3,0(a1)
   1687c:	00170713          	addi	a4,a4,1
   16880:	00377793          	andi	a5,a4,3
   16884:	fed70fa3          	sb	a3,-1(a4)
   16888:	00158593          	addi	a1,a1,1
   1688c:	f6078ee3          	beqz	a5,16808 <memcpy+0x24>
   16890:	0005c683          	lbu	a3,0(a1)
   16894:	00170713          	addi	a4,a4,1
   16898:	00377793          	andi	a5,a4,3
   1689c:	fed70fa3          	sb	a3,-1(a4)
   168a0:	00158593          	addi	a1,a1,1
   168a4:	fc079ae3          	bnez	a5,16878 <memcpy+0x94>
   168a8:	f61ff06f          	j	16808 <memcpy+0x24>
   168ac:	00008067          	ret
   168b0:	ff010113          	addi	sp,sp,-16
   168b4:	00812623          	sw	s0,12(sp)
   168b8:	02000413          	li	s0,32
   168bc:	0005a383          	lw	t2,0(a1)
   168c0:	0045a283          	lw	t0,4(a1)
   168c4:	0085af83          	lw	t6,8(a1)
   168c8:	00c5af03          	lw	t5,12(a1)
   168cc:	0105ae83          	lw	t4,16(a1)
   168d0:	0145ae03          	lw	t3,20(a1)
   168d4:	0185a303          	lw	t1,24(a1)
   168d8:	01c5a803          	lw	a6,28(a1)
   168dc:	0205a683          	lw	a3,32(a1)
   168e0:	02470713          	addi	a4,a4,36
   168e4:	40e607b3          	sub	a5,a2,a4
   168e8:	fc772e23          	sw	t2,-36(a4)
   168ec:	fe572023          	sw	t0,-32(a4)
   168f0:	fff72223          	sw	t6,-28(a4)
   168f4:	ffe72423          	sw	t5,-24(a4)
   168f8:	ffd72623          	sw	t4,-20(a4)
   168fc:	ffc72823          	sw	t3,-16(a4)
   16900:	fe672a23          	sw	t1,-12(a4)
   16904:	ff072c23          	sw	a6,-8(a4)
   16908:	fed72e23          	sw	a3,-4(a4)
   1690c:	02458593          	addi	a1,a1,36
   16910:	faf446e3          	blt	s0,a5,168bc <memcpy+0xd8>
   16914:	00058693          	mv	a3,a1
   16918:	00070793          	mv	a5,a4
   1691c:	02c77863          	bgeu	a4,a2,1694c <memcpy+0x168>
   16920:	0006a803          	lw	a6,0(a3)
   16924:	00478793          	addi	a5,a5,4
   16928:	00468693          	addi	a3,a3,4
   1692c:	ff07ae23          	sw	a6,-4(a5)
   16930:	fec7e8e3          	bltu	a5,a2,16920 <memcpy+0x13c>
   16934:	fff60793          	addi	a5,a2,-1
   16938:	40e787b3          	sub	a5,a5,a4
   1693c:	ffc7f793          	andi	a5,a5,-4
   16940:	00478793          	addi	a5,a5,4
   16944:	00f70733          	add	a4,a4,a5
   16948:	00f585b3          	add	a1,a1,a5
   1694c:	01176863          	bltu	a4,a7,1695c <memcpy+0x178>
   16950:	00c12403          	lw	s0,12(sp)
   16954:	01010113          	addi	sp,sp,16
   16958:	00008067          	ret
   1695c:	0005c783          	lbu	a5,0(a1)
   16960:	00170713          	addi	a4,a4,1
   16964:	00158593          	addi	a1,a1,1
   16968:	fef70fa3          	sb	a5,-1(a4)
   1696c:	fee882e3          	beq	a7,a4,16950 <memcpy+0x16c>
   16970:	0005c783          	lbu	a5,0(a1)
   16974:	00170713          	addi	a4,a4,1
   16978:	00158593          	addi	a1,a1,1
   1697c:	fef70fa3          	sb	a5,-1(a4)
   16980:	fce89ee3          	bne	a7,a4,1695c <memcpy+0x178>
   16984:	fcdff06f          	j	16950 <memcpy+0x16c>

00016988 <strlen>:
   16988:	00357793          	andi	a5,a0,3
   1698c:	00050713          	mv	a4,a0
   16990:	04079c63          	bnez	a5,169e8 <strlen+0x60>
   16994:	7f7f86b7          	lui	a3,0x7f7f8
   16998:	f7f68693          	addi	a3,a3,-129 # 7f7f7f7f <__BSS_END__+0x7f7d4273>
   1699c:	fff00593          	li	a1,-1
   169a0:	00072603          	lw	a2,0(a4)
   169a4:	00470713          	addi	a4,a4,4
   169a8:	00d677b3          	and	a5,a2,a3
   169ac:	00d787b3          	add	a5,a5,a3
   169b0:	00c7e7b3          	or	a5,a5,a2
   169b4:	00d7e7b3          	or	a5,a5,a3
   169b8:	feb784e3          	beq	a5,a1,169a0 <strlen+0x18>
   169bc:	ffc74683          	lbu	a3,-4(a4)
   169c0:	40a707b3          	sub	a5,a4,a0
   169c4:	04068463          	beqz	a3,16a0c <strlen+0x84>
   169c8:	ffd74683          	lbu	a3,-3(a4)
   169cc:	02068c63          	beqz	a3,16a04 <strlen+0x7c>
   169d0:	ffe74503          	lbu	a0,-2(a4)
   169d4:	00a03533          	snez	a0,a0
   169d8:	00f50533          	add	a0,a0,a5
   169dc:	ffe50513          	addi	a0,a0,-2
   169e0:	00008067          	ret
   169e4:	fa0688e3          	beqz	a3,16994 <strlen+0xc>
   169e8:	00074783          	lbu	a5,0(a4)
   169ec:	00170713          	addi	a4,a4,1
   169f0:	00377693          	andi	a3,a4,3
   169f4:	fe0798e3          	bnez	a5,169e4 <strlen+0x5c>
   169f8:	40a70733          	sub	a4,a4,a0
   169fc:	fff70513          	addi	a0,a4,-1
   16a00:	00008067          	ret
   16a04:	ffd78513          	addi	a0,a5,-3
   16a08:	00008067          	ret
   16a0c:	ffc78513          	addi	a0,a5,-4
   16a10:	00008067          	ret

00016a14 <strcmp>:
   16a14:	00b56733          	or	a4,a0,a1
   16a18:	fff00393          	li	t2,-1
   16a1c:	00377713          	andi	a4,a4,3
   16a20:	10071063          	bnez	a4,16b20 <strcmp+0x10c>
   16a24:	7f7f87b7          	lui	a5,0x7f7f8
   16a28:	f7f78793          	addi	a5,a5,-129 # 7f7f7f7f <__BSS_END__+0x7f7d4273>
   16a2c:	00052603          	lw	a2,0(a0)
   16a30:	0005a683          	lw	a3,0(a1)
   16a34:	00f672b3          	and	t0,a2,a5
   16a38:	00f66333          	or	t1,a2,a5
   16a3c:	00f282b3          	add	t0,t0,a5
   16a40:	0062e2b3          	or	t0,t0,t1
   16a44:	10729263          	bne	t0,t2,16b48 <strcmp+0x134>
   16a48:	08d61663          	bne	a2,a3,16ad4 <strcmp+0xc0>
   16a4c:	00452603          	lw	a2,4(a0)
   16a50:	0045a683          	lw	a3,4(a1)
   16a54:	00f672b3          	and	t0,a2,a5
   16a58:	00f66333          	or	t1,a2,a5
   16a5c:	00f282b3          	add	t0,t0,a5
   16a60:	0062e2b3          	or	t0,t0,t1
   16a64:	0c729e63          	bne	t0,t2,16b40 <strcmp+0x12c>
   16a68:	06d61663          	bne	a2,a3,16ad4 <strcmp+0xc0>
   16a6c:	00852603          	lw	a2,8(a0)
   16a70:	0085a683          	lw	a3,8(a1)
   16a74:	00f672b3          	and	t0,a2,a5
   16a78:	00f66333          	or	t1,a2,a5
   16a7c:	00f282b3          	add	t0,t0,a5
   16a80:	0062e2b3          	or	t0,t0,t1
   16a84:	0c729863          	bne	t0,t2,16b54 <strcmp+0x140>
   16a88:	04d61663          	bne	a2,a3,16ad4 <strcmp+0xc0>
   16a8c:	00c52603          	lw	a2,12(a0)
   16a90:	00c5a683          	lw	a3,12(a1)
   16a94:	00f672b3          	and	t0,a2,a5
   16a98:	00f66333          	or	t1,a2,a5
   16a9c:	00f282b3          	add	t0,t0,a5
   16aa0:	0062e2b3          	or	t0,t0,t1
   16aa4:	0c729263          	bne	t0,t2,16b68 <strcmp+0x154>
   16aa8:	02d61663          	bne	a2,a3,16ad4 <strcmp+0xc0>
   16aac:	01052603          	lw	a2,16(a0)
   16ab0:	0105a683          	lw	a3,16(a1)
   16ab4:	00f672b3          	and	t0,a2,a5
   16ab8:	00f66333          	or	t1,a2,a5
   16abc:	00f282b3          	add	t0,t0,a5
   16ac0:	0062e2b3          	or	t0,t0,t1
   16ac4:	0a729c63          	bne	t0,t2,16b7c <strcmp+0x168>
   16ac8:	01450513          	addi	a0,a0,20
   16acc:	01458593          	addi	a1,a1,20
   16ad0:	f4d60ee3          	beq	a2,a3,16a2c <strcmp+0x18>
   16ad4:	01061713          	slli	a4,a2,0x10
   16ad8:	01069793          	slli	a5,a3,0x10
   16adc:	00f71e63          	bne	a4,a5,16af8 <strcmp+0xe4>
   16ae0:	01065713          	srli	a4,a2,0x10
   16ae4:	0106d793          	srli	a5,a3,0x10
   16ae8:	40f70533          	sub	a0,a4,a5
   16aec:	0ff57593          	andi	a1,a0,255
   16af0:	02059063          	bnez	a1,16b10 <strcmp+0xfc>
   16af4:	00008067          	ret
   16af8:	01075713          	srli	a4,a4,0x10
   16afc:	0107d793          	srli	a5,a5,0x10
   16b00:	40f70533          	sub	a0,a4,a5
   16b04:	0ff57593          	andi	a1,a0,255
   16b08:	00059463          	bnez	a1,16b10 <strcmp+0xfc>
   16b0c:	00008067          	ret
   16b10:	0ff77713          	andi	a4,a4,255
   16b14:	0ff7f793          	andi	a5,a5,255
   16b18:	40f70533          	sub	a0,a4,a5
   16b1c:	00008067          	ret
   16b20:	00054603          	lbu	a2,0(a0)
   16b24:	0005c683          	lbu	a3,0(a1)
   16b28:	00150513          	addi	a0,a0,1
   16b2c:	00158593          	addi	a1,a1,1
   16b30:	00d61463          	bne	a2,a3,16b38 <strcmp+0x124>
   16b34:	fe0616e3          	bnez	a2,16b20 <strcmp+0x10c>
   16b38:	40d60533          	sub	a0,a2,a3
   16b3c:	00008067          	ret
   16b40:	00450513          	addi	a0,a0,4
   16b44:	00458593          	addi	a1,a1,4
   16b48:	fcd61ce3          	bne	a2,a3,16b20 <strcmp+0x10c>
   16b4c:	00000513          	li	a0,0
   16b50:	00008067          	ret
   16b54:	00850513          	addi	a0,a0,8
   16b58:	00858593          	addi	a1,a1,8
   16b5c:	fcd612e3          	bne	a2,a3,16b20 <strcmp+0x10c>
   16b60:	00000513          	li	a0,0
   16b64:	00008067          	ret
   16b68:	00c50513          	addi	a0,a0,12
   16b6c:	00c58593          	addi	a1,a1,12
   16b70:	fad618e3          	bne	a2,a3,16b20 <strcmp+0x10c>
   16b74:	00000513          	li	a0,0
   16b78:	00008067          	ret
   16b7c:	01050513          	addi	a0,a0,16
   16b80:	01058593          	addi	a1,a1,16
   16b84:	f8d61ee3          	bne	a2,a3,16b20 <strcmp+0x10c>
   16b88:	00000513          	li	a0,0
   16b8c:	00008067          	ret

00016b90 <frexpl>:
   16b90:	f9010113          	addi	sp,sp,-112
   16b94:	07212023          	sw	s2,96(sp)
   16b98:	00c5a903          	lw	s2,12(a1)
   16b9c:	05412c23          	sw	s4,88(sp)
   16ba0:	05512a23          	sw	s5,84(sp)
   16ba4:	05612823          	sw	s6,80(sp)
   16ba8:	0045aa83          	lw	s5,4(a1)
   16bac:	0005ab03          	lw	s6,0(a1)
   16bb0:	0085aa03          	lw	s4,8(a1)
   16bb4:	05312e23          	sw	s3,92(sp)
   16bb8:	000089b7          	lui	s3,0x8
   16bbc:	06812423          	sw	s0,104(sp)
   16bc0:	06912223          	sw	s1,100(sp)
   16bc4:	06112623          	sw	ra,108(sp)
   16bc8:	01095493          	srli	s1,s2,0x10
   16bcc:	fff98993          	addi	s3,s3,-1 # 7fff <exit-0x8095>
   16bd0:	03612823          	sw	s6,48(sp)
   16bd4:	03512a23          	sw	s5,52(sp)
   16bd8:	03412c23          	sw	s4,56(sp)
   16bdc:	03212e23          	sw	s2,60(sp)
   16be0:	0134f4b3          	and	s1,s1,s3
   16be4:	00062023          	sw	zero,0(a2)
   16be8:	00050413          	mv	s0,a0
   16bec:	09348063          	beq	s1,s3,16c6c <frexpl+0xdc>
   16bf0:	01010593          	addi	a1,sp,16
   16bf4:	02010513          	addi	a0,sp,32
   16bf8:	05712623          	sw	s7,76(sp)
   16bfc:	03612023          	sw	s6,32(sp)
   16c00:	00060b93          	mv	s7,a2
   16c04:	03512223          	sw	s5,36(sp)
   16c08:	03412423          	sw	s4,40(sp)
   16c0c:	03212623          	sw	s2,44(sp)
   16c10:	00012823          	sw	zero,16(sp)
   16c14:	00012a23          	sw	zero,20(sp)
   16c18:	00012c23          	sw	zero,24(sp)
   16c1c:	00012e23          	sw	zero,28(sp)
   16c20:	3dd070ef          	jal	ra,1e7fc <__eqtf2>
   16c24:	0e050463          	beqz	a0,16d0c <frexpl+0x17c>
   16c28:	00000693          	li	a3,0
   16c2c:	06048e63          	beqz	s1,16ca8 <frexpl+0x118>
   16c30:	ffffc737          	lui	a4,0xffffc
   16c34:	00270713          	addi	a4,a4,2 # ffffc002 <__BSS_END__+0xfffd82f6>
   16c38:	03c12903          	lw	s2,60(sp)
   16c3c:	00e484b3          	add	s1,s1,a4
   16c40:	800107b7          	lui	a5,0x80010
   16c44:	00d484b3          	add	s1,s1,a3
   16c48:	fff78793          	addi	a5,a5,-1 # 8000ffff <__BSS_END__+0x7ffec2f3>
   16c4c:	009ba023          	sw	s1,0(s7)
   16c50:	03012b03          	lw	s6,48(sp)
   16c54:	03412a83          	lw	s5,52(sp)
   16c58:	03812a03          	lw	s4,56(sp)
   16c5c:	04c12b83          	lw	s7,76(sp)
   16c60:	00f97933          	and	s2,s2,a5
   16c64:	3ffe07b7          	lui	a5,0x3ffe0
   16c68:	00f96933          	or	s2,s2,a5
   16c6c:	01642023          	sw	s6,0(s0)
   16c70:	01542223          	sw	s5,4(s0)
   16c74:	01442423          	sw	s4,8(s0)
   16c78:	01242623          	sw	s2,12(s0)
   16c7c:	06c12083          	lw	ra,108(sp)
   16c80:	00040513          	mv	a0,s0
   16c84:	06812403          	lw	s0,104(sp)
   16c88:	06412483          	lw	s1,100(sp)
   16c8c:	06012903          	lw	s2,96(sp)
   16c90:	05c12983          	lw	s3,92(sp)
   16c94:	05812a03          	lw	s4,88(sp)
   16c98:	05412a83          	lw	s5,84(sp)
   16c9c:	05012b03          	lw	s6,80(sp)
   16ca0:	07010113          	addi	sp,sp,112
   16ca4:	00008067          	ret
   16ca8:	407107b7          	lui	a5,0x40710
   16cac:	00010613          	mv	a2,sp
   16cb0:	01010593          	addi	a1,sp,16
   16cb4:	02010513          	addi	a0,sp,32
   16cb8:	00f12623          	sw	a5,12(sp)
   16cbc:	01612823          	sw	s6,16(sp)
   16cc0:	01512a23          	sw	s5,20(sp)
   16cc4:	01412c23          	sw	s4,24(sp)
   16cc8:	01212e23          	sw	s2,28(sp)
   16ccc:	00012023          	sw	zero,0(sp)
   16cd0:	00012223          	sw	zero,4(sp)
   16cd4:	00012423          	sw	zero,8(sp)
   16cd8:	651070ef          	jal	ra,1eb28 <__multf3>
   16cdc:	02012703          	lw	a4,32(sp)
   16ce0:	02c12783          	lw	a5,44(sp)
   16ce4:	f8e00693          	li	a3,-114
   16ce8:	02e12823          	sw	a4,48(sp)
   16cec:	02412703          	lw	a4,36(sp)
   16cf0:	0107d493          	srli	s1,a5,0x10
   16cf4:	02f12e23          	sw	a5,60(sp)
   16cf8:	02e12a23          	sw	a4,52(sp)
   16cfc:	02812703          	lw	a4,40(sp)
   16d00:	0134f4b3          	and	s1,s1,s3
   16d04:	02e12c23          	sw	a4,56(sp)
   16d08:	f29ff06f          	j	16c30 <frexpl+0xa0>
   16d0c:	04c12b83          	lw	s7,76(sp)
   16d10:	f5dff06f          	j	16c6c <frexpl+0xdc>

00016d14 <__register_exitproc>:
   16d14:	f201a783          	lw	a5,-224(gp) # 239e8 <__atexit>
   16d18:	04078c63          	beqz	a5,16d70 <__register_exitproc+0x5c>
   16d1c:	0047a703          	lw	a4,4(a5) # 40710004 <__BSS_END__+0x406ec2f8>
   16d20:	01f00813          	li	a6,31
   16d24:	08e84063          	blt	a6,a4,16da4 <__register_exitproc+0x90>
   16d28:	00271813          	slli	a6,a4,0x2
   16d2c:	02050663          	beqz	a0,16d58 <__register_exitproc+0x44>
   16d30:	01078333          	add	t1,a5,a6
   16d34:	08c32423          	sw	a2,136(t1)
   16d38:	1887a883          	lw	a7,392(a5)
   16d3c:	00100613          	li	a2,1
   16d40:	00e61633          	sll	a2,a2,a4
   16d44:	00c8e8b3          	or	a7,a7,a2
   16d48:	1917a423          	sw	a7,392(a5)
   16d4c:	10d32423          	sw	a3,264(t1)
   16d50:	00200693          	li	a3,2
   16d54:	02d50663          	beq	a0,a3,16d80 <__register_exitproc+0x6c>
   16d58:	00170713          	addi	a4,a4,1
   16d5c:	00e7a223          	sw	a4,4(a5)
   16d60:	010787b3          	add	a5,a5,a6
   16d64:	00b7a423          	sw	a1,8(a5)
   16d68:	00000513          	li	a0,0
   16d6c:	00008067          	ret
   16d70:	0b418813          	addi	a6,gp,180 # 23b7c <__atexit0>
   16d74:	f301a023          	sw	a6,-224(gp) # 239e8 <__atexit>
   16d78:	0b418793          	addi	a5,gp,180 # 23b7c <__atexit0>
   16d7c:	fa1ff06f          	j	16d1c <__register_exitproc+0x8>
   16d80:	18c7a683          	lw	a3,396(a5)
   16d84:	00170713          	addi	a4,a4,1
   16d88:	00e7a223          	sw	a4,4(a5)
   16d8c:	00c6e6b3          	or	a3,a3,a2
   16d90:	18d7a623          	sw	a3,396(a5)
   16d94:	010787b3          	add	a5,a5,a6
   16d98:	00b7a423          	sw	a1,8(a5)
   16d9c:	00000513          	li	a0,0
   16da0:	00008067          	ret
   16da4:	fff00513          	li	a0,-1
   16da8:	00008067          	ret

00016dac <_ldtoa_r>:
   16dac:	000228b7          	lui	a7,0x22
   16db0:	e8c88893          	addi	a7,a7,-372 # 21e8c <blanks.1+0x10>
   16db4:	0008af83          	lw	t6,0(a7)
   16db8:	0048af03          	lw	t5,4(a7)
   16dbc:	0088ae83          	lw	t4,8(a7)
   16dc0:	00c8ae03          	lw	t3,12(a7)
   16dc4:	0108a303          	lw	t1,16(a7)
   16dc8:	03852883          	lw	a7,56(a0)
   16dcc:	f5010113          	addi	sp,sp,-176
   16dd0:	0b212023          	sw	s2,160(sp)
   16dd4:	09312e23          	sw	s3,156(sp)
   16dd8:	09412c23          	sw	s4,152(sp)
   16ddc:	09612823          	sw	s6,144(sp)
   16de0:	09712623          	sw	s7,140(sp)
   16de4:	09812423          	sw	s8,136(sp)
   16de8:	09912223          	sw	s9,132(sp)
   16dec:	09a12023          	sw	s10,128(sp)
   16df0:	0a112623          	sw	ra,172(sp)
   16df4:	0a812423          	sw	s0,168(sp)
   16df8:	0a912223          	sw	s1,164(sp)
   16dfc:	09512a23          	sw	s5,148(sp)
   16e00:	07b12e23          	sw	s11,124(sp)
   16e04:	05f12e23          	sw	t6,92(sp)
   16e08:	07e12023          	sw	t5,96(sp)
   16e0c:	07d12223          	sw	t4,100(sp)
   16e10:	07c12423          	sw	t3,104(sp)
   16e14:	06612623          	sw	t1,108(sp)
   16e18:	00c12c23          	sw	a2,24(sp)
   16e1c:	00d12e23          	sw	a3,28(sp)
   16e20:	0005aa03          	lw	s4,0(a1)
   16e24:	0045a983          	lw	s3,4(a1)
   16e28:	0085a903          	lw	s2,8(a1)
   16e2c:	00c5ac03          	lw	s8,12(a1)
   16e30:	00050b13          	mv	s6,a0
   16e34:	00070b93          	mv	s7,a4
   16e38:	00078c93          	mv	s9,a5
   16e3c:	00080d13          	mv	s10,a6
   16e40:	02088263          	beqz	a7,16e64 <_ldtoa_r+0xb8>
   16e44:	03c52683          	lw	a3,60(a0)
   16e48:	00100713          	li	a4,1
   16e4c:	00088593          	mv	a1,a7
   16e50:	00d71733          	sll	a4,a4,a3
   16e54:	00d8a223          	sw	a3,4(a7)
   16e58:	00e8a423          	sw	a4,8(a7)
   16e5c:	48c020ef          	jal	ra,192e8 <_Bfree>
   16e60:	020b2c23          	sw	zero,56(s6)
   16e64:	06812603          	lw	a2,104(sp)
   16e68:	01fc5693          	srli	a3,s8,0x1f
   16e6c:	001c1a93          	slli	s5,s8,0x1
   16e70:	40165713          	srai	a4,a2,0x1
   16e74:	ffffc4b7          	lui	s1,0xffffc
   16e78:	001c1413          	slli	s0,s8,0x1
   16e7c:	00d77733          	and	a4,a4,a3
   16e80:	011ada93          	srli	s5,s5,0x11
   16e84:	f9148493          	addi	s1,s1,-111 # ffffbf91 <__BSS_END__+0xfffd8285>
   16e88:	010c1d93          	slli	s11,s8,0x10
   16e8c:	00dca023          	sw	a3,0(s9)
   16e90:	00145413          	srli	s0,s0,0x1
   16e94:	00c74733          	xor	a4,a4,a2
   16e98:	010ddd93          	srli	s11,s11,0x10
   16e9c:	009a87b3          	add	a5,s5,s1
   16ea0:	02010593          	addi	a1,sp,32
   16ea4:	03010513          	addi	a0,sp,48
   16ea8:	03412823          	sw	s4,48(sp)
   16eac:	03312a23          	sw	s3,52(sp)
   16eb0:	03212c23          	sw	s2,56(sp)
   16eb4:	02812e23          	sw	s0,60(sp)
   16eb8:	03412023          	sw	s4,32(sp)
   16ebc:	03312223          	sw	s3,36(sp)
   16ec0:	03212423          	sw	s2,40(sp)
   16ec4:	02812623          	sw	s0,44(sp)
   16ec8:	06e12423          	sw	a4,104(sp)
   16ecc:	00f12a23          	sw	a5,20(sp)
   16ed0:	05412623          	sw	s4,76(sp)
   16ed4:	05312823          	sw	s3,80(sp)
   16ed8:	05212a23          	sw	s2,84(sp)
   16edc:	05b12c23          	sw	s11,88(sp)
   16ee0:	4dc0a0ef          	jal	ra,213bc <__unordtf2>
   16ee4:	16051a63          	bnez	a0,17058 <_ldtoa_r+0x2ac>
   16ee8:	7fff0cb7          	lui	s9,0x7fff0
   16eec:	fff00493          	li	s1,-1
   16ef0:	fffc8c93          	addi	s9,s9,-1 # 7ffeffff <__BSS_END__+0x7ffcc2f3>
   16ef4:	02010593          	addi	a1,sp,32
   16ef8:	03010513          	addi	a0,sp,48
   16efc:	03412823          	sw	s4,48(sp)
   16f00:	03312a23          	sw	s3,52(sp)
   16f04:	03212c23          	sw	s2,56(sp)
   16f08:	02812e23          	sw	s0,60(sp)
   16f0c:	02912023          	sw	s1,32(sp)
   16f10:	02912223          	sw	s1,36(sp)
   16f14:	02912423          	sw	s1,40(sp)
   16f18:	03912623          	sw	s9,44(sp)
   16f1c:	4a00a0ef          	jal	ra,213bc <__unordtf2>
   16f20:	08051c63          	bnez	a0,16fb8 <_ldtoa_r+0x20c>
   16f24:	02010593          	addi	a1,sp,32
   16f28:	03010513          	addi	a0,sp,48
   16f2c:	2cd070ef          	jal	ra,1e9f8 <__letf2>
   16f30:	08a05463          	blez	a0,16fb8 <_ldtoa_r+0x20c>
   16f34:	00300793          	li	a5,3
   16f38:	04f12423          	sw	a5,72(sp)
   16f3c:	01812783          	lw	a5,24(sp)
   16f40:	01c12803          	lw	a6,28(sp)
   16f44:	01412603          	lw	a2,20(sp)
   16f48:	04810713          	addi	a4,sp,72
   16f4c:	01a12023          	sw	s10,0(sp)
   16f50:	000b8893          	mv	a7,s7
   16f54:	04c10693          	addi	a3,sp,76
   16f58:	05c10593          	addi	a1,sp,92
   16f5c:	000b0513          	mv	a0,s6
   16f60:	208000ef          	jal	ra,17168 <__gdtoa>
   16f64:	000ba703          	lw	a4,0(s7)
   16f68:	ffff87b7          	lui	a5,0xffff8
   16f6c:	00f71863          	bne	a4,a5,16f7c <_ldtoa_r+0x1d0>
   16f70:	800007b7          	lui	a5,0x80000
   16f74:	fff78793          	addi	a5,a5,-1 # 7fffffff <__BSS_END__+0x7ffdc2f3>
   16f78:	00fba023          	sw	a5,0(s7)
   16f7c:	0ac12083          	lw	ra,172(sp)
   16f80:	0a812403          	lw	s0,168(sp)
   16f84:	0a412483          	lw	s1,164(sp)
   16f88:	0a012903          	lw	s2,160(sp)
   16f8c:	09c12983          	lw	s3,156(sp)
   16f90:	09812a03          	lw	s4,152(sp)
   16f94:	09412a83          	lw	s5,148(sp)
   16f98:	09012b03          	lw	s6,144(sp)
   16f9c:	08c12b83          	lw	s7,140(sp)
   16fa0:	08812c03          	lw	s8,136(sp)
   16fa4:	08412c83          	lw	s9,132(sp)
   16fa8:	08012d03          	lw	s10,128(sp)
   16fac:	07c12d83          	lw	s11,124(sp)
   16fb0:	0b010113          	addi	sp,sp,176
   16fb4:	00008067          	ret
   16fb8:	000107b7          	lui	a5,0x10
   16fbc:	02010593          	addi	a1,sp,32
   16fc0:	03010513          	addi	a0,sp,48
   16fc4:	03412823          	sw	s4,48(sp)
   16fc8:	03312a23          	sw	s3,52(sp)
   16fcc:	03212c23          	sw	s2,56(sp)
   16fd0:	02812e23          	sw	s0,60(sp)
   16fd4:	02012023          	sw	zero,32(sp)
   16fd8:	02012223          	sw	zero,36(sp)
   16fdc:	02012423          	sw	zero,40(sp)
   16fe0:	02f12623          	sw	a5,44(sp)
   16fe4:	0e5070ef          	jal	ra,1e8c8 <__getf2>
   16fe8:	00054e63          	bltz	a0,17004 <_ldtoa_r+0x258>
   16fec:	000107b7          	lui	a5,0x10
   16ff0:	00fdedb3          	or	s11,s11,a5
   16ff4:	00100793          	li	a5,1
   16ff8:	04f12423          	sw	a5,72(sp)
   16ffc:	05b12c23          	sw	s11,88(sp)
   17000:	f3dff06f          	j	16f3c <_ldtoa_r+0x190>
   17004:	02010593          	addi	a1,sp,32
   17008:	03010513          	addi	a0,sp,48
   1700c:	03412823          	sw	s4,48(sp)
   17010:	03312a23          	sw	s3,52(sp)
   17014:	03212c23          	sw	s2,56(sp)
   17018:	03812e23          	sw	s8,60(sp)
   1701c:	02012023          	sw	zero,32(sp)
   17020:	02012223          	sw	zero,36(sp)
   17024:	02012423          	sw	zero,40(sp)
   17028:	02012623          	sw	zero,44(sp)
   1702c:	7d0070ef          	jal	ra,1e7fc <__eqtf2>
   17030:	00051663          	bnez	a0,1703c <_ldtoa_r+0x290>
   17034:	04012423          	sw	zero,72(sp)
   17038:	f05ff06f          	j	16f3c <_ldtoa_r+0x190>
   1703c:	ffffc4b7          	lui	s1,0xffffc
   17040:	00200793          	li	a5,2
   17044:	f9248493          	addi	s1,s1,-110 # ffffbf92 <__BSS_END__+0xfffd8286>
   17048:	04f12423          	sw	a5,72(sp)
   1704c:	009a87b3          	add	a5,s5,s1
   17050:	00f12a23          	sw	a5,20(sp)
   17054:	ee9ff06f          	j	16f3c <_ldtoa_r+0x190>
   17058:	00400793          	li	a5,4
   1705c:	04f12423          	sw	a5,72(sp)
   17060:	eddff06f          	j	16f3c <_ldtoa_r+0x190>

00017064 <_ldcheck>:
   17064:	fc010113          	addi	sp,sp,-64
   17068:	02912a23          	sw	s1,52(sp)
   1706c:	00c52483          	lw	s1,12(a0)
   17070:	03312623          	sw	s3,44(sp)
   17074:	03412423          	sw	s4,40(sp)
   17078:	00852983          	lw	s3,8(a0)
   1707c:	00452a03          	lw	s4,4(a0)
   17080:	03512223          	sw	s5,36(sp)
   17084:	00052a83          	lw	s5,0(a0)
   17088:	00149493          	slli	s1,s1,0x1
   1708c:	0014d493          	srli	s1,s1,0x1
   17090:	00010593          	mv	a1,sp
   17094:	01010513          	addi	a0,sp,16
   17098:	02112e23          	sw	ra,60(sp)
   1709c:	01512823          	sw	s5,16(sp)
   170a0:	01412a23          	sw	s4,20(sp)
   170a4:	01312c23          	sw	s3,24(sp)
   170a8:	00912e23          	sw	s1,28(sp)
   170ac:	01512023          	sw	s5,0(sp)
   170b0:	01412223          	sw	s4,4(sp)
   170b4:	01312423          	sw	s3,8(sp)
   170b8:	00912623          	sw	s1,12(sp)
   170bc:	3000a0ef          	jal	ra,213bc <__unordtf2>
   170c0:	08051463          	bnez	a0,17148 <_ldcheck+0xe4>
   170c4:	03612023          	sw	s6,32(sp)
   170c8:	7fff0b37          	lui	s6,0x7fff0
   170cc:	03212823          	sw	s2,48(sp)
   170d0:	fffb0b13          	addi	s6,s6,-1 # 7ffeffff <__BSS_END__+0x7ffcc2f3>
   170d4:	fff00913          	li	s2,-1
   170d8:	00010593          	mv	a1,sp
   170dc:	01010513          	addi	a0,sp,16
   170e0:	02812c23          	sw	s0,56(sp)
   170e4:	01212023          	sw	s2,0(sp)
   170e8:	01212223          	sw	s2,4(sp)
   170ec:	01212423          	sw	s2,8(sp)
   170f0:	01612623          	sw	s6,12(sp)
   170f4:	00100413          	li	s0,1
   170f8:	2c40a0ef          	jal	ra,213bc <__unordtf2>
   170fc:	02050c63          	beqz	a0,17134 <_ldcheck+0xd0>
   17100:	03c12083          	lw	ra,60(sp)
   17104:	00144513          	xori	a0,s0,1
   17108:	03812403          	lw	s0,56(sp)
   1710c:	0ff57513          	andi	a0,a0,255
   17110:	03012903          	lw	s2,48(sp)
   17114:	02012b03          	lw	s6,32(sp)
   17118:	03412483          	lw	s1,52(sp)
   1711c:	02c12983          	lw	s3,44(sp)
   17120:	02812a03          	lw	s4,40(sp)
   17124:	02412a83          	lw	s5,36(sp)
   17128:	00151513          	slli	a0,a0,0x1
   1712c:	04010113          	addi	sp,sp,64
   17130:	00008067          	ret
   17134:	00010593          	mv	a1,sp
   17138:	01010513          	addi	a0,sp,16
   1713c:	0bd070ef          	jal	ra,1e9f8 <__letf2>
   17140:	00152413          	slti	s0,a0,1
   17144:	fbdff06f          	j	17100 <_ldcheck+0x9c>
   17148:	03c12083          	lw	ra,60(sp)
   1714c:	03412483          	lw	s1,52(sp)
   17150:	02c12983          	lw	s3,44(sp)
   17154:	02812a03          	lw	s4,40(sp)
   17158:	02412a83          	lw	s5,36(sp)
   1715c:	00100513          	li	a0,1
   17160:	04010113          	addi	sp,sp,64
   17164:	00008067          	ret

00017168 <__gdtoa>:
   17168:	f3010113          	addi	sp,sp,-208
   1716c:	0b612823          	sw	s6,176(sp)
   17170:	00072b03          	lw	s6,0(a4)
   17174:	0ba12023          	sw	s10,160(sp)
   17178:	0c112623          	sw	ra,204(sp)
   1717c:	fcfb7313          	andi	t1,s6,-49
   17180:	00672023          	sw	t1,0(a4)
   17184:	00070d13          	mv	s10,a4
   17188:	0d012703          	lw	a4,208(sp)
   1718c:	00fb7313          	andi	t1,s6,15
   17190:	00300e93          	li	t4,3
   17194:	00e12623          	sw	a4,12(sp)
   17198:	00f12823          	sw	a5,16(sp)
   1719c:	01012c23          	sw	a6,24(sp)
   171a0:	01112423          	sw	a7,8(sp)
   171a4:	7dd30c63          	beq	t1,t4,1797c <__gdtoa+0x814>
   171a8:	0b912223          	sw	s9,164(sp)
   171ac:	00cb7c93          	andi	s9,s6,12
   171b0:	720c9063          	bnez	s9,178d0 <__gdtoa+0x768>
   171b4:	0c812423          	sw	s0,200(sp)
   171b8:	00050413          	mv	s0,a0
   171bc:	76030c63          	beqz	t1,17934 <__gdtoa+0x7cc>
   171c0:	0b712623          	sw	s7,172(sp)
   171c4:	0005ab83          	lw	s7,0(a1)
   171c8:	0d212023          	sw	s2,192(sp)
   171cc:	0b512a23          	sw	s5,180(sp)
   171d0:	09b12e23          	sw	s11,156(sp)
   171d4:	00068913          	mv	s2,a3
   171d8:	0c912223          	sw	s1,196(sp)
   171dc:	02000693          	li	a3,32
   171e0:	00058d93          	mv	s11,a1
   171e4:	00060a93          	mv	s5,a2
   171e8:	00000593          	li	a1,0
   171ec:	02000793          	li	a5,32
   171f0:	0176d863          	bge	a3,s7,17200 <__gdtoa+0x98>
   171f4:	00179793          	slli	a5,a5,0x1
   171f8:	00158593          	addi	a1,a1,1
   171fc:	ff77cce3          	blt	a5,s7,171f4 <__gdtoa+0x8c>
   17200:	00040513          	mv	a0,s0
   17204:	030020ef          	jal	ra,19234 <_Balloc>
   17208:	00050493          	mv	s1,a0
   1720c:	380504e3          	beqz	a0,17d94 <__gdtoa+0xc2c>
   17210:	fffb8513          	addi	a0,s7,-1
   17214:	40555513          	srai	a0,a0,0x5
   17218:	00251593          	slli	a1,a0,0x2
   1721c:	0b312e23          	sw	s3,188(sp)
   17220:	0b812423          	sw	s8,168(sp)
   17224:	00b905b3          	add	a1,s2,a1
   17228:	01448693          	addi	a3,s1,20
   1722c:	00090793          	mv	a5,s2
   17230:	0007a703          	lw	a4,0(a5) # 10000 <exit-0x94>
   17234:	00478793          	addi	a5,a5,4
   17238:	00468693          	addi	a3,a3,4
   1723c:	fee6ae23          	sw	a4,-4(a3)
   17240:	fef5f8e3          	bgeu	a1,a5,17230 <__gdtoa+0xc8>
   17244:	00158593          	addi	a1,a1,1
   17248:	00190793          	addi	a5,s2,1
   1724c:	00400693          	li	a3,4
   17250:	00f5e663          	bltu	a1,a5,1725c <__gdtoa+0xf4>
   17254:	00251513          	slli	a0,a0,0x2
   17258:	00450693          	addi	a3,a0,4
   1725c:	4026dc13          	srai	s8,a3,0x2
   17260:	00d486b3          	add	a3,s1,a3
   17264:	00c0006f          	j	17270 <__gdtoa+0x108>
   17268:	ffc68693          	addi	a3,a3,-4
   1726c:	780c0463          	beqz	s8,179f4 <__gdtoa+0x88c>
   17270:	0106a783          	lw	a5,16(a3)
   17274:	000c0993          	mv	s3,s8
   17278:	fffc0c13          	addi	s8,s8,-1
   1727c:	fe0786e3          	beqz	a5,17268 <__gdtoa+0x100>
   17280:	004c0793          	addi	a5,s8,4
   17284:	00279793          	slli	a5,a5,0x2
   17288:	00f487b3          	add	a5,s1,a5
   1728c:	0047a503          	lw	a0,4(a5)
   17290:	0134a823          	sw	s3,16(s1)
   17294:	00599993          	slli	s3,s3,0x5
   17298:	334020ef          	jal	ra,195cc <__hi0bits>
   1729c:	40a98c33          	sub	s8,s3,a0
   172a0:	00048513          	mv	a0,s1
   172a4:	6bd010ef          	jal	ra,19160 <__trailz_D2A>
   172a8:	08a12623          	sw	a0,140(sp)
   172ac:	03512223          	sw	s5,36(sp)
   172b0:	78051663          	bnez	a0,17a3c <__gdtoa+0x8d4>
   172b4:	0104a683          	lw	a3,16(s1)
   172b8:	64068a63          	beqz	a3,1790c <__gdtoa+0x7a4>
   172bc:	08c10593          	addi	a1,sp,140
   172c0:	00048513          	mv	a0,s1
   172c4:	0b412c23          	sw	s4,184(sp)
   172c8:	5d5020ef          	jal	ra,1a09c <__b2d>
   172cc:	00c59993          	slli	s3,a1,0xc
   172d0:	00c9d993          	srli	s3,s3,0xc
   172d4:	3ff006b7          	lui	a3,0x3ff00
   172d8:	00d9e833          	or	a6,s3,a3
   172dc:	02412703          	lw	a4,36(sp)
   172e0:	ea81a603          	lw	a2,-344(gp) # 23970 <__SDATA_BEGIN__>
   172e4:	eac1a683          	lw	a3,-340(gp) # 23974 <__SDATA_BEGIN__+0x4>
   172e8:	01870733          	add	a4,a4,s8
   172ec:	00080593          	mv	a1,a6
   172f0:	00050793          	mv	a5,a0
   172f4:	fff70a13          	addi	s4,a4,-1
   172f8:	03012823          	sw	a6,48(sp)
   172fc:	02e12423          	sw	a4,40(sp)
   17300:	04f12423          	sw	a5,72(sp)
   17304:	04a12223          	sw	a0,68(sp)
   17308:	425060ef          	jal	ra,1df2c <__subdf3>
   1730c:	eb01a603          	lw	a2,-336(gp) # 23978 <__SDATA_BEGIN__+0x8>
   17310:	eb41a683          	lw	a3,-332(gp) # 2397c <__SDATA_BEGIN__+0xc>
   17314:	568060ef          	jal	ra,1d87c <__muldf3>
   17318:	eb81a603          	lw	a2,-328(gp) # 23980 <__SDATA_BEGIN__+0x10>
   1731c:	ebc1a683          	lw	a3,-324(gp) # 23984 <__SDATA_BEGIN__+0x14>
   17320:	3a4050ef          	jal	ra,1c6c4 <__adddf3>
   17324:	00050793          	mv	a5,a0
   17328:	000a0513          	mv	a0,s4
   1732c:	00f12e23          	sw	a5,28(sp)
   17330:	00058993          	mv	s3,a1
   17334:	420070ef          	jal	ra,1e754 <__floatsidf>
   17338:	ec01a603          	lw	a2,-320(gp) # 23988 <__SDATA_BEGIN__+0x18>
   1733c:	ec41a683          	lw	a3,-316(gp) # 2398c <__SDATA_BEGIN__+0x1c>
   17340:	53c060ef          	jal	ra,1d87c <__muldf3>
   17344:	01c12783          	lw	a5,28(sp)
   17348:	00050613          	mv	a2,a0
   1734c:	00058693          	mv	a3,a1
   17350:	00078513          	mv	a0,a5
   17354:	00098593          	mv	a1,s3
   17358:	36c050ef          	jal	ra,1c6c4 <__adddf3>
   1735c:	02a12023          	sw	a0,32(sp)
   17360:	00058993          	mv	s3,a1
   17364:	000a0513          	mv	a0,s4
   17368:	000a5863          	bgez	s4,17378 <__gdtoa+0x210>
   1736c:	02812703          	lw	a4,40(sp)
   17370:	00100513          	li	a0,1
   17374:	40e50533          	sub	a0,a0,a4
   17378:	bcb50513          	addi	a0,a0,-1077
   1737c:	02a05863          	blez	a0,173ac <__gdtoa+0x244>
   17380:	3d4070ef          	jal	ra,1e754 <__floatsidf>
   17384:	ec81a603          	lw	a2,-312(gp) # 23990 <__SDATA_BEGIN__+0x20>
   17388:	ecc1a683          	lw	a3,-308(gp) # 23994 <__SDATA_BEGIN__+0x24>
   1738c:	4f0060ef          	jal	ra,1d87c <__muldf3>
   17390:	00050613          	mv	a2,a0
   17394:	02012503          	lw	a0,32(sp)
   17398:	00058693          	mv	a3,a1
   1739c:	00098593          	mv	a1,s3
   173a0:	324050ef          	jal	ra,1c6c4 <__adddf3>
   173a4:	02a12023          	sw	a0,32(sp)
   173a8:	00058993          	mv	s3,a1
   173ac:	02012503          	lw	a0,32(sp)
   173b0:	00098593          	mv	a1,s3
   173b4:	320070ef          	jal	ra,1e6d4 <__fixdfsi>
   173b8:	00050813          	mv	a6,a0
   173bc:	02012503          	lw	a0,32(sp)
   173c0:	00098593          	mv	a1,s3
   173c4:	00000613          	li	a2,0
   173c8:	00000693          	li	a3,0
   173cc:	01012e23          	sw	a6,28(sp)
   173d0:	3d0060ef          	jal	ra,1d7a0 <__ledf2>
   173d4:	02055463          	bgez	a0,173fc <__gdtoa+0x294>
   173d8:	01c12503          	lw	a0,28(sp)
   173dc:	378070ef          	jal	ra,1e754 <__floatsidf>
   173e0:	02012603          	lw	a2,32(sp)
   173e4:	00098693          	mv	a3,s3
   173e8:	250060ef          	jal	ra,1d638 <__eqdf2>
   173ec:	01c12783          	lw	a5,28(sp)
   173f0:	00a03533          	snez	a0,a0
   173f4:	40a787b3          	sub	a5,a5,a0
   173f8:	00f12e23          	sw	a5,28(sp)
   173fc:	03012783          	lw	a5,48(sp)
   17400:	014a1613          	slli	a2,s4,0x14
   17404:	01c12703          	lw	a4,28(sp)
   17408:	414c0a33          	sub	s4,s8,s4
   1740c:	00f609b3          	add	s3,a2,a5
   17410:	fffa0793          	addi	a5,s4,-1
   17414:	01600693          	li	a3,22
   17418:	02f12023          	sw	a5,32(sp)
   1741c:	5ee6e063          	bltu	a3,a4,179fc <__gdtoa+0x894>
   17420:	000227b7          	lui	a5,0x22
   17424:	f0078613          	addi	a2,a5,-256 # 21f00 <__mprec_tens>
   17428:	00371693          	slli	a3,a4,0x3
   1742c:	00c686b3          	add	a3,a3,a2
   17430:	04412883          	lw	a7,68(sp)
   17434:	0006a503          	lw	a0,0(a3) # 3ff00000 <__BSS_END__+0x3fedc2f4>
   17438:	0046a583          	lw	a1,4(a3)
   1743c:	00088613          	mv	a2,a7
   17440:	00098693          	mv	a3,s3
   17444:	280060ef          	jal	ra,1d6c4 <__gedf2>
   17448:	18a04ee3          	bgtz	a0,17de4 <__gdtoa+0xc7c>
   1744c:	04012823          	sw	zero,80(sp)
   17450:	02012823          	sw	zero,48(sp)
   17454:	01404a63          	bgtz	s4,17468 <__gdtoa+0x300>
   17458:	00100693          	li	a3,1
   1745c:	414687b3          	sub	a5,a3,s4
   17460:	02f12823          	sw	a5,48(sp)
   17464:	02012023          	sw	zero,32(sp)
   17468:	02012703          	lw	a4,32(sp)
   1746c:	01c12783          	lw	a5,28(sp)
   17470:	02012c23          	sw	zero,56(sp)
   17474:	00f70733          	add	a4,a4,a5
   17478:	02e12023          	sw	a4,32(sp)
   1747c:	02f12e23          	sw	a5,60(sp)
   17480:	01012783          	lw	a5,16(sp)
   17484:	00900693          	li	a3,9
   17488:	5cf6ea63          	bltu	a3,a5,17a5c <__gdtoa+0x8f4>
   1748c:	00500693          	li	a3,5
   17490:	16f6c4e3          	blt	a3,a5,17df8 <__gdtoa+0xc90>
   17494:	02812783          	lw	a5,40(sp)
   17498:	00400613          	li	a2,4
   1749c:	3fd78793          	addi	a5,a5,1021
   174a0:	7f87ba13          	sltiu	s4,a5,2040
   174a4:	01012783          	lw	a5,16(sp)
   174a8:	00c79463          	bne	a5,a2,174b0 <__gdtoa+0x348>
   174ac:	0580106f          	j	18504 <__gdtoa+0x139c>
   174b0:	00d79463          	bne	a5,a3,174b8 <__gdtoa+0x350>
   174b4:	0440106f          	j	184f8 <__gdtoa+0x1390>
   174b8:	00200693          	li	a3,2
   174bc:	00d79463          	bne	a5,a3,174c4 <__gdtoa+0x35c>
   174c0:	0500106f          	j	18510 <__gdtoa+0x13a8>
   174c4:	00300693          	li	a3,3
   174c8:	04012023          	sw	zero,64(sp)
   174cc:	5ad79063          	bne	a5,a3,17a6c <__gdtoa+0x904>
   174d0:	03c12783          	lw	a5,60(sp)
   174d4:	01812703          	lw	a4,24(sp)
   174d8:	00e787b3          	add	a5,a5,a4
   174dc:	04f12a23          	sw	a5,84(sp)
   174e0:	00178793          	addi	a5,a5,1
   174e4:	02f12a23          	sw	a5,52(sp)
   174e8:	5ef056e3          	blez	a5,182d4 <__gdtoa+0x116c>
   174ec:	00078693          	mv	a3,a5
   174f0:	00078593          	mv	a1,a5
   174f4:	00040513          	mv	a0,s0
   174f8:	08d12623          	sw	a3,140(sp)
   174fc:	7f4010ef          	jal	ra,18cf0 <__rv_alloc_D2A>
   17500:	00050f13          	mv	t5,a0
   17504:	4c050263          	beqz	a0,179c8 <__gdtoa+0x860>
   17508:	00cda783          	lw	a5,12(s11)
   1750c:	fff78793          	addi	a5,a5,-1
   17510:	02f12423          	sw	a5,40(sp)
   17514:	5a078263          	beqz	a5,17ab8 <__gdtoa+0x950>
   17518:	0c07c0e3          	bltz	a5,17dd8 <__gdtoa+0xc70>
   1751c:	100b7e13          	andi	t3,s6,256
   17520:	580e1463          	bnez	t3,17aa8 <__gdtoa+0x940>
   17524:	02412783          	lw	a5,36(sp)
   17528:	0007c863          	bltz	a5,17538 <__gdtoa+0x3d0>
   1752c:	03c12783          	lw	a5,60(sp)
   17530:	00e00693          	li	a3,14
   17534:	0ef6dae3          	bge	a3,a5,17e28 <__gdtoa+0xcc0>
   17538:	04012783          	lw	a5,64(sp)
   1753c:	080786e3          	beqz	a5,17dc8 <__gdtoa+0xc60>
   17540:	02412783          	lw	a5,36(sp)
   17544:	418b8333          	sub	t1,s7,s8
   17548:	004da683          	lw	a3,4(s11)
   1754c:	00130613          	addi	a2,t1,1
   17550:	08c12623          	sw	a2,140(sp)
   17554:	40678333          	sub	t1,a5,t1
   17558:	5cd35ee3          	bge	t1,a3,18334 <__gdtoa+0x11cc>
   1755c:	01012703          	lw	a4,16(sp)
   17560:	ffd70613          	addi	a2,a4,-3
   17564:	ffd67613          	andi	a2,a2,-3
   17568:	4a060ee3          	beqz	a2,18224 <__gdtoa+0x10bc>
   1756c:	40d786b3          	sub	a3,a5,a3
   17570:	00168693          	addi	a3,a3,1
   17574:	08d12623          	sw	a3,140(sp)
   17578:	00100613          	li	a2,1
   1757c:	00e65c63          	bge	a2,a4,17594 <__gdtoa+0x42c>
   17580:	03412783          	lw	a5,52(sp)
   17584:	00f05863          	blez	a5,17594 <__gdtoa+0x42c>
   17588:	03412783          	lw	a5,52(sp)
   1758c:	00d7d463          	bge	a5,a3,17594 <__gdtoa+0x42c>
   17590:	5740106f          	j	18b04 <__gdtoa+0x199c>
   17594:	03012783          	lw	a5,48(sp)
   17598:	02012703          	lw	a4,32(sp)
   1759c:	03812b03          	lw	s6,56(sp)
   175a0:	00078a13          	mv	s4,a5
   175a4:	00d70733          	add	a4,a4,a3
   175a8:	00f687b3          	add	a5,a3,a5
   175ac:	02e12023          	sw	a4,32(sp)
   175b0:	02f12823          	sw	a5,48(sp)
   175b4:	00100593          	li	a1,1
   175b8:	00040513          	mv	a0,s0
   175bc:	03e12223          	sw	t5,36(sp)
   175c0:	164020ef          	jal	ra,19724 <__i2b>
   175c4:	02412f03          	lw	t5,36(sp)
   175c8:	00050993          	mv	s3,a0
   175cc:	3e050e63          	beqz	a0,179c8 <__gdtoa+0x860>
   175d0:	020a0c63          	beqz	s4,17608 <__gdtoa+0x4a0>
   175d4:	02012783          	lw	a5,32(sp)
   175d8:	02f05863          	blez	a5,17608 <__gdtoa+0x4a0>
   175dc:	000a0693          	mv	a3,s4
   175e0:	0147d463          	bge	a5,s4,175e8 <__gdtoa+0x480>
   175e4:	00078693          	mv	a3,a5
   175e8:	03012783          	lw	a5,48(sp)
   175ec:	08d12623          	sw	a3,140(sp)
   175f0:	40da0a33          	sub	s4,s4,a3
   175f4:	40d787b3          	sub	a5,a5,a3
   175f8:	02f12823          	sw	a5,48(sp)
   175fc:	02012783          	lw	a5,32(sp)
   17600:	40d787b3          	sub	a5,a5,a3
   17604:	02f12023          	sw	a5,32(sp)
   17608:	03812783          	lw	a5,56(sp)
   1760c:	02078863          	beqz	a5,1763c <__gdtoa+0x4d4>
   17610:	04012783          	lw	a5,64(sp)
   17614:	00078463          	beqz	a5,1761c <__gdtoa+0x4b4>
   17618:	600b16e3          	bnez	s6,18424 <__gdtoa+0x12bc>
   1761c:	03812603          	lw	a2,56(sp)
   17620:	00048593          	mv	a1,s1
   17624:	00040513          	mv	a0,s0
   17628:	03e12223          	sw	t5,36(sp)
   1762c:	470020ef          	jal	ra,19a9c <__pow5mult>
   17630:	02412f03          	lw	t5,36(sp)
   17634:	00050493          	mv	s1,a0
   17638:	38050863          	beqz	a0,179c8 <__gdtoa+0x860>
   1763c:	00100593          	li	a1,1
   17640:	00040513          	mv	a0,s0
   17644:	03e12223          	sw	t5,36(sp)
   17648:	0dc020ef          	jal	ra,19724 <__i2b>
   1764c:	00050b93          	mv	s7,a0
   17650:	36050c63          	beqz	a0,179c8 <__gdtoa+0x860>
   17654:	01c12783          	lw	a5,28(sp)
   17658:	02412f03          	lw	t5,36(sp)
   1765c:	480792e3          	bnez	a5,182e0 <__gdtoa+0x1178>
   17660:	01012783          	lw	a5,16(sp)
   17664:	00100693          	li	a3,1
   17668:	18f6dce3          	bge	a3,a5,18000 <__gdtoa+0xe98>
   1766c:	01f00a93          	li	s5,31
   17670:	02012783          	lw	a5,32(sp)
   17674:	40fa8ab3          	sub	s5,s5,a5
   17678:	03012783          	lw	a5,48(sp)
   1767c:	ffca8a93          	addi	s5,s5,-4
   17680:	01fafa93          	andi	s5,s5,31
   17684:	00fa8633          	add	a2,s5,a5
   17688:	09512623          	sw	s5,140(sp)
   1768c:	000a8793          	mv	a5,s5
   17690:	26c048e3          	bgtz	a2,18100 <__gdtoa+0xf98>
   17694:	02012703          	lw	a4,32(sp)
   17698:	00f70633          	add	a2,a4,a5
   1769c:	30c04863          	bgtz	a2,179ac <__gdtoa+0x844>
   176a0:	05012783          	lw	a5,80(sp)
   176a4:	280790e3          	bnez	a5,18124 <__gdtoa+0xfbc>
   176a8:	03412783          	lw	a5,52(sp)
   176ac:	3af052e3          	blez	a5,18250 <__gdtoa+0x10e8>
   176b0:	04012783          	lw	a5,64(sp)
   176b4:	2c0784e3          	beqz	a5,1817c <__gdtoa+0x1014>
   176b8:	014a8633          	add	a2,s5,s4
   176bc:	60c046e3          	bgtz	a2,184c8 <__gdtoa+0x1360>
   176c0:	01c12783          	lw	a5,28(sp)
   176c4:	00098a13          	mv	s4,s3
   176c8:	680790e3          	bnez	a5,18548 <__gdtoa+0x13e0>
   176cc:	01a12e23          	sw	s10,28(sp)
   176d0:	01012c83          	lw	s9,16(sp)
   176d4:	03412d03          	lw	s10,52(sp)
   176d8:	000f0c13          	mv	s8,t5
   176dc:	00100793          	li	a5,1
   176e0:	01e12c23          	sw	t5,24(sp)
   176e4:	0b00006f          	j	17794 <__gdtoa+0x62c>
   176e8:	00040513          	mv	a0,s0
   176ec:	3fd010ef          	jal	ra,192e8 <_Bfree>
   176f0:	000ad463          	bgez	s5,176f8 <__gdtoa+0x590>
   176f4:	7e50006f          	j	186d8 <__gdtoa+0x1570>
   176f8:	015ceab3          	or	s5,s9,s5
   176fc:	000a9a63          	bnez	s5,17710 <__gdtoa+0x5a8>
   17700:	00092783          	lw	a5,0(s2)
   17704:	0017f793          	andi	a5,a5,1
   17708:	00079463          	bnez	a5,17710 <__gdtoa+0x5a8>
   1770c:	7cd0006f          	j	186d8 <__gdtoa+0x1570>
   17710:	02812783          	lw	a5,40(sp)
   17714:	00200713          	li	a4,2
   17718:	00e78463          	beq	a5,a4,17720 <__gdtoa+0x5b8>
   1771c:	3140106f          	j	18a30 <__gdtoa+0x18c8>
   17720:	01bc0023          	sb	s11,0(s8)
   17724:	08c12783          	lw	a5,140(sp)
   17728:	001c0c13          	addi	s8,s8,1
   1772c:	00fd1463          	bne	s10,a5,17734 <__gdtoa+0x5cc>
   17730:	2340106f          	j	18964 <__gdtoa+0x17fc>
   17734:	00048593          	mv	a1,s1
   17738:	00000693          	li	a3,0
   1773c:	00a00613          	li	a2,10
   17740:	00040513          	mv	a0,s0
   17744:	3c9010ef          	jal	ra,1930c <__multadd>
   17748:	00050493          	mv	s1,a0
   1774c:	26050e63          	beqz	a0,179c8 <__gdtoa+0x860>
   17750:	00000693          	li	a3,0
   17754:	00a00613          	li	a2,10
   17758:	00098593          	mv	a1,s3
   1775c:	00040513          	mv	a0,s0
   17760:	114980e3          	beq	s3,s4,18060 <__gdtoa+0xef8>
   17764:	3a9010ef          	jal	ra,1930c <__multadd>
   17768:	00050993          	mv	s3,a0
   1776c:	24050e63          	beqz	a0,179c8 <__gdtoa+0x860>
   17770:	000a0593          	mv	a1,s4
   17774:	00000693          	li	a3,0
   17778:	00a00613          	li	a2,10
   1777c:	00040513          	mv	a0,s0
   17780:	38d010ef          	jal	ra,1930c <__multadd>
   17784:	00050a13          	mv	s4,a0
   17788:	24050063          	beqz	a0,179c8 <__gdtoa+0x860>
   1778c:	08c12783          	lw	a5,140(sp)
   17790:	00178793          	addi	a5,a5,1
   17794:	000b8593          	mv	a1,s7
   17798:	00048513          	mv	a0,s1
   1779c:	08f12623          	sw	a5,140(sp)
   177a0:	66c010ef          	jal	ra,18e0c <__quorem_D2A>
   177a4:	00050b13          	mv	s6,a0
   177a8:	00098593          	mv	a1,s3
   177ac:	00048513          	mv	a0,s1
   177b0:	5cc020ef          	jal	ra,19d7c <__mcmp>
   177b4:	000b8593          	mv	a1,s7
   177b8:	00050a93          	mv	s5,a0
   177bc:	000a0613          	mv	a2,s4
   177c0:	00040513          	mv	a0,s0
   177c4:	610020ef          	jal	ra,19dd4 <__mdiff>
   177c8:	030b0d93          	addi	s11,s6,48
   177cc:	00050593          	mv	a1,a0
   177d0:	1e050c63          	beqz	a0,179c8 <__gdtoa+0x860>
   177d4:	00c52783          	lw	a5,12(a0)
   177d8:	f00798e3          	bnez	a5,176e8 <__gdtoa+0x580>
   177dc:	00a12823          	sw	a0,16(sp)
   177e0:	00048513          	mv	a0,s1
   177e4:	598020ef          	jal	ra,19d7c <__mcmp>
   177e8:	01012583          	lw	a1,16(sp)
   177ec:	00050793          	mv	a5,a0
   177f0:	00040513          	mv	a0,s0
   177f4:	00f12823          	sw	a5,16(sp)
   177f8:	2f1010ef          	jal	ra,192e8 <_Bfree>
   177fc:	01012783          	lw	a5,16(sp)
   17800:	00fce733          	or	a4,s9,a5
   17804:	00070463          	beqz	a4,1780c <__gdtoa+0x6a4>
   17808:	4800106f          	j	18c88 <__gdtoa+0x1b20>
   1780c:	00092783          	lw	a5,0(s2)
   17810:	0017f793          	andi	a5,a5,1
   17814:	060790e3          	bnez	a5,18074 <__gdtoa+0xf0c>
   17818:	02812783          	lw	a5,40(sp)
   1781c:	00079463          	bnez	a5,17824 <__gdtoa+0x6bc>
   17820:	3580106f          	j	18b78 <__gdtoa+0x1a10>
   17824:	ef504ee3          	bgtz	s5,17720 <__gdtoa+0x5b8>
   17828:	0104a683          	lw	a3,16(s1)
   1782c:	00100793          	li	a5,1
   17830:	01812f03          	lw	t5,24(sp)
   17834:	01c12d03          	lw	s10,28(sp)
   17838:	00070c93          	mv	s9,a4
   1783c:	00d7c463          	blt	a5,a3,17844 <__gdtoa+0x6dc>
   17840:	4140106f          	j	18c54 <__gdtoa+0x1aec>
   17844:	02812703          	lw	a4,40(sp)
   17848:	00200793          	li	a5,2
   1784c:	000f0b13          	mv	s6,t5
   17850:	02f71463          	bne	a4,a5,17878 <__gdtoa+0x710>
   17854:	3d40106f          	j	18c28 <__gdtoa+0x1ac0>
   17858:	2b5010ef          	jal	ra,1930c <__multadd>
   1785c:	000b8593          	mv	a1,s7
   17860:	00050493          	mv	s1,a0
   17864:	16050263          	beqz	a0,179c8 <__gdtoa+0x860>
   17868:	5a4010ef          	jal	ra,18e0c <__quorem_D2A>
   1786c:	03050d93          	addi	s11,a0,48
   17870:	00090c13          	mv	s8,s2
   17874:	000a8a13          	mv	s4,s5
   17878:	000a0593          	mv	a1,s4
   1787c:	000b8513          	mv	a0,s7
   17880:	4fc020ef          	jal	ra,19d7c <__mcmp>
   17884:	00050793          	mv	a5,a0
   17888:	00000693          	li	a3,0
   1788c:	00a00613          	li	a2,10
   17890:	000a0593          	mv	a1,s4
   17894:	00040513          	mv	a0,s0
   17898:	001c0913          	addi	s2,s8,1
   1789c:	00f04463          	bgtz	a5,178a4 <__gdtoa+0x73c>
   178a0:	3700106f          	j	18c10 <__gdtoa+0x1aa8>
   178a4:	ffb90fa3          	sb	s11,-1(s2)
   178a8:	265010ef          	jal	ra,1930c <__multadd>
   178ac:	00050a93          	mv	s5,a0
   178b0:	00000693          	li	a3,0
   178b4:	00a00613          	li	a2,10
   178b8:	00048593          	mv	a1,s1
   178bc:	00040513          	mv	a0,s0
   178c0:	100a8463          	beqz	s5,179c8 <__gdtoa+0x860>
   178c4:	f9499ae3          	bne	s3,s4,17858 <__gdtoa+0x6f0>
   178c8:	000a8993          	mv	s3,s5
   178cc:	f8dff06f          	j	17858 <__gdtoa+0x6f0>
   178d0:	00400793          	li	a5,4
   178d4:	10f31c63          	bne	t1,a5,179ec <__gdtoa+0x884>
   178d8:	00812703          	lw	a4,8(sp)
   178dc:	00c12603          	lw	a2,12(sp)
   178e0:	0a412c83          	lw	s9,164(sp)
   178e4:	0cc12083          	lw	ra,204(sp)
   178e8:	0b012b03          	lw	s6,176(sp)
   178ec:	0a012d03          	lw	s10,160(sp)
   178f0:	ffff87b7          	lui	a5,0xffff8
   178f4:	00f72023          	sw	a5,0(a4)
   178f8:	000225b7          	lui	a1,0x22
   178fc:	00300693          	li	a3,3
   17900:	a2458593          	addi	a1,a1,-1500 # 21a24 <__clzsi2+0xb0>
   17904:	0d010113          	addi	sp,sp,208
   17908:	4380106f          	j	18d40 <__nrv_alloc_D2A>
   1790c:	00048593          	mv	a1,s1
   17910:	00040513          	mv	a0,s0
   17914:	1d5010ef          	jal	ra,192e8 <_Bfree>
   17918:	0c412483          	lw	s1,196(sp)
   1791c:	0c012903          	lw	s2,192(sp)
   17920:	0bc12983          	lw	s3,188(sp)
   17924:	0b412a83          	lw	s5,180(sp)
   17928:	0ac12b83          	lw	s7,172(sp)
   1792c:	0a812c03          	lw	s8,168(sp)
   17930:	09c12d83          	lw	s11,156(sp)
   17934:	00812703          	lw	a4,8(sp)
   17938:	00c12603          	lw	a2,12(sp)
   1793c:	00100793          	li	a5,1
   17940:	000225b7          	lui	a1,0x22
   17944:	00040513          	mv	a0,s0
   17948:	00f72023          	sw	a5,0(a4)
   1794c:	00100693          	li	a3,1
   17950:	a0458593          	addi	a1,a1,-1532 # 21a04 <__clzsi2+0x90>
   17954:	3ec010ef          	jal	ra,18d40 <__nrv_alloc_D2A>
   17958:	0c812403          	lw	s0,200(sp)
   1795c:	00050f13          	mv	t5,a0
   17960:	0cc12083          	lw	ra,204(sp)
   17964:	0a412c83          	lw	s9,164(sp)
   17968:	0b012b03          	lw	s6,176(sp)
   1796c:	0a012d03          	lw	s10,160(sp)
   17970:	000f0513          	mv	a0,t5
   17974:	0d010113          	addi	sp,sp,208
   17978:	00008067          	ret
   1797c:	00812703          	lw	a4,8(sp)
   17980:	00c12603          	lw	a2,12(sp)
   17984:	0cc12083          	lw	ra,204(sp)
   17988:	0b012b03          	lw	s6,176(sp)
   1798c:	0a012d03          	lw	s10,160(sp)
   17990:	ffff87b7          	lui	a5,0xffff8
   17994:	00f72023          	sw	a5,0(a4)
   17998:	000225b7          	lui	a1,0x22
   1799c:	00800693          	li	a3,8
   179a0:	a1858593          	addi	a1,a1,-1512 # 21a18 <__clzsi2+0xa4>
   179a4:	0d010113          	addi	sp,sp,208
   179a8:	3980106f          	j	18d40 <__nrv_alloc_D2A>
   179ac:	000b8593          	mv	a1,s7
   179b0:	00040513          	mv	a0,s0
   179b4:	03e12023          	sw	t5,32(sp)
   179b8:	234020ef          	jal	ra,19bec <__lshift>
   179bc:	02012f03          	lw	t5,32(sp)
   179c0:	00050b93          	mv	s7,a0
   179c4:	cc051ee3          	bnez	a0,176a0 <__gdtoa+0x538>
   179c8:	0c812403          	lw	s0,200(sp)
   179cc:	0c412483          	lw	s1,196(sp)
   179d0:	0c012903          	lw	s2,192(sp)
   179d4:	0bc12983          	lw	s3,188(sp)
   179d8:	0b812a03          	lw	s4,184(sp)
   179dc:	0b412a83          	lw	s5,180(sp)
   179e0:	0ac12b83          	lw	s7,172(sp)
   179e4:	0a812c03          	lw	s8,168(sp)
   179e8:	09c12d83          	lw	s11,156(sp)
   179ec:	00000f13          	li	t5,0
   179f0:	f71ff06f          	j	17960 <__gdtoa+0x7f8>
   179f4:	0004a823          	sw	zero,16(s1)
   179f8:	8a9ff06f          	j	172a0 <__gdtoa+0x138>
   179fc:	00100793          	li	a5,1
   17a00:	04f12823          	sw	a5,80(sp)
   17a04:	02012823          	sw	zero,48(sp)
   17a08:	fffa0793          	addi	a5,s4,-1
   17a0c:	3a07c463          	bltz	a5,17db4 <__gdtoa+0xc4c>
   17a10:	01c12783          	lw	a5,28(sp)
   17a14:	a407dae3          	bgez	a5,17468 <__gdtoa+0x300>
   17a18:	01c12783          	lw	a5,28(sp)
   17a1c:	03012703          	lw	a4,48(sp)
   17a20:	00012e23          	sw	zero,28(sp)
   17a24:	02f12e23          	sw	a5,60(sp)
   17a28:	40f70733          	sub	a4,a4,a5
   17a2c:	02e12823          	sw	a4,48(sp)
   17a30:	40f00733          	neg	a4,a5
   17a34:	02e12c23          	sw	a4,56(sp)
   17a38:	a49ff06f          	j	17480 <__gdtoa+0x318>
   17a3c:	00050593          	mv	a1,a0
   17a40:	00048513          	mv	a0,s1
   17a44:	638010ef          	jal	ra,1907c <__rshift_D2A>
   17a48:	08c12683          	lw	a3,140(sp)
   17a4c:	015687b3          	add	a5,a3,s5
   17a50:	02f12223          	sw	a5,36(sp)
   17a54:	40dc0c33          	sub	s8,s8,a3
   17a58:	85dff06f          	j	172b4 <__gdtoa+0x14c>
   17a5c:	02812783          	lw	a5,40(sp)
   17a60:	00012823          	sw	zero,16(sp)
   17a64:	3fd78793          	addi	a5,a5,1021 # ffff83fd <__BSS_END__+0xfffd46f1>
   17a68:	7f87ba13          	sltiu	s4,a5,2040
   17a6c:	000b8513          	mv	a0,s7
   17a70:	4e5060ef          	jal	ra,1e754 <__floatsidf>
   17a74:	ed01a603          	lw	a2,-304(gp) # 23998 <__SDATA_BEGIN__+0x28>
   17a78:	ed41a683          	lw	a3,-300(gp) # 2399c <__SDATA_BEGIN__+0x2c>
   17a7c:	601050ef          	jal	ra,1d87c <__muldf3>
   17a80:	455060ef          	jal	ra,1e6d4 <__fixdfsi>
   17a84:	00100793          	li	a5,1
   17a88:	00350593          	addi	a1,a0,3
   17a8c:	04f12023          	sw	a5,64(sp)
   17a90:	fff00793          	li	a5,-1
   17a94:	00058693          	mv	a3,a1
   17a98:	00012c23          	sw	zero,24(sp)
   17a9c:	04f12a23          	sw	a5,84(sp)
   17aa0:	02f12a23          	sw	a5,52(sp)
   17aa4:	a51ff06f          	j	174f4 <__gdtoa+0x38c>
   17aa8:	02812783          	lw	a5,40(sp)
   17aac:	00300693          	li	a3,3
   17ab0:	40f687b3          	sub	a5,a3,a5
   17ab4:	02f12423          	sw	a5,40(sp)
   17ab8:	03412783          	lw	a5,52(sp)
   17abc:	00e00693          	li	a3,14
   17ac0:	a6f6e2e3          	bltu	a3,a5,17524 <__gdtoa+0x3bc>
   17ac4:	a60a00e3          	beqz	s4,17524 <__gdtoa+0x3bc>
   17ac8:	03c12703          	lw	a4,60(sp)
   17acc:	02812683          	lw	a3,40(sp)
   17ad0:	00d766b3          	or	a3,a4,a3
   17ad4:	a40698e3          	bnez	a3,17524 <__gdtoa+0x3bc>
   17ad8:	05012703          	lw	a4,80(sp)
   17adc:	08012623          	sw	zero,140(sp)
   17ae0:	05312c23          	sw	s3,88(sp)
   17ae4:	04412b03          	lw	s6,68(sp)
   17ae8:	02070263          	beqz	a4,17b0c <__gdtoa+0x9a4>
   17aec:	ed81a603          	lw	a2,-296(gp) # 239a0 <__SDATA_BEGIN__+0x30>
   17af0:	edc1a683          	lw	a3,-292(gp) # 239a4 <__SDATA_BEGIN__+0x34>
   17af4:	000b0513          	mv	a0,s6
   17af8:	00098593          	mv	a1,s3
   17afc:	03e12423          	sw	t5,40(sp)
   17b00:	4a1050ef          	jal	ra,1d7a0 <__ledf2>
   17b04:	02812f03          	lw	t5,40(sp)
   17b08:	66054ce3          	bltz	a0,18980 <__gdtoa+0x1818>
   17b0c:	04412783          	lw	a5,68(sp)
   17b10:	03e12423          	sw	t5,40(sp)
   17b14:	00078613          	mv	a2,a5
   17b18:	00078513          	mv	a0,a5
   17b1c:	05812783          	lw	a5,88(sp)
   17b20:	00078693          	mv	a3,a5
   17b24:	00078593          	mv	a1,a5
   17b28:	39d040ef          	jal	ra,1c6c4 <__adddf3>
   17b2c:	ef01a603          	lw	a2,-272(gp) # 239b8 <__SDATA_BEGIN__+0x48>
   17b30:	ef41a683          	lw	a3,-268(gp) # 239bc <__SDATA_BEGIN__+0x4c>
   17b34:	391040ef          	jal	ra,1c6c4 <__adddf3>
   17b38:	fcc007b7          	lui	a5,0xfcc00
   17b3c:	00b78a33          	add	s4,a5,a1
   17b40:	03412783          	lw	a5,52(sp)
   17b44:	02812f03          	lw	t5,40(sp)
   17b48:	00050713          	mv	a4,a0
   17b4c:	280782e3          	beqz	a5,185d0 <__gdtoa+0x1468>
   17b50:	03412783          	lw	a5,52(sp)
   17b54:	04412e83          	lw	t4,68(sp)
   17b58:	05812803          	lw	a6,88(sp)
   17b5c:	06012023          	sw	zero,96(sp)
   17b60:	04f12e23          	sw	a5,92(sp)
   17b64:	05c12683          	lw	a3,92(sp)
   17b68:	000227b7          	lui	a5,0x22
   17b6c:	04012583          	lw	a1,64(sp)
   17b70:	fff68693          	addi	a3,a3,-1
   17b74:	f0078613          	addi	a2,a5,-256 # 21f00 <__mprec_tens>
   17b78:	00369693          	slli	a3,a3,0x3
   17b7c:	00c686b3          	add	a3,a3,a2
   17b80:	07012223          	sw	a6,100(sp)
   17b84:	03d12423          	sw	t4,40(sp)
   17b88:	0006a603          	lw	a2,0(a3)
   17b8c:	0046a683          	lw	a3,4(a3)
   17b90:	42058ce3          	beqz	a1,187c8 <__gdtoa+0x1660>
   17b94:	f001a503          	lw	a0,-256(gp) # 239c8 <__SDATA_BEGIN__+0x58>
   17b98:	f041a583          	lw	a1,-252(gp) # 239cc <__SDATA_BEGIN__+0x5c>
   17b9c:	06f12e23          	sw	a5,124(sp)
   17ba0:	001f0b13          	addi	s6,t5,1
   17ba4:	07e12a23          	sw	t5,116(sp)
   17ba8:	04e12423          	sw	a4,72(sp)
   17bac:	2ac050ef          	jal	ra,1ce58 <__divdf3>
   17bb0:	04812703          	lw	a4,72(sp)
   17bb4:	000a0693          	mv	a3,s4
   17bb8:	00070613          	mv	a2,a4
   17bbc:	370060ef          	jal	ra,1df2c <__subdf3>
   17bc0:	02812e83          	lw	t4,40(sp)
   17bc4:	06412803          	lw	a6,100(sp)
   17bc8:	00050613          	mv	a2,a0
   17bcc:	00058693          	mv	a3,a1
   17bd0:	000e8513          	mv	a0,t4
   17bd4:	00080593          	mv	a1,a6
   17bd8:	07d12423          	sw	t4,104(sp)
   17bdc:	05012423          	sw	a6,72(sp)
   17be0:	06c12623          	sw	a2,108(sp)
   17be4:	06d12823          	sw	a3,112(sp)
   17be8:	2ed060ef          	jal	ra,1e6d4 <__fixdfsi>
   17bec:	02a12423          	sw	a0,40(sp)
   17bf0:	365060ef          	jal	ra,1e754 <__floatsidf>
   17bf4:	06812e83          	lw	t4,104(sp)
   17bf8:	04812803          	lw	a6,72(sp)
   17bfc:	00050613          	mv	a2,a0
   17c00:	00058693          	mv	a3,a1
   17c04:	000e8513          	mv	a0,t4
   17c08:	00080593          	mv	a1,a6
   17c0c:	320060ef          	jal	ra,1df2c <__subdf3>
   17c10:	02812e03          	lw	t3,40(sp)
   17c14:	07412f03          	lw	t5,116(sp)
   17c18:	00050613          	mv	a2,a0
   17c1c:	00058693          	mv	a3,a1
   17c20:	00050a13          	mv	s4,a0
   17c24:	00058993          	mv	s3,a1
   17c28:	06c12503          	lw	a0,108(sp)
   17c2c:	07012583          	lw	a1,112(sp)
   17c30:	030e0e13          	addi	t3,t3,48
   17c34:	01cf0023          	sb	t3,0(t5)
   17c38:	03e12423          	sw	t5,40(sp)
   17c3c:	289050ef          	jal	ra,1d6c4 <__gedf2>
   17c40:	02812f03          	lw	t5,40(sp)
   17c44:	68a042e3          	bgtz	a0,18ac8 <__gdtoa+0x1960>
   17c48:	ed81a783          	lw	a5,-296(gp) # 239a0 <__SDATA_BEGIN__+0x30>
   17c4c:	edc1a803          	lw	a6,-292(gp) # 239a4 <__SDATA_BEGIN__+0x34>
   17c50:	04f12423          	sw	a5,72(sp)
   17c54:	05012623          	sw	a6,76(sp)
   17c58:	ee01a783          	lw	a5,-288(gp) # 239a8 <__SDATA_BEGIN__+0x38>
   17c5c:	ee41a803          	lw	a6,-284(gp) # 239ac <__SDATA_BEGIN__+0x3c>
   17c60:	06912223          	sw	s1,100(sp)
   17c64:	07712a23          	sw	s7,116(sp)
   17c68:	07812c23          	sw	s8,120(sp)
   17c6c:	06c12483          	lw	s1,108(sp)
   17c70:	05c12c03          	lw	s8,92(sp)
   17c74:	07012b83          	lw	s7,112(sp)
   17c78:	02f12423          	sw	a5,40(sp)
   17c7c:	03012623          	sw	a6,44(sp)
   17c80:	05e12e23          	sw	t5,92(sp)
   17c84:	06812423          	sw	s0,104(sp)
   17c88:	0800006f          	j	17d08 <__gdtoa+0xba0>
   17c8c:	08c12783          	lw	a5,140(sp)
   17c90:	00178793          	addi	a5,a5,1
   17c94:	08f12623          	sw	a5,140(sp)
   17c98:	6b87d6e3          	bge	a5,s8,18b44 <__gdtoa+0x19dc>
   17c9c:	3e1050ef          	jal	ra,1d87c <__muldf3>
   17ca0:	02812603          	lw	a2,40(sp)
   17ca4:	02c12683          	lw	a3,44(sp)
   17ca8:	00050493          	mv	s1,a0
   17cac:	00058b93          	mv	s7,a1
   17cb0:	000a0513          	mv	a0,s4
   17cb4:	00098593          	mv	a1,s3
   17cb8:	3c5050ef          	jal	ra,1d87c <__muldf3>
   17cbc:	00058a13          	mv	s4,a1
   17cc0:	00050413          	mv	s0,a0
   17cc4:	211060ef          	jal	ra,1e6d4 <__fixdfsi>
   17cc8:	00050993          	mv	s3,a0
   17ccc:	289060ef          	jal	ra,1e754 <__floatsidf>
   17cd0:	00050613          	mv	a2,a0
   17cd4:	00058693          	mv	a3,a1
   17cd8:	00040513          	mv	a0,s0
   17cdc:	000a0593          	mv	a1,s4
   17ce0:	24c060ef          	jal	ra,1df2c <__subdf3>
   17ce4:	03098793          	addi	a5,s3,48
   17ce8:	00048613          	mv	a2,s1
   17cec:	000b8693          	mv	a3,s7
   17cf0:	00fb0023          	sb	a5,0(s6)
   17cf4:	001b0b13          	addi	s6,s6,1
   17cf8:	00050a13          	mv	s4,a0
   17cfc:	00058993          	mv	s3,a1
   17d00:	2a1050ef          	jal	ra,1d7a0 <__ledf2>
   17d04:	5a054ce3          	bltz	a0,18abc <__gdtoa+0x1954>
   17d08:	04812503          	lw	a0,72(sp)
   17d0c:	04c12583          	lw	a1,76(sp)
   17d10:	000a0613          	mv	a2,s4
   17d14:	00098693          	mv	a3,s3
   17d18:	214060ef          	jal	ra,1df2c <__subdf3>
   17d1c:	00050613          	mv	a2,a0
   17d20:	00058693          	mv	a3,a1
   17d24:	00048513          	mv	a0,s1
   17d28:	000b8593          	mv	a1,s7
   17d2c:	199050ef          	jal	ra,1d6c4 <__gedf2>
   17d30:	00050793          	mv	a5,a0
   17d34:	02812603          	lw	a2,40(sp)
   17d38:	02c12683          	lw	a3,44(sp)
   17d3c:	00048513          	mv	a0,s1
   17d40:	000b8593          	mv	a1,s7
   17d44:	f4f054e3          	blez	a5,17c8c <__gdtoa+0xb24>
   17d48:	06012783          	lw	a5,96(sp)
   17d4c:	06412483          	lw	s1,100(sp)
   17d50:	05c12f03          	lw	t5,92(sp)
   17d54:	06812403          	lw	s0,104(sp)
   17d58:	fffb4b83          	lbu	s7,-1(s6)
   17d5c:	00178d93          	addi	s11,a5,1
   17d60:	03900693          	li	a3,57
   17d64:	0100006f          	j	17d74 <__gdtoa+0xc0c>
   17d68:	24ff0ae3          	beq	t5,a5,187bc <__gdtoa+0x1654>
   17d6c:	fff7cb83          	lbu	s7,-1(a5)
   17d70:	00078b13          	mv	s6,a5
   17d74:	fffb0793          	addi	a5,s6,-1
   17d78:	fedb88e3          	beq	s7,a3,17d68 <__gdtoa+0xc00>
   17d7c:	001b8693          	addi	a3,s7,1
   17d80:	0ff6f693          	andi	a3,a3,255
   17d84:	00d78023          	sb	a3,0(a5)
   17d88:	000d8b93          	mv	s7,s11
   17d8c:	02000c93          	li	s9,32
   17d90:	2100006f          	j	17fa0 <__gdtoa+0xe38>
   17d94:	0c812403          	lw	s0,200(sp)
   17d98:	0c412483          	lw	s1,196(sp)
   17d9c:	0c012903          	lw	s2,192(sp)
   17da0:	0b412a83          	lw	s5,180(sp)
   17da4:	0ac12b83          	lw	s7,172(sp)
   17da8:	09c12d83          	lw	s11,156(sp)
   17dac:	00000f13          	li	t5,0
   17db0:	bb1ff06f          	j	17960 <__gdtoa+0x7f8>
   17db4:	00100693          	li	a3,1
   17db8:	414687b3          	sub	a5,a3,s4
   17dbc:	02f12823          	sw	a5,48(sp)
   17dc0:	02012023          	sw	zero,32(sp)
   17dc4:	c4dff06f          	j	17a10 <__gdtoa+0x8a8>
   17dc8:	03812b03          	lw	s6,56(sp)
   17dcc:	03012a03          	lw	s4,48(sp)
   17dd0:	00000993          	li	s3,0
   17dd4:	ffcff06f          	j	175d0 <__gdtoa+0x468>
   17dd8:	00200793          	li	a5,2
   17ddc:	02f12423          	sw	a5,40(sp)
   17de0:	f3cff06f          	j	1751c <__gdtoa+0x3b4>
   17de4:	01c12783          	lw	a5,28(sp)
   17de8:	04012823          	sw	zero,80(sp)
   17dec:	fff78793          	addi	a5,a5,-1
   17df0:	00f12e23          	sw	a5,28(sp)
   17df4:	c11ff06f          	j	17a04 <__gdtoa+0x89c>
   17df8:	ffc78793          	addi	a5,a5,-4
   17dfc:	00f12823          	sw	a5,16(sp)
   17e00:	00400613          	li	a2,4
   17e04:	22c78863          	beq	a5,a2,18034 <__gdtoa+0xecc>
   17e08:	6ed78063          	beq	a5,a3,184e8 <__gdtoa+0x1380>
   17e0c:	00200693          	li	a3,2
   17e10:	04012023          	sw	zero,64(sp)
   17e14:	00000a13          	li	s4,0
   17e18:	22d78463          	beq	a5,a3,18040 <__gdtoa+0xed8>
   17e1c:	00300793          	li	a5,3
   17e20:	00f12823          	sw	a5,16(sp)
   17e24:	eacff06f          	j	174d0 <__gdtoa+0x368>
   17e28:	000226b7          	lui	a3,0x22
   17e2c:	00379793          	slli	a5,a5,0x3
   17e30:	f0068693          	addi	a3,a3,-256 # 21f00 <__mprec_tens>
   17e34:	00d787b3          	add	a5,a5,a3
   17e38:	0007aa03          	lw	s4,0(a5)
   17e3c:	0047aa83          	lw	s5,4(a5)
   17e40:	01812783          	lw	a5,24(sp)
   17e44:	5407c263          	bltz	a5,18388 <__gdtoa+0x1220>
   17e48:	04812b03          	lw	s6,72(sp)
   17e4c:	00100793          	li	a5,1
   17e50:	000a0613          	mv	a2,s4
   17e54:	000a8693          	mv	a3,s5
   17e58:	000b0513          	mv	a0,s6
   17e5c:	00098593          	mv	a1,s3
   17e60:	01e12823          	sw	t5,16(sp)
   17e64:	08f12623          	sw	a5,140(sp)
   17e68:	7f1040ef          	jal	ra,1ce58 <__divdf3>
   17e6c:	069060ef          	jal	ra,1e6d4 <__fixdfsi>
   17e70:	00050913          	mv	s2,a0
   17e74:	0e1060ef          	jal	ra,1e754 <__floatsidf>
   17e78:	000a0613          	mv	a2,s4
   17e7c:	000a8693          	mv	a3,s5
   17e80:	1fd050ef          	jal	ra,1d87c <__muldf3>
   17e84:	00050613          	mv	a2,a0
   17e88:	00058693          	mv	a3,a1
   17e8c:	000b0513          	mv	a0,s6
   17e90:	00098593          	mv	a1,s3
   17e94:	098060ef          	jal	ra,1df2c <__subdf3>
   17e98:	01012f03          	lw	t5,16(sp)
   17e9c:	03c12703          	lw	a4,60(sp)
   17ea0:	03090793          	addi	a5,s2,48
   17ea4:	00ff0023          	sb	a5,0(t5)
   17ea8:	00000613          	li	a2,0
   17eac:	00000693          	li	a3,0
   17eb0:	00170d93          	addi	s11,a4,1
   17eb4:	001f0b13          	addi	s6,t5,1
   17eb8:	00050c13          	mv	s8,a0
   17ebc:	00058993          	mv	s3,a1
   17ec0:	778050ef          	jal	ra,1d638 <__eqdf2>
   17ec4:	01012f03          	lw	t5,16(sp)
   17ec8:	000d8b93          	mv	s7,s11
   17ecc:	0c050a63          	beqz	a0,17fa0 <__gdtoa+0xe38>
   17ed0:	ee41a803          	lw	a6,-284(gp) # 239ac <__SDATA_BEGIN__+0x3c>
   17ed4:	ee01a783          	lw	a5,-288(gp) # 239a8 <__SDATA_BEGIN__+0x38>
   17ed8:	01912e23          	sw	s9,28(sp)
   17edc:	01b12c23          	sw	s11,24(sp)
   17ee0:	03412c83          	lw	s9,52(sp)
   17ee4:	000c0d93          	mv	s11,s8
   17ee8:	00f12823          	sw	a5,16(sp)
   17eec:	00098c13          	mv	s8,s3
   17ef0:	01012a23          	sw	a6,20(sp)
   17ef4:	000f0993          	mv	s3,t5
   17ef8:	0700006f          	j	17f68 <__gdtoa+0xe00>
   17efc:	09112623          	sw	a7,140(sp)
   17f00:	17d050ef          	jal	ra,1d87c <__muldf3>
   17f04:	000a0613          	mv	a2,s4
   17f08:	000a8693          	mv	a3,s5
   17f0c:	00050d93          	mv	s11,a0
   17f10:	00058c13          	mv	s8,a1
   17f14:	745040ef          	jal	ra,1ce58 <__divdf3>
   17f18:	7bc060ef          	jal	ra,1e6d4 <__fixdfsi>
   17f1c:	00050913          	mv	s2,a0
   17f20:	035060ef          	jal	ra,1e754 <__floatsidf>
   17f24:	000a0613          	mv	a2,s4
   17f28:	000a8693          	mv	a3,s5
   17f2c:	151050ef          	jal	ra,1d87c <__muldf3>
   17f30:	00050613          	mv	a2,a0
   17f34:	00058693          	mv	a3,a1
   17f38:	000d8513          	mv	a0,s11
   17f3c:	000c0593          	mv	a1,s8
   17f40:	7ed050ef          	jal	ra,1df2c <__subdf3>
   17f44:	001b0b13          	addi	s6,s6,1
   17f48:	03090793          	addi	a5,s2,48
   17f4c:	fefb0fa3          	sb	a5,-1(s6)
   17f50:	00000613          	li	a2,0
   17f54:	00000693          	li	a3,0
   17f58:	00050d93          	mv	s11,a0
   17f5c:	00058c13          	mv	s8,a1
   17f60:	6d8050ef          	jal	ra,1d638 <__eqdf2>
   17f64:	40050c63          	beqz	a0,1837c <__gdtoa+0x1214>
   17f68:	08c12803          	lw	a6,140(sp)
   17f6c:	01012603          	lw	a2,16(sp)
   17f70:	01412683          	lw	a3,20(sp)
   17f74:	000d8513          	mv	a0,s11
   17f78:	000c0593          	mv	a1,s8
   17f7c:	00180893          	addi	a7,a6,1
   17f80:	f7981ee3          	bne	a6,s9,17efc <__gdtoa+0xd94>
   17f84:	02812703          	lw	a4,40(sp)
   17f88:	01812d83          	lw	s11,24(sp)
   17f8c:	00098f13          	mv	t5,s3
   17f90:	7a070a63          	beqz	a4,18744 <__gdtoa+0x15dc>
   17f94:	00100793          	li	a5,1
   17f98:	01000c93          	li	s9,16
   17f9c:	1cf70ee3          	beq	a4,a5,18978 <__gdtoa+0x1810>
   17fa0:	00048593          	mv	a1,s1
   17fa4:	00040513          	mv	a0,s0
   17fa8:	01e12823          	sw	t5,16(sp)
   17fac:	33c010ef          	jal	ra,192e8 <_Bfree>
   17fb0:	00812783          	lw	a5,8(sp)
   17fb4:	000b0023          	sb	zero,0(s6)
   17fb8:	01012f03          	lw	t5,16(sp)
   17fbc:	0177a023          	sw	s7,0(a5)
   17fc0:	00c12783          	lw	a5,12(sp)
   17fc4:	00078463          	beqz	a5,17fcc <__gdtoa+0xe64>
   17fc8:	0167a023          	sw	s6,0(a5)
   17fcc:	000d2783          	lw	a5,0(s10)
   17fd0:	0c812403          	lw	s0,200(sp)
   17fd4:	0c412483          	lw	s1,196(sp)
   17fd8:	0197e7b3          	or	a5,a5,s9
   17fdc:	0c012903          	lw	s2,192(sp)
   17fe0:	0bc12983          	lw	s3,188(sp)
   17fe4:	0b812a03          	lw	s4,184(sp)
   17fe8:	0b412a83          	lw	s5,180(sp)
   17fec:	0ac12b83          	lw	s7,172(sp)
   17ff0:	0a812c03          	lw	s8,168(sp)
   17ff4:	09c12d83          	lw	s11,156(sp)
   17ff8:	00fd2023          	sw	a5,0(s10)
   17ffc:	965ff06f          	j	17960 <__gdtoa+0x7f8>
   18000:	e6dc1663          	bne	s8,a3,1766c <__gdtoa+0x504>
   18004:	004da783          	lw	a5,4(s11)
   18008:	00178793          	addi	a5,a5,1
   1800c:	e757d063          	bge	a5,s5,1766c <__gdtoa+0x504>
   18010:	03012783          	lw	a5,48(sp)
   18014:	00178793          	addi	a5,a5,1
   18018:	02f12823          	sw	a5,48(sp)
   1801c:	02012783          	lw	a5,32(sp)
   18020:	00178793          	addi	a5,a5,1
   18024:	02f12023          	sw	a5,32(sp)
   18028:	00100793          	li	a5,1
   1802c:	00f12e23          	sw	a5,28(sp)
   18030:	e3cff06f          	j	1766c <__gdtoa+0x504>
   18034:	00100793          	li	a5,1
   18038:	00000a13          	li	s4,0
   1803c:	04f12023          	sw	a5,64(sp)
   18040:	01812583          	lw	a1,24(sp)
   18044:	00b04463          	bgtz	a1,1804c <__gdtoa+0xee4>
   18048:	00100593          	li	a1,1
   1804c:	00058693          	mv	a3,a1
   18050:	04b12a23          	sw	a1,84(sp)
   18054:	02b12a23          	sw	a1,52(sp)
   18058:	00b12c23          	sw	a1,24(sp)
   1805c:	c98ff06f          	j	174f4 <__gdtoa+0x38c>
   18060:	2ac010ef          	jal	ra,1930c <__multadd>
   18064:	00050993          	mv	s3,a0
   18068:	960500e3          	beqz	a0,179c8 <__gdtoa+0x860>
   1806c:	00050a13          	mv	s4,a0
   18070:	f1cff06f          	j	1778c <__gdtoa+0x624>
   18074:	ea0ad663          	bgez	s5,17720 <__gdtoa+0x5b8>
   18078:	02812783          	lw	a5,40(sp)
   1807c:	01812f03          	lw	t5,24(sp)
   18080:	01c12d03          	lw	s10,28(sp)
   18084:	00070c93          	mv	s9,a4
   18088:	3a079ee3          	bnez	a5,18c44 <__gdtoa+0x1adc>
   1808c:	0104a683          	lw	a3,16(s1)
   18090:	00100793          	li	a5,1
   18094:	01000c93          	li	s9,16
   18098:	001c0913          	addi	s2,s8,1
   1809c:	34d7d0e3          	bge	a5,a3,18bdc <__gdtoa+0x1a74>
   180a0:	00098a93          	mv	s5,s3
   180a4:	00090b13          	mv	s6,s2
   180a8:	01bc0023          	sb	s11,0(s8)
   180ac:	000a0993          	mv	s3,s4
   180b0:	000b8593          	mv	a1,s7
   180b4:	00040513          	mv	a0,s0
   180b8:	01e12823          	sw	t5,16(sp)
   180bc:	22c010ef          	jal	ra,192e8 <_Bfree>
   180c0:	03c12783          	lw	a5,60(sp)
   180c4:	01012f03          	lw	t5,16(sp)
   180c8:	00178b93          	addi	s7,a5,1
   180cc:	ec098ae3          	beqz	s3,17fa0 <__gdtoa+0xe38>
   180d0:	000a8c63          	beqz	s5,180e8 <__gdtoa+0xf80>
   180d4:	013a8a63          	beq	s5,s3,180e8 <__gdtoa+0xf80>
   180d8:	000a8593          	mv	a1,s5
   180dc:	00040513          	mv	a0,s0
   180e0:	208010ef          	jal	ra,192e8 <_Bfree>
   180e4:	01012f03          	lw	t5,16(sp)
   180e8:	00098593          	mv	a1,s3
   180ec:	00040513          	mv	a0,s0
   180f0:	01e12823          	sw	t5,16(sp)
   180f4:	1f4010ef          	jal	ra,192e8 <_Bfree>
   180f8:	01012f03          	lw	t5,16(sp)
   180fc:	ea5ff06f          	j	17fa0 <__gdtoa+0xe38>
   18100:	00048593          	mv	a1,s1
   18104:	00040513          	mv	a0,s0
   18108:	03e12223          	sw	t5,36(sp)
   1810c:	2e1010ef          	jal	ra,19bec <__lshift>
   18110:	00050493          	mv	s1,a0
   18114:	8a050ae3          	beqz	a0,179c8 <__gdtoa+0x860>
   18118:	08c12783          	lw	a5,140(sp)
   1811c:	02412f03          	lw	t5,36(sp)
   18120:	d74ff06f          	j	17694 <__gdtoa+0x52c>
   18124:	000b8593          	mv	a1,s7
   18128:	00048513          	mv	a0,s1
   1812c:	03e12023          	sw	t5,32(sp)
   18130:	44d010ef          	jal	ra,19d7c <__mcmp>
   18134:	02012f03          	lw	t5,32(sp)
   18138:	d6055863          	bgez	a0,176a8 <__gdtoa+0x540>
   1813c:	03c12783          	lw	a5,60(sp)
   18140:	00048593          	mv	a1,s1
   18144:	00000693          	li	a3,0
   18148:	fff78793          	addi	a5,a5,-1
   1814c:	00a00613          	li	a2,10
   18150:	00040513          	mv	a0,s0
   18154:	02f12e23          	sw	a5,60(sp)
   18158:	1b4010ef          	jal	ra,1930c <__multadd>
   1815c:	00050493          	mv	s1,a0
   18160:	860504e3          	beqz	a0,179c8 <__gdtoa+0x860>
   18164:	04012783          	lw	a5,64(sp)
   18168:	02012f03          	lw	t5,32(sp)
   1816c:	100792e3          	bnez	a5,18a70 <__gdtoa+0x1908>
   18170:	05412783          	lw	a5,84(sp)
   18174:	1ef05863          	blez	a5,18364 <__gdtoa+0x11fc>
   18178:	02f12a23          	sw	a5,52(sp)
   1817c:	03412903          	lw	s2,52(sp)
   18180:	000f0c13          	mv	s8,t5
   18184:	00100793          	li	a5,1
   18188:	000f0a13          	mv	s4,t5
   1818c:	0180006f          	j	181a4 <__gdtoa+0x103c>
   18190:	17c010ef          	jal	ra,1930c <__multadd>
   18194:	00050493          	mv	s1,a0
   18198:	820508e3          	beqz	a0,179c8 <__gdtoa+0x860>
   1819c:	08c12783          	lw	a5,140(sp)
   181a0:	00178793          	addi	a5,a5,1
   181a4:	000b8593          	mv	a1,s7
   181a8:	00048513          	mv	a0,s1
   181ac:	08f12623          	sw	a5,140(sp)
   181b0:	45d000ef          	jal	ra,18e0c <__quorem_D2A>
   181b4:	03050d93          	addi	s11,a0,48
   181b8:	01bc0023          	sb	s11,0(s8)
   181bc:	08c12783          	lw	a5,140(sp)
   181c0:	00000693          	li	a3,0
   181c4:	00a00613          	li	a2,10
   181c8:	00048593          	mv	a1,s1
   181cc:	00040513          	mv	a0,s0
   181d0:	001c0c13          	addi	s8,s8,1
   181d4:	fb27cee3          	blt	a5,s2,18190 <__gdtoa+0x1028>
   181d8:	000a0f13          	mv	t5,s4
   181dc:	00000a93          	li	s5,0
   181e0:	02812703          	lw	a4,40(sp)
   181e4:	48070463          	beqz	a4,1866c <__gdtoa+0x1504>
   181e8:	00200793          	li	a5,2
   181ec:	0104a683          	lw	a3,16(s1)
   181f0:	4af70a63          	beq	a4,a5,186a4 <__gdtoa+0x153c>
   181f4:	00100793          	li	a5,1
   181f8:	2ad7c263          	blt	a5,a3,1849c <__gdtoa+0x1334>
   181fc:	0144a783          	lw	a5,20(s1)
   18200:	28079e63          	bnez	a5,1849c <__gdtoa+0x1334>
   18204:	00f037b3          	snez	a5,a5
   18208:	00479c93          	slli	s9,a5,0x4
   1820c:	03000693          	li	a3,48
   18210:	fffc4783          	lbu	a5,-1(s8)
   18214:	000c0b13          	mv	s6,s8
   18218:	fffc0c13          	addi	s8,s8,-1
   1821c:	fed78ae3          	beq	a5,a3,18210 <__gdtoa+0x10a8>
   18220:	e91ff06f          	j	180b0 <__gdtoa+0xf48>
   18224:	03412783          	lw	a5,52(sp)
   18228:	03812703          	lw	a4,56(sp)
   1822c:	fff78693          	addi	a3,a5,-1
   18230:	1ad74863          	blt	a4,a3,183e0 <__gdtoa+0x1278>
   18234:	40d70b33          	sub	s6,a4,a3
   18238:	7c07d263          	bgez	a5,189fc <__gdtoa+0x1894>
   1823c:	03012783          	lw	a5,48(sp)
   18240:	03412703          	lw	a4,52(sp)
   18244:	08012623          	sw	zero,140(sp)
   18248:	40e78a33          	sub	s4,a5,a4
   1824c:	b68ff06f          	j	175b4 <__gdtoa+0x44c>
   18250:	01012703          	lw	a4,16(sp)
   18254:	00200793          	li	a5,2
   18258:	c4e7dc63          	bge	a5,a4,176b0 <__gdtoa+0x548>
   1825c:	000b8593          	mv	a1,s7
   18260:	00000693          	li	a3,0
   18264:	00500613          	li	a2,5
   18268:	00040513          	mv	a0,s0
   1826c:	01e12823          	sw	t5,16(sp)
   18270:	09c010ef          	jal	ra,1930c <__multadd>
   18274:	00050593          	mv	a1,a0
   18278:	f4050863          	beqz	a0,179c8 <__gdtoa+0x860>
   1827c:	03412783          	lw	a5,52(sp)
   18280:	01012f03          	lw	t5,16(sp)
   18284:	14079463          	bnez	a5,183cc <__gdtoa+0x1264>
   18288:	00a12823          	sw	a0,16(sp)
   1828c:	00048513          	mv	a0,s1
   18290:	01e12e23          	sw	t5,28(sp)
   18294:	2e9010ef          	jal	ra,19d7c <__mcmp>
   18298:	01012583          	lw	a1,16(sp)
   1829c:	01c12f03          	lw	t5,28(sp)
   182a0:	12a05663          	blez	a0,183cc <__gdtoa+0x1264>
   182a4:	03c12783          	lw	a5,60(sp)
   182a8:	00278b93          	addi	s7,a5,2
   182ac:	03100793          	li	a5,49
   182b0:	001f0b13          	addi	s6,t5,1
   182b4:	00ff0023          	sb	a5,0(t5)
   182b8:	02000c93          	li	s9,32
   182bc:	00040513          	mv	a0,s0
   182c0:	01e12823          	sw	t5,16(sp)
   182c4:	024010ef          	jal	ra,192e8 <_Bfree>
   182c8:	01012f03          	lw	t5,16(sp)
   182cc:	cc098ae3          	beqz	s3,17fa0 <__gdtoa+0xe38>
   182d0:	e19ff06f          	j	180e8 <__gdtoa+0xf80>
   182d4:	00100693          	li	a3,1
   182d8:	00100593          	li	a1,1
   182dc:	a18ff06f          	j	174f4 <__gdtoa+0x38c>
   182e0:	00050593          	mv	a1,a0
   182e4:	00078613          	mv	a2,a5
   182e8:	00040513          	mv	a0,s0
   182ec:	7b0010ef          	jal	ra,19a9c <__pow5mult>
   182f0:	00050b93          	mv	s7,a0
   182f4:	ec050a63          	beqz	a0,179c8 <__gdtoa+0x860>
   182f8:	01012783          	lw	a5,16(sp)
   182fc:	00100693          	li	a3,1
   18300:	02412f03          	lw	t5,36(sp)
   18304:	20f6da63          	bge	a3,a5,18518 <__gdtoa+0x13b0>
   18308:	010ba783          	lw	a5,16(s7)
   1830c:	03e12223          	sw	t5,36(sp)
   18310:	00378793          	addi	a5,a5,3
   18314:	00279793          	slli	a5,a5,0x2
   18318:	00fb87b3          	add	a5,s7,a5
   1831c:	0047a503          	lw	a0,4(a5)
   18320:	2ac010ef          	jal	ra,195cc <__hi0bits>
   18324:	02412f03          	lw	t5,36(sp)
   18328:	00050a93          	mv	s5,a0
   1832c:	01912e23          	sw	s9,28(sp)
   18330:	b40ff06f          	j	17670 <__gdtoa+0x508>
   18334:	01012783          	lw	a5,16(sp)
   18338:	00100693          	li	a3,1
   1833c:	eef6c4e3          	blt	a3,a5,18224 <__gdtoa+0x10bc>
   18340:	03012783          	lw	a5,48(sp)
   18344:	02012703          	lw	a4,32(sp)
   18348:	03812b03          	lw	s6,56(sp)
   1834c:	00078a13          	mv	s4,a5
   18350:	00c70733          	add	a4,a4,a2
   18354:	00f607b3          	add	a5,a2,a5
   18358:	02e12023          	sw	a4,32(sp)
   1835c:	02f12823          	sw	a5,48(sp)
   18360:	a54ff06f          	j	175b4 <__gdtoa+0x44c>
   18364:	01012703          	lw	a4,16(sp)
   18368:	00200793          	li	a5,2
   1836c:	08e7cce3          	blt	a5,a4,18c04 <__gdtoa+0x1a9c>
   18370:	05412783          	lw	a5,84(sp)
   18374:	02f12a23          	sw	a5,52(sp)
   18378:	e05ff06f          	j	1817c <__gdtoa+0x1014>
   1837c:	01c12c83          	lw	s9,28(sp)
   18380:	00098f13          	mv	t5,s3
   18384:	c1dff06f          	j	17fa0 <__gdtoa+0xe38>
   18388:	03412783          	lw	a5,52(sp)
   1838c:	aaf04ee3          	bgtz	a5,17e48 <__gdtoa+0xce0>
   18390:	02079a63          	bnez	a5,183c4 <__gdtoa+0x125c>
   18394:	ef81a603          	lw	a2,-264(gp) # 239c0 <__SDATA_BEGIN__+0x50>
   18398:	efc1a683          	lw	a3,-260(gp) # 239c4 <__SDATA_BEGIN__+0x54>
   1839c:	000a0513          	mv	a0,s4
   183a0:	000a8593          	mv	a1,s5
   183a4:	01e12823          	sw	t5,16(sp)
   183a8:	4d4050ef          	jal	ra,1d87c <__muldf3>
   183ac:	04812883          	lw	a7,72(sp)
   183b0:	00098693          	mv	a3,s3
   183b4:	00088613          	mv	a2,a7
   183b8:	30c050ef          	jal	ra,1d6c4 <__gedf2>
   183bc:	01012f03          	lw	t5,16(sp)
   183c0:	68054e63          	bltz	a0,18a5c <__gdtoa+0x18f4>
   183c4:	00000593          	li	a1,0
   183c8:	00000993          	li	s3,0
   183cc:	01812783          	lw	a5,24(sp)
   183d0:	000f0b13          	mv	s6,t5
   183d4:	01000c93          	li	s9,16
   183d8:	40f00bb3          	neg	s7,a5
   183dc:	ee1ff06f          	j	182bc <__gdtoa+0x1154>
   183e0:	03812783          	lw	a5,56(sp)
   183e4:	03012703          	lw	a4,48(sp)
   183e8:	00000b13          	li	s6,0
   183ec:	40f68633          	sub	a2,a3,a5
   183f0:	01c12783          	lw	a5,28(sp)
   183f4:	00070a13          	mv	s4,a4
   183f8:	02d12c23          	sw	a3,56(sp)
   183fc:	00c787b3          	add	a5,a5,a2
   18400:	00f12e23          	sw	a5,28(sp)
   18404:	02012603          	lw	a2,32(sp)
   18408:	03412783          	lw	a5,52(sp)
   1840c:	00f60633          	add	a2,a2,a5
   18410:	08f12623          	sw	a5,140(sp)
   18414:	00f707b3          	add	a5,a4,a5
   18418:	02c12023          	sw	a2,32(sp)
   1841c:	02f12823          	sw	a5,48(sp)
   18420:	994ff06f          	j	175b4 <__gdtoa+0x44c>
   18424:	00098593          	mv	a1,s3
   18428:	000b0613          	mv	a2,s6
   1842c:	00040513          	mv	a0,s0
   18430:	03e12223          	sw	t5,36(sp)
   18434:	668010ef          	jal	ra,19a9c <__pow5mult>
   18438:	00050993          	mv	s3,a0
   1843c:	d8050663          	beqz	a0,179c8 <__gdtoa+0x860>
   18440:	00050593          	mv	a1,a0
   18444:	00048613          	mv	a2,s1
   18448:	00040513          	mv	a0,s0
   1844c:	388010ef          	jal	ra,197d4 <__multiply>
   18450:	00050b93          	mv	s7,a0
   18454:	d6050a63          	beqz	a0,179c8 <__gdtoa+0x860>
   18458:	00048593          	mv	a1,s1
   1845c:	00040513          	mv	a0,s0
   18460:	689000ef          	jal	ra,192e8 <_Bfree>
   18464:	03812783          	lw	a5,56(sp)
   18468:	02412f03          	lw	t5,36(sp)
   1846c:	000b8493          	mv	s1,s7
   18470:	416787b3          	sub	a5,a5,s6
   18474:	02f12c23          	sw	a5,56(sp)
   18478:	9c078263          	beqz	a5,1763c <__gdtoa+0x4d4>
   1847c:	9a0ff06f          	j	1761c <__gdtoa+0x4b4>
   18480:	00098a93          	mv	s5,s3
   18484:	000c0793          	mv	a5,s8
   18488:	001c0913          	addi	s2,s8,1
   1848c:	000a0993          	mv	s3,s4
   18490:	03900693          	li	a3,57
   18494:	00090c13          	mv	s8,s2
   18498:	00d78023          	sb	a3,0(a5)
   1849c:	03900693          	li	a3,57
   184a0:	0080006f          	j	184a8 <__gdtoa+0x1340>
   184a4:	218f0c63          	beq	t5,s8,186bc <__gdtoa+0x1554>
   184a8:	fffc4783          	lbu	a5,-1(s8)
   184ac:	000c0b13          	mv	s6,s8
   184b0:	fffc0c13          	addi	s8,s8,-1
   184b4:	fed788e3          	beq	a5,a3,184a4 <__gdtoa+0x133c>
   184b8:	00178793          	addi	a5,a5,1
   184bc:	00fc0023          	sb	a5,0(s8)
   184c0:	02000c93          	li	s9,32
   184c4:	bedff06f          	j	180b0 <__gdtoa+0xf48>
   184c8:	00098593          	mv	a1,s3
   184cc:	00040513          	mv	a0,s0
   184d0:	01e12c23          	sw	t5,24(sp)
   184d4:	718010ef          	jal	ra,19bec <__lshift>
   184d8:	01812f03          	lw	t5,24(sp)
   184dc:	00050993          	mv	s3,a0
   184e0:	9e051063          	bnez	a0,176c0 <__gdtoa+0x558>
   184e4:	ce4ff06f          	j	179c8 <__gdtoa+0x860>
   184e8:	00100793          	li	a5,1
   184ec:	00000a13          	li	s4,0
   184f0:	04f12023          	sw	a5,64(sp)
   184f4:	fddfe06f          	j	174d0 <__gdtoa+0x368>
   184f8:	00100793          	li	a5,1
   184fc:	04f12023          	sw	a5,64(sp)
   18500:	fd1fe06f          	j	174d0 <__gdtoa+0x368>
   18504:	00100793          	li	a5,1
   18508:	04f12023          	sw	a5,64(sp)
   1850c:	b35ff06f          	j	18040 <__gdtoa+0xed8>
   18510:	04012023          	sw	zero,64(sp)
   18514:	b2dff06f          	j	18040 <__gdtoa+0xed8>
   18518:	dedc18e3          	bne	s8,a3,18308 <__gdtoa+0x11a0>
   1851c:	004da783          	lw	a5,4(s11)
   18520:	00178793          	addi	a5,a5,1
   18524:	df57d2e3          	bge	a5,s5,18308 <__gdtoa+0x11a0>
   18528:	03012783          	lw	a5,48(sp)
   1852c:	00100c93          	li	s9,1
   18530:	00178793          	addi	a5,a5,1
   18534:	02f12823          	sw	a5,48(sp)
   18538:	02012783          	lw	a5,32(sp)
   1853c:	00178793          	addi	a5,a5,1
   18540:	02f12023          	sw	a5,32(sp)
   18544:	dc5ff06f          	j	18308 <__gdtoa+0x11a0>
   18548:	0049a583          	lw	a1,4(s3)
   1854c:	00040513          	mv	a0,s0
   18550:	01e12c23          	sw	t5,24(sp)
   18554:	4e1000ef          	jal	ra,19234 <_Balloc>
   18558:	00050a13          	mv	s4,a0
   1855c:	c6050663          	beqz	a0,179c8 <__gdtoa+0x860>
   18560:	0109a603          	lw	a2,16(s3)
   18564:	00c98593          	addi	a1,s3,12
   18568:	00c50513          	addi	a0,a0,12
   1856c:	00260613          	addi	a2,a2,2
   18570:	00261613          	slli	a2,a2,0x2
   18574:	a70fe0ef          	jal	ra,167e4 <memcpy>
   18578:	000a0593          	mv	a1,s4
   1857c:	00100613          	li	a2,1
   18580:	00040513          	mv	a0,s0
   18584:	668010ef          	jal	ra,19bec <__lshift>
   18588:	01812f03          	lw	t5,24(sp)
   1858c:	00050a13          	mv	s4,a0
   18590:	00050463          	beqz	a0,18598 <__gdtoa+0x1430>
   18594:	938ff06f          	j	176cc <__gdtoa+0x564>
   18598:	c30ff06f          	j	179c8 <__gdtoa+0x860>
   1859c:	000b0613          	mv	a2,s6
   185a0:	00098693          	mv	a3,s3
   185a4:	000b0513          	mv	a0,s6
   185a8:	00098593          	mv	a1,s3
   185ac:	03e12423          	sw	t5,40(sp)
   185b0:	114040ef          	jal	ra,1c6c4 <__adddf3>
   185b4:	ef01a603          	lw	a2,-272(gp) # 239b8 <__SDATA_BEGIN__+0x48>
   185b8:	ef41a683          	lw	a3,-268(gp) # 239bc <__SDATA_BEGIN__+0x4c>
   185bc:	108040ef          	jal	ra,1c6c4 <__adddf3>
   185c0:	02812f03          	lw	t5,40(sp)
   185c4:	fcc007b7          	lui	a5,0xfcc00
   185c8:	00050713          	mv	a4,a0
   185cc:	00b78a33          	add	s4,a5,a1
   185d0:	ef81a603          	lw	a2,-264(gp) # 239c0 <__SDATA_BEGIN__+0x50>
   185d4:	04412503          	lw	a0,68(sp)
   185d8:	efc1a683          	lw	a3,-260(gp) # 239c4 <__SDATA_BEGIN__+0x54>
   185dc:	05812583          	lw	a1,88(sp)
   185e0:	03e12423          	sw	t5,40(sp)
   185e4:	04e12423          	sw	a4,72(sp)
   185e8:	145050ef          	jal	ra,1df2c <__subdf3>
   185ec:	04812703          	lw	a4,72(sp)
   185f0:	000a0693          	mv	a3,s4
   185f4:	00050993          	mv	s3,a0
   185f8:	00070613          	mv	a2,a4
   185fc:	00058b13          	mv	s6,a1
   18600:	0c4050ef          	jal	ra,1d6c4 <__gedf2>
   18604:	02812f03          	lw	t5,40(sp)
   18608:	40a04c63          	bgtz	a0,18a20 <__gdtoa+0x18b8>
   1860c:	04812703          	lw	a4,72(sp)
   18610:	800008b7          	lui	a7,0x80000
   18614:	0148c8b3          	xor	a7,a7,s4
   18618:	00070613          	mv	a2,a4
   1861c:	00098513          	mv	a0,s3
   18620:	00088693          	mv	a3,a7
   18624:	000b0593          	mv	a1,s6
   18628:	178050ef          	jal	ra,1d7a0 <__ledf2>
   1862c:	02812f03          	lw	t5,40(sp)
   18630:	d8054ae3          	bltz	a0,183c4 <__gdtoa+0x125c>
   18634:	04412783          	lw	a5,68(sp)
   18638:	02412703          	lw	a4,36(sp)
   1863c:	05812983          	lw	s3,88(sp)
   18640:	04f12423          	sw	a5,72(sp)
   18644:	000227b7          	lui	a5,0x22
   18648:	4e074a63          	bltz	a4,18b3c <__gdtoa+0x19d4>
   1864c:	f007aa03          	lw	s4,-256(a5) # 21f00 <__mprec_tens>
   18650:	f047aa83          	lw	s5,-252(a5)
   18654:	01812783          	lw	a5,24(sp)
   18658:	02012423          	sw	zero,40(sp)
   1865c:	fe07d663          	bgez	a5,17e48 <__gdtoa+0xce0>
   18660:	03412783          	lw	a5,52(sp)
   18664:	fe079263          	bnez	a5,17e48 <__gdtoa+0xce0>
   18668:	d2dff06f          	j	18394 <__gdtoa+0x122c>
   1866c:	00048593          	mv	a1,s1
   18670:	00100613          	li	a2,1
   18674:	00040513          	mv	a0,s0
   18678:	01e12823          	sw	t5,16(sp)
   1867c:	570010ef          	jal	ra,19bec <__lshift>
   18680:	00050493          	mv	s1,a0
   18684:	b4050263          	beqz	a0,179c8 <__gdtoa+0x860>
   18688:	000b8593          	mv	a1,s7
   1868c:	6f0010ef          	jal	ra,19d7c <__mcmp>
   18690:	01012f03          	lw	t5,16(sp)
   18694:	e0a044e3          	bgtz	a0,1849c <__gdtoa+0x1334>
   18698:	00051663          	bnez	a0,186a4 <__gdtoa+0x153c>
   1869c:	001dfd93          	andi	s11,s11,1
   186a0:	de0d9ee3          	bnez	s11,1849c <__gdtoa+0x1334>
   186a4:	0104a683          	lw	a3,16(s1)
   186a8:	00100793          	li	a5,1
   186ac:	01000c93          	li	s9,16
   186b0:	b4d7cee3          	blt	a5,a3,1820c <__gdtoa+0x10a4>
   186b4:	0144a783          	lw	a5,20(s1)
   186b8:	b4dff06f          	j	18204 <__gdtoa+0x109c>
   186bc:	03c12783          	lw	a5,60(sp)
   186c0:	02000c93          	li	s9,32
   186c4:	00178793          	addi	a5,a5,1
   186c8:	02f12e23          	sw	a5,60(sp)
   186cc:	03100793          	li	a5,49
   186d0:	00ff0023          	sb	a5,0(t5)
   186d4:	9ddff06f          	j	180b0 <__gdtoa+0xf48>
   186d8:	02812783          	lw	a5,40(sp)
   186dc:	01812f03          	lw	t5,24(sp)
   186e0:	01c12d03          	lw	s10,28(sp)
   186e4:	00078e63          	beqz	a5,18700 <__gdtoa+0x1598>
   186e8:	0104a683          	lw	a3,16(s1)
   186ec:	00100793          	li	a5,1
   186f0:	94d7ca63          	blt	a5,a3,17844 <__gdtoa+0x6dc>
   186f4:	0144a783          	lw	a5,20(s1)
   186f8:	00078463          	beqz	a5,18700 <__gdtoa+0x1598>
   186fc:	948ff06f          	j	17844 <__gdtoa+0x6dc>
   18700:	00048593          	mv	a1,s1
   18704:	00100613          	li	a2,1
   18708:	00040513          	mv	a0,s0
   1870c:	01e12823          	sw	t5,16(sp)
   18710:	4dc010ef          	jal	ra,19bec <__lshift>
   18714:	00050493          	mv	s1,a0
   18718:	aa050863          	beqz	a0,179c8 <__gdtoa+0x860>
   1871c:	000b8593          	mv	a1,s7
   18720:	65c010ef          	jal	ra,19d7c <__mcmp>
   18724:	01012f03          	lw	t5,16(sp)
   18728:	4ca05263          	blez	a0,18bec <__gdtoa+0x1a84>
   1872c:	03900793          	li	a5,57
   18730:	d4fd88e3          	beq	s11,a5,18480 <__gdtoa+0x1318>
   18734:	02000793          	li	a5,32
   18738:	031b0d93          	addi	s11,s6,49
   1873c:	02f12423          	sw	a5,40(sp)
   18740:	94dff06f          	j	1808c <__gdtoa+0xf24>
   18744:	00050613          	mv	a2,a0
   18748:	00058693          	mv	a3,a1
   1874c:	01e12823          	sw	t5,16(sp)
   18750:	775030ef          	jal	ra,1c6c4 <__adddf3>
   18754:	000a0613          	mv	a2,s4
   18758:	000a8693          	mv	a3,s5
   1875c:	00050c13          	mv	s8,a0
   18760:	00058993          	mv	s3,a1
   18764:	761040ef          	jal	ra,1d6c4 <__gedf2>
   18768:	fffb4b83          	lbu	s7,-1(s6)
   1876c:	01012f03          	lw	t5,16(sp)
   18770:	dea04863          	bgtz	a0,17d60 <__gdtoa+0xbf8>
   18774:	000c0513          	mv	a0,s8
   18778:	00098593          	mv	a1,s3
   1877c:	000a0613          	mv	a2,s4
   18780:	000a8693          	mv	a3,s5
   18784:	6b5040ef          	jal	ra,1d638 <__eqdf2>
   18788:	01012f03          	lw	t5,16(sp)
   1878c:	00051663          	bnez	a0,18798 <__gdtoa+0x1630>
   18790:	00197913          	andi	s2,s2,1
   18794:	dc091663          	bnez	s2,17d60 <__gdtoa+0xbf8>
   18798:	000b0793          	mv	a5,s6
   1879c:	01000c93          	li	s9,16
   187a0:	03000613          	li	a2,48
   187a4:	fff7c703          	lbu	a4,-1(a5)
   187a8:	00078b13          	mv	s6,a5
   187ac:	fff78793          	addi	a5,a5,-1
   187b0:	fec70ae3          	beq	a4,a2,187a4 <__gdtoa+0x163c>
   187b4:	000d8b93          	mv	s7,s11
   187b8:	fe8ff06f          	j	17fa0 <__gdtoa+0xe38>
   187bc:	03100693          	li	a3,49
   187c0:	001d8d93          	addi	s11,s11,1
   187c4:	dc0ff06f          	j	17d84 <__gdtoa+0xc1c>
   187c8:	00070513          	mv	a0,a4
   187cc:	000a0593          	mv	a1,s4
   187d0:	06f12e23          	sw	a5,124(sp)
   187d4:	07e12823          	sw	t5,112(sp)
   187d8:	0a4050ef          	jal	ra,1d87c <__muldf3>
   187dc:	ee01a783          	lw	a5,-288(gp) # 239a8 <__SDATA_BEGIN__+0x38>
   187e0:	07012f03          	lw	t5,112(sp)
   187e4:	ee41a803          	lw	a6,-284(gp) # 239ac <__SDATA_BEGIN__+0x3c>
   187e8:	04812603          	lw	a2,72(sp)
   187ec:	02f12423          	sw	a5,40(sp)
   187f0:	07c12783          	lw	a5,124(sp)
   187f4:	06b12623          	sw	a1,108(sp)
   187f8:	00000693          	li	a3,0
   187fc:	00100593          	li	a1,1
   18800:	06912823          	sw	s1,112(sp)
   18804:	06812a23          	sw	s0,116(sp)
   18808:	05c12483          	lw	s1,92(sp)
   1880c:	07212c23          	sw	s2,120(sp)
   18810:	03012623          	sw	a6,44(sp)
   18814:	06a12423          	sw	a0,104(sp)
   18818:	08b12623          	sw	a1,140(sp)
   1881c:	07312223          	sw	s3,100(sp)
   18820:	000f0b13          	mv	s6,t5
   18824:	05e12e23          	sw	t5,92(sp)
   18828:	00068413          	mv	s0,a3
   1882c:	00078b93          	mv	s7,a5
   18830:	00060913          	mv	s2,a2
   18834:	0180006f          	j	1884c <__gdtoa+0x16e4>
   18838:	08612623          	sw	t1,140(sp)
   1883c:	040050ef          	jal	ra,1d87c <__muldf3>
   18840:	00050913          	mv	s2,a0
   18844:	00058993          	mv	s3,a1
   18848:	00100413          	li	s0,1
   1884c:	00090513          	mv	a0,s2
   18850:	00098593          	mv	a1,s3
   18854:	681050ef          	jal	ra,1e6d4 <__fixdfsi>
   18858:	00050a13          	mv	s4,a0
   1885c:	02050463          	beqz	a0,18884 <__gdtoa+0x171c>
   18860:	6f5050ef          	jal	ra,1e754 <__floatsidf>
   18864:	00050613          	mv	a2,a0
   18868:	00058693          	mv	a3,a1
   1886c:	00090513          	mv	a0,s2
   18870:	00098593          	mv	a1,s3
   18874:	6b8050ef          	jal	ra,1df2c <__subdf3>
   18878:	00050913          	mv	s2,a0
   1887c:	00058993          	mv	s3,a1
   18880:	00100413          	li	s0,1
   18884:	030a0793          	addi	a5,s4,48
   18888:	001b0b13          	addi	s6,s6,1
   1888c:	0ff7f793          	andi	a5,a5,255
   18890:	fefb0fa3          	sb	a5,-1(s6)
   18894:	08c12883          	lw	a7,140(sp)
   18898:	02812603          	lw	a2,40(sp)
   1889c:	02c12683          	lw	a3,44(sp)
   188a0:	00090513          	mv	a0,s2
   188a4:	00098593          	mv	a1,s3
   188a8:	00188313          	addi	t1,a7,1 # 80000001 <__BSS_END__+0x7ffdc2f5>
   188ac:	f89896e3          	bne	a7,s1,18838 <__gdtoa+0x16d0>
   188b0:	000b8713          	mv	a4,s7
   188b4:	00040693          	mv	a3,s0
   188b8:	00078b93          	mv	s7,a5
   188bc:	07012483          	lw	s1,112(sp)
   188c0:	05c12f03          	lw	t5,92(sp)
   188c4:	07412403          	lw	s0,116(sp)
   188c8:	07812903          	lw	s2,120(sp)
   188cc:	00070793          	mv	a5,a4
   188d0:	00068663          	beqz	a3,188dc <__gdtoa+0x1774>
   188d4:	04a12423          	sw	a0,72(sp)
   188d8:	07312223          	sw	s3,100(sp)
   188dc:	f001a603          	lw	a2,-256(gp) # 239c8 <__SDATA_BEGIN__+0x58>
   188e0:	f041a683          	lw	a3,-252(gp) # 239cc <__SDATA_BEGIN__+0x5c>
   188e4:	06812503          	lw	a0,104(sp)
   188e8:	06c12583          	lw	a1,108(sp)
   188ec:	03e12423          	sw	t5,40(sp)
   188f0:	04f12e23          	sw	a5,92(sp)
   188f4:	5d1030ef          	jal	ra,1c6c4 <__adddf3>
   188f8:	06412a03          	lw	s4,100(sp)
   188fc:	04812603          	lw	a2,72(sp)
   18900:	000a0693          	mv	a3,s4
   18904:	69d040ef          	jal	ra,1d7a0 <__ledf2>
   18908:	02812f03          	lw	t5,40(sp)
   1890c:	1e054663          	bltz	a0,18af8 <__gdtoa+0x1990>
   18910:	06812603          	lw	a2,104(sp)
   18914:	06c12683          	lw	a3,108(sp)
   18918:	f001a503          	lw	a0,-256(gp) # 239c8 <__SDATA_BEGIN__+0x58>
   1891c:	f041a583          	lw	a1,-252(gp) # 239cc <__SDATA_BEGIN__+0x5c>
   18920:	60c050ef          	jal	ra,1df2c <__subdf3>
   18924:	04812603          	lw	a2,72(sp)
   18928:	000a0693          	mv	a3,s4
   1892c:	599040ef          	jal	ra,1d6c4 <__gedf2>
   18930:	02812f03          	lw	t5,40(sp)
   18934:	05c12783          	lw	a5,92(sp)
   18938:	26a04863          	bgtz	a0,18ba8 <__gdtoa+0x1a40>
   1893c:	04412703          	lw	a4,68(sp)
   18940:	05812983          	lw	s3,88(sp)
   18944:	04e12423          	sw	a4,72(sp)
   18948:	02412703          	lw	a4,36(sp)
   1894c:	d00750e3          	bgez	a4,1864c <__gdtoa+0x14e4>
   18950:	03812b03          	lw	s6,56(sp)
   18954:	03012a03          	lw	s4,48(sp)
   18958:	02012423          	sw	zero,40(sp)
   1895c:	00000993          	li	s3,0
   18960:	c71fe06f          	j	175d0 <__gdtoa+0x468>
   18964:	00098a93          	mv	s5,s3
   18968:	01812f03          	lw	t5,24(sp)
   1896c:	01c12d03          	lw	s10,28(sp)
   18970:	000a0993          	mv	s3,s4
   18974:	86dff06f          	j	181e0 <__gdtoa+0x1078>
   18978:	fffb4b83          	lbu	s7,-1(s6)
   1897c:	be4ff06f          	j	17d60 <__gdtoa+0xbf8>
   18980:	03412783          	lw	a5,52(sp)
   18984:	c0078ce3          	beqz	a5,1859c <__gdtoa+0x1434>
   18988:	05412783          	lw	a5,84(sp)
   1898c:	caf054e3          	blez	a5,18634 <__gdtoa+0x14cc>
   18990:	ee01a603          	lw	a2,-288(gp) # 239a8 <__SDATA_BEGIN__+0x38>
   18994:	ee41a683          	lw	a3,-284(gp) # 239ac <__SDATA_BEGIN__+0x3c>
   18998:	00098593          	mv	a1,s3
   1899c:	000b0513          	mv	a0,s6
   189a0:	07e12423          	sw	t5,104(sp)
   189a4:	6d9040ef          	jal	ra,1d87c <__muldf3>
   189a8:	ee81a603          	lw	a2,-280(gp) # 239b0 <__SDATA_BEGIN__+0x40>
   189ac:	eec1a683          	lw	a3,-276(gp) # 239b4 <__SDATA_BEGIN__+0x44>
   189b0:	00058993          	mv	s3,a1
   189b4:	04a12423          	sw	a0,72(sp)
   189b8:	06a12223          	sw	a0,100(sp)
   189bc:	02b12423          	sw	a1,40(sp)
   189c0:	6bd040ef          	jal	ra,1d87c <__muldf3>
   189c4:	ef01a603          	lw	a2,-272(gp) # 239b8 <__SDATA_BEGIN__+0x48>
   189c8:	ef41a683          	lw	a3,-268(gp) # 239bc <__SDATA_BEGIN__+0x4c>
   189cc:	4f9030ef          	jal	ra,1c6c4 <__adddf3>
   189d0:	fcc007b7          	lui	a5,0xfcc00
   189d4:	00b78a33          	add	s4,a5,a1
   189d8:	05412783          	lw	a5,84(sp)
   189dc:	06412e83          	lw	t4,100(sp)
   189e0:	06812f03          	lw	t5,104(sp)
   189e4:	04f12e23          	sw	a5,92(sp)
   189e8:	fff00793          	li	a5,-1
   189ec:	00050713          	mv	a4,a0
   189f0:	06f12023          	sw	a5,96(sp)
   189f4:	00098813          	mv	a6,s3
   189f8:	96cff06f          	j	17b64 <__gdtoa+0x9fc>
   189fc:	03012703          	lw	a4,48(sp)
   18a00:	02012683          	lw	a3,32(sp)
   18a04:	08f12623          	sw	a5,140(sp)
   18a08:	00070a13          	mv	s4,a4
   18a0c:	00f686b3          	add	a3,a3,a5
   18a10:	00f707b3          	add	a5,a4,a5
   18a14:	02d12023          	sw	a3,32(sp)
   18a18:	02f12823          	sw	a5,48(sp)
   18a1c:	b99fe06f          	j	175b4 <__gdtoa+0x44c>
   18a20:	00200b93          	li	s7,2
   18a24:	00000593          	li	a1,0
   18a28:	00000993          	li	s3,0
   18a2c:	881ff06f          	j	182ac <__gdtoa+0x1144>
   18a30:	03900793          	li	a5,57
   18a34:	01812f03          	lw	t5,24(sp)
   18a38:	01c12d03          	lw	s10,28(sp)
   18a3c:	a4fd82e3          	beq	s11,a5,18480 <__gdtoa+0x1318>
   18a40:	001d8d93          	addi	s11,s11,1
   18a44:	00098a93          	mv	s5,s3
   18a48:	001c0b13          	addi	s6,s8,1
   18a4c:	01bc0023          	sb	s11,0(s8)
   18a50:	000a0993          	mv	s3,s4
   18a54:	02000c93          	li	s9,32
   18a58:	e58ff06f          	j	180b0 <__gdtoa+0xf48>
   18a5c:	03c12783          	lw	a5,60(sp)
   18a60:	00000593          	li	a1,0
   18a64:	00000993          	li	s3,0
   18a68:	00278b93          	addi	s7,a5,2 # fcc00002 <__BSS_END__+0xfcbdc2f6>
   18a6c:	841ff06f          	j	182ac <__gdtoa+0x1144>
   18a70:	00098593          	mv	a1,s3
   18a74:	00000693          	li	a3,0
   18a78:	00a00613          	li	a2,10
   18a7c:	00040513          	mv	a0,s0
   18a80:	08d000ef          	jal	ra,1930c <__multadd>
   18a84:	00050993          	mv	s3,a0
   18a88:	00051463          	bnez	a0,18a90 <__gdtoa+0x1928>
   18a8c:	f3dfe06f          	j	179c8 <__gdtoa+0x860>
   18a90:	05412783          	lw	a5,84(sp)
   18a94:	02012f03          	lw	t5,32(sp)
   18a98:	00f05663          	blez	a5,18aa4 <__gdtoa+0x193c>
   18a9c:	02f12a23          	sw	a5,52(sp)
   18aa0:	c19fe06f          	j	176b8 <__gdtoa+0x550>
   18aa4:	01012703          	lw	a4,16(sp)
   18aa8:	00200793          	li	a5,2
   18aac:	14e7cc63          	blt	a5,a4,18c04 <__gdtoa+0x1a9c>
   18ab0:	05412783          	lw	a5,84(sp)
   18ab4:	02f12a23          	sw	a5,52(sp)
   18ab8:	c01fe06f          	j	176b8 <__gdtoa+0x550>
   18abc:	06412483          	lw	s1,100(sp)
   18ac0:	05c12f03          	lw	t5,92(sp)
   18ac4:	06812403          	lw	s0,104(sp)
   18ac8:	000a0513          	mv	a0,s4
   18acc:	00098593          	mv	a1,s3
   18ad0:	00000613          	li	a2,0
   18ad4:	00000693          	li	a3,0
   18ad8:	01e12823          	sw	t5,16(sp)
   18adc:	35d040ef          	jal	ra,1d638 <__eqdf2>
   18ae0:	00a037b3          	snez	a5,a0
   18ae4:	00479c93          	slli	s9,a5,0x4
   18ae8:	06012783          	lw	a5,96(sp)
   18aec:	01012f03          	lw	t5,16(sp)
   18af0:	00178b93          	addi	s7,a5,1
   18af4:	cacff06f          	j	17fa0 <__gdtoa+0xe38>
   18af8:	06012783          	lw	a5,96(sp)
   18afc:	00178d93          	addi	s11,a5,1
   18b00:	a60ff06f          	j	17d60 <__gdtoa+0xbf8>
   18b04:	03412783          	lw	a5,52(sp)
   18b08:	03812703          	lw	a4,56(sp)
   18b0c:	fff78693          	addi	a3,a5,-1
   18b10:	8cd748e3          	blt	a4,a3,183e0 <__gdtoa+0x1278>
   18b14:	03012583          	lw	a1,48(sp)
   18b18:	02012603          	lw	a2,32(sp)
   18b1c:	08f12623          	sw	a5,140(sp)
   18b20:	00058a13          	mv	s4,a1
   18b24:	00f60633          	add	a2,a2,a5
   18b28:	00f587b3          	add	a5,a1,a5
   18b2c:	02c12023          	sw	a2,32(sp)
   18b30:	40d70b33          	sub	s6,a4,a3
   18b34:	02f12823          	sw	a5,48(sp)
   18b38:	a7dfe06f          	j	175b4 <__gdtoa+0x44c>
   18b3c:	02012423          	sw	zero,40(sp)
   18b40:	9f9fe06f          	j	17538 <__gdtoa+0x3d0>
   18b44:	04412703          	lw	a4,68(sp)
   18b48:	06412483          	lw	s1,100(sp)
   18b4c:	07412b83          	lw	s7,116(sp)
   18b50:	04e12423          	sw	a4,72(sp)
   18b54:	02412703          	lw	a4,36(sp)
   18b58:	07812c03          	lw	s8,120(sp)
   18b5c:	05c12f03          	lw	t5,92(sp)
   18b60:	06812403          	lw	s0,104(sp)
   18b64:	07c12783          	lw	a5,124(sp)
   18b68:	05812983          	lw	s3,88(sp)
   18b6c:	ae0750e3          	bgez	a4,1864c <__gdtoa+0x14e4>
   18b70:	02012423          	sw	zero,40(sp)
   18b74:	9cdfe06f          	j	17540 <__gdtoa+0x3d8>
   18b78:	03900793          	li	a5,57
   18b7c:	01812f03          	lw	t5,24(sp)
   18b80:	01c12d03          	lw	s10,28(sp)
   18b84:	8efd8ee3          	beq	s11,a5,18480 <__gdtoa+0x1318>
   18b88:	0f505063          	blez	s5,18c68 <__gdtoa+0x1b00>
   18b8c:	031b0d93          	addi	s11,s6,49
   18b90:	02000c93          	li	s9,32
   18b94:	00098a93          	mv	s5,s3
   18b98:	001c0b13          	addi	s6,s8,1
   18b9c:	01bc0023          	sb	s11,0(s8)
   18ba0:	000a0993          	mv	s3,s4
   18ba4:	d0cff06f          	j	180b0 <__gdtoa+0xf48>
   18ba8:	04812503          	lw	a0,72(sp)
   18bac:	000a0593          	mv	a1,s4
   18bb0:	00000613          	li	a2,0
   18bb4:	00000693          	li	a3,0
   18bb8:	01e12823          	sw	t5,16(sp)
   18bbc:	27d040ef          	jal	ra,1d638 <__eqdf2>
   18bc0:	06012703          	lw	a4,96(sp)
   18bc4:	00a037b3          	snez	a5,a0
   18bc8:	00479c93          	slli	s9,a5,0x4
   18bcc:	01012f03          	lw	t5,16(sp)
   18bd0:	000b0793          	mv	a5,s6
   18bd4:	00170d93          	addi	s11,a4,1
   18bd8:	bc9ff06f          	j	187a0 <__gdtoa+0x1638>
   18bdc:	0144a783          	lw	a5,20(s1)
   18be0:	cc079063          	bnez	a5,180a0 <__gdtoa+0xf38>
   18be4:	02812c83          	lw	s9,40(sp)
   18be8:	cb8ff06f          	j	180a0 <__gdtoa+0xf38>
   18bec:	00051663          	bnez	a0,18bf8 <__gdtoa+0x1a90>
   18bf0:	001df793          	andi	a5,s11,1
   18bf4:	b2079ce3          	bnez	a5,1872c <__gdtoa+0x15c4>
   18bf8:	02000793          	li	a5,32
   18bfc:	02f12423          	sw	a5,40(sp)
   18c00:	c8cff06f          	j	1808c <__gdtoa+0xf24>
   18c04:	05412783          	lw	a5,84(sp)
   18c08:	02f12a23          	sw	a5,52(sp)
   18c0c:	e50ff06f          	j	1825c <__gdtoa+0x10f4>
   18c10:	03900793          	li	a5,57
   18c14:	000b0f13          	mv	t5,s6
   18c18:	00fd8e63          	beq	s11,a5,18c34 <__gdtoa+0x1acc>
   18c1c:	001d8d93          	addi	s11,s11,1
   18c20:	02000c93          	li	s9,32
   18c24:	c7cff06f          	j	180a0 <__gdtoa+0xf38>
   18c28:	01000c93          	li	s9,16
   18c2c:	001c0913          	addi	s2,s8,1
   18c30:	c70ff06f          	j	180a0 <__gdtoa+0xf38>
   18c34:	00098a93          	mv	s5,s3
   18c38:	000c0793          	mv	a5,s8
   18c3c:	000a0993          	mv	s3,s4
   18c40:	851ff06f          	j	18490 <__gdtoa+0x1328>
   18c44:	0104a683          	lw	a3,16(s1)
   18c48:	00100793          	li	a5,1
   18c4c:	00d7d463          	bge	a5,a3,18c54 <__gdtoa+0x1aec>
   18c50:	bf5fe06f          	j	17844 <__gdtoa+0x6dc>
   18c54:	0144a783          	lw	a5,20(s1)
   18c58:	00078463          	beqz	a5,18c60 <__gdtoa+0x1af8>
   18c5c:	be9fe06f          	j	17844 <__gdtoa+0x6dc>
   18c60:	001c0913          	addi	s2,s8,1
   18c64:	c3cff06f          	j	180a0 <__gdtoa+0xf38>
   18c68:	0104a683          	lw	a3,16(s1)
   18c6c:	00100793          	li	a5,1
   18c70:	01000c93          	li	s9,16
   18c74:	f2d7c0e3          	blt	a5,a3,18b94 <__gdtoa+0x1a2c>
   18c78:	0144a783          	lw	a5,20(s1)
   18c7c:	00f037b3          	snez	a5,a5
   18c80:	00479c93          	slli	s9,a5,0x4
   18c84:	f11ff06f          	j	18b94 <__gdtoa+0x1a2c>
   18c88:	020ac263          	bltz	s5,18cac <__gdtoa+0x1b44>
   18c8c:	015ceab3          	or	s5,s9,s5
   18c90:	000a9863          	bnez	s5,18ca0 <__gdtoa+0x1b38>
   18c94:	00092703          	lw	a4,0(s2)
   18c98:	00177713          	andi	a4,a4,1
   18c9c:	00070863          	beqz	a4,18cac <__gdtoa+0x1b44>
   18ca0:	00f04463          	bgtz	a5,18ca8 <__gdtoa+0x1b40>
   18ca4:	a7dfe06f          	j	17720 <__gdtoa+0x5b8>
   18ca8:	a69fe06f          	j	17710 <__gdtoa+0x5a8>
   18cac:	02812703          	lw	a4,40(sp)
   18cb0:	01812f03          	lw	t5,24(sp)
   18cb4:	01c12d03          	lw	s10,28(sp)
   18cb8:	02070863          	beqz	a4,18ce8 <__gdtoa+0x1b80>
   18cbc:	0104a603          	lw	a2,16(s1)
   18cc0:	00100693          	li	a3,1
   18cc4:	00c6d463          	bge	a3,a2,18ccc <__gdtoa+0x1b64>
   18cc8:	b7dfe06f          	j	17844 <__gdtoa+0x6dc>
   18ccc:	0144a683          	lw	a3,20(s1)
   18cd0:	00068463          	beqz	a3,18cd8 <__gdtoa+0x1b70>
   18cd4:	b71fe06f          	j	17844 <__gdtoa+0x6dc>
   18cd8:	a2f044e3          	bgtz	a5,18700 <__gdtoa+0x1598>
   18cdc:	00000c93          	li	s9,0
   18ce0:	001c0913          	addi	s2,s8,1
   18ce4:	bbcff06f          	j	180a0 <__gdtoa+0xf38>
   18ce8:	baf05263          	blez	a5,1808c <__gdtoa+0xf24>
   18cec:	a15ff06f          	j	18700 <__gdtoa+0x1598>

00018cf0 <__rv_alloc_D2A>:
   18cf0:	ff010113          	addi	sp,sp,-16
   18cf4:	00812423          	sw	s0,8(sp)
   18cf8:	00112623          	sw	ra,12(sp)
   18cfc:	01300793          	li	a5,19
   18d00:	00000413          	li	s0,0
   18d04:	00b7fc63          	bgeu	a5,a1,18d1c <__rv_alloc_D2A+0x2c>
   18d08:	00400793          	li	a5,4
   18d0c:	00179793          	slli	a5,a5,0x1
   18d10:	01078713          	addi	a4,a5,16
   18d14:	00140413          	addi	s0,s0,1
   18d18:	fee5fae3          	bgeu	a1,a4,18d0c <__rv_alloc_D2A+0x1c>
   18d1c:	00040593          	mv	a1,s0
   18d20:	514000ef          	jal	ra,19234 <_Balloc>
   18d24:	00050663          	beqz	a0,18d30 <__rv_alloc_D2A+0x40>
   18d28:	00852023          	sw	s0,0(a0)
   18d2c:	00450513          	addi	a0,a0,4
   18d30:	00c12083          	lw	ra,12(sp)
   18d34:	00812403          	lw	s0,8(sp)
   18d38:	01010113          	addi	sp,sp,16
   18d3c:	00008067          	ret

00018d40 <__nrv_alloc_D2A>:
   18d40:	ff010113          	addi	sp,sp,-16
   18d44:	00812423          	sw	s0,8(sp)
   18d48:	01212023          	sw	s2,0(sp)
   18d4c:	00112623          	sw	ra,12(sp)
   18d50:	00912223          	sw	s1,4(sp)
   18d54:	01300793          	li	a5,19
   18d58:	00058413          	mv	s0,a1
   18d5c:	00060913          	mv	s2,a2
   18d60:	06d7fe63          	bgeu	a5,a3,18ddc <__nrv_alloc_D2A+0x9c>
   18d64:	00400793          	li	a5,4
   18d68:	00000493          	li	s1,0
   18d6c:	00179793          	slli	a5,a5,0x1
   18d70:	01078713          	addi	a4,a5,16
   18d74:	00148493          	addi	s1,s1,1
   18d78:	fee6fae3          	bgeu	a3,a4,18d6c <__nrv_alloc_D2A+0x2c>
   18d7c:	00048593          	mv	a1,s1
   18d80:	4b4000ef          	jal	ra,19234 <_Balloc>
   18d84:	00050793          	mv	a5,a0
   18d88:	04050e63          	beqz	a0,18de4 <__nrv_alloc_D2A+0xa4>
   18d8c:	00952023          	sw	s1,0(a0)
   18d90:	00044703          	lbu	a4,0(s0)
   18d94:	00450513          	addi	a0,a0,4
   18d98:	00140593          	addi	a1,s0,1
   18d9c:	00e78223          	sb	a4,4(a5)
   18da0:	00050793          	mv	a5,a0
   18da4:	00070c63          	beqz	a4,18dbc <__nrv_alloc_D2A+0x7c>
   18da8:	0005c703          	lbu	a4,0(a1)
   18dac:	00178793          	addi	a5,a5,1
   18db0:	00158593          	addi	a1,a1,1
   18db4:	00e78023          	sb	a4,0(a5)
   18db8:	fe0718e3          	bnez	a4,18da8 <__nrv_alloc_D2A+0x68>
   18dbc:	00090463          	beqz	s2,18dc4 <__nrv_alloc_D2A+0x84>
   18dc0:	00f92023          	sw	a5,0(s2)
   18dc4:	00c12083          	lw	ra,12(sp)
   18dc8:	00812403          	lw	s0,8(sp)
   18dcc:	00412483          	lw	s1,4(sp)
   18dd0:	00012903          	lw	s2,0(sp)
   18dd4:	01010113          	addi	sp,sp,16
   18dd8:	00008067          	ret
   18ddc:	00000493          	li	s1,0
   18de0:	f9dff06f          	j	18d7c <__nrv_alloc_D2A+0x3c>
   18de4:	00000513          	li	a0,0
   18de8:	fddff06f          	j	18dc4 <__nrv_alloc_D2A+0x84>

00018dec <__freedtoa>:
   18dec:	ffc5a683          	lw	a3,-4(a1)
   18df0:	00100713          	li	a4,1
   18df4:	00058793          	mv	a5,a1
   18df8:	00d71733          	sll	a4,a4,a3
   18dfc:	ffc58593          	addi	a1,a1,-4
   18e00:	00d7a023          	sw	a3,0(a5)
   18e04:	00e7a223          	sw	a4,4(a5)
   18e08:	4e00006f          	j	192e8 <_Bfree>

00018e0c <__quorem_D2A>:
   18e0c:	fb010113          	addi	sp,sp,-80
   18e10:	04912223          	sw	s1,68(sp)
   18e14:	01052783          	lw	a5,16(a0)
   18e18:	0105a483          	lw	s1,16(a1)
   18e1c:	04112623          	sw	ra,76(sp)
   18e20:	00b12423          	sw	a1,8(sp)
   18e24:	2297c263          	blt	a5,s1,19048 <__quorem_D2A+0x23c>
   18e28:	fff48493          	addi	s1,s1,-1
   18e2c:	03512a23          	sw	s5,52(sp)
   18e30:	03712623          	sw	s7,44(sp)
   18e34:	00249a93          	slli	s5,s1,0x2
   18e38:	01458b93          	addi	s7,a1,20
   18e3c:	05212023          	sw	s2,64(sp)
   18e40:	03312e23          	sw	s3,60(sp)
   18e44:	015b8933          	add	s2,s7,s5
   18e48:	01450993          	addi	s3,a0,20
   18e4c:	015987b3          	add	a5,s3,s5
   18e50:	03812423          	sw	s8,40(sp)
   18e54:	00092c03          	lw	s8,0(s2)
   18e58:	03912223          	sw	s9,36(sp)
   18e5c:	0007ac83          	lw	s9,0(a5)
   18e60:	001c0c13          	addi	s8,s8,1
   18e64:	03412c23          	sw	s4,56(sp)
   18e68:	000c0593          	mv	a1,s8
   18e6c:	00050a13          	mv	s4,a0
   18e70:	000c8513          	mv	a0,s9
   18e74:	04812423          	sw	s0,72(sp)
   18e78:	00f12623          	sw	a5,12(sp)
   18e7c:	24d080ef          	jal	ra,218c8 <__hidden___udivsi3>
   18e80:	00050413          	mv	s0,a0
   18e84:	0f8ce263          	bltu	s9,s8,18f68 <__quorem_D2A+0x15c>
   18e88:	00010cb7          	lui	s9,0x10
   18e8c:	03a12023          	sw	s10,32(sp)
   18e90:	01b12e23          	sw	s11,28(sp)
   18e94:	03612823          	sw	s6,48(sp)
   18e98:	000b8d93          	mv	s11,s7
   18e9c:	00098d13          	mv	s10,s3
   18ea0:	00000c13          	li	s8,0
   18ea4:	00000a93          	li	s5,0
   18ea8:	fffc8c93          	addi	s9,s9,-1 # ffff <exit-0x95>
   18eac:	000dab03          	lw	s6,0(s11)
   18eb0:	00040593          	mv	a1,s0
   18eb4:	004d0d13          	addi	s10,s10,4
   18eb8:	019b7533          	and	a0,s6,s9
   18ebc:	1e1080ef          	jal	ra,2189c <__mulsi3>
   18ec0:	00050793          	mv	a5,a0
   18ec4:	00040593          	mv	a1,s0
   18ec8:	010b5513          	srli	a0,s6,0x10
   18ecc:	01878c33          	add	s8,a5,s8
   18ed0:	1cd080ef          	jal	ra,2189c <__mulsi3>
   18ed4:	ffcd2783          	lw	a5,-4(s10)
   18ed8:	019c7633          	and	a2,s8,s9
   18edc:	010c5c13          	srli	s8,s8,0x10
   18ee0:	0197f733          	and	a4,a5,s9
   18ee4:	40c70733          	sub	a4,a4,a2
   18ee8:	41570733          	sub	a4,a4,s5
   18eec:	01850533          	add	a0,a0,s8
   18ef0:	01075693          	srli	a3,a4,0x10
   18ef4:	0016f693          	andi	a3,a3,1
   18ef8:	01957633          	and	a2,a0,s9
   18efc:	00c686b3          	add	a3,a3,a2
   18f00:	0107d793          	srli	a5,a5,0x10
   18f04:	40d787b3          	sub	a5,a5,a3
   18f08:	01079693          	slli	a3,a5,0x10
   18f0c:	01977733          	and	a4,a4,s9
   18f10:	00e6e733          	or	a4,a3,a4
   18f14:	0107d793          	srli	a5,a5,0x10
   18f18:	004d8d93          	addi	s11,s11,4
   18f1c:	feed2e23          	sw	a4,-4(s10)
   18f20:	01055c13          	srli	s8,a0,0x10
   18f24:	0017fa93          	andi	s5,a5,1
   18f28:	f9b972e3          	bgeu	s2,s11,18eac <__quorem_D2A+0xa0>
   18f2c:	00c12703          	lw	a4,12(sp)
   18f30:	00072783          	lw	a5,0(a4)
   18f34:	12079463          	bnez	a5,1905c <__quorem_D2A+0x250>
   18f38:	ffc70a93          	addi	s5,a4,-4
   18f3c:	0159e863          	bltu	s3,s5,18f4c <__quorem_D2A+0x140>
   18f40:	0180006f          	j	18f58 <__quorem_D2A+0x14c>
   18f44:	fff48493          	addi	s1,s1,-1
   18f48:	0159f863          	bgeu	s3,s5,18f58 <__quorem_D2A+0x14c>
   18f4c:	000aa783          	lw	a5,0(s5)
   18f50:	ffca8a93          	addi	s5,s5,-4
   18f54:	fe0788e3          	beqz	a5,18f44 <__quorem_D2A+0x138>
   18f58:	03012b03          	lw	s6,48(sp)
   18f5c:	02012d03          	lw	s10,32(sp)
   18f60:	01c12d83          	lw	s11,28(sp)
   18f64:	009a2823          	sw	s1,16(s4)
   18f68:	00812583          	lw	a1,8(sp)
   18f6c:	000a0513          	mv	a0,s4
   18f70:	60d000ef          	jal	ra,19d7c <__mcmp>
   18f74:	0a054063          	bltz	a0,19014 <__quorem_D2A+0x208>
   18f78:	00010537          	lui	a0,0x10
   18f7c:	00098593          	mv	a1,s3
   18f80:	00000693          	li	a3,0
   18f84:	fff50513          	addi	a0,a0,-1 # ffff <exit-0x95>
   18f88:	0005a783          	lw	a5,0(a1)
   18f8c:	000ba603          	lw	a2,0(s7)
   18f90:	00458593          	addi	a1,a1,4
   18f94:	00a7f733          	and	a4,a5,a0
   18f98:	00a67833          	and	a6,a2,a0
   18f9c:	41070733          	sub	a4,a4,a6
   18fa0:	40d70733          	sub	a4,a4,a3
   18fa4:	01075693          	srli	a3,a4,0x10
   18fa8:	0016f693          	andi	a3,a3,1
   18fac:	01065613          	srli	a2,a2,0x10
   18fb0:	00c686b3          	add	a3,a3,a2
   18fb4:	0107d793          	srli	a5,a5,0x10
   18fb8:	40d787b3          	sub	a5,a5,a3
   18fbc:	01079693          	slli	a3,a5,0x10
   18fc0:	00a77733          	and	a4,a4,a0
   18fc4:	00e6e733          	or	a4,a3,a4
   18fc8:	0107d793          	srli	a5,a5,0x10
   18fcc:	004b8b93          	addi	s7,s7,4
   18fd0:	fee5ae23          	sw	a4,-4(a1)
   18fd4:	0017f693          	andi	a3,a5,1
   18fd8:	fb7978e3          	bgeu	s2,s7,18f88 <__quorem_D2A+0x17c>
   18fdc:	00249793          	slli	a5,s1,0x2
   18fe0:	00f987b3          	add	a5,s3,a5
   18fe4:	0007a703          	lw	a4,0(a5)
   18fe8:	02071463          	bnez	a4,19010 <__quorem_D2A+0x204>
   18fec:	ffc78793          	addi	a5,a5,-4
   18ff0:	00f9e863          	bltu	s3,a5,19000 <__quorem_D2A+0x1f4>
   18ff4:	0180006f          	j	1900c <__quorem_D2A+0x200>
   18ff8:	fff48493          	addi	s1,s1,-1
   18ffc:	00f9f863          	bgeu	s3,a5,1900c <__quorem_D2A+0x200>
   19000:	0007a703          	lw	a4,0(a5)
   19004:	ffc78793          	addi	a5,a5,-4
   19008:	fe0708e3          	beqz	a4,18ff8 <__quorem_D2A+0x1ec>
   1900c:	009a2823          	sw	s1,16(s4)
   19010:	00140413          	addi	s0,s0,1
   19014:	04c12083          	lw	ra,76(sp)
   19018:	00040513          	mv	a0,s0
   1901c:	04812403          	lw	s0,72(sp)
   19020:	04012903          	lw	s2,64(sp)
   19024:	03c12983          	lw	s3,60(sp)
   19028:	03812a03          	lw	s4,56(sp)
   1902c:	03412a83          	lw	s5,52(sp)
   19030:	02c12b83          	lw	s7,44(sp)
   19034:	02812c03          	lw	s8,40(sp)
   19038:	02412c83          	lw	s9,36(sp)
   1903c:	04412483          	lw	s1,68(sp)
   19040:	05010113          	addi	sp,sp,80
   19044:	00008067          	ret
   19048:	04c12083          	lw	ra,76(sp)
   1904c:	04412483          	lw	s1,68(sp)
   19050:	00000513          	li	a0,0
   19054:	05010113          	addi	sp,sp,80
   19058:	00008067          	ret
   1905c:	00812583          	lw	a1,8(sp)
   19060:	000a0513          	mv	a0,s4
   19064:	03012b03          	lw	s6,48(sp)
   19068:	02012d03          	lw	s10,32(sp)
   1906c:	01c12d83          	lw	s11,28(sp)
   19070:	50d000ef          	jal	ra,19d7c <__mcmp>
   19074:	f00552e3          	bgez	a0,18f78 <__quorem_D2A+0x16c>
   19078:	f9dff06f          	j	19014 <__quorem_D2A+0x208>

0001907c <__rshift_D2A>:
   1907c:	01052803          	lw	a6,16(a0)
   19080:	4055de13          	srai	t3,a1,0x5
   19084:	010e4863          	blt	t3,a6,19094 <__rshift_D2A+0x18>
   19088:	00052823          	sw	zero,16(a0)
   1908c:	00052a23          	sw	zero,20(a0)
   19090:	00008067          	ret
   19094:	01450313          	addi	t1,a0,20
   19098:	00281613          	slli	a2,a6,0x2
   1909c:	002e1793          	slli	a5,t3,0x2
   190a0:	01f5f593          	andi	a1,a1,31
   190a4:	00c30633          	add	a2,t1,a2
   190a8:	00f307b3          	add	a5,t1,a5
   190ac:	06058263          	beqz	a1,19110 <__rshift_D2A+0x94>
   190b0:	0007a683          	lw	a3,0(a5)
   190b4:	02000e93          	li	t4,32
   190b8:	00478793          	addi	a5,a5,4
   190bc:	40be8eb3          	sub	t4,t4,a1
   190c0:	00b6d6b3          	srl	a3,a3,a1
   190c4:	08c7f463          	bgeu	a5,a2,1914c <__rshift_D2A+0xd0>
   190c8:	00030893          	mv	a7,t1
   190cc:	0007a703          	lw	a4,0(a5)
   190d0:	00488893          	addi	a7,a7,4
   190d4:	00478793          	addi	a5,a5,4
   190d8:	01d71733          	sll	a4,a4,t4
   190dc:	00d76733          	or	a4,a4,a3
   190e0:	fee8ae23          	sw	a4,-4(a7)
   190e4:	ffc7a683          	lw	a3,-4(a5)
   190e8:	00b6d6b3          	srl	a3,a3,a1
   190ec:	fec7e0e3          	bltu	a5,a2,190cc <__rshift_D2A+0x50>
   190f0:	41c80833          	sub	a6,a6,t3
   190f4:	00281813          	slli	a6,a6,0x2
   190f8:	ffc80813          	addi	a6,a6,-4
   190fc:	01030833          	add	a6,t1,a6
   19100:	00d82023          	sw	a3,0(a6)
   19104:	02068a63          	beqz	a3,19138 <__rshift_D2A+0xbc>
   19108:	00480813          	addi	a6,a6,4
   1910c:	02c0006f          	j	19138 <__rshift_D2A+0xbc>
   19110:	00030713          	mv	a4,t1
   19114:	f6c7fae3          	bgeu	a5,a2,19088 <__rshift_D2A+0xc>
   19118:	0007a683          	lw	a3,0(a5)
   1911c:	00478793          	addi	a5,a5,4
   19120:	00470713          	addi	a4,a4,4
   19124:	fed72e23          	sw	a3,-4(a4)
   19128:	fec7e8e3          	bltu	a5,a2,19118 <__rshift_D2A+0x9c>
   1912c:	41c80833          	sub	a6,a6,t3
   19130:	00281813          	slli	a6,a6,0x2
   19134:	01030833          	add	a6,t1,a6
   19138:	406807b3          	sub	a5,a6,t1
   1913c:	4027d793          	srai	a5,a5,0x2
   19140:	00f52823          	sw	a5,16(a0)
   19144:	f46804e3          	beq	a6,t1,1908c <__rshift_D2A+0x10>
   19148:	00008067          	ret
   1914c:	00d52a23          	sw	a3,20(a0)
   19150:	f2068ce3          	beqz	a3,19088 <__rshift_D2A+0xc>
   19154:	00030813          	mv	a6,t1
   19158:	00480813          	addi	a6,a6,4
   1915c:	fddff06f          	j	19138 <__rshift_D2A+0xbc>

00019160 <__trailz_D2A>:
   19160:	01052703          	lw	a4,16(a0)
   19164:	fe010113          	addi	sp,sp,-32
   19168:	01450513          	addi	a0,a0,20
   1916c:	00271713          	slli	a4,a4,0x2
   19170:	00812c23          	sw	s0,24(sp)
   19174:	00112e23          	sw	ra,28(sp)
   19178:	00e50733          	add	a4,a0,a4
   1917c:	00000413          	li	s0,0
   19180:	00e56a63          	bltu	a0,a4,19194 <__trailz_D2A+0x34>
   19184:	02c0006f          	j	191b0 <__trailz_D2A+0x50>
   19188:	00450513          	addi	a0,a0,4
   1918c:	02040413          	addi	s0,s0,32
   19190:	02e57063          	bgeu	a0,a4,191b0 <__trailz_D2A+0x50>
   19194:	00052783          	lw	a5,0(a0)
   19198:	fe0788e3          	beqz	a5,19188 <__trailz_D2A+0x28>
   1919c:	00e57a63          	bgeu	a0,a4,191b0 <__trailz_D2A+0x50>
   191a0:	00c10513          	addi	a0,sp,12
   191a4:	00f12623          	sw	a5,12(sp)
   191a8:	49c000ef          	jal	ra,19644 <__lo0bits>
   191ac:	00a40433          	add	s0,s0,a0
   191b0:	01c12083          	lw	ra,28(sp)
   191b4:	00040513          	mv	a0,s0
   191b8:	01812403          	lw	s0,24(sp)
   191bc:	02010113          	addi	sp,sp,32
   191c0:	00008067          	ret

000191c4 <_mbtowc_r>:
   191c4:	e1c1a783          	lw	a5,-484(gp) # 238e4 <__global_locale+0xe4>
   191c8:	00078067          	jr	a5

000191cc <__ascii_mbtowc>:
   191cc:	02058063          	beqz	a1,191ec <__ascii_mbtowc+0x20>
   191d0:	04060263          	beqz	a2,19214 <__ascii_mbtowc+0x48>
   191d4:	04068863          	beqz	a3,19224 <__ascii_mbtowc+0x58>
   191d8:	00064783          	lbu	a5,0(a2)
   191dc:	00f5a023          	sw	a5,0(a1)
   191e0:	00064503          	lbu	a0,0(a2)
   191e4:	00a03533          	snez	a0,a0
   191e8:	00008067          	ret
   191ec:	ff010113          	addi	sp,sp,-16
   191f0:	00c10593          	addi	a1,sp,12
   191f4:	02060463          	beqz	a2,1921c <__ascii_mbtowc+0x50>
   191f8:	02068a63          	beqz	a3,1922c <__ascii_mbtowc+0x60>
   191fc:	00064783          	lbu	a5,0(a2)
   19200:	00f5a023          	sw	a5,0(a1)
   19204:	00064503          	lbu	a0,0(a2)
   19208:	00a03533          	snez	a0,a0
   1920c:	01010113          	addi	sp,sp,16
   19210:	00008067          	ret
   19214:	00000513          	li	a0,0
   19218:	00008067          	ret
   1921c:	00000513          	li	a0,0
   19220:	fedff06f          	j	1920c <__ascii_mbtowc+0x40>
   19224:	ffe00513          	li	a0,-2
   19228:	00008067          	ret
   1922c:	ffe00513          	li	a0,-2
   19230:	fddff06f          	j	1920c <__ascii_mbtowc+0x40>

00019234 <_Balloc>:
   19234:	04452783          	lw	a5,68(a0)
   19238:	ff010113          	addi	sp,sp,-16
   1923c:	00812423          	sw	s0,8(sp)
   19240:	00912223          	sw	s1,4(sp)
   19244:	00112623          	sw	ra,12(sp)
   19248:	00050413          	mv	s0,a0
   1924c:	00058493          	mv	s1,a1
   19250:	02078c63          	beqz	a5,19288 <_Balloc+0x54>
   19254:	00249713          	slli	a4,s1,0x2
   19258:	00e787b3          	add	a5,a5,a4
   1925c:	0007a503          	lw	a0,0(a5)
   19260:	04050463          	beqz	a0,192a8 <_Balloc+0x74>
   19264:	00052703          	lw	a4,0(a0)
   19268:	00e7a023          	sw	a4,0(a5)
   1926c:	00052823          	sw	zero,16(a0)
   19270:	00052623          	sw	zero,12(a0)
   19274:	00c12083          	lw	ra,12(sp)
   19278:	00812403          	lw	s0,8(sp)
   1927c:	00412483          	lw	s1,4(sp)
   19280:	01010113          	addi	sp,sp,16
   19284:	00008067          	ret
   19288:	02100613          	li	a2,33
   1928c:	00400593          	li	a1,4
   19290:	66d010ef          	jal	ra,1b0fc <_calloc_r>
   19294:	04a42223          	sw	a0,68(s0)
   19298:	00050793          	mv	a5,a0
   1929c:	fa051ce3          	bnez	a0,19254 <_Balloc+0x20>
   192a0:	00000513          	li	a0,0
   192a4:	fd1ff06f          	j	19274 <_Balloc+0x40>
   192a8:	01212023          	sw	s2,0(sp)
   192ac:	00100913          	li	s2,1
   192b0:	00991933          	sll	s2,s2,s1
   192b4:	00590613          	addi	a2,s2,5
   192b8:	00261613          	slli	a2,a2,0x2
   192bc:	00100593          	li	a1,1
   192c0:	00040513          	mv	a0,s0
   192c4:	639010ef          	jal	ra,1b0fc <_calloc_r>
   192c8:	00050a63          	beqz	a0,192dc <_Balloc+0xa8>
   192cc:	01252423          	sw	s2,8(a0)
   192d0:	00952223          	sw	s1,4(a0)
   192d4:	00012903          	lw	s2,0(sp)
   192d8:	f95ff06f          	j	1926c <_Balloc+0x38>
   192dc:	00012903          	lw	s2,0(sp)
   192e0:	00000513          	li	a0,0
   192e4:	f91ff06f          	j	19274 <_Balloc+0x40>

000192e8 <_Bfree>:
   192e8:	02058063          	beqz	a1,19308 <_Bfree+0x20>
   192ec:	0045a703          	lw	a4,4(a1)
   192f0:	04452783          	lw	a5,68(a0)
   192f4:	00271713          	slli	a4,a4,0x2
   192f8:	00e787b3          	add	a5,a5,a4
   192fc:	0007a703          	lw	a4,0(a5)
   19300:	00e5a023          	sw	a4,0(a1)
   19304:	00b7a023          	sw	a1,0(a5)
   19308:	00008067          	ret

0001930c <__multadd>:
   1930c:	fd010113          	addi	sp,sp,-48
   19310:	01412c23          	sw	s4,24(sp)
   19314:	0105aa03          	lw	s4,16(a1)
   19318:	01912223          	sw	s9,4(sp)
   1931c:	00010cb7          	lui	s9,0x10
   19320:	02912223          	sw	s1,36(sp)
   19324:	03212023          	sw	s2,32(sp)
   19328:	01312e23          	sw	s3,28(sp)
   1932c:	01512a23          	sw	s5,20(sp)
   19330:	01612823          	sw	s6,16(sp)
   19334:	01712623          	sw	s7,12(sp)
   19338:	02112623          	sw	ra,44(sp)
   1933c:	02812423          	sw	s0,40(sp)
   19340:	01812423          	sw	s8,8(sp)
   19344:	00058a93          	mv	s5,a1
   19348:	00050b13          	mv	s6,a0
   1934c:	00060993          	mv	s3,a2
   19350:	00068493          	mv	s1,a3
   19354:	01458913          	addi	s2,a1,20
   19358:	00000b93          	li	s7,0
   1935c:	fffc8c93          	addi	s9,s9,-1 # ffff <exit-0x95>
   19360:	00092c03          	lw	s8,0(s2)
   19364:	00098593          	mv	a1,s3
   19368:	00490913          	addi	s2,s2,4
   1936c:	019c7533          	and	a0,s8,s9
   19370:	52c080ef          	jal	ra,2189c <__mulsi3>
   19374:	00050413          	mv	s0,a0
   19378:	00098593          	mv	a1,s3
   1937c:	010c5513          	srli	a0,s8,0x10
   19380:	00940433          	add	s0,s0,s1
   19384:	518080ef          	jal	ra,2189c <__mulsi3>
   19388:	01045793          	srli	a5,s0,0x10
   1938c:	00f50533          	add	a0,a0,a5
   19390:	01051793          	slli	a5,a0,0x10
   19394:	01947433          	and	s0,s0,s9
   19398:	008787b3          	add	a5,a5,s0
   1939c:	fef92e23          	sw	a5,-4(s2)
   193a0:	001b8b93          	addi	s7,s7,1
   193a4:	01055493          	srli	s1,a0,0x10
   193a8:	fb4bcce3          	blt	s7,s4,19360 <__multadd+0x54>
   193ac:	02048263          	beqz	s1,193d0 <__multadd+0xc4>
   193b0:	008aa783          	lw	a5,8(s5)
   193b4:	04fa5a63          	bge	s4,a5,19408 <__multadd+0xfc>
   193b8:	004a0793          	addi	a5,s4,4
   193bc:	00279793          	slli	a5,a5,0x2
   193c0:	00fa87b3          	add	a5,s5,a5
   193c4:	0097a223          	sw	s1,4(a5)
   193c8:	001a0a13          	addi	s4,s4,1
   193cc:	014aa823          	sw	s4,16(s5)
   193d0:	02c12083          	lw	ra,44(sp)
   193d4:	02812403          	lw	s0,40(sp)
   193d8:	02412483          	lw	s1,36(sp)
   193dc:	02012903          	lw	s2,32(sp)
   193e0:	01c12983          	lw	s3,28(sp)
   193e4:	01812a03          	lw	s4,24(sp)
   193e8:	01012b03          	lw	s6,16(sp)
   193ec:	00c12b83          	lw	s7,12(sp)
   193f0:	00812c03          	lw	s8,8(sp)
   193f4:	00412c83          	lw	s9,4(sp)
   193f8:	000a8513          	mv	a0,s5
   193fc:	01412a83          	lw	s5,20(sp)
   19400:	03010113          	addi	sp,sp,48
   19404:	00008067          	ret
   19408:	004aa583          	lw	a1,4(s5)
   1940c:	000b0513          	mv	a0,s6
   19410:	00158593          	addi	a1,a1,1
   19414:	e21ff0ef          	jal	ra,19234 <_Balloc>
   19418:	00050413          	mv	s0,a0
   1941c:	04050c63          	beqz	a0,19474 <__multadd+0x168>
   19420:	010aa603          	lw	a2,16(s5)
   19424:	00ca8593          	addi	a1,s5,12
   19428:	00c50513          	addi	a0,a0,12
   1942c:	00260613          	addi	a2,a2,2
   19430:	00261613          	slli	a2,a2,0x2
   19434:	bb0fd0ef          	jal	ra,167e4 <memcpy>
   19438:	004aa703          	lw	a4,4(s5)
   1943c:	044b2783          	lw	a5,68(s6)
   19440:	00271713          	slli	a4,a4,0x2
   19444:	00e787b3          	add	a5,a5,a4
   19448:	0007a703          	lw	a4,0(a5)
   1944c:	00eaa023          	sw	a4,0(s5)
   19450:	0157a023          	sw	s5,0(a5)
   19454:	004a0793          	addi	a5,s4,4
   19458:	00040a93          	mv	s5,s0
   1945c:	00279793          	slli	a5,a5,0x2
   19460:	00fa87b3          	add	a5,s5,a5
   19464:	0097a223          	sw	s1,4(a5)
   19468:	001a0a13          	addi	s4,s4,1
   1946c:	014aa823          	sw	s4,16(s5)
   19470:	f61ff06f          	j	193d0 <__multadd+0xc4>
   19474:	000226b7          	lui	a3,0x22
   19478:	00022537          	lui	a0,0x22
   1947c:	a2868693          	addi	a3,a3,-1496 # 21a28 <__clzsi2+0xb4>
   19480:	00000613          	li	a2,0
   19484:	0ba00593          	li	a1,186
   19488:	a3c50513          	addi	a0,a0,-1476 # 21a3c <__clzsi2+0xc8>
   1948c:	409010ef          	jal	ra,1b094 <__assert_func>

00019490 <__s2b>:
   19490:	fe010113          	addi	sp,sp,-32
   19494:	00812c23          	sw	s0,24(sp)
   19498:	01212823          	sw	s2,16(sp)
   1949c:	00058413          	mv	s0,a1
   194a0:	00050913          	mv	s2,a0
   194a4:	00900593          	li	a1,9
   194a8:	00868513          	addi	a0,a3,8
   194ac:	00912a23          	sw	s1,20(sp)
   194b0:	01312623          	sw	s3,12(sp)
   194b4:	01412423          	sw	s4,8(sp)
   194b8:	00112e23          	sw	ra,28(sp)
   194bc:	00068493          	mv	s1,a3
   194c0:	00060993          	mv	s3,a2
   194c4:	00070a13          	mv	s4,a4
   194c8:	3f8080ef          	jal	ra,218c0 <__divsi3>
   194cc:	00900793          	li	a5,9
   194d0:	0c97da63          	bge	a5,s1,195a4 <__s2b+0x114>
   194d4:	00100793          	li	a5,1
   194d8:	00000593          	li	a1,0
   194dc:	00179793          	slli	a5,a5,0x1
   194e0:	00158593          	addi	a1,a1,1
   194e4:	fea7cce3          	blt	a5,a0,194dc <__s2b+0x4c>
   194e8:	00090513          	mv	a0,s2
   194ec:	d49ff0ef          	jal	ra,19234 <_Balloc>
   194f0:	00050593          	mv	a1,a0
   194f4:	0a050c63          	beqz	a0,195ac <__s2b+0x11c>
   194f8:	00100793          	li	a5,1
   194fc:	00f52823          	sw	a5,16(a0)
   19500:	01452a23          	sw	s4,20(a0)
   19504:	00900793          	li	a5,9
   19508:	0937d863          	bge	a5,s3,19598 <__s2b+0x108>
   1950c:	01512223          	sw	s5,4(sp)
   19510:	00940a93          	addi	s5,s0,9
   19514:	01340a33          	add	s4,s0,s3
   19518:	000a8413          	mv	s0,s5
   1951c:	00044683          	lbu	a3,0(s0)
   19520:	00a00613          	li	a2,10
   19524:	00090513          	mv	a0,s2
   19528:	fd068693          	addi	a3,a3,-48
   1952c:	de1ff0ef          	jal	ra,1930c <__multadd>
   19530:	00140413          	addi	s0,s0,1
   19534:	00050593          	mv	a1,a0
   19538:	ff4412e3          	bne	s0,s4,1951c <__s2b+0x8c>
   1953c:	ff898413          	addi	s0,s3,-8
   19540:	008a8433          	add	s0,s5,s0
   19544:	00412a83          	lw	s5,4(sp)
   19548:	0299d663          	bge	s3,s1,19574 <__s2b+0xe4>
   1954c:	413484b3          	sub	s1,s1,s3
   19550:	009404b3          	add	s1,s0,s1
   19554:	00044683          	lbu	a3,0(s0)
   19558:	00a00613          	li	a2,10
   1955c:	00090513          	mv	a0,s2
   19560:	fd068693          	addi	a3,a3,-48
   19564:	da9ff0ef          	jal	ra,1930c <__multadd>
   19568:	00140413          	addi	s0,s0,1
   1956c:	00050593          	mv	a1,a0
   19570:	fe9412e3          	bne	s0,s1,19554 <__s2b+0xc4>
   19574:	01c12083          	lw	ra,28(sp)
   19578:	01812403          	lw	s0,24(sp)
   1957c:	01412483          	lw	s1,20(sp)
   19580:	01012903          	lw	s2,16(sp)
   19584:	00c12983          	lw	s3,12(sp)
   19588:	00812a03          	lw	s4,8(sp)
   1958c:	00058513          	mv	a0,a1
   19590:	02010113          	addi	sp,sp,32
   19594:	00008067          	ret
   19598:	00a40413          	addi	s0,s0,10
   1959c:	00900993          	li	s3,9
   195a0:	fa9ff06f          	j	19548 <__s2b+0xb8>
   195a4:	00000593          	li	a1,0
   195a8:	f41ff06f          	j	194e8 <__s2b+0x58>
   195ac:	000226b7          	lui	a3,0x22
   195b0:	00022537          	lui	a0,0x22
   195b4:	a2868693          	addi	a3,a3,-1496 # 21a28 <__clzsi2+0xb4>
   195b8:	00000613          	li	a2,0
   195bc:	0d300593          	li	a1,211
   195c0:	a3c50513          	addi	a0,a0,-1476 # 21a3c <__clzsi2+0xc8>
   195c4:	01512223          	sw	s5,4(sp)
   195c8:	2cd010ef          	jal	ra,1b094 <__assert_func>

000195cc <__hi0bits>:
   195cc:	00050793          	mv	a5,a0
   195d0:	00010737          	lui	a4,0x10
   195d4:	00000513          	li	a0,0
   195d8:	00e7f663          	bgeu	a5,a4,195e4 <__hi0bits+0x18>
   195dc:	01079793          	slli	a5,a5,0x10
   195e0:	01000513          	li	a0,16
   195e4:	01000737          	lui	a4,0x1000
   195e8:	00e7f663          	bgeu	a5,a4,195f4 <__hi0bits+0x28>
   195ec:	00850513          	addi	a0,a0,8
   195f0:	00879793          	slli	a5,a5,0x8
   195f4:	10000737          	lui	a4,0x10000
   195f8:	00e7f663          	bgeu	a5,a4,19604 <__hi0bits+0x38>
   195fc:	00450513          	addi	a0,a0,4
   19600:	00479793          	slli	a5,a5,0x4
   19604:	40000737          	lui	a4,0x40000
   19608:	00e7ea63          	bltu	a5,a4,1961c <__hi0bits+0x50>
   1960c:	fff7c793          	not	a5,a5
   19610:	01f7d793          	srli	a5,a5,0x1f
   19614:	00f50533          	add	a0,a0,a5
   19618:	00008067          	ret
   1961c:	00279793          	slli	a5,a5,0x2
   19620:	0007ca63          	bltz	a5,19634 <__hi0bits+0x68>
   19624:	00179713          	slli	a4,a5,0x1
   19628:	00074a63          	bltz	a4,1963c <__hi0bits+0x70>
   1962c:	02000513          	li	a0,32
   19630:	00008067          	ret
   19634:	00250513          	addi	a0,a0,2
   19638:	00008067          	ret
   1963c:	00350513          	addi	a0,a0,3
   19640:	00008067          	ret

00019644 <__lo0bits>:
   19644:	00052783          	lw	a5,0(a0)
   19648:	00050713          	mv	a4,a0
   1964c:	0077f693          	andi	a3,a5,7
   19650:	02068463          	beqz	a3,19678 <__lo0bits+0x34>
   19654:	0017f693          	andi	a3,a5,1
   19658:	00000513          	li	a0,0
   1965c:	04069e63          	bnez	a3,196b8 <__lo0bits+0x74>
   19660:	0027f693          	andi	a3,a5,2
   19664:	0a068863          	beqz	a3,19714 <__lo0bits+0xd0>
   19668:	0017d793          	srli	a5,a5,0x1
   1966c:	00f72023          	sw	a5,0(a4) # 40000000 <__BSS_END__+0x3ffdc2f4>
   19670:	00100513          	li	a0,1
   19674:	00008067          	ret
   19678:	01079693          	slli	a3,a5,0x10
   1967c:	0106d693          	srli	a3,a3,0x10
   19680:	00000513          	li	a0,0
   19684:	06068e63          	beqz	a3,19700 <__lo0bits+0xbc>
   19688:	0ff7f693          	andi	a3,a5,255
   1968c:	06068063          	beqz	a3,196ec <__lo0bits+0xa8>
   19690:	00f7f693          	andi	a3,a5,15
   19694:	04068263          	beqz	a3,196d8 <__lo0bits+0x94>
   19698:	0037f693          	andi	a3,a5,3
   1969c:	02068463          	beqz	a3,196c4 <__lo0bits+0x80>
   196a0:	0017f693          	andi	a3,a5,1
   196a4:	00069c63          	bnez	a3,196bc <__lo0bits+0x78>
   196a8:	0017d793          	srli	a5,a5,0x1
   196ac:	00150513          	addi	a0,a0,1
   196b0:	00079663          	bnez	a5,196bc <__lo0bits+0x78>
   196b4:	02000513          	li	a0,32
   196b8:	00008067          	ret
   196bc:	00f72023          	sw	a5,0(a4)
   196c0:	00008067          	ret
   196c4:	0027d793          	srli	a5,a5,0x2
   196c8:	0017f693          	andi	a3,a5,1
   196cc:	00250513          	addi	a0,a0,2
   196d0:	fe0696e3          	bnez	a3,196bc <__lo0bits+0x78>
   196d4:	fd5ff06f          	j	196a8 <__lo0bits+0x64>
   196d8:	0047d793          	srli	a5,a5,0x4
   196dc:	0037f693          	andi	a3,a5,3
   196e0:	00450513          	addi	a0,a0,4
   196e4:	fa069ee3          	bnez	a3,196a0 <__lo0bits+0x5c>
   196e8:	fddff06f          	j	196c4 <__lo0bits+0x80>
   196ec:	0087d793          	srli	a5,a5,0x8
   196f0:	00f7f693          	andi	a3,a5,15
   196f4:	00850513          	addi	a0,a0,8
   196f8:	fa0690e3          	bnez	a3,19698 <__lo0bits+0x54>
   196fc:	fddff06f          	j	196d8 <__lo0bits+0x94>
   19700:	0107d793          	srli	a5,a5,0x10
   19704:	0ff7f693          	andi	a3,a5,255
   19708:	01000513          	li	a0,16
   1970c:	f80692e3          	bnez	a3,19690 <__lo0bits+0x4c>
   19710:	fddff06f          	j	196ec <__lo0bits+0xa8>
   19714:	0027d793          	srli	a5,a5,0x2
   19718:	00f72023          	sw	a5,0(a4)
   1971c:	00200513          	li	a0,2
   19720:	00008067          	ret

00019724 <__i2b>:
   19724:	04452783          	lw	a5,68(a0)
   19728:	ff010113          	addi	sp,sp,-16
   1972c:	00812423          	sw	s0,8(sp)
   19730:	00912223          	sw	s1,4(sp)
   19734:	00112623          	sw	ra,12(sp)
   19738:	00050413          	mv	s0,a0
   1973c:	00058493          	mv	s1,a1
   19740:	02078c63          	beqz	a5,19778 <__i2b+0x54>
   19744:	0047a503          	lw	a0,4(a5)
   19748:	06050263          	beqz	a0,197ac <__i2b+0x88>
   1974c:	00052703          	lw	a4,0(a0)
   19750:	00e7a223          	sw	a4,4(a5)
   19754:	00c12083          	lw	ra,12(sp)
   19758:	00812403          	lw	s0,8(sp)
   1975c:	00100793          	li	a5,1
   19760:	00952a23          	sw	s1,20(a0)
   19764:	00052623          	sw	zero,12(a0)
   19768:	00f52823          	sw	a5,16(a0)
   1976c:	00412483          	lw	s1,4(sp)
   19770:	01010113          	addi	sp,sp,16
   19774:	00008067          	ret
   19778:	02100613          	li	a2,33
   1977c:	00400593          	li	a1,4
   19780:	17d010ef          	jal	ra,1b0fc <_calloc_r>
   19784:	04a42223          	sw	a0,68(s0)
   19788:	00050793          	mv	a5,a0
   1978c:	fa051ce3          	bnez	a0,19744 <__i2b+0x20>
   19790:	000226b7          	lui	a3,0x22
   19794:	00022537          	lui	a0,0x22
   19798:	a2868693          	addi	a3,a3,-1496 # 21a28 <__clzsi2+0xb4>
   1979c:	00000613          	li	a2,0
   197a0:	14500593          	li	a1,325
   197a4:	a3c50513          	addi	a0,a0,-1476 # 21a3c <__clzsi2+0xc8>
   197a8:	0ed010ef          	jal	ra,1b094 <__assert_func>
   197ac:	01c00613          	li	a2,28
   197b0:	00100593          	li	a1,1
   197b4:	00040513          	mv	a0,s0
   197b8:	145010ef          	jal	ra,1b0fc <_calloc_r>
   197bc:	fc050ae3          	beqz	a0,19790 <__i2b+0x6c>
   197c0:	00100793          	li	a5,1
   197c4:	00f52223          	sw	a5,4(a0)
   197c8:	00200793          	li	a5,2
   197cc:	00f52423          	sw	a5,8(a0)
   197d0:	f85ff06f          	j	19754 <__i2b+0x30>

000197d4 <__multiply>:
   197d4:	fb010113          	addi	sp,sp,-80
   197d8:	03312e23          	sw	s3,60(sp)
   197dc:	03812423          	sw	s8,40(sp)
   197e0:	01062983          	lw	s3,16(a2)
   197e4:	0105ac03          	lw	s8,16(a1)
   197e8:	04812423          	sw	s0,72(sp)
   197ec:	03412c23          	sw	s4,56(sp)
   197f0:	04112623          	sw	ra,76(sp)
   197f4:	03712623          	sw	s7,44(sp)
   197f8:	00058a13          	mv	s4,a1
   197fc:	00060413          	mv	s0,a2
   19800:	013c4c63          	blt	s8,s3,19818 <__multiply+0x44>
   19804:	00098713          	mv	a4,s3
   19808:	00058413          	mv	s0,a1
   1980c:	000c0993          	mv	s3,s8
   19810:	00060a13          	mv	s4,a2
   19814:	00070c13          	mv	s8,a4
   19818:	00842783          	lw	a5,8(s0)
   1981c:	00442583          	lw	a1,4(s0)
   19820:	01898bb3          	add	s7,s3,s8
   19824:	0177a7b3          	slt	a5,a5,s7
   19828:	00f585b3          	add	a1,a1,a5
   1982c:	a09ff0ef          	jal	ra,19234 <_Balloc>
   19830:	00a12623          	sw	a0,12(sp)
   19834:	22050863          	beqz	a0,19a64 <__multiply+0x290>
   19838:	00c12783          	lw	a5,12(sp)
   1983c:	03512a23          	sw	s5,52(sp)
   19840:	03612823          	sw	s6,48(sp)
   19844:	002b9a93          	slli	s5,s7,0x2
   19848:	01478b13          	addi	s6,a5,20
   1984c:	015b0ab3          	add	s5,s6,s5
   19850:	000b0793          	mv	a5,s6
   19854:	015b7863          	bgeu	s6,s5,19864 <__multiply+0x90>
   19858:	0007a023          	sw	zero,0(a5)
   1985c:	00478793          	addi	a5,a5,4
   19860:	ff57ece3          	bltu	a5,s5,19858 <__multiply+0x84>
   19864:	014a0a13          	addi	s4,s4,20
   19868:	002c1c13          	slli	s8,s8,0x2
   1986c:	01440793          	addi	a5,s0,20
   19870:	018a0733          	add	a4,s4,s8
   19874:	00299993          	slli	s3,s3,0x2
   19878:	00f12423          	sw	a5,8(sp)
   1987c:	00e12023          	sw	a4,0(sp)
   19880:	013789b3          	add	s3,a5,s3
   19884:	16ea7c63          	bgeu	s4,a4,199fc <__multiply+0x228>
   19888:	00400713          	li	a4,4
   1988c:	04912223          	sw	s1,68(sp)
   19890:	05212023          	sw	s2,64(sp)
   19894:	03912223          	sw	s9,36(sp)
   19898:	03a12023          	sw	s10,32(sp)
   1989c:	01b12e23          	sw	s11,28(sp)
   198a0:	01540793          	addi	a5,s0,21
   198a4:	00e12223          	sw	a4,4(sp)
   198a8:	1af9f263          	bgeu	s3,a5,19a4c <__multiply+0x278>
   198ac:	00010437          	lui	s0,0x10
   198b0:	fff40413          	addi	s0,s0,-1 # ffff <exit-0x95>
   198b4:	01c0006f          	j	198d0 <__multiply+0xfc>
   198b8:	01095913          	srli	s2,s2,0x10
   198bc:	0a091063          	bnez	s2,1995c <__multiply+0x188>
   198c0:	00012783          	lw	a5,0(sp)
   198c4:	004a0a13          	addi	s4,s4,4
   198c8:	004b0b13          	addi	s6,s6,4
   198cc:	10fa7e63          	bgeu	s4,a5,199e8 <__multiply+0x214>
   198d0:	000a2903          	lw	s2,0(s4)
   198d4:	008974b3          	and	s1,s2,s0
   198d8:	fe0480e3          	beqz	s1,198b8 <__multiply+0xe4>
   198dc:	00812c83          	lw	s9,8(sp)
   198e0:	000b0d13          	mv	s10,s6
   198e4:	00000c13          	li	s8,0
   198e8:	000cad83          	lw	s11,0(s9)
   198ec:	000d2903          	lw	s2,0(s10)
   198f0:	00048593          	mv	a1,s1
   198f4:	008df533          	and	a0,s11,s0
   198f8:	7a5070ef          	jal	ra,2189c <__mulsi3>
   198fc:	00897733          	and	a4,s2,s0
   19900:	00e50733          	add	a4,a0,a4
   19904:	00048593          	mv	a1,s1
   19908:	010dd513          	srli	a0,s11,0x10
   1990c:	01870c33          	add	s8,a4,s8
   19910:	01095913          	srli	s2,s2,0x10
   19914:	789070ef          	jal	ra,2189c <__mulsi3>
   19918:	010c5713          	srli	a4,s8,0x10
   1991c:	01250533          	add	a0,a0,s2
   19920:	00e50533          	add	a0,a0,a4
   19924:	008c77b3          	and	a5,s8,s0
   19928:	01051713          	slli	a4,a0,0x10
   1992c:	004d0d13          	addi	s10,s10,4
   19930:	00f767b3          	or	a5,a4,a5
   19934:	004c8c93          	addi	s9,s9,4
   19938:	fefd2e23          	sw	a5,-4(s10)
   1993c:	01055c13          	srli	s8,a0,0x10
   19940:	fb3ce4e3          	bltu	s9,s3,198e8 <__multiply+0x114>
   19944:	00412783          	lw	a5,4(sp)
   19948:	00fb0733          	add	a4,s6,a5
   1994c:	01872023          	sw	s8,0(a4)
   19950:	000a2903          	lw	s2,0(s4)
   19954:	01095913          	srli	s2,s2,0x10
   19958:	f60904e3          	beqz	s2,198c0 <__multiply+0xec>
   1995c:	000b2c83          	lw	s9,0(s6)
   19960:	00812d03          	lw	s10,8(sp)
   19964:	000b0c13          	mv	s8,s6
   19968:	000c8493          	mv	s1,s9
   1996c:	00000d93          	li	s11,0
   19970:	000d2503          	lw	a0,0(s10)
   19974:	00090593          	mv	a1,s2
   19978:	0104d493          	srli	s1,s1,0x10
   1997c:	00857533          	and	a0,a0,s0
   19980:	71d070ef          	jal	ra,2189c <__mulsi3>
   19984:	01b50733          	add	a4,a0,s11
   19988:	00970db3          	add	s11,a4,s1
   1998c:	010d9593          	slli	a1,s11,0x10
   19990:	008cf7b3          	and	a5,s9,s0
   19994:	00f5e7b3          	or	a5,a1,a5
   19998:	00fc2023          	sw	a5,0(s8)
   1999c:	002d5503          	lhu	a0,2(s10)
   199a0:	004c2483          	lw	s1,4(s8)
   199a4:	00090593          	mv	a1,s2
   199a8:	6f5070ef          	jal	ra,2189c <__mulsi3>
   199ac:	0084f7b3          	and	a5,s1,s0
   199b0:	010dd713          	srli	a4,s11,0x10
   199b4:	00f507b3          	add	a5,a0,a5
   199b8:	004d0d13          	addi	s10,s10,4
   199bc:	00e78cb3          	add	s9,a5,a4
   199c0:	004c0c13          	addi	s8,s8,4
   199c4:	010cdd93          	srli	s11,s9,0x10
   199c8:	fb3d64e3          	bltu	s10,s3,19970 <__multiply+0x19c>
   199cc:	00412783          	lw	a5,4(sp)
   199d0:	004a0a13          	addi	s4,s4,4
   199d4:	00fb0733          	add	a4,s6,a5
   199d8:	00012783          	lw	a5,0(sp)
   199dc:	01972023          	sw	s9,0(a4)
   199e0:	004b0b13          	addi	s6,s6,4
   199e4:	eefa66e3          	bltu	s4,a5,198d0 <__multiply+0xfc>
   199e8:	04412483          	lw	s1,68(sp)
   199ec:	04012903          	lw	s2,64(sp)
   199f0:	02412c83          	lw	s9,36(sp)
   199f4:	02012d03          	lw	s10,32(sp)
   199f8:	01c12d83          	lw	s11,28(sp)
   199fc:	01704863          	bgtz	s7,19a0c <__multiply+0x238>
   19a00:	0180006f          	j	19a18 <__multiply+0x244>
   19a04:	fffb8b93          	addi	s7,s7,-1
   19a08:	000b8863          	beqz	s7,19a18 <__multiply+0x244>
   19a0c:	ffcaa783          	lw	a5,-4(s5)
   19a10:	ffca8a93          	addi	s5,s5,-4
   19a14:	fe0788e3          	beqz	a5,19a04 <__multiply+0x230>
   19a18:	00c12783          	lw	a5,12(sp)
   19a1c:	04c12083          	lw	ra,76(sp)
   19a20:	04812403          	lw	s0,72(sp)
   19a24:	0177a823          	sw	s7,16(a5)
   19a28:	03412a83          	lw	s5,52(sp)
   19a2c:	03012b03          	lw	s6,48(sp)
   19a30:	03c12983          	lw	s3,60(sp)
   19a34:	03812a03          	lw	s4,56(sp)
   19a38:	02c12b83          	lw	s7,44(sp)
   19a3c:	02812c03          	lw	s8,40(sp)
   19a40:	00078513          	mv	a0,a5
   19a44:	05010113          	addi	sp,sp,80
   19a48:	00008067          	ret
   19a4c:	408987b3          	sub	a5,s3,s0
   19a50:	feb78793          	addi	a5,a5,-21
   19a54:	ffc7f793          	andi	a5,a5,-4
   19a58:	00478793          	addi	a5,a5,4
   19a5c:	00f12223          	sw	a5,4(sp)
   19a60:	e4dff06f          	j	198ac <__multiply+0xd8>
   19a64:	000226b7          	lui	a3,0x22
   19a68:	00022537          	lui	a0,0x22
   19a6c:	a2868693          	addi	a3,a3,-1496 # 21a28 <__clzsi2+0xb4>
   19a70:	00000613          	li	a2,0
   19a74:	16200593          	li	a1,354
   19a78:	a3c50513          	addi	a0,a0,-1476 # 21a3c <__clzsi2+0xc8>
   19a7c:	04912223          	sw	s1,68(sp)
   19a80:	05212023          	sw	s2,64(sp)
   19a84:	03512a23          	sw	s5,52(sp)
   19a88:	03612823          	sw	s6,48(sp)
   19a8c:	03912223          	sw	s9,36(sp)
   19a90:	03a12023          	sw	s10,32(sp)
   19a94:	01b12e23          	sw	s11,28(sp)
   19a98:	5fc010ef          	jal	ra,1b094 <__assert_func>

00019a9c <__pow5mult>:
   19a9c:	fe010113          	addi	sp,sp,-32
   19aa0:	00812c23          	sw	s0,24(sp)
   19aa4:	01212823          	sw	s2,16(sp)
   19aa8:	01312623          	sw	s3,12(sp)
   19aac:	00112e23          	sw	ra,28(sp)
   19ab0:	00367793          	andi	a5,a2,3
   19ab4:	00060413          	mv	s0,a2
   19ab8:	00050993          	mv	s3,a0
   19abc:	00058913          	mv	s2,a1
   19ac0:	0a079c63          	bnez	a5,19b78 <__pow5mult+0xdc>
   19ac4:	40245413          	srai	s0,s0,0x2
   19ac8:	06040a63          	beqz	s0,19b3c <__pow5mult+0xa0>
   19acc:	00912a23          	sw	s1,20(sp)
   19ad0:	0409a483          	lw	s1,64(s3)
   19ad4:	0c048663          	beqz	s1,19ba0 <__pow5mult+0x104>
   19ad8:	00147793          	andi	a5,s0,1
   19adc:	02079063          	bnez	a5,19afc <__pow5mult+0x60>
   19ae0:	40145413          	srai	s0,s0,0x1
   19ae4:	04040a63          	beqz	s0,19b38 <__pow5mult+0x9c>
   19ae8:	0004a503          	lw	a0,0(s1)
   19aec:	06050663          	beqz	a0,19b58 <__pow5mult+0xbc>
   19af0:	00050493          	mv	s1,a0
   19af4:	00147793          	andi	a5,s0,1
   19af8:	fe0784e3          	beqz	a5,19ae0 <__pow5mult+0x44>
   19afc:	00048613          	mv	a2,s1
   19b00:	00090593          	mv	a1,s2
   19b04:	00098513          	mv	a0,s3
   19b08:	ccdff0ef          	jal	ra,197d4 <__multiply>
   19b0c:	02090063          	beqz	s2,19b2c <__pow5mult+0x90>
   19b10:	00492703          	lw	a4,4(s2)
   19b14:	0449a783          	lw	a5,68(s3)
   19b18:	00271713          	slli	a4,a4,0x2
   19b1c:	00e787b3          	add	a5,a5,a4
   19b20:	0007a703          	lw	a4,0(a5)
   19b24:	00e92023          	sw	a4,0(s2)
   19b28:	0127a023          	sw	s2,0(a5)
   19b2c:	40145413          	srai	s0,s0,0x1
   19b30:	00050913          	mv	s2,a0
   19b34:	fa041ae3          	bnez	s0,19ae8 <__pow5mult+0x4c>
   19b38:	01412483          	lw	s1,20(sp)
   19b3c:	01c12083          	lw	ra,28(sp)
   19b40:	01812403          	lw	s0,24(sp)
   19b44:	00c12983          	lw	s3,12(sp)
   19b48:	00090513          	mv	a0,s2
   19b4c:	01012903          	lw	s2,16(sp)
   19b50:	02010113          	addi	sp,sp,32
   19b54:	00008067          	ret
   19b58:	00048613          	mv	a2,s1
   19b5c:	00048593          	mv	a1,s1
   19b60:	00098513          	mv	a0,s3
   19b64:	c71ff0ef          	jal	ra,197d4 <__multiply>
   19b68:	00a4a023          	sw	a0,0(s1)
   19b6c:	00052023          	sw	zero,0(a0)
   19b70:	00050493          	mv	s1,a0
   19b74:	f81ff06f          	j	19af4 <__pow5mult+0x58>
   19b78:	fff78793          	addi	a5,a5,-1
   19b7c:	00022737          	lui	a4,0x22
   19b80:	ea070713          	addi	a4,a4,-352 # 21ea0 <p05.0>
   19b84:	00279793          	slli	a5,a5,0x2
   19b88:	00f707b3          	add	a5,a4,a5
   19b8c:	0007a603          	lw	a2,0(a5)
   19b90:	00000693          	li	a3,0
   19b94:	f78ff0ef          	jal	ra,1930c <__multadd>
   19b98:	00050913          	mv	s2,a0
   19b9c:	f29ff06f          	j	19ac4 <__pow5mult+0x28>
   19ba0:	00100593          	li	a1,1
   19ba4:	00098513          	mv	a0,s3
   19ba8:	e8cff0ef          	jal	ra,19234 <_Balloc>
   19bac:	00050493          	mv	s1,a0
   19bb0:	02050063          	beqz	a0,19bd0 <__pow5mult+0x134>
   19bb4:	27100793          	li	a5,625
   19bb8:	00f52a23          	sw	a5,20(a0)
   19bbc:	00100793          	li	a5,1
   19bc0:	00f52823          	sw	a5,16(a0)
   19bc4:	04a9a023          	sw	a0,64(s3)
   19bc8:	00052023          	sw	zero,0(a0)
   19bcc:	f0dff06f          	j	19ad8 <__pow5mult+0x3c>
   19bd0:	000226b7          	lui	a3,0x22
   19bd4:	00022537          	lui	a0,0x22
   19bd8:	a2868693          	addi	a3,a3,-1496 # 21a28 <__clzsi2+0xb4>
   19bdc:	00000613          	li	a2,0
   19be0:	14500593          	li	a1,325
   19be4:	a3c50513          	addi	a0,a0,-1476 # 21a3c <__clzsi2+0xc8>
   19be8:	4ac010ef          	jal	ra,1b094 <__assert_func>

00019bec <__lshift>:
   19bec:	fe010113          	addi	sp,sp,-32
   19bf0:	01512223          	sw	s5,4(sp)
   19bf4:	0105aa83          	lw	s5,16(a1)
   19bf8:	0085a783          	lw	a5,8(a1)
   19bfc:	01312623          	sw	s3,12(sp)
   19c00:	40565993          	srai	s3,a2,0x5
   19c04:	01598ab3          	add	s5,s3,s5
   19c08:	00812c23          	sw	s0,24(sp)
   19c0c:	00912a23          	sw	s1,20(sp)
   19c10:	01212823          	sw	s2,16(sp)
   19c14:	01412423          	sw	s4,8(sp)
   19c18:	00112e23          	sw	ra,28(sp)
   19c1c:	001a8913          	addi	s2,s5,1
   19c20:	00058493          	mv	s1,a1
   19c24:	00060413          	mv	s0,a2
   19c28:	0045a583          	lw	a1,4(a1)
   19c2c:	00050a13          	mv	s4,a0
   19c30:	0127d863          	bge	a5,s2,19c40 <__lshift+0x54>
   19c34:	00179793          	slli	a5,a5,0x1
   19c38:	00158593          	addi	a1,a1,1
   19c3c:	ff27cce3          	blt	a5,s2,19c34 <__lshift+0x48>
   19c40:	000a0513          	mv	a0,s4
   19c44:	df0ff0ef          	jal	ra,19234 <_Balloc>
   19c48:	10050c63          	beqz	a0,19d60 <__lshift+0x174>
   19c4c:	01450813          	addi	a6,a0,20
   19c50:	03305463          	blez	s3,19c78 <__lshift+0x8c>
   19c54:	00598993          	addi	s3,s3,5
   19c58:	00299993          	slli	s3,s3,0x2
   19c5c:	01350733          	add	a4,a0,s3
   19c60:	00080793          	mv	a5,a6
   19c64:	00478793          	addi	a5,a5,4
   19c68:	fe07ae23          	sw	zero,-4(a5)
   19c6c:	fee79ce3          	bne	a5,a4,19c64 <__lshift+0x78>
   19c70:	fec98993          	addi	s3,s3,-20
   19c74:	01380833          	add	a6,a6,s3
   19c78:	0104a883          	lw	a7,16(s1)
   19c7c:	01448793          	addi	a5,s1,20
   19c80:	01f47613          	andi	a2,s0,31
   19c84:	00289893          	slli	a7,a7,0x2
   19c88:	011788b3          	add	a7,a5,a7
   19c8c:	0a060463          	beqz	a2,19d34 <__lshift+0x148>
   19c90:	02000593          	li	a1,32
   19c94:	40c585b3          	sub	a1,a1,a2
   19c98:	00080313          	mv	t1,a6
   19c9c:	00000693          	li	a3,0
   19ca0:	0007a703          	lw	a4,0(a5)
   19ca4:	00430313          	addi	t1,t1,4
   19ca8:	00478793          	addi	a5,a5,4
   19cac:	00c71733          	sll	a4,a4,a2
   19cb0:	00d76733          	or	a4,a4,a3
   19cb4:	fee32e23          	sw	a4,-4(t1)
   19cb8:	ffc7a683          	lw	a3,-4(a5)
   19cbc:	00b6d6b3          	srl	a3,a3,a1
   19cc0:	ff17e0e3          	bltu	a5,a7,19ca0 <__lshift+0xb4>
   19cc4:	01548793          	addi	a5,s1,21
   19cc8:	00400713          	li	a4,4
   19ccc:	00f8ea63          	bltu	a7,a5,19ce0 <__lshift+0xf4>
   19cd0:	409887b3          	sub	a5,a7,s1
   19cd4:	feb78793          	addi	a5,a5,-21
   19cd8:	ffc7f793          	andi	a5,a5,-4
   19cdc:	00478713          	addi	a4,a5,4
   19ce0:	00e80833          	add	a6,a6,a4
   19ce4:	00d82023          	sw	a3,0(a6)
   19ce8:	00069463          	bnez	a3,19cf0 <__lshift+0x104>
   19cec:	000a8913          	mv	s2,s5
   19cf0:	0044a703          	lw	a4,4(s1)
   19cf4:	044a2783          	lw	a5,68(s4)
   19cf8:	01c12083          	lw	ra,28(sp)
   19cfc:	00271713          	slli	a4,a4,0x2
   19d00:	00e787b3          	add	a5,a5,a4
   19d04:	0007a703          	lw	a4,0(a5)
   19d08:	01252823          	sw	s2,16(a0)
   19d0c:	01812403          	lw	s0,24(sp)
   19d10:	00e4a023          	sw	a4,0(s1)
   19d14:	0097a023          	sw	s1,0(a5)
   19d18:	01012903          	lw	s2,16(sp)
   19d1c:	01412483          	lw	s1,20(sp)
   19d20:	00c12983          	lw	s3,12(sp)
   19d24:	00812a03          	lw	s4,8(sp)
   19d28:	00412a83          	lw	s5,4(sp)
   19d2c:	02010113          	addi	sp,sp,32
   19d30:	00008067          	ret
   19d34:	0007a703          	lw	a4,0(a5)
   19d38:	00478793          	addi	a5,a5,4
   19d3c:	00480813          	addi	a6,a6,4
   19d40:	fee82e23          	sw	a4,-4(a6)
   19d44:	fb17f4e3          	bgeu	a5,a7,19cec <__lshift+0x100>
   19d48:	0007a703          	lw	a4,0(a5)
   19d4c:	00478793          	addi	a5,a5,4
   19d50:	00480813          	addi	a6,a6,4
   19d54:	fee82e23          	sw	a4,-4(a6)
   19d58:	fd17eee3          	bltu	a5,a7,19d34 <__lshift+0x148>
   19d5c:	f91ff06f          	j	19cec <__lshift+0x100>
   19d60:	000226b7          	lui	a3,0x22
   19d64:	00022537          	lui	a0,0x22
   19d68:	a2868693          	addi	a3,a3,-1496 # 21a28 <__clzsi2+0xb4>
   19d6c:	00000613          	li	a2,0
   19d70:	1de00593          	li	a1,478
   19d74:	a3c50513          	addi	a0,a0,-1476 # 21a3c <__clzsi2+0xc8>
   19d78:	31c010ef          	jal	ra,1b094 <__assert_func>

00019d7c <__mcmp>:
   19d7c:	01052703          	lw	a4,16(a0)
   19d80:	0105a783          	lw	a5,16(a1)
   19d84:	00050813          	mv	a6,a0
   19d88:	40f70533          	sub	a0,a4,a5
   19d8c:	04f71263          	bne	a4,a5,19dd0 <__mcmp+0x54>
   19d90:	00279793          	slli	a5,a5,0x2
   19d94:	01480813          	addi	a6,a6,20
   19d98:	01458593          	addi	a1,a1,20
   19d9c:	00f80733          	add	a4,a6,a5
   19da0:	00f587b3          	add	a5,a1,a5
   19da4:	0080006f          	j	19dac <__mcmp+0x30>
   19da8:	02e87463          	bgeu	a6,a4,19dd0 <__mcmp+0x54>
   19dac:	ffc72603          	lw	a2,-4(a4)
   19db0:	ffc7a683          	lw	a3,-4(a5)
   19db4:	ffc70713          	addi	a4,a4,-4
   19db8:	ffc78793          	addi	a5,a5,-4
   19dbc:	fed606e3          	beq	a2,a3,19da8 <__mcmp+0x2c>
   19dc0:	00100513          	li	a0,1
   19dc4:	00d67663          	bgeu	a2,a3,19dd0 <__mcmp+0x54>
   19dc8:	fff00513          	li	a0,-1
   19dcc:	00008067          	ret
   19dd0:	00008067          	ret

00019dd4 <__mdiff>:
   19dd4:	0105a703          	lw	a4,16(a1)
   19dd8:	01062783          	lw	a5,16(a2)
   19ddc:	ff010113          	addi	sp,sp,-16
   19de0:	00812423          	sw	s0,8(sp)
   19de4:	00912223          	sw	s1,4(sp)
   19de8:	00112623          	sw	ra,12(sp)
   19dec:	01212023          	sw	s2,0(sp)
   19df0:	00058413          	mv	s0,a1
   19df4:	00060493          	mv	s1,a2
   19df8:	40f706b3          	sub	a3,a4,a5
   19dfc:	18f71e63          	bne	a4,a5,19f98 <__mdiff+0x1c4>
   19e00:	00279693          	slli	a3,a5,0x2
   19e04:	01458613          	addi	a2,a1,20
   19e08:	01448713          	addi	a4,s1,20
   19e0c:	00d607b3          	add	a5,a2,a3
   19e10:	00d70733          	add	a4,a4,a3
   19e14:	0080006f          	j	19e1c <__mdiff+0x48>
   19e18:	18f67c63          	bgeu	a2,a5,19fb0 <__mdiff+0x1dc>
   19e1c:	ffc7a583          	lw	a1,-4(a5)
   19e20:	ffc72683          	lw	a3,-4(a4)
   19e24:	ffc78793          	addi	a5,a5,-4
   19e28:	ffc70713          	addi	a4,a4,-4
   19e2c:	fed586e3          	beq	a1,a3,19e18 <__mdiff+0x44>
   19e30:	00100913          	li	s2,1
   19e34:	00d5ea63          	bltu	a1,a3,19e48 <__mdiff+0x74>
   19e38:	00048793          	mv	a5,s1
   19e3c:	00000913          	li	s2,0
   19e40:	00040493          	mv	s1,s0
   19e44:	00078413          	mv	s0,a5
   19e48:	0044a583          	lw	a1,4(s1)
   19e4c:	be8ff0ef          	jal	ra,19234 <_Balloc>
   19e50:	1a050663          	beqz	a0,19ffc <__mdiff+0x228>
   19e54:	0104a883          	lw	a7,16(s1)
   19e58:	01042283          	lw	t0,16(s0)
   19e5c:	01448f93          	addi	t6,s1,20
   19e60:	00289313          	slli	t1,a7,0x2
   19e64:	01440813          	addi	a6,s0,20
   19e68:	00229293          	slli	t0,t0,0x2
   19e6c:	01450593          	addi	a1,a0,20
   19e70:	00010e37          	lui	t3,0x10
   19e74:	01252623          	sw	s2,12(a0)
   19e78:	006f8333          	add	t1,t6,t1
   19e7c:	005802b3          	add	t0,a6,t0
   19e80:	00058f13          	mv	t5,a1
   19e84:	000f8e93          	mv	t4,t6
   19e88:	00000693          	li	a3,0
   19e8c:	fffe0e13          	addi	t3,t3,-1 # ffff <exit-0x95>
   19e90:	000ea703          	lw	a4,0(t4)
   19e94:	00082603          	lw	a2,0(a6)
   19e98:	004f0f13          	addi	t5,t5,4
   19e9c:	01c777b3          	and	a5,a4,t3
   19ea0:	01c673b3          	and	t2,a2,t3
   19ea4:	407787b3          	sub	a5,a5,t2
   19ea8:	00d787b3          	add	a5,a5,a3
   19eac:	01075713          	srli	a4,a4,0x10
   19eb0:	01065613          	srli	a2,a2,0x10
   19eb4:	4107d693          	srai	a3,a5,0x10
   19eb8:	40c70733          	sub	a4,a4,a2
   19ebc:	00d70733          	add	a4,a4,a3
   19ec0:	01071693          	slli	a3,a4,0x10
   19ec4:	01c7f7b3          	and	a5,a5,t3
   19ec8:	00d7e7b3          	or	a5,a5,a3
   19ecc:	00480813          	addi	a6,a6,4
   19ed0:	feff2e23          	sw	a5,-4(t5)
   19ed4:	004e8e93          	addi	t4,t4,4
   19ed8:	41075693          	srai	a3,a4,0x10
   19edc:	fa586ae3          	bltu	a6,t0,19e90 <__mdiff+0xbc>
   19ee0:	01540713          	addi	a4,s0,21
   19ee4:	40828433          	sub	s0,t0,s0
   19ee8:	feb40413          	addi	s0,s0,-21
   19eec:	00e2b2b3          	sltu	t0,t0,a4
   19ef0:	0012cf13          	xori	t5,t0,1
   19ef4:	00245413          	srli	s0,s0,0x2
   19ef8:	00400713          	li	a4,4
   19efc:	0a028463          	beqz	t0,19fa4 <__mdiff+0x1d0>
   19f00:	00ef8fb3          	add	t6,t6,a4
   19f04:	00e58833          	add	a6,a1,a4
   19f08:	00010eb7          	lui	t4,0x10
   19f0c:	00080e13          	mv	t3,a6
   19f10:	000f8613          	mv	a2,t6
   19f14:	fffe8e93          	addi	t4,t4,-1 # ffff <exit-0x95>
   19f18:	0c6ff463          	bgeu	t6,t1,19fe0 <__mdiff+0x20c>
   19f1c:	00062783          	lw	a5,0(a2)
   19f20:	004e0e13          	addi	t3,t3,4
   19f24:	00460613          	addi	a2,a2,4
   19f28:	01d7f733          	and	a4,a5,t4
   19f2c:	00d70733          	add	a4,a4,a3
   19f30:	0107d593          	srli	a1,a5,0x10
   19f34:	41075713          	srai	a4,a4,0x10
   19f38:	00b70733          	add	a4,a4,a1
   19f3c:	00d787b3          	add	a5,a5,a3
   19f40:	01d7f7b3          	and	a5,a5,t4
   19f44:	01071693          	slli	a3,a4,0x10
   19f48:	00d7e7b3          	or	a5,a5,a3
   19f4c:	fefe2e23          	sw	a5,-4(t3)
   19f50:	41075693          	srai	a3,a4,0x10
   19f54:	fc6664e3          	bltu	a2,t1,19f1c <__mdiff+0x148>
   19f58:	fff30313          	addi	t1,t1,-1
   19f5c:	41f30333          	sub	t1,t1,t6
   19f60:	ffc37313          	andi	t1,t1,-4
   19f64:	00680733          	add	a4,a6,t1
   19f68:	00079a63          	bnez	a5,19f7c <__mdiff+0x1a8>
   19f6c:	ffc72783          	lw	a5,-4(a4)
   19f70:	fff88893          	addi	a7,a7,-1
   19f74:	ffc70713          	addi	a4,a4,-4
   19f78:	fe078ae3          	beqz	a5,19f6c <__mdiff+0x198>
   19f7c:	00c12083          	lw	ra,12(sp)
   19f80:	00812403          	lw	s0,8(sp)
   19f84:	01152823          	sw	a7,16(a0)
   19f88:	00412483          	lw	s1,4(sp)
   19f8c:	00012903          	lw	s2,0(sp)
   19f90:	01010113          	addi	sp,sp,16
   19f94:	00008067          	ret
   19f98:	00100913          	li	s2,1
   19f9c:	e806dee3          	bgez	a3,19e38 <__mdiff+0x64>
   19fa0:	ea9ff06f          	j	19e48 <__mdiff+0x74>
   19fa4:	00140713          	addi	a4,s0,1
   19fa8:	00271713          	slli	a4,a4,0x2
   19fac:	f55ff06f          	j	19f00 <__mdiff+0x12c>
   19fb0:	00000593          	li	a1,0
   19fb4:	a80ff0ef          	jal	ra,19234 <_Balloc>
   19fb8:	06050063          	beqz	a0,1a018 <__mdiff+0x244>
   19fbc:	00c12083          	lw	ra,12(sp)
   19fc0:	00812403          	lw	s0,8(sp)
   19fc4:	00100793          	li	a5,1
   19fc8:	00f52823          	sw	a5,16(a0)
   19fcc:	00052a23          	sw	zero,20(a0)
   19fd0:	00412483          	lw	s1,4(sp)
   19fd4:	00012903          	lw	s2,0(sp)
   19fd8:	01010113          	addi	sp,sp,16
   19fdc:	00008067          	ret
   19fe0:	00000713          	li	a4,0
   19fe4:	000f1663          	bnez	t5,19ff0 <__mdiff+0x21c>
   19fe8:	00e58733          	add	a4,a1,a4
   19fec:	f7dff06f          	j	19f68 <__mdiff+0x194>
   19ff0:	00241713          	slli	a4,s0,0x2
   19ff4:	00e58733          	add	a4,a1,a4
   19ff8:	f71ff06f          	j	19f68 <__mdiff+0x194>
   19ffc:	000226b7          	lui	a3,0x22
   1a000:	00022537          	lui	a0,0x22
   1a004:	a2868693          	addi	a3,a3,-1496 # 21a28 <__clzsi2+0xb4>
   1a008:	00000613          	li	a2,0
   1a00c:	24500593          	li	a1,581
   1a010:	a3c50513          	addi	a0,a0,-1476 # 21a3c <__clzsi2+0xc8>
   1a014:	080010ef          	jal	ra,1b094 <__assert_func>
   1a018:	000226b7          	lui	a3,0x22
   1a01c:	00022537          	lui	a0,0x22
   1a020:	a2868693          	addi	a3,a3,-1496 # 21a28 <__clzsi2+0xb4>
   1a024:	00000613          	li	a2,0
   1a028:	23700593          	li	a1,567
   1a02c:	a3c50513          	addi	a0,a0,-1476 # 21a3c <__clzsi2+0xc8>
   1a030:	064010ef          	jal	ra,1b094 <__assert_func>

0001a034 <__ulp>:
   1a034:	7ff007b7          	lui	a5,0x7ff00
   1a038:	00b7f5b3          	and	a1,a5,a1
   1a03c:	fcc007b7          	lui	a5,0xfcc00
   1a040:	00f585b3          	add	a1,a1,a5
   1a044:	00000793          	li	a5,0
   1a048:	00b05663          	blez	a1,1a054 <__ulp+0x20>
   1a04c:	00078513          	mv	a0,a5
   1a050:	00008067          	ret
   1a054:	40b005b3          	neg	a1,a1
   1a058:	4145d593          	srai	a1,a1,0x14
   1a05c:	01300793          	li	a5,19
   1a060:	00b7cc63          	blt	a5,a1,1a078 <__ulp+0x44>
   1a064:	000807b7          	lui	a5,0x80
   1a068:	40b7d5b3          	sra	a1,a5,a1
   1a06c:	00000793          	li	a5,0
   1a070:	00078513          	mv	a0,a5
   1a074:	00008067          	ret
   1a078:	fec58593          	addi	a1,a1,-20
   1a07c:	01e00713          	li	a4,30
   1a080:	00100793          	li	a5,1
   1a084:	00b74663          	blt	a4,a1,1a090 <__ulp+0x5c>
   1a088:	800007b7          	lui	a5,0x80000
   1a08c:	00b7d7b3          	srl	a5,a5,a1
   1a090:	00000593          	li	a1,0
   1a094:	00078513          	mv	a0,a5
   1a098:	00008067          	ret

0001a09c <__b2d>:
   1a09c:	fe010113          	addi	sp,sp,-32
   1a0a0:	00912a23          	sw	s1,20(sp)
   1a0a4:	01052483          	lw	s1,16(a0)
   1a0a8:	00812c23          	sw	s0,24(sp)
   1a0ac:	01450413          	addi	s0,a0,20
   1a0b0:	00249493          	slli	s1,s1,0x2
   1a0b4:	009404b3          	add	s1,s0,s1
   1a0b8:	01212823          	sw	s2,16(sp)
   1a0bc:	ffc4a903          	lw	s2,-4(s1)
   1a0c0:	01312623          	sw	s3,12(sp)
   1a0c4:	01412423          	sw	s4,8(sp)
   1a0c8:	00090513          	mv	a0,s2
   1a0cc:	00058993          	mv	s3,a1
   1a0d0:	00112e23          	sw	ra,28(sp)
   1a0d4:	cf8ff0ef          	jal	ra,195cc <__hi0bits>
   1a0d8:	02000713          	li	a4,32
   1a0dc:	40a707b3          	sub	a5,a4,a0
   1a0e0:	00f9a023          	sw	a5,0(s3)
   1a0e4:	00a00793          	li	a5,10
   1a0e8:	ffc48a13          	addi	s4,s1,-4
   1a0ec:	08a7dc63          	bge	a5,a0,1a184 <__b2d+0xe8>
   1a0f0:	ff550613          	addi	a2,a0,-11
   1a0f4:	05447063          	bgeu	s0,s4,1a134 <__b2d+0x98>
   1a0f8:	ff84a783          	lw	a5,-8(s1)
   1a0fc:	04060c63          	beqz	a2,1a154 <__b2d+0xb8>
   1a100:	40c706b3          	sub	a3,a4,a2
   1a104:	00d7d733          	srl	a4,a5,a3
   1a108:	00c91933          	sll	s2,s2,a2
   1a10c:	00e96933          	or	s2,s2,a4
   1a110:	ff848593          	addi	a1,s1,-8
   1a114:	3ff00737          	lui	a4,0x3ff00
   1a118:	00e96733          	or	a4,s2,a4
   1a11c:	00c797b3          	sll	a5,a5,a2
   1a120:	02b47e63          	bgeu	s0,a1,1a15c <__b2d+0xc0>
   1a124:	ff44a603          	lw	a2,-12(s1)
   1a128:	00d656b3          	srl	a3,a2,a3
   1a12c:	00d7e7b3          	or	a5,a5,a3
   1a130:	02c0006f          	j	1a15c <__b2d+0xc0>
   1a134:	00b00793          	li	a5,11
   1a138:	00f50c63          	beq	a0,a5,1a150 <__b2d+0xb4>
   1a13c:	00c91933          	sll	s2,s2,a2
   1a140:	3ff00737          	lui	a4,0x3ff00
   1a144:	00e96733          	or	a4,s2,a4
   1a148:	00000793          	li	a5,0
   1a14c:	0100006f          	j	1a15c <__b2d+0xc0>
   1a150:	00000793          	li	a5,0
   1a154:	3ff00737          	lui	a4,0x3ff00
   1a158:	00e96733          	or	a4,s2,a4
   1a15c:	01c12083          	lw	ra,28(sp)
   1a160:	01812403          	lw	s0,24(sp)
   1a164:	01412483          	lw	s1,20(sp)
   1a168:	01012903          	lw	s2,16(sp)
   1a16c:	00c12983          	lw	s3,12(sp)
   1a170:	00812a03          	lw	s4,8(sp)
   1a174:	00078513          	mv	a0,a5
   1a178:	00070593          	mv	a1,a4
   1a17c:	02010113          	addi	sp,sp,32
   1a180:	00008067          	ret
   1a184:	00b00693          	li	a3,11
   1a188:	40a686b3          	sub	a3,a3,a0
   1a18c:	3ff007b7          	lui	a5,0x3ff00
   1a190:	00d95733          	srl	a4,s2,a3
   1a194:	00f76733          	or	a4,a4,a5
   1a198:	00000793          	li	a5,0
   1a19c:	01447663          	bgeu	s0,s4,1a1a8 <__b2d+0x10c>
   1a1a0:	ff84a783          	lw	a5,-8(s1)
   1a1a4:	00d7d7b3          	srl	a5,a5,a3
   1a1a8:	01550513          	addi	a0,a0,21
   1a1ac:	00a91933          	sll	s2,s2,a0
   1a1b0:	00f967b3          	or	a5,s2,a5
   1a1b4:	fa9ff06f          	j	1a15c <__b2d+0xc0>

0001a1b8 <__d2b>:
   1a1b8:	fd010113          	addi	sp,sp,-48
   1a1bc:	01512a23          	sw	s5,20(sp)
   1a1c0:	00058a93          	mv	s5,a1
   1a1c4:	00100593          	li	a1,1
   1a1c8:	02912223          	sw	s1,36(sp)
   1a1cc:	01312e23          	sw	s3,28(sp)
   1a1d0:	01412c23          	sw	s4,24(sp)
   1a1d4:	02112623          	sw	ra,44(sp)
   1a1d8:	02812423          	sw	s0,40(sp)
   1a1dc:	03212023          	sw	s2,32(sp)
   1a1e0:	00060493          	mv	s1,a2
   1a1e4:	00068a13          	mv	s4,a3
   1a1e8:	00070993          	mv	s3,a4
   1a1ec:	848ff0ef          	jal	ra,19234 <_Balloc>
   1a1f0:	10050263          	beqz	a0,1a2f4 <__d2b+0x13c>
   1a1f4:	00100737          	lui	a4,0x100
   1a1f8:	0144d913          	srli	s2,s1,0x14
   1a1fc:	fff70793          	addi	a5,a4,-1 # fffff <__BSS_END__+0xdc2f3>
   1a200:	7ff97913          	andi	s2,s2,2047
   1a204:	00050413          	mv	s0,a0
   1a208:	0097f7b3          	and	a5,a5,s1
   1a20c:	00090463          	beqz	s2,1a214 <__d2b+0x5c>
   1a210:	00e7e7b3          	or	a5,a5,a4
   1a214:	00f12623          	sw	a5,12(sp)
   1a218:	060a9263          	bnez	s5,1a27c <__d2b+0xc4>
   1a21c:	00c10513          	addi	a0,sp,12
   1a220:	c24ff0ef          	jal	ra,19644 <__lo0bits>
   1a224:	00c12703          	lw	a4,12(sp)
   1a228:	00100493          	li	s1,1
   1a22c:	00942823          	sw	s1,16(s0)
   1a230:	00e42a23          	sw	a4,20(s0)
   1a234:	02050793          	addi	a5,a0,32
   1a238:	08090863          	beqz	s2,1a2c8 <__d2b+0x110>
   1a23c:	bcd90913          	addi	s2,s2,-1075
   1a240:	00f90933          	add	s2,s2,a5
   1a244:	03500493          	li	s1,53
   1a248:	012a2023          	sw	s2,0(s4)
   1a24c:	40f48533          	sub	a0,s1,a5
   1a250:	00a9a023          	sw	a0,0(s3)
   1a254:	02c12083          	lw	ra,44(sp)
   1a258:	00040513          	mv	a0,s0
   1a25c:	02812403          	lw	s0,40(sp)
   1a260:	02412483          	lw	s1,36(sp)
   1a264:	02012903          	lw	s2,32(sp)
   1a268:	01c12983          	lw	s3,28(sp)
   1a26c:	01812a03          	lw	s4,24(sp)
   1a270:	01412a83          	lw	s5,20(sp)
   1a274:	03010113          	addi	sp,sp,48
   1a278:	00008067          	ret
   1a27c:	00810513          	addi	a0,sp,8
   1a280:	01512423          	sw	s5,8(sp)
   1a284:	bc0ff0ef          	jal	ra,19644 <__lo0bits>
   1a288:	00c12703          	lw	a4,12(sp)
   1a28c:	00050793          	mv	a5,a0
   1a290:	04050e63          	beqz	a0,1a2ec <__d2b+0x134>
   1a294:	00812603          	lw	a2,8(sp)
   1a298:	02000693          	li	a3,32
   1a29c:	40a686b3          	sub	a3,a3,a0
   1a2a0:	00d716b3          	sll	a3,a4,a3
   1a2a4:	00a75733          	srl	a4,a4,a0
   1a2a8:	00c6e6b3          	or	a3,a3,a2
   1a2ac:	00e12623          	sw	a4,12(sp)
   1a2b0:	00e034b3          	snez	s1,a4
   1a2b4:	00148493          	addi	s1,s1,1
   1a2b8:	00d42a23          	sw	a3,20(s0)
   1a2bc:	00e42c23          	sw	a4,24(s0)
   1a2c0:	00942823          	sw	s1,16(s0)
   1a2c4:	f6091ce3          	bnez	s2,1a23c <__d2b+0x84>
   1a2c8:	00249713          	slli	a4,s1,0x2
   1a2cc:	00e40733          	add	a4,s0,a4
   1a2d0:	01072503          	lw	a0,16(a4)
   1a2d4:	bce78793          	addi	a5,a5,-1074 # 3feffbce <__BSS_END__+0x3fedbec2>
   1a2d8:	00fa2023          	sw	a5,0(s4)
   1a2dc:	af0ff0ef          	jal	ra,195cc <__hi0bits>
   1a2e0:	00549493          	slli	s1,s1,0x5
   1a2e4:	40a48533          	sub	a0,s1,a0
   1a2e8:	f69ff06f          	j	1a250 <__d2b+0x98>
   1a2ec:	00812683          	lw	a3,8(sp)
   1a2f0:	fc1ff06f          	j	1a2b0 <__d2b+0xf8>
   1a2f4:	000226b7          	lui	a3,0x22
   1a2f8:	00022537          	lui	a0,0x22
   1a2fc:	a2868693          	addi	a3,a3,-1496 # 21a28 <__clzsi2+0xb4>
   1a300:	00000613          	li	a2,0
   1a304:	30f00593          	li	a1,783
   1a308:	a3c50513          	addi	a0,a0,-1476 # 21a3c <__clzsi2+0xc8>
   1a30c:	589000ef          	jal	ra,1b094 <__assert_func>

0001a310 <__ratio>:
   1a310:	fd010113          	addi	sp,sp,-48
   1a314:	03212023          	sw	s2,32(sp)
   1a318:	00058913          	mv	s2,a1
   1a31c:	00810593          	addi	a1,sp,8
   1a320:	02112623          	sw	ra,44(sp)
   1a324:	02812423          	sw	s0,40(sp)
   1a328:	02912223          	sw	s1,36(sp)
   1a32c:	01312e23          	sw	s3,28(sp)
   1a330:	00050993          	mv	s3,a0
   1a334:	d69ff0ef          	jal	ra,1a09c <__b2d>
   1a338:	00050493          	mv	s1,a0
   1a33c:	00058413          	mv	s0,a1
   1a340:	00090513          	mv	a0,s2
   1a344:	00c10593          	addi	a1,sp,12
   1a348:	d55ff0ef          	jal	ra,1a09c <__b2d>
   1a34c:	01092703          	lw	a4,16(s2)
   1a350:	0109a783          	lw	a5,16(s3)
   1a354:	00c12683          	lw	a3,12(sp)
   1a358:	40e787b3          	sub	a5,a5,a4
   1a35c:	00812703          	lw	a4,8(sp)
   1a360:	00579793          	slli	a5,a5,0x5
   1a364:	40d70733          	sub	a4,a4,a3
   1a368:	00e787b3          	add	a5,a5,a4
   1a36c:	00050713          	mv	a4,a0
   1a370:	02f05e63          	blez	a5,1a3ac <__ratio+0x9c>
   1a374:	01479793          	slli	a5,a5,0x14
   1a378:	00878433          	add	s0,a5,s0
   1a37c:	00058693          	mv	a3,a1
   1a380:	00048513          	mv	a0,s1
   1a384:	00040593          	mv	a1,s0
   1a388:	00070613          	mv	a2,a4
   1a38c:	2cd020ef          	jal	ra,1ce58 <__divdf3>
   1a390:	02c12083          	lw	ra,44(sp)
   1a394:	02812403          	lw	s0,40(sp)
   1a398:	02412483          	lw	s1,36(sp)
   1a39c:	02012903          	lw	s2,32(sp)
   1a3a0:	01c12983          	lw	s3,28(sp)
   1a3a4:	03010113          	addi	sp,sp,48
   1a3a8:	00008067          	ret
   1a3ac:	01479793          	slli	a5,a5,0x14
   1a3b0:	40f585b3          	sub	a1,a1,a5
   1a3b4:	fc9ff06f          	j	1a37c <__ratio+0x6c>

0001a3b8 <_mprec_log10>:
   1a3b8:	ff010113          	addi	sp,sp,-16
   1a3bc:	01212023          	sw	s2,0(sp)
   1a3c0:	00112623          	sw	ra,12(sp)
   1a3c4:	01700793          	li	a5,23
   1a3c8:	00050913          	mv	s2,a0
   1a3cc:	04a7da63          	bge	a5,a0,1a420 <_mprec_log10+0x68>
   1a3d0:	ed81a783          	lw	a5,-296(gp) # 239a0 <__SDATA_BEGIN__+0x30>
   1a3d4:	edc1a583          	lw	a1,-292(gp) # 239a4 <__SDATA_BEGIN__+0x34>
   1a3d8:	00812423          	sw	s0,8(sp)
   1a3dc:	00912223          	sw	s1,4(sp)
   1a3e0:	ee01a403          	lw	s0,-288(gp) # 239a8 <__SDATA_BEGIN__+0x38>
   1a3e4:	ee41a483          	lw	s1,-284(gp) # 239ac <__SDATA_BEGIN__+0x3c>
   1a3e8:	00078513          	mv	a0,a5
   1a3ec:	00040613          	mv	a2,s0
   1a3f0:	00048693          	mv	a3,s1
   1a3f4:	488030ef          	jal	ra,1d87c <__muldf3>
   1a3f8:	fff90913          	addi	s2,s2,-1
   1a3fc:	00050793          	mv	a5,a0
   1a400:	fe0914e3          	bnez	s2,1a3e8 <_mprec_log10+0x30>
   1a404:	00812403          	lw	s0,8(sp)
   1a408:	00c12083          	lw	ra,12(sp)
   1a40c:	00412483          	lw	s1,4(sp)
   1a410:	00012903          	lw	s2,0(sp)
   1a414:	00078513          	mv	a0,a5
   1a418:	01010113          	addi	sp,sp,16
   1a41c:	00008067          	ret
   1a420:	00022737          	lui	a4,0x22
   1a424:	00351913          	slli	s2,a0,0x3
   1a428:	f0070713          	addi	a4,a4,-256 # 21f00 <__mprec_tens>
   1a42c:	01270733          	add	a4,a4,s2
   1a430:	00072783          	lw	a5,0(a4)
   1a434:	00c12083          	lw	ra,12(sp)
   1a438:	00472583          	lw	a1,4(a4)
   1a43c:	00012903          	lw	s2,0(sp)
   1a440:	00078513          	mv	a0,a5
   1a444:	01010113          	addi	sp,sp,16
   1a448:	00008067          	ret

0001a44c <__copybits>:
   1a44c:	01062683          	lw	a3,16(a2)
   1a450:	fff58593          	addi	a1,a1,-1
   1a454:	4055d593          	srai	a1,a1,0x5
   1a458:	00158593          	addi	a1,a1,1
   1a45c:	01460793          	addi	a5,a2,20
   1a460:	00269693          	slli	a3,a3,0x2
   1a464:	00259593          	slli	a1,a1,0x2
   1a468:	00d786b3          	add	a3,a5,a3
   1a46c:	00b505b3          	add	a1,a0,a1
   1a470:	02d7f863          	bgeu	a5,a3,1a4a0 <__copybits+0x54>
   1a474:	00050713          	mv	a4,a0
   1a478:	0007a803          	lw	a6,0(a5)
   1a47c:	00478793          	addi	a5,a5,4
   1a480:	00470713          	addi	a4,a4,4
   1a484:	ff072e23          	sw	a6,-4(a4)
   1a488:	fed7e8e3          	bltu	a5,a3,1a478 <__copybits+0x2c>
   1a48c:	40c687b3          	sub	a5,a3,a2
   1a490:	feb78793          	addi	a5,a5,-21
   1a494:	ffc7f793          	andi	a5,a5,-4
   1a498:	00478793          	addi	a5,a5,4
   1a49c:	00f50533          	add	a0,a0,a5
   1a4a0:	00b57863          	bgeu	a0,a1,1a4b0 <__copybits+0x64>
   1a4a4:	00450513          	addi	a0,a0,4
   1a4a8:	fe052e23          	sw	zero,-4(a0)
   1a4ac:	feb56ce3          	bltu	a0,a1,1a4a4 <__copybits+0x58>
   1a4b0:	00008067          	ret

0001a4b4 <__any_on>:
   1a4b4:	01052703          	lw	a4,16(a0)
   1a4b8:	4055d613          	srai	a2,a1,0x5
   1a4bc:	01450693          	addi	a3,a0,20
   1a4c0:	02c75263          	bge	a4,a2,1a4e4 <__any_on+0x30>
   1a4c4:	00271713          	slli	a4,a4,0x2
   1a4c8:	00e687b3          	add	a5,a3,a4
   1a4cc:	04f6f263          	bgeu	a3,a5,1a510 <__any_on+0x5c>
   1a4d0:	ffc7a703          	lw	a4,-4(a5)
   1a4d4:	ffc78793          	addi	a5,a5,-4
   1a4d8:	fe070ae3          	beqz	a4,1a4cc <__any_on+0x18>
   1a4dc:	00100513          	li	a0,1
   1a4e0:	00008067          	ret
   1a4e4:	00261793          	slli	a5,a2,0x2
   1a4e8:	00f687b3          	add	a5,a3,a5
   1a4ec:	fee650e3          	bge	a2,a4,1a4cc <__any_on+0x18>
   1a4f0:	01f5f593          	andi	a1,a1,31
   1a4f4:	fc058ce3          	beqz	a1,1a4cc <__any_on+0x18>
   1a4f8:	0007a603          	lw	a2,0(a5)
   1a4fc:	00100513          	li	a0,1
   1a500:	00b65733          	srl	a4,a2,a1
   1a504:	00b71733          	sll	a4,a4,a1
   1a508:	fce602e3          	beq	a2,a4,1a4cc <__any_on+0x18>
   1a50c:	00008067          	ret
   1a510:	00000513          	li	a0,0
   1a514:	00008067          	ret

0001a518 <_realloc_r>:
   1a518:	fd010113          	addi	sp,sp,-48
   1a51c:	02912223          	sw	s1,36(sp)
   1a520:	02112623          	sw	ra,44(sp)
   1a524:	00060493          	mv	s1,a2
   1a528:	1e058863          	beqz	a1,1a718 <_realloc_r+0x200>
   1a52c:	02812423          	sw	s0,40(sp)
   1a530:	03212023          	sw	s2,32(sp)
   1a534:	00058413          	mv	s0,a1
   1a538:	01312e23          	sw	s3,28(sp)
   1a53c:	01512a23          	sw	s5,20(sp)
   1a540:	01412c23          	sw	s4,24(sp)
   1a544:	00050913          	mv	s2,a0
   1a548:	ba0f70ef          	jal	ra,118e8 <__malloc_lock>
   1a54c:	ffc42703          	lw	a4,-4(s0)
   1a550:	00b48793          	addi	a5,s1,11
   1a554:	01600693          	li	a3,22
   1a558:	ff840a93          	addi	s5,s0,-8
   1a55c:	ffc77993          	andi	s3,a4,-4
   1a560:	10f6f263          	bgeu	a3,a5,1a664 <_realloc_r+0x14c>
   1a564:	ff87fa13          	andi	s4,a5,-8
   1a568:	1007c263          	bltz	a5,1a66c <_realloc_r+0x154>
   1a56c:	109a6063          	bltu	s4,s1,1a66c <_realloc_r+0x154>
   1a570:	1349d263          	bge	s3,s4,1a694 <_realloc_r+0x17c>
   1a574:	000237b7          	lui	a5,0x23
   1a578:	01812423          	sw	s8,8(sp)
   1a57c:	3f878c13          	addi	s8,a5,1016 # 233f8 <__malloc_av_>
   1a580:	008c2603          	lw	a2,8(s8)
   1a584:	013a86b3          	add	a3,s5,s3
   1a588:	0046a783          	lw	a5,4(a3)
   1a58c:	1cd60863          	beq	a2,a3,1a75c <_realloc_r+0x244>
   1a590:	ffe7f613          	andi	a2,a5,-2
   1a594:	00c68633          	add	a2,a3,a2
   1a598:	00462603          	lw	a2,4(a2)
   1a59c:	00167613          	andi	a2,a2,1
   1a5a0:	14061a63          	bnez	a2,1a6f4 <_realloc_r+0x1dc>
   1a5a4:	ffc7f793          	andi	a5,a5,-4
   1a5a8:	00f98633          	add	a2,s3,a5
   1a5ac:	0d465863          	bge	a2,s4,1a67c <_realloc_r+0x164>
   1a5b0:	00177713          	andi	a4,a4,1
   1a5b4:	02071c63          	bnez	a4,1a5ec <_realloc_r+0xd4>
   1a5b8:	01712623          	sw	s7,12(sp)
   1a5bc:	ff842b83          	lw	s7,-8(s0)
   1a5c0:	01612823          	sw	s6,16(sp)
   1a5c4:	417a8bb3          	sub	s7,s5,s7
   1a5c8:	004ba703          	lw	a4,4(s7)
   1a5cc:	ffc77713          	andi	a4,a4,-4
   1a5d0:	00e787b3          	add	a5,a5,a4
   1a5d4:	01378b33          	add	s6,a5,s3
   1a5d8:	334b5c63          	bge	s6,s4,1a910 <_realloc_r+0x3f8>
   1a5dc:	00e98b33          	add	s6,s3,a4
   1a5e0:	294b5863          	bge	s6,s4,1a870 <_realloc_r+0x358>
   1a5e4:	01012b03          	lw	s6,16(sp)
   1a5e8:	00c12b83          	lw	s7,12(sp)
   1a5ec:	00048593          	mv	a1,s1
   1a5f0:	00090513          	mv	a0,s2
   1a5f4:	b39f60ef          	jal	ra,1112c <_malloc_r>
   1a5f8:	00050493          	mv	s1,a0
   1a5fc:	40050863          	beqz	a0,1aa0c <_realloc_r+0x4f4>
   1a600:	ffc42783          	lw	a5,-4(s0)
   1a604:	ff850713          	addi	a4,a0,-8
   1a608:	ffe7f793          	andi	a5,a5,-2
   1a60c:	00fa87b3          	add	a5,s5,a5
   1a610:	24e78663          	beq	a5,a4,1a85c <_realloc_r+0x344>
   1a614:	ffc98613          	addi	a2,s3,-4
   1a618:	02400793          	li	a5,36
   1a61c:	2ec7e463          	bltu	a5,a2,1a904 <_realloc_r+0x3ec>
   1a620:	01300713          	li	a4,19
   1a624:	20c76a63          	bltu	a4,a2,1a838 <_realloc_r+0x320>
   1a628:	00050793          	mv	a5,a0
   1a62c:	00040713          	mv	a4,s0
   1a630:	00072683          	lw	a3,0(a4)
   1a634:	00d7a023          	sw	a3,0(a5)
   1a638:	00472683          	lw	a3,4(a4)
   1a63c:	00d7a223          	sw	a3,4(a5)
   1a640:	00872703          	lw	a4,8(a4)
   1a644:	00e7a423          	sw	a4,8(a5)
   1a648:	00040593          	mv	a1,s0
   1a64c:	00090513          	mv	a0,s2
   1a650:	fd8f60ef          	jal	ra,10e28 <_free_r>
   1a654:	00090513          	mv	a0,s2
   1a658:	a94f70ef          	jal	ra,118ec <__malloc_unlock>
   1a65c:	00812c03          	lw	s8,8(sp)
   1a660:	06c0006f          	j	1a6cc <_realloc_r+0x1b4>
   1a664:	01000a13          	li	s4,16
   1a668:	f09a74e3          	bgeu	s4,s1,1a570 <_realloc_r+0x58>
   1a66c:	00c00793          	li	a5,12
   1a670:	00f92023          	sw	a5,0(s2)
   1a674:	00000493          	li	s1,0
   1a678:	0540006f          	j	1a6cc <_realloc_r+0x1b4>
   1a67c:	00c6a783          	lw	a5,12(a3)
   1a680:	0086a703          	lw	a4,8(a3)
   1a684:	00812c03          	lw	s8,8(sp)
   1a688:	00060993          	mv	s3,a2
   1a68c:	00f72623          	sw	a5,12(a4)
   1a690:	00e7a423          	sw	a4,8(a5)
   1a694:	004aa783          	lw	a5,4(s5)
   1a698:	414986b3          	sub	a3,s3,s4
   1a69c:	00f00613          	li	a2,15
   1a6a0:	0017f793          	andi	a5,a5,1
   1a6a4:	013a8733          	add	a4,s5,s3
   1a6a8:	08d66263          	bltu	a2,a3,1a72c <_realloc_r+0x214>
   1a6ac:	0137e7b3          	or	a5,a5,s3
   1a6b0:	00faa223          	sw	a5,4(s5)
   1a6b4:	00472783          	lw	a5,4(a4)
   1a6b8:	0017e793          	ori	a5,a5,1
   1a6bc:	00f72223          	sw	a5,4(a4)
   1a6c0:	00090513          	mv	a0,s2
   1a6c4:	a28f70ef          	jal	ra,118ec <__malloc_unlock>
   1a6c8:	00040493          	mv	s1,s0
   1a6cc:	02812403          	lw	s0,40(sp)
   1a6d0:	02c12083          	lw	ra,44(sp)
   1a6d4:	02012903          	lw	s2,32(sp)
   1a6d8:	01c12983          	lw	s3,28(sp)
   1a6dc:	01812a03          	lw	s4,24(sp)
   1a6e0:	01412a83          	lw	s5,20(sp)
   1a6e4:	00048513          	mv	a0,s1
   1a6e8:	02412483          	lw	s1,36(sp)
   1a6ec:	03010113          	addi	sp,sp,48
   1a6f0:	00008067          	ret
   1a6f4:	00177713          	andi	a4,a4,1
   1a6f8:	ee071ae3          	bnez	a4,1a5ec <_realloc_r+0xd4>
   1a6fc:	01712623          	sw	s7,12(sp)
   1a700:	ff842b83          	lw	s7,-8(s0)
   1a704:	01612823          	sw	s6,16(sp)
   1a708:	417a8bb3          	sub	s7,s5,s7
   1a70c:	004ba703          	lw	a4,4(s7)
   1a710:	ffc77713          	andi	a4,a4,-4
   1a714:	ec9ff06f          	j	1a5dc <_realloc_r+0xc4>
   1a718:	02c12083          	lw	ra,44(sp)
   1a71c:	02412483          	lw	s1,36(sp)
   1a720:	00060593          	mv	a1,a2
   1a724:	03010113          	addi	sp,sp,48
   1a728:	a05f606f          	j	1112c <_malloc_r>
   1a72c:	0147e7b3          	or	a5,a5,s4
   1a730:	00faa223          	sw	a5,4(s5)
   1a734:	014a85b3          	add	a1,s5,s4
   1a738:	0016e693          	ori	a3,a3,1
   1a73c:	00d5a223          	sw	a3,4(a1)
   1a740:	00472783          	lw	a5,4(a4)
   1a744:	00858593          	addi	a1,a1,8
   1a748:	00090513          	mv	a0,s2
   1a74c:	0017e793          	ori	a5,a5,1
   1a750:	00f72223          	sw	a5,4(a4)
   1a754:	ed4f60ef          	jal	ra,10e28 <_free_r>
   1a758:	f69ff06f          	j	1a6c0 <_realloc_r+0x1a8>
   1a75c:	ffc7f793          	andi	a5,a5,-4
   1a760:	013786b3          	add	a3,a5,s3
   1a764:	010a0613          	addi	a2,s4,16
   1a768:	26c6d063          	bge	a3,a2,1a9c8 <_realloc_r+0x4b0>
   1a76c:	00177713          	andi	a4,a4,1
   1a770:	e6071ee3          	bnez	a4,1a5ec <_realloc_r+0xd4>
   1a774:	01712623          	sw	s7,12(sp)
   1a778:	ff842b83          	lw	s7,-8(s0)
   1a77c:	01612823          	sw	s6,16(sp)
   1a780:	417a8bb3          	sub	s7,s5,s7
   1a784:	004ba703          	lw	a4,4(s7)
   1a788:	ffc77713          	andi	a4,a4,-4
   1a78c:	00e787b3          	add	a5,a5,a4
   1a790:	01378b33          	add	s6,a5,s3
   1a794:	e4cb44e3          	blt	s6,a2,1a5dc <_realloc_r+0xc4>
   1a798:	00cba783          	lw	a5,12(s7)
   1a79c:	008ba703          	lw	a4,8(s7)
   1a7a0:	ffc98613          	addi	a2,s3,-4
   1a7a4:	02400693          	li	a3,36
   1a7a8:	00f72623          	sw	a5,12(a4)
   1a7ac:	00e7a423          	sw	a4,8(a5)
   1a7b0:	008b8493          	addi	s1,s7,8
   1a7b4:	28c6e463          	bltu	a3,a2,1aa3c <_realloc_r+0x524>
   1a7b8:	01300713          	li	a4,19
   1a7bc:	00048793          	mv	a5,s1
   1a7c0:	02c77263          	bgeu	a4,a2,1a7e4 <_realloc_r+0x2cc>
   1a7c4:	00042703          	lw	a4,0(s0)
   1a7c8:	01b00793          	li	a5,27
   1a7cc:	00eba423          	sw	a4,8(s7)
   1a7d0:	00442703          	lw	a4,4(s0)
   1a7d4:	00eba623          	sw	a4,12(s7)
   1a7d8:	26c7ea63          	bltu	a5,a2,1aa4c <_realloc_r+0x534>
   1a7dc:	00840413          	addi	s0,s0,8
   1a7e0:	010b8793          	addi	a5,s7,16
   1a7e4:	00042703          	lw	a4,0(s0)
   1a7e8:	00e7a023          	sw	a4,0(a5)
   1a7ec:	00442703          	lw	a4,4(s0)
   1a7f0:	00e7a223          	sw	a4,4(a5)
   1a7f4:	00842703          	lw	a4,8(s0)
   1a7f8:	00e7a423          	sw	a4,8(a5)
   1a7fc:	014b8733          	add	a4,s7,s4
   1a800:	414b0b33          	sub	s6,s6,s4
   1a804:	00ec2423          	sw	a4,8(s8)
   1a808:	001b6793          	ori	a5,s6,1
   1a80c:	00f72223          	sw	a5,4(a4)
   1a810:	004ba783          	lw	a5,4(s7)
   1a814:	00090513          	mv	a0,s2
   1a818:	0017f793          	andi	a5,a5,1
   1a81c:	0147e7b3          	or	a5,a5,s4
   1a820:	00fba223          	sw	a5,4(s7)
   1a824:	8c8f70ef          	jal	ra,118ec <__malloc_unlock>
   1a828:	01012b03          	lw	s6,16(sp)
   1a82c:	00c12b83          	lw	s7,12(sp)
   1a830:	00812c03          	lw	s8,8(sp)
   1a834:	e99ff06f          	j	1a6cc <_realloc_r+0x1b4>
   1a838:	00042683          	lw	a3,0(s0)
   1a83c:	01b00713          	li	a4,27
   1a840:	00d52023          	sw	a3,0(a0)
   1a844:	00442683          	lw	a3,4(s0)
   1a848:	00d52223          	sw	a3,4(a0)
   1a84c:	14c76e63          	bltu	a4,a2,1a9a8 <_realloc_r+0x490>
   1a850:	00840713          	addi	a4,s0,8
   1a854:	00850793          	addi	a5,a0,8
   1a858:	dd9ff06f          	j	1a630 <_realloc_r+0x118>
   1a85c:	ffc52783          	lw	a5,-4(a0)
   1a860:	00812c03          	lw	s8,8(sp)
   1a864:	ffc7f793          	andi	a5,a5,-4
   1a868:	00f989b3          	add	s3,s3,a5
   1a86c:	e29ff06f          	j	1a694 <_realloc_r+0x17c>
   1a870:	00cba783          	lw	a5,12(s7)
   1a874:	008ba703          	lw	a4,8(s7)
   1a878:	ffc98613          	addi	a2,s3,-4
   1a87c:	02400693          	li	a3,36
   1a880:	00f72623          	sw	a5,12(a4)
   1a884:	00e7a423          	sw	a4,8(a5)
   1a888:	008b8493          	addi	s1,s7,8
   1a88c:	10c6e663          	bltu	a3,a2,1a998 <_realloc_r+0x480>
   1a890:	01300713          	li	a4,19
   1a894:	00048793          	mv	a5,s1
   1a898:	02c77c63          	bgeu	a4,a2,1a8d0 <_realloc_r+0x3b8>
   1a89c:	00042703          	lw	a4,0(s0)
   1a8a0:	01b00793          	li	a5,27
   1a8a4:	00eba423          	sw	a4,8(s7)
   1a8a8:	00442703          	lw	a4,4(s0)
   1a8ac:	00eba623          	sw	a4,12(s7)
   1a8b0:	14c7f863          	bgeu	a5,a2,1aa00 <_realloc_r+0x4e8>
   1a8b4:	00842783          	lw	a5,8(s0)
   1a8b8:	00fba823          	sw	a5,16(s7)
   1a8bc:	00c42783          	lw	a5,12(s0)
   1a8c0:	00fbaa23          	sw	a5,20(s7)
   1a8c4:	0ad60c63          	beq	a2,a3,1a97c <_realloc_r+0x464>
   1a8c8:	01040413          	addi	s0,s0,16
   1a8cc:	018b8793          	addi	a5,s7,24
   1a8d0:	00042703          	lw	a4,0(s0)
   1a8d4:	00e7a023          	sw	a4,0(a5)
   1a8d8:	00442703          	lw	a4,4(s0)
   1a8dc:	00e7a223          	sw	a4,4(a5)
   1a8e0:	00842703          	lw	a4,8(s0)
   1a8e4:	00e7a423          	sw	a4,8(a5)
   1a8e8:	000b0993          	mv	s3,s6
   1a8ec:	000b8a93          	mv	s5,s7
   1a8f0:	01012b03          	lw	s6,16(sp)
   1a8f4:	00c12b83          	lw	s7,12(sp)
   1a8f8:	00812c03          	lw	s8,8(sp)
   1a8fc:	00048413          	mv	s0,s1
   1a900:	d95ff06f          	j	1a694 <_realloc_r+0x17c>
   1a904:	00040593          	mv	a1,s0
   1a908:	dd1fb0ef          	jal	ra,166d8 <memmove>
   1a90c:	d3dff06f          	j	1a648 <_realloc_r+0x130>
   1a910:	00c6a783          	lw	a5,12(a3)
   1a914:	0086a703          	lw	a4,8(a3)
   1a918:	ffc98613          	addi	a2,s3,-4
   1a91c:	02400693          	li	a3,36
   1a920:	00f72623          	sw	a5,12(a4)
   1a924:	00e7a423          	sw	a4,8(a5)
   1a928:	008ba703          	lw	a4,8(s7)
   1a92c:	00cba783          	lw	a5,12(s7)
   1a930:	008b8493          	addi	s1,s7,8
   1a934:	00f72623          	sw	a5,12(a4)
   1a938:	00e7a423          	sw	a4,8(a5)
   1a93c:	04c6ee63          	bltu	a3,a2,1a998 <_realloc_r+0x480>
   1a940:	01300713          	li	a4,19
   1a944:	00048793          	mv	a5,s1
   1a948:	f8c774e3          	bgeu	a4,a2,1a8d0 <_realloc_r+0x3b8>
   1a94c:	00042703          	lw	a4,0(s0)
   1a950:	01b00793          	li	a5,27
   1a954:	00eba423          	sw	a4,8(s7)
   1a958:	00442703          	lw	a4,4(s0)
   1a95c:	00eba623          	sw	a4,12(s7)
   1a960:	0ac7f063          	bgeu	a5,a2,1aa00 <_realloc_r+0x4e8>
   1a964:	00842703          	lw	a4,8(s0)
   1a968:	02400793          	li	a5,36
   1a96c:	00eba823          	sw	a4,16(s7)
   1a970:	00c42703          	lw	a4,12(s0)
   1a974:	00ebaa23          	sw	a4,20(s7)
   1a978:	f4f618e3          	bne	a2,a5,1a8c8 <_realloc_r+0x3b0>
   1a97c:	01042703          	lw	a4,16(s0)
   1a980:	020b8793          	addi	a5,s7,32
   1a984:	01840413          	addi	s0,s0,24
   1a988:	00ebac23          	sw	a4,24(s7)
   1a98c:	ffc42703          	lw	a4,-4(s0)
   1a990:	00ebae23          	sw	a4,28(s7)
   1a994:	f3dff06f          	j	1a8d0 <_realloc_r+0x3b8>
   1a998:	00040593          	mv	a1,s0
   1a99c:	00048513          	mv	a0,s1
   1a9a0:	d39fb0ef          	jal	ra,166d8 <memmove>
   1a9a4:	f45ff06f          	j	1a8e8 <_realloc_r+0x3d0>
   1a9a8:	00842703          	lw	a4,8(s0)
   1a9ac:	00e52423          	sw	a4,8(a0)
   1a9b0:	00c42703          	lw	a4,12(s0)
   1a9b4:	00e52623          	sw	a4,12(a0)
   1a9b8:	06f60463          	beq	a2,a5,1aa20 <_realloc_r+0x508>
   1a9bc:	01040713          	addi	a4,s0,16
   1a9c0:	01050793          	addi	a5,a0,16
   1a9c4:	c6dff06f          	j	1a630 <_realloc_r+0x118>
   1a9c8:	014a8ab3          	add	s5,s5,s4
   1a9cc:	414686b3          	sub	a3,a3,s4
   1a9d0:	015c2423          	sw	s5,8(s8)
   1a9d4:	0016e793          	ori	a5,a3,1
   1a9d8:	00faa223          	sw	a5,4(s5)
   1a9dc:	ffc42783          	lw	a5,-4(s0)
   1a9e0:	00090513          	mv	a0,s2
   1a9e4:	00040493          	mv	s1,s0
   1a9e8:	0017f793          	andi	a5,a5,1
   1a9ec:	0147e7b3          	or	a5,a5,s4
   1a9f0:	fef42e23          	sw	a5,-4(s0)
   1a9f4:	ef9f60ef          	jal	ra,118ec <__malloc_unlock>
   1a9f8:	00812c03          	lw	s8,8(sp)
   1a9fc:	cd1ff06f          	j	1a6cc <_realloc_r+0x1b4>
   1aa00:	00840413          	addi	s0,s0,8
   1aa04:	010b8793          	addi	a5,s7,16
   1aa08:	ec9ff06f          	j	1a8d0 <_realloc_r+0x3b8>
   1aa0c:	00090513          	mv	a0,s2
   1aa10:	eddf60ef          	jal	ra,118ec <__malloc_unlock>
   1aa14:	00000493          	li	s1,0
   1aa18:	00812c03          	lw	s8,8(sp)
   1aa1c:	cb1ff06f          	j	1a6cc <_realloc_r+0x1b4>
   1aa20:	01042683          	lw	a3,16(s0)
   1aa24:	01840713          	addi	a4,s0,24
   1aa28:	01850793          	addi	a5,a0,24
   1aa2c:	00d52823          	sw	a3,16(a0)
   1aa30:	01442683          	lw	a3,20(s0)
   1aa34:	00d52a23          	sw	a3,20(a0)
   1aa38:	bf9ff06f          	j	1a630 <_realloc_r+0x118>
   1aa3c:	00040593          	mv	a1,s0
   1aa40:	00048513          	mv	a0,s1
   1aa44:	c95fb0ef          	jal	ra,166d8 <memmove>
   1aa48:	db5ff06f          	j	1a7fc <_realloc_r+0x2e4>
   1aa4c:	00842783          	lw	a5,8(s0)
   1aa50:	00fba823          	sw	a5,16(s7)
   1aa54:	00c42783          	lw	a5,12(s0)
   1aa58:	00fbaa23          	sw	a5,20(s7)
   1aa5c:	00d60863          	beq	a2,a3,1aa6c <_realloc_r+0x554>
   1aa60:	01040413          	addi	s0,s0,16
   1aa64:	018b8793          	addi	a5,s7,24
   1aa68:	d7dff06f          	j	1a7e4 <_realloc_r+0x2cc>
   1aa6c:	01042703          	lw	a4,16(s0)
   1aa70:	020b8793          	addi	a5,s7,32
   1aa74:	01840413          	addi	s0,s0,24
   1aa78:	00ebac23          	sw	a4,24(s7)
   1aa7c:	ffc42703          	lw	a4,-4(s0)
   1aa80:	00ebae23          	sw	a4,28(s7)
   1aa84:	d61ff06f          	j	1a7e4 <_realloc_r+0x2cc>

0001aa88 <_wctomb_r>:
   1aa88:	e181a783          	lw	a5,-488(gp) # 238e0 <__global_locale+0xe0>
   1aa8c:	00078067          	jr	a5

0001aa90 <__ascii_wctomb>:
   1aa90:	02058463          	beqz	a1,1aab8 <__ascii_wctomb+0x28>
   1aa94:	0ff00793          	li	a5,255
   1aa98:	00c7e863          	bltu	a5,a2,1aaa8 <__ascii_wctomb+0x18>
   1aa9c:	00c58023          	sb	a2,0(a1)
   1aaa0:	00100513          	li	a0,1
   1aaa4:	00008067          	ret
   1aaa8:	08a00793          	li	a5,138
   1aaac:	00f52023          	sw	a5,0(a0)
   1aab0:	fff00513          	li	a0,-1
   1aab4:	00008067          	ret
   1aab8:	00000513          	li	a0,0
   1aabc:	00008067          	ret

0001aac0 <_wcrtomb_r>:
   1aac0:	fe010113          	addi	sp,sp,-32
   1aac4:	00812c23          	sw	s0,24(sp)
   1aac8:	00912a23          	sw	s1,20(sp)
   1aacc:	00112e23          	sw	ra,28(sp)
   1aad0:	e181a783          	lw	a5,-488(gp) # 238e0 <__global_locale+0xe0>
   1aad4:	00050413          	mv	s0,a0
   1aad8:	00068493          	mv	s1,a3
   1aadc:	02058263          	beqz	a1,1ab00 <_wcrtomb_r+0x40>
   1aae0:	000780e7          	jalr	a5
   1aae4:	fff00793          	li	a5,-1
   1aae8:	02f50663          	beq	a0,a5,1ab14 <_wcrtomb_r+0x54>
   1aaec:	01c12083          	lw	ra,28(sp)
   1aaf0:	01812403          	lw	s0,24(sp)
   1aaf4:	01412483          	lw	s1,20(sp)
   1aaf8:	02010113          	addi	sp,sp,32
   1aafc:	00008067          	ret
   1ab00:	00000613          	li	a2,0
   1ab04:	00410593          	addi	a1,sp,4
   1ab08:	000780e7          	jalr	a5
   1ab0c:	fff00793          	li	a5,-1
   1ab10:	fcf51ee3          	bne	a0,a5,1aaec <_wcrtomb_r+0x2c>
   1ab14:	0004a023          	sw	zero,0(s1)
   1ab18:	08a00793          	li	a5,138
   1ab1c:	01c12083          	lw	ra,28(sp)
   1ab20:	00f42023          	sw	a5,0(s0)
   1ab24:	01812403          	lw	s0,24(sp)
   1ab28:	01412483          	lw	s1,20(sp)
   1ab2c:	02010113          	addi	sp,sp,32
   1ab30:	00008067          	ret

0001ab34 <wcrtomb>:
   1ab34:	fe010113          	addi	sp,sp,-32
   1ab38:	00812c23          	sw	s0,24(sp)
   1ab3c:	00912a23          	sw	s1,20(sp)
   1ab40:	00112e23          	sw	ra,28(sp)
   1ab44:	f0c1a483          	lw	s1,-244(gp) # 239d4 <_impure_ptr>
   1ab48:	e181a783          	lw	a5,-488(gp) # 238e0 <__global_locale+0xe0>
   1ab4c:	00060413          	mv	s0,a2
   1ab50:	02050a63          	beqz	a0,1ab84 <wcrtomb+0x50>
   1ab54:	00058613          	mv	a2,a1
   1ab58:	00040693          	mv	a3,s0
   1ab5c:	00050593          	mv	a1,a0
   1ab60:	00048513          	mv	a0,s1
   1ab64:	000780e7          	jalr	a5
   1ab68:	fff00793          	li	a5,-1
   1ab6c:	02f50a63          	beq	a0,a5,1aba0 <wcrtomb+0x6c>
   1ab70:	01c12083          	lw	ra,28(sp)
   1ab74:	01812403          	lw	s0,24(sp)
   1ab78:	01412483          	lw	s1,20(sp)
   1ab7c:	02010113          	addi	sp,sp,32
   1ab80:	00008067          	ret
   1ab84:	00060693          	mv	a3,a2
   1ab88:	00410593          	addi	a1,sp,4
   1ab8c:	00000613          	li	a2,0
   1ab90:	00048513          	mv	a0,s1
   1ab94:	000780e7          	jalr	a5
   1ab98:	fff00793          	li	a5,-1
   1ab9c:	fcf51ae3          	bne	a0,a5,1ab70 <wcrtomb+0x3c>
   1aba0:	00042023          	sw	zero,0(s0)
   1aba4:	01c12083          	lw	ra,28(sp)
   1aba8:	01812403          	lw	s0,24(sp)
   1abac:	08a00793          	li	a5,138
   1abb0:	00f4a023          	sw	a5,0(s1)
   1abb4:	01412483          	lw	s1,20(sp)
   1abb8:	02010113          	addi	sp,sp,32
   1abbc:	00008067          	ret

0001abc0 <__smakebuf_r>:
   1abc0:	00c59783          	lh	a5,12(a1)
   1abc4:	f8010113          	addi	sp,sp,-128
   1abc8:	06812c23          	sw	s0,120(sp)
   1abcc:	06112e23          	sw	ra,124(sp)
   1abd0:	0027f713          	andi	a4,a5,2
   1abd4:	00058413          	mv	s0,a1
   1abd8:	02070463          	beqz	a4,1ac00 <__smakebuf_r+0x40>
   1abdc:	04358793          	addi	a5,a1,67
   1abe0:	00f5a023          	sw	a5,0(a1)
   1abe4:	00f5a823          	sw	a5,16(a1)
   1abe8:	00100793          	li	a5,1
   1abec:	00f5aa23          	sw	a5,20(a1)
   1abf0:	07c12083          	lw	ra,124(sp)
   1abf4:	07812403          	lw	s0,120(sp)
   1abf8:	08010113          	addi	sp,sp,128
   1abfc:	00008067          	ret
   1ac00:	00e59583          	lh	a1,14(a1)
   1ac04:	06912a23          	sw	s1,116(sp)
   1ac08:	07212823          	sw	s2,112(sp)
   1ac0c:	07312623          	sw	s3,108(sp)
   1ac10:	07412423          	sw	s4,104(sp)
   1ac14:	00050493          	mv	s1,a0
   1ac18:	0805c663          	bltz	a1,1aca4 <__smakebuf_r+0xe4>
   1ac1c:	00810613          	addi	a2,sp,8
   1ac20:	3b4000ef          	jal	ra,1afd4 <_fstat_r>
   1ac24:	06054e63          	bltz	a0,1aca0 <__smakebuf_r+0xe0>
   1ac28:	00c12783          	lw	a5,12(sp)
   1ac2c:	0000f937          	lui	s2,0xf
   1ac30:	000019b7          	lui	s3,0x1
   1ac34:	00f97933          	and	s2,s2,a5
   1ac38:	ffffe7b7          	lui	a5,0xffffe
   1ac3c:	00f90933          	add	s2,s2,a5
   1ac40:	00193913          	seqz	s2,s2
   1ac44:	40000a13          	li	s4,1024
   1ac48:	80098993          	addi	s3,s3,-2048 # 800 <exit-0xf894>
   1ac4c:	000a0593          	mv	a1,s4
   1ac50:	00048513          	mv	a0,s1
   1ac54:	cd8f60ef          	jal	ra,1112c <_malloc_r>
   1ac58:	00c41783          	lh	a5,12(s0)
   1ac5c:	06050863          	beqz	a0,1accc <__smakebuf_r+0x10c>
   1ac60:	0807e793          	ori	a5,a5,128
   1ac64:	00a42023          	sw	a0,0(s0)
   1ac68:	00a42823          	sw	a0,16(s0)
   1ac6c:	00f41623          	sh	a5,12(s0)
   1ac70:	01442a23          	sw	s4,20(s0)
   1ac74:	0a091063          	bnez	s2,1ad14 <__smakebuf_r+0x154>
   1ac78:	0137e7b3          	or	a5,a5,s3
   1ac7c:	07c12083          	lw	ra,124(sp)
   1ac80:	00f41623          	sh	a5,12(s0)
   1ac84:	07812403          	lw	s0,120(sp)
   1ac88:	07412483          	lw	s1,116(sp)
   1ac8c:	07012903          	lw	s2,112(sp)
   1ac90:	06c12983          	lw	s3,108(sp)
   1ac94:	06812a03          	lw	s4,104(sp)
   1ac98:	08010113          	addi	sp,sp,128
   1ac9c:	00008067          	ret
   1aca0:	00c41783          	lh	a5,12(s0)
   1aca4:	0807f793          	andi	a5,a5,128
   1aca8:	00000913          	li	s2,0
   1acac:	04078e63          	beqz	a5,1ad08 <__smakebuf_r+0x148>
   1acb0:	04000a13          	li	s4,64
   1acb4:	000a0593          	mv	a1,s4
   1acb8:	00048513          	mv	a0,s1
   1acbc:	c70f60ef          	jal	ra,1112c <_malloc_r>
   1acc0:	00c41783          	lh	a5,12(s0)
   1acc4:	00000993          	li	s3,0
   1acc8:	f8051ce3          	bnez	a0,1ac60 <__smakebuf_r+0xa0>
   1accc:	2007f713          	andi	a4,a5,512
   1acd0:	04071e63          	bnez	a4,1ad2c <__smakebuf_r+0x16c>
   1acd4:	ffc7f793          	andi	a5,a5,-4
   1acd8:	0027e793          	ori	a5,a5,2
   1acdc:	04340713          	addi	a4,s0,67
   1ace0:	00f41623          	sh	a5,12(s0)
   1ace4:	00100793          	li	a5,1
   1ace8:	07412483          	lw	s1,116(sp)
   1acec:	07012903          	lw	s2,112(sp)
   1acf0:	06c12983          	lw	s3,108(sp)
   1acf4:	06812a03          	lw	s4,104(sp)
   1acf8:	00e42023          	sw	a4,0(s0)
   1acfc:	00e42823          	sw	a4,16(s0)
   1ad00:	00f42a23          	sw	a5,20(s0)
   1ad04:	eedff06f          	j	1abf0 <__smakebuf_r+0x30>
   1ad08:	40000a13          	li	s4,1024
   1ad0c:	00000993          	li	s3,0
   1ad10:	f3dff06f          	j	1ac4c <__smakebuf_r+0x8c>
   1ad14:	00e41583          	lh	a1,14(s0)
   1ad18:	00048513          	mv	a0,s1
   1ad1c:	31c000ef          	jal	ra,1b038 <_isatty_r>
   1ad20:	02051063          	bnez	a0,1ad40 <__smakebuf_r+0x180>
   1ad24:	00c41783          	lh	a5,12(s0)
   1ad28:	f51ff06f          	j	1ac78 <__smakebuf_r+0xb8>
   1ad2c:	07412483          	lw	s1,116(sp)
   1ad30:	07012903          	lw	s2,112(sp)
   1ad34:	06c12983          	lw	s3,108(sp)
   1ad38:	06812a03          	lw	s4,104(sp)
   1ad3c:	eb5ff06f          	j	1abf0 <__smakebuf_r+0x30>
   1ad40:	00c45783          	lhu	a5,12(s0)
   1ad44:	ffc7f793          	andi	a5,a5,-4
   1ad48:	0017e793          	ori	a5,a5,1
   1ad4c:	01079793          	slli	a5,a5,0x10
   1ad50:	4107d793          	srai	a5,a5,0x10
   1ad54:	f25ff06f          	j	1ac78 <__smakebuf_r+0xb8>

0001ad58 <__swhatbuf_r>:
   1ad58:	f9010113          	addi	sp,sp,-112
   1ad5c:	06812423          	sw	s0,104(sp)
   1ad60:	00058413          	mv	s0,a1
   1ad64:	00e59583          	lh	a1,14(a1)
   1ad68:	06912223          	sw	s1,100(sp)
   1ad6c:	07212023          	sw	s2,96(sp)
   1ad70:	06112623          	sw	ra,108(sp)
   1ad74:	00060493          	mv	s1,a2
   1ad78:	00068913          	mv	s2,a3
   1ad7c:	0405ca63          	bltz	a1,1add0 <__swhatbuf_r+0x78>
   1ad80:	00810613          	addi	a2,sp,8
   1ad84:	250000ef          	jal	ra,1afd4 <_fstat_r>
   1ad88:	04054463          	bltz	a0,1add0 <__swhatbuf_r+0x78>
   1ad8c:	00c12703          	lw	a4,12(sp)
   1ad90:	0000f7b7          	lui	a5,0xf
   1ad94:	06c12083          	lw	ra,108(sp)
   1ad98:	00e7f7b3          	and	a5,a5,a4
   1ad9c:	ffffe737          	lui	a4,0xffffe
   1ada0:	00e787b3          	add	a5,a5,a4
   1ada4:	06812403          	lw	s0,104(sp)
   1ada8:	0017b793          	seqz	a5,a5
   1adac:	00f92023          	sw	a5,0(s2) # f000 <exit-0x1094>
   1adb0:	40000713          	li	a4,1024
   1adb4:	00e4a023          	sw	a4,0(s1)
   1adb8:	00001537          	lui	a0,0x1
   1adbc:	06412483          	lw	s1,100(sp)
   1adc0:	06012903          	lw	s2,96(sp)
   1adc4:	80050513          	addi	a0,a0,-2048 # 800 <exit-0xf894>
   1adc8:	07010113          	addi	sp,sp,112
   1adcc:	00008067          	ret
   1add0:	00c45783          	lhu	a5,12(s0)
   1add4:	0807f793          	andi	a5,a5,128
   1add8:	02078863          	beqz	a5,1ae08 <__swhatbuf_r+0xb0>
   1addc:	06c12083          	lw	ra,108(sp)
   1ade0:	06812403          	lw	s0,104(sp)
   1ade4:	00000793          	li	a5,0
   1ade8:	00f92023          	sw	a5,0(s2)
   1adec:	04000713          	li	a4,64
   1adf0:	00e4a023          	sw	a4,0(s1)
   1adf4:	06012903          	lw	s2,96(sp)
   1adf8:	06412483          	lw	s1,100(sp)
   1adfc:	00000513          	li	a0,0
   1ae00:	07010113          	addi	sp,sp,112
   1ae04:	00008067          	ret
   1ae08:	06c12083          	lw	ra,108(sp)
   1ae0c:	06812403          	lw	s0,104(sp)
   1ae10:	00f92023          	sw	a5,0(s2)
   1ae14:	40000713          	li	a4,1024
   1ae18:	00e4a023          	sw	a4,0(s1)
   1ae1c:	06012903          	lw	s2,96(sp)
   1ae20:	06412483          	lw	s1,100(sp)
   1ae24:	00000513          	li	a0,0
   1ae28:	07010113          	addi	sp,sp,112
   1ae2c:	00008067          	ret

0001ae30 <__swbuf_r>:
   1ae30:	fe010113          	addi	sp,sp,-32
   1ae34:	00812c23          	sw	s0,24(sp)
   1ae38:	00912a23          	sw	s1,20(sp)
   1ae3c:	01212823          	sw	s2,16(sp)
   1ae40:	00112e23          	sw	ra,28(sp)
   1ae44:	00050913          	mv	s2,a0
   1ae48:	00058493          	mv	s1,a1
   1ae4c:	00060413          	mv	s0,a2
   1ae50:	00050663          	beqz	a0,1ae5c <__swbuf_r+0x2c>
   1ae54:	03452783          	lw	a5,52(a0)
   1ae58:	16078063          	beqz	a5,1afb8 <__swbuf_r+0x188>
   1ae5c:	01842783          	lw	a5,24(s0)
   1ae60:	00c41703          	lh	a4,12(s0)
   1ae64:	00f42423          	sw	a5,8(s0)
   1ae68:	00877793          	andi	a5,a4,8
   1ae6c:	08078063          	beqz	a5,1aeec <__swbuf_r+0xbc>
   1ae70:	01042783          	lw	a5,16(s0)
   1ae74:	06078c63          	beqz	a5,1aeec <__swbuf_r+0xbc>
   1ae78:	01312623          	sw	s3,12(sp)
   1ae7c:	01271693          	slli	a3,a4,0x12
   1ae80:	0ff4f993          	andi	s3,s1,255
   1ae84:	0ff4f493          	andi	s1,s1,255
   1ae88:	0806d863          	bgez	a3,1af18 <__swbuf_r+0xe8>
   1ae8c:	00042703          	lw	a4,0(s0)
   1ae90:	01442683          	lw	a3,20(s0)
   1ae94:	40f707b3          	sub	a5,a4,a5
   1ae98:	0ad7d863          	bge	a5,a3,1af48 <__swbuf_r+0x118>
   1ae9c:	00842683          	lw	a3,8(s0)
   1aea0:	00170613          	addi	a2,a4,1 # ffffe001 <__BSS_END__+0xfffda2f5>
   1aea4:	00c42023          	sw	a2,0(s0)
   1aea8:	fff68693          	addi	a3,a3,-1
   1aeac:	00d42423          	sw	a3,8(s0)
   1aeb0:	01370023          	sb	s3,0(a4)
   1aeb4:	01442703          	lw	a4,20(s0)
   1aeb8:	00178793          	addi	a5,a5,1 # f001 <exit-0x1093>
   1aebc:	0cf70263          	beq	a4,a5,1af80 <__swbuf_r+0x150>
   1aec0:	00c45783          	lhu	a5,12(s0)
   1aec4:	0017f793          	andi	a5,a5,1
   1aec8:	0c079a63          	bnez	a5,1af9c <__swbuf_r+0x16c>
   1aecc:	00c12983          	lw	s3,12(sp)
   1aed0:	01c12083          	lw	ra,28(sp)
   1aed4:	01812403          	lw	s0,24(sp)
   1aed8:	01012903          	lw	s2,16(sp)
   1aedc:	00048513          	mv	a0,s1
   1aee0:	01412483          	lw	s1,20(sp)
   1aee4:	02010113          	addi	sp,sp,32
   1aee8:	00008067          	ret
   1aeec:	00040593          	mv	a1,s0
   1aef0:	00090513          	mv	a0,s2
   1aef4:	9c0fb0ef          	jal	ra,160b4 <__swsetup_r>
   1aef8:	08051e63          	bnez	a0,1af94 <__swbuf_r+0x164>
   1aefc:	00c41703          	lh	a4,12(s0)
   1af00:	01312623          	sw	s3,12(sp)
   1af04:	01042783          	lw	a5,16(s0)
   1af08:	01271693          	slli	a3,a4,0x12
   1af0c:	0ff4f993          	andi	s3,s1,255
   1af10:	0ff4f493          	andi	s1,s1,255
   1af14:	f606cce3          	bltz	a3,1ae8c <__swbuf_r+0x5c>
   1af18:	06442683          	lw	a3,100(s0)
   1af1c:	ffffe637          	lui	a2,0xffffe
   1af20:	000025b7          	lui	a1,0x2
   1af24:	00b76733          	or	a4,a4,a1
   1af28:	fff60613          	addi	a2,a2,-1 # ffffdfff <__BSS_END__+0xfffda2f3>
   1af2c:	00c6f6b3          	and	a3,a3,a2
   1af30:	00e41623          	sh	a4,12(s0)
   1af34:	00042703          	lw	a4,0(s0)
   1af38:	06d42223          	sw	a3,100(s0)
   1af3c:	01442683          	lw	a3,20(s0)
   1af40:	40f707b3          	sub	a5,a4,a5
   1af44:	f4d7cce3          	blt	a5,a3,1ae9c <__swbuf_r+0x6c>
   1af48:	00040593          	mv	a1,s0
   1af4c:	00090513          	mv	a0,s2
   1af50:	b6dfa0ef          	jal	ra,15abc <_fflush_r>
   1af54:	02051e63          	bnez	a0,1af90 <__swbuf_r+0x160>
   1af58:	00042703          	lw	a4,0(s0)
   1af5c:	00842683          	lw	a3,8(s0)
   1af60:	00100793          	li	a5,1
   1af64:	00170613          	addi	a2,a4,1
   1af68:	fff68693          	addi	a3,a3,-1
   1af6c:	00c42023          	sw	a2,0(s0)
   1af70:	00d42423          	sw	a3,8(s0)
   1af74:	01370023          	sb	s3,0(a4)
   1af78:	01442703          	lw	a4,20(s0)
   1af7c:	f4f712e3          	bne	a4,a5,1aec0 <__swbuf_r+0x90>
   1af80:	00040593          	mv	a1,s0
   1af84:	00090513          	mv	a0,s2
   1af88:	b35fa0ef          	jal	ra,15abc <_fflush_r>
   1af8c:	f40500e3          	beqz	a0,1aecc <__swbuf_r+0x9c>
   1af90:	00c12983          	lw	s3,12(sp)
   1af94:	fff00493          	li	s1,-1
   1af98:	f39ff06f          	j	1aed0 <__swbuf_r+0xa0>
   1af9c:	00a00793          	li	a5,10
   1afa0:	f2f496e3          	bne	s1,a5,1aecc <__swbuf_r+0x9c>
   1afa4:	00040593          	mv	a1,s0
   1afa8:	00090513          	mv	a0,s2
   1afac:	b11fa0ef          	jal	ra,15abc <_fflush_r>
   1afb0:	f0050ee3          	beqz	a0,1aecc <__swbuf_r+0x9c>
   1afb4:	fddff06f          	j	1af90 <__swbuf_r+0x160>
   1afb8:	d18f50ef          	jal	ra,104d0 <__sinit>
   1afbc:	ea1ff06f          	j	1ae5c <__swbuf_r+0x2c>

0001afc0 <__swbuf>:
   1afc0:	00050793          	mv	a5,a0
   1afc4:	f0c1a503          	lw	a0,-244(gp) # 239d4 <_impure_ptr>
   1afc8:	00058613          	mv	a2,a1
   1afcc:	00078593          	mv	a1,a5
   1afd0:	e61ff06f          	j	1ae30 <__swbuf_r>

0001afd4 <_fstat_r>:
   1afd4:	ff010113          	addi	sp,sp,-16
   1afd8:	00058713          	mv	a4,a1
   1afdc:	00812423          	sw	s0,8(sp)
   1afe0:	00912223          	sw	s1,4(sp)
   1afe4:	00050413          	mv	s0,a0
   1afe8:	00060593          	mv	a1,a2
   1afec:	00070513          	mv	a0,a4
   1aff0:	00112623          	sw	ra,12(sp)
   1aff4:	f001ae23          	sw	zero,-228(gp) # 239e4 <errno>
   1aff8:	181000ef          	jal	ra,1b978 <_fstat>
   1affc:	fff00793          	li	a5,-1
   1b000:	00f50c63          	beq	a0,a5,1b018 <_fstat_r+0x44>
   1b004:	00c12083          	lw	ra,12(sp)
   1b008:	00812403          	lw	s0,8(sp)
   1b00c:	00412483          	lw	s1,4(sp)
   1b010:	01010113          	addi	sp,sp,16
   1b014:	00008067          	ret
   1b018:	f1c1a783          	lw	a5,-228(gp) # 239e4 <errno>
   1b01c:	fe0784e3          	beqz	a5,1b004 <_fstat_r+0x30>
   1b020:	00c12083          	lw	ra,12(sp)
   1b024:	00f42023          	sw	a5,0(s0)
   1b028:	00812403          	lw	s0,8(sp)
   1b02c:	00412483          	lw	s1,4(sp)
   1b030:	01010113          	addi	sp,sp,16
   1b034:	00008067          	ret

0001b038 <_isatty_r>:
   1b038:	ff010113          	addi	sp,sp,-16
   1b03c:	00812423          	sw	s0,8(sp)
   1b040:	00912223          	sw	s1,4(sp)
   1b044:	00050413          	mv	s0,a0
   1b048:	00058513          	mv	a0,a1
   1b04c:	00112623          	sw	ra,12(sp)
   1b050:	f001ae23          	sw	zero,-228(gp) # 239e4 <errno>
   1b054:	18d000ef          	jal	ra,1b9e0 <_isatty>
   1b058:	fff00793          	li	a5,-1
   1b05c:	00f50c63          	beq	a0,a5,1b074 <_isatty_r+0x3c>
   1b060:	00c12083          	lw	ra,12(sp)
   1b064:	00812403          	lw	s0,8(sp)
   1b068:	00412483          	lw	s1,4(sp)
   1b06c:	01010113          	addi	sp,sp,16
   1b070:	00008067          	ret
   1b074:	f1c1a783          	lw	a5,-228(gp) # 239e4 <errno>
   1b078:	fe0784e3          	beqz	a5,1b060 <_isatty_r+0x28>
   1b07c:	00c12083          	lw	ra,12(sp)
   1b080:	00f42023          	sw	a5,0(s0)
   1b084:	00812403          	lw	s0,8(sp)
   1b088:	00412483          	lw	s1,4(sp)
   1b08c:	01010113          	addi	sp,sp,16
   1b090:	00008067          	ret

0001b094 <__assert_func>:
   1b094:	f0c1a703          	lw	a4,-244(gp) # 239d4 <_impure_ptr>
   1b098:	ff010113          	addi	sp,sp,-16
   1b09c:	00068793          	mv	a5,a3
   1b0a0:	00060813          	mv	a6,a2
   1b0a4:	00112623          	sw	ra,12(sp)
   1b0a8:	00c72883          	lw	a7,12(a4)
   1b0ac:	00050693          	mv	a3,a0
   1b0b0:	00058713          	mv	a4,a1
   1b0b4:	00078613          	mv	a2,a5
   1b0b8:	02080063          	beqz	a6,1b0d8 <__assert_func+0x44>
   1b0bc:	000227b7          	lui	a5,0x22
   1b0c0:	a9c78793          	addi	a5,a5,-1380 # 21a9c <__clzsi2+0x128>
   1b0c4:	000225b7          	lui	a1,0x22
   1b0c8:	aac58593          	addi	a1,a1,-1364 # 21aac <__clzsi2+0x138>
   1b0cc:	00088513          	mv	a0,a7
   1b0d0:	220000ef          	jal	ra,1b2f0 <fiprintf>
   1b0d4:	270000ef          	jal	ra,1b344 <abort>
   1b0d8:	00022837          	lui	a6,0x22
   1b0dc:	aa880793          	addi	a5,a6,-1368 # 21aa8 <__clzsi2+0x134>
   1b0e0:	aa880813          	addi	a6,a6,-1368
   1b0e4:	fe1ff06f          	j	1b0c4 <__assert_func+0x30>

0001b0e8 <__assert>:
   1b0e8:	ff010113          	addi	sp,sp,-16
   1b0ec:	00060693          	mv	a3,a2
   1b0f0:	00000613          	li	a2,0
   1b0f4:	00112623          	sw	ra,12(sp)
   1b0f8:	f9dff0ef          	jal	ra,1b094 <__assert_func>

0001b0fc <_calloc_r>:
   1b0fc:	fe010113          	addi	sp,sp,-32
   1b100:	00812c23          	sw	s0,24(sp)
   1b104:	00112e23          	sw	ra,28(sp)
   1b108:	0105d693          	srli	a3,a1,0x10
   1b10c:	00058793          	mv	a5,a1
   1b110:	00050413          	mv	s0,a0
   1b114:	01065713          	srli	a4,a2,0x10
   1b118:	0c069063          	bnez	a3,1b1d8 <_calloc_r+0xdc>
   1b11c:	14071a63          	bnez	a4,1b270 <_calloc_r+0x174>
   1b120:	01061593          	slli	a1,a2,0x10
   1b124:	01079513          	slli	a0,a5,0x10
   1b128:	0105d593          	srli	a1,a1,0x10
   1b12c:	01055513          	srli	a0,a0,0x10
   1b130:	76c060ef          	jal	ra,2189c <__mulsi3>
   1b134:	00050593          	mv	a1,a0
   1b138:	00040513          	mv	a0,s0
   1b13c:	ff1f50ef          	jal	ra,1112c <_malloc_r>
   1b140:	00050413          	mv	s0,a0
   1b144:	10050a63          	beqz	a0,1b258 <_calloc_r+0x15c>
   1b148:	ffc52603          	lw	a2,-4(a0)
   1b14c:	02400713          	li	a4,36
   1b150:	ffc67613          	andi	a2,a2,-4
   1b154:	ffc60613          	addi	a2,a2,-4
   1b158:	04c76863          	bltu	a4,a2,1b1a8 <_calloc_r+0xac>
   1b15c:	01300693          	li	a3,19
   1b160:	00050793          	mv	a5,a0
   1b164:	02c6f263          	bgeu	a3,a2,1b188 <_calloc_r+0x8c>
   1b168:	00052023          	sw	zero,0(a0)
   1b16c:	00052223          	sw	zero,4(a0)
   1b170:	01b00793          	li	a5,27
   1b174:	04c7f863          	bgeu	a5,a2,1b1c4 <_calloc_r+0xc8>
   1b178:	00052423          	sw	zero,8(a0)
   1b17c:	00052623          	sw	zero,12(a0)
   1b180:	01050793          	addi	a5,a0,16
   1b184:	10e60263          	beq	a2,a4,1b288 <_calloc_r+0x18c>
   1b188:	0007a023          	sw	zero,0(a5)
   1b18c:	0007a223          	sw	zero,4(a5)
   1b190:	0007a423          	sw	zero,8(a5)
   1b194:	01c12083          	lw	ra,28(sp)
   1b198:	00040513          	mv	a0,s0
   1b19c:	01812403          	lw	s0,24(sp)
   1b1a0:	02010113          	addi	sp,sp,32
   1b1a4:	00008067          	ret
   1b1a8:	00000593          	li	a1,0
   1b1ac:	921f50ef          	jal	ra,10acc <memset>
   1b1b0:	01c12083          	lw	ra,28(sp)
   1b1b4:	00040513          	mv	a0,s0
   1b1b8:	01812403          	lw	s0,24(sp)
   1b1bc:	02010113          	addi	sp,sp,32
   1b1c0:	00008067          	ret
   1b1c4:	00850793          	addi	a5,a0,8
   1b1c8:	0007a023          	sw	zero,0(a5)
   1b1cc:	0007a223          	sw	zero,4(a5)
   1b1d0:	0007a423          	sw	zero,8(a5)
   1b1d4:	fc1ff06f          	j	1b194 <_calloc_r+0x98>
   1b1d8:	0c071663          	bnez	a4,1b2a4 <_calloc_r+0x1a8>
   1b1dc:	01212823          	sw	s2,16(sp)
   1b1e0:	01312623          	sw	s3,12(sp)
   1b1e4:	00912a23          	sw	s1,20(sp)
   1b1e8:	00068913          	mv	s2,a3
   1b1ec:	00060993          	mv	s3,a2
   1b1f0:	01079513          	slli	a0,a5,0x10
   1b1f4:	01061593          	slli	a1,a2,0x10
   1b1f8:	0105d593          	srli	a1,a1,0x10
   1b1fc:	01055513          	srli	a0,a0,0x10
   1b200:	69c060ef          	jal	ra,2189c <__mulsi3>
   1b204:	00050493          	mv	s1,a0
   1b208:	01091593          	slli	a1,s2,0x10
   1b20c:	01099513          	slli	a0,s3,0x10
   1b210:	0105d593          	srli	a1,a1,0x10
   1b214:	01055513          	srli	a0,a0,0x10
   1b218:	684060ef          	jal	ra,2189c <__mulsi3>
   1b21c:	0104d793          	srli	a5,s1,0x10
   1b220:	00f505b3          	add	a1,a0,a5
   1b224:	0105d793          	srli	a5,a1,0x10
   1b228:	06079863          	bnez	a5,1b298 <_calloc_r+0x19c>
   1b22c:	01049493          	slli	s1,s1,0x10
   1b230:	0104d493          	srli	s1,s1,0x10
   1b234:	01059593          	slli	a1,a1,0x10
   1b238:	0095e5b3          	or	a1,a1,s1
   1b23c:	00040513          	mv	a0,s0
   1b240:	01412483          	lw	s1,20(sp)
   1b244:	01012903          	lw	s2,16(sp)
   1b248:	00c12983          	lw	s3,12(sp)
   1b24c:	ee1f50ef          	jal	ra,1112c <_malloc_r>
   1b250:	00050413          	mv	s0,a0
   1b254:	ee051ae3          	bnez	a0,1b148 <_calloc_r+0x4c>
   1b258:	00000413          	li	s0,0
   1b25c:	01c12083          	lw	ra,28(sp)
   1b260:	00040513          	mv	a0,s0
   1b264:	01812403          	lw	s0,24(sp)
   1b268:	02010113          	addi	sp,sp,32
   1b26c:	00008067          	ret
   1b270:	01212823          	sw	s2,16(sp)
   1b274:	01312623          	sw	s3,12(sp)
   1b278:	00912a23          	sw	s1,20(sp)
   1b27c:	00070913          	mv	s2,a4
   1b280:	00058993          	mv	s3,a1
   1b284:	f6dff06f          	j	1b1f0 <_calloc_r+0xf4>
   1b288:	00052823          	sw	zero,16(a0)
   1b28c:	01850793          	addi	a5,a0,24
   1b290:	00052a23          	sw	zero,20(a0)
   1b294:	ef5ff06f          	j	1b188 <_calloc_r+0x8c>
   1b298:	01412483          	lw	s1,20(sp)
   1b29c:	01012903          	lw	s2,16(sp)
   1b2a0:	00c12983          	lw	s3,12(sp)
   1b2a4:	098000ef          	jal	ra,1b33c <__errno>
   1b2a8:	00c00793          	li	a5,12
   1b2ac:	00f52023          	sw	a5,0(a0)
   1b2b0:	00000413          	li	s0,0
   1b2b4:	fa9ff06f          	j	1b25c <_calloc_r+0x160>

0001b2b8 <_fiprintf_r>:
   1b2b8:	fc010113          	addi	sp,sp,-64
   1b2bc:	02c10313          	addi	t1,sp,44
   1b2c0:	02d12623          	sw	a3,44(sp)
   1b2c4:	00030693          	mv	a3,t1
   1b2c8:	00112e23          	sw	ra,28(sp)
   1b2cc:	02e12823          	sw	a4,48(sp)
   1b2d0:	02f12a23          	sw	a5,52(sp)
   1b2d4:	03012c23          	sw	a6,56(sp)
   1b2d8:	03112e23          	sw	a7,60(sp)
   1b2dc:	00612623          	sw	t1,12(sp)
   1b2e0:	8b8f90ef          	jal	ra,14398 <_vfiprintf_r>
   1b2e4:	01c12083          	lw	ra,28(sp)
   1b2e8:	04010113          	addi	sp,sp,64
   1b2ec:	00008067          	ret

0001b2f0 <fiprintf>:
   1b2f0:	00050e13          	mv	t3,a0
   1b2f4:	fc010113          	addi	sp,sp,-64
   1b2f8:	f0c1a503          	lw	a0,-244(gp) # 239d4 <_impure_ptr>
   1b2fc:	02810313          	addi	t1,sp,40
   1b300:	02c12423          	sw	a2,40(sp)
   1b304:	02d12623          	sw	a3,44(sp)
   1b308:	00058613          	mv	a2,a1
   1b30c:	00030693          	mv	a3,t1
   1b310:	000e0593          	mv	a1,t3
   1b314:	00112e23          	sw	ra,28(sp)
   1b318:	02e12823          	sw	a4,48(sp)
   1b31c:	02f12a23          	sw	a5,52(sp)
   1b320:	03012c23          	sw	a6,56(sp)
   1b324:	03112e23          	sw	a7,60(sp)
   1b328:	00612623          	sw	t1,12(sp)
   1b32c:	86cf90ef          	jal	ra,14398 <_vfiprintf_r>
   1b330:	01c12083          	lw	ra,28(sp)
   1b334:	04010113          	addi	sp,sp,64
   1b338:	00008067          	ret

0001b33c <__errno>:
   1b33c:	f0c1a503          	lw	a0,-244(gp) # 239d4 <_impure_ptr>
   1b340:	00008067          	ret

0001b344 <abort>:
   1b344:	ff010113          	addi	sp,sp,-16
   1b348:	00600513          	li	a0,6
   1b34c:	00112623          	sw	ra,12(sp)
   1b350:	2a8000ef          	jal	ra,1b5f8 <raise>
   1b354:	00100513          	li	a0,1
   1b358:	5f0000ef          	jal	ra,1b948 <_exit>

0001b35c <_init_signal_r>:
   1b35c:	11852783          	lw	a5,280(a0)
   1b360:	00078663          	beqz	a5,1b36c <_init_signal_r+0x10>
   1b364:	00000513          	li	a0,0
   1b368:	00008067          	ret
   1b36c:	ff010113          	addi	sp,sp,-16
   1b370:	08000593          	li	a1,128
   1b374:	00812423          	sw	s0,8(sp)
   1b378:	00112623          	sw	ra,12(sp)
   1b37c:	00050413          	mv	s0,a0
   1b380:	dadf50ef          	jal	ra,1112c <_malloc_r>
   1b384:	10a42c23          	sw	a0,280(s0)
   1b388:	02050463          	beqz	a0,1b3b0 <_init_signal_r+0x54>
   1b38c:	08050793          	addi	a5,a0,128
   1b390:	00052023          	sw	zero,0(a0)
   1b394:	00450513          	addi	a0,a0,4
   1b398:	fef51ce3          	bne	a0,a5,1b390 <_init_signal_r+0x34>
   1b39c:	00000513          	li	a0,0
   1b3a0:	00c12083          	lw	ra,12(sp)
   1b3a4:	00812403          	lw	s0,8(sp)
   1b3a8:	01010113          	addi	sp,sp,16
   1b3ac:	00008067          	ret
   1b3b0:	fff00513          	li	a0,-1
   1b3b4:	fedff06f          	j	1b3a0 <_init_signal_r+0x44>

0001b3b8 <_signal_r>:
   1b3b8:	fe010113          	addi	sp,sp,-32
   1b3bc:	00912a23          	sw	s1,20(sp)
   1b3c0:	00112e23          	sw	ra,28(sp)
   1b3c4:	01f00793          	li	a5,31
   1b3c8:	00050493          	mv	s1,a0
   1b3cc:	02b7ec63          	bltu	a5,a1,1b404 <_signal_r+0x4c>
   1b3d0:	11852783          	lw	a5,280(a0)
   1b3d4:	00812c23          	sw	s0,24(sp)
   1b3d8:	00058413          	mv	s0,a1
   1b3dc:	02078c63          	beqz	a5,1b414 <_signal_r+0x5c>
   1b3e0:	00241413          	slli	s0,s0,0x2
   1b3e4:	008787b3          	add	a5,a5,s0
   1b3e8:	01812403          	lw	s0,24(sp)
   1b3ec:	0007a503          	lw	a0,0(a5)
   1b3f0:	00c7a023          	sw	a2,0(a5)
   1b3f4:	01c12083          	lw	ra,28(sp)
   1b3f8:	01412483          	lw	s1,20(sp)
   1b3fc:	02010113          	addi	sp,sp,32
   1b400:	00008067          	ret
   1b404:	01600793          	li	a5,22
   1b408:	00f52023          	sw	a5,0(a0)
   1b40c:	fff00513          	li	a0,-1
   1b410:	fe5ff06f          	j	1b3f4 <_signal_r+0x3c>
   1b414:	08000593          	li	a1,128
   1b418:	00c12623          	sw	a2,12(sp)
   1b41c:	d11f50ef          	jal	ra,1112c <_malloc_r>
   1b420:	10a4ac23          	sw	a0,280(s1)
   1b424:	00c12603          	lw	a2,12(sp)
   1b428:	00050793          	mv	a5,a0
   1b42c:	00050713          	mv	a4,a0
   1b430:	08050693          	addi	a3,a0,128
   1b434:	00050a63          	beqz	a0,1b448 <_signal_r+0x90>
   1b438:	00072023          	sw	zero,0(a4)
   1b43c:	00470713          	addi	a4,a4,4
   1b440:	fed71ce3          	bne	a4,a3,1b438 <_signal_r+0x80>
   1b444:	f9dff06f          	j	1b3e0 <_signal_r+0x28>
   1b448:	01812403          	lw	s0,24(sp)
   1b44c:	fff00513          	li	a0,-1
   1b450:	fa5ff06f          	j	1b3f4 <_signal_r+0x3c>

0001b454 <_raise_r>:
   1b454:	ff010113          	addi	sp,sp,-16
   1b458:	00912223          	sw	s1,4(sp)
   1b45c:	00112623          	sw	ra,12(sp)
   1b460:	01f00793          	li	a5,31
   1b464:	00050493          	mv	s1,a0
   1b468:	0ab7e063          	bltu	a5,a1,1b508 <_raise_r+0xb4>
   1b46c:	11852783          	lw	a5,280(a0)
   1b470:	00812423          	sw	s0,8(sp)
   1b474:	00058413          	mv	s0,a1
   1b478:	04078463          	beqz	a5,1b4c0 <_raise_r+0x6c>
   1b47c:	00259713          	slli	a4,a1,0x2
   1b480:	00e787b3          	add	a5,a5,a4
   1b484:	0007a703          	lw	a4,0(a5)
   1b488:	02070c63          	beqz	a4,1b4c0 <_raise_r+0x6c>
   1b48c:	00100693          	li	a3,1
   1b490:	00d70c63          	beq	a4,a3,1b4a8 <_raise_r+0x54>
   1b494:	fff00693          	li	a3,-1
   1b498:	04d70863          	beq	a4,a3,1b4e8 <_raise_r+0x94>
   1b49c:	0007a023          	sw	zero,0(a5)
   1b4a0:	00058513          	mv	a0,a1
   1b4a4:	000700e7          	jalr	a4
   1b4a8:	00812403          	lw	s0,8(sp)
   1b4ac:	00000513          	li	a0,0
   1b4b0:	00c12083          	lw	ra,12(sp)
   1b4b4:	00412483          	lw	s1,4(sp)
   1b4b8:	01010113          	addi	sp,sp,16
   1b4bc:	00008067          	ret
   1b4c0:	00048513          	mv	a0,s1
   1b4c4:	43c000ef          	jal	ra,1b900 <_getpid_r>
   1b4c8:	00040613          	mv	a2,s0
   1b4cc:	00812403          	lw	s0,8(sp)
   1b4d0:	00c12083          	lw	ra,12(sp)
   1b4d4:	00050593          	mv	a1,a0
   1b4d8:	00048513          	mv	a0,s1
   1b4dc:	00412483          	lw	s1,4(sp)
   1b4e0:	01010113          	addi	sp,sp,16
   1b4e4:	3b80006f          	j	1b89c <_kill_r>
   1b4e8:	00812403          	lw	s0,8(sp)
   1b4ec:	00c12083          	lw	ra,12(sp)
   1b4f0:	01600793          	li	a5,22
   1b4f4:	00f52023          	sw	a5,0(a0)
   1b4f8:	00412483          	lw	s1,4(sp)
   1b4fc:	00100513          	li	a0,1
   1b500:	01010113          	addi	sp,sp,16
   1b504:	00008067          	ret
   1b508:	01600793          	li	a5,22
   1b50c:	00f52023          	sw	a5,0(a0)
   1b510:	fff00513          	li	a0,-1
   1b514:	f9dff06f          	j	1b4b0 <_raise_r+0x5c>

0001b518 <__sigtramp_r>:
   1b518:	01f00793          	li	a5,31
   1b51c:	0cb7ea63          	bltu	a5,a1,1b5f0 <__sigtramp_r+0xd8>
   1b520:	11852783          	lw	a5,280(a0)
   1b524:	ff010113          	addi	sp,sp,-16
   1b528:	00812423          	sw	s0,8(sp)
   1b52c:	00912223          	sw	s1,4(sp)
   1b530:	00112623          	sw	ra,12(sp)
   1b534:	00058413          	mv	s0,a1
   1b538:	00050493          	mv	s1,a0
   1b53c:	08078063          	beqz	a5,1b5bc <__sigtramp_r+0xa4>
   1b540:	00241713          	slli	a4,s0,0x2
   1b544:	00e787b3          	add	a5,a5,a4
   1b548:	0007a703          	lw	a4,0(a5)
   1b54c:	02070c63          	beqz	a4,1b584 <__sigtramp_r+0x6c>
   1b550:	fff00693          	li	a3,-1
   1b554:	06d70063          	beq	a4,a3,1b5b4 <__sigtramp_r+0x9c>
   1b558:	00100693          	li	a3,1
   1b55c:	04d70063          	beq	a4,a3,1b59c <__sigtramp_r+0x84>
   1b560:	00040513          	mv	a0,s0
   1b564:	0007a023          	sw	zero,0(a5)
   1b568:	000700e7          	jalr	a4
   1b56c:	00000513          	li	a0,0
   1b570:	00c12083          	lw	ra,12(sp)
   1b574:	00812403          	lw	s0,8(sp)
   1b578:	00412483          	lw	s1,4(sp)
   1b57c:	01010113          	addi	sp,sp,16
   1b580:	00008067          	ret
   1b584:	00c12083          	lw	ra,12(sp)
   1b588:	00812403          	lw	s0,8(sp)
   1b58c:	00412483          	lw	s1,4(sp)
   1b590:	00100513          	li	a0,1
   1b594:	01010113          	addi	sp,sp,16
   1b598:	00008067          	ret
   1b59c:	00c12083          	lw	ra,12(sp)
   1b5a0:	00812403          	lw	s0,8(sp)
   1b5a4:	00412483          	lw	s1,4(sp)
   1b5a8:	00300513          	li	a0,3
   1b5ac:	01010113          	addi	sp,sp,16
   1b5b0:	00008067          	ret
   1b5b4:	00200513          	li	a0,2
   1b5b8:	fb9ff06f          	j	1b570 <__sigtramp_r+0x58>
   1b5bc:	08000593          	li	a1,128
   1b5c0:	b6df50ef          	jal	ra,1112c <_malloc_r>
   1b5c4:	10a4ac23          	sw	a0,280(s1)
   1b5c8:	00050793          	mv	a5,a0
   1b5cc:	00050e63          	beqz	a0,1b5e8 <__sigtramp_r+0xd0>
   1b5d0:	00050713          	mv	a4,a0
   1b5d4:	08050693          	addi	a3,a0,128
   1b5d8:	00072023          	sw	zero,0(a4)
   1b5dc:	00470713          	addi	a4,a4,4
   1b5e0:	fed71ce3          	bne	a4,a3,1b5d8 <__sigtramp_r+0xc0>
   1b5e4:	f5dff06f          	j	1b540 <__sigtramp_r+0x28>
   1b5e8:	fff00513          	li	a0,-1
   1b5ec:	f85ff06f          	j	1b570 <__sigtramp_r+0x58>
   1b5f0:	fff00513          	li	a0,-1
   1b5f4:	00008067          	ret

0001b5f8 <raise>:
   1b5f8:	ff010113          	addi	sp,sp,-16
   1b5fc:	00912223          	sw	s1,4(sp)
   1b600:	00112623          	sw	ra,12(sp)
   1b604:	01f00793          	li	a5,31
   1b608:	f0c1a483          	lw	s1,-244(gp) # 239d4 <_impure_ptr>
   1b60c:	08a7ee63          	bltu	a5,a0,1b6a8 <raise+0xb0>
   1b610:	1184a783          	lw	a5,280(s1)
   1b614:	00812423          	sw	s0,8(sp)
   1b618:	00050413          	mv	s0,a0
   1b61c:	04078263          	beqz	a5,1b660 <raise+0x68>
   1b620:	00251713          	slli	a4,a0,0x2
   1b624:	00e787b3          	add	a5,a5,a4
   1b628:	0007a703          	lw	a4,0(a5)
   1b62c:	02070a63          	beqz	a4,1b660 <raise+0x68>
   1b630:	00100693          	li	a3,1
   1b634:	00d70a63          	beq	a4,a3,1b648 <raise+0x50>
   1b638:	fff00693          	li	a3,-1
   1b63c:	04d70663          	beq	a4,a3,1b688 <raise+0x90>
   1b640:	0007a023          	sw	zero,0(a5)
   1b644:	000700e7          	jalr	a4
   1b648:	00812403          	lw	s0,8(sp)
   1b64c:	00000513          	li	a0,0
   1b650:	00c12083          	lw	ra,12(sp)
   1b654:	00412483          	lw	s1,4(sp)
   1b658:	01010113          	addi	sp,sp,16
   1b65c:	00008067          	ret
   1b660:	00048513          	mv	a0,s1
   1b664:	29c000ef          	jal	ra,1b900 <_getpid_r>
   1b668:	00040613          	mv	a2,s0
   1b66c:	00812403          	lw	s0,8(sp)
   1b670:	00c12083          	lw	ra,12(sp)
   1b674:	00050593          	mv	a1,a0
   1b678:	00048513          	mv	a0,s1
   1b67c:	00412483          	lw	s1,4(sp)
   1b680:	01010113          	addi	sp,sp,16
   1b684:	2180006f          	j	1b89c <_kill_r>
   1b688:	00812403          	lw	s0,8(sp)
   1b68c:	00c12083          	lw	ra,12(sp)
   1b690:	01600793          	li	a5,22
   1b694:	00f4a023          	sw	a5,0(s1)
   1b698:	00100513          	li	a0,1
   1b69c:	00412483          	lw	s1,4(sp)
   1b6a0:	01010113          	addi	sp,sp,16
   1b6a4:	00008067          	ret
   1b6a8:	01600793          	li	a5,22
   1b6ac:	00f4a023          	sw	a5,0(s1)
   1b6b0:	fff00513          	li	a0,-1
   1b6b4:	f9dff06f          	j	1b650 <raise+0x58>

0001b6b8 <signal>:
   1b6b8:	ff010113          	addi	sp,sp,-16
   1b6bc:	01212023          	sw	s2,0(sp)
   1b6c0:	00112623          	sw	ra,12(sp)
   1b6c4:	01f00793          	li	a5,31
   1b6c8:	f0c1a903          	lw	s2,-244(gp) # 239d4 <_impure_ptr>
   1b6cc:	04a7e263          	bltu	a5,a0,1b710 <signal+0x58>
   1b6d0:	00812423          	sw	s0,8(sp)
   1b6d4:	00050413          	mv	s0,a0
   1b6d8:	11892503          	lw	a0,280(s2)
   1b6dc:	00912223          	sw	s1,4(sp)
   1b6e0:	00058493          	mv	s1,a1
   1b6e4:	02050e63          	beqz	a0,1b720 <signal+0x68>
   1b6e8:	00241413          	slli	s0,s0,0x2
   1b6ec:	008507b3          	add	a5,a0,s0
   1b6f0:	0007a503          	lw	a0,0(a5)
   1b6f4:	00812403          	lw	s0,8(sp)
   1b6f8:	0097a023          	sw	s1,0(a5)
   1b6fc:	00412483          	lw	s1,4(sp)
   1b700:	00c12083          	lw	ra,12(sp)
   1b704:	00012903          	lw	s2,0(sp)
   1b708:	01010113          	addi	sp,sp,16
   1b70c:	00008067          	ret
   1b710:	01600793          	li	a5,22
   1b714:	00f92023          	sw	a5,0(s2)
   1b718:	fff00513          	li	a0,-1
   1b71c:	fe5ff06f          	j	1b700 <signal+0x48>
   1b720:	08000593          	li	a1,128
   1b724:	00090513          	mv	a0,s2
   1b728:	a05f50ef          	jal	ra,1112c <_malloc_r>
   1b72c:	10a92c23          	sw	a0,280(s2)
   1b730:	00050793          	mv	a5,a0
   1b734:	08050713          	addi	a4,a0,128
   1b738:	00050a63          	beqz	a0,1b74c <signal+0x94>
   1b73c:	0007a023          	sw	zero,0(a5)
   1b740:	00478793          	addi	a5,a5,4
   1b744:	fef71ce3          	bne	a4,a5,1b73c <signal+0x84>
   1b748:	fa1ff06f          	j	1b6e8 <signal+0x30>
   1b74c:	00812403          	lw	s0,8(sp)
   1b750:	00412483          	lw	s1,4(sp)
   1b754:	fff00513          	li	a0,-1
   1b758:	fa9ff06f          	j	1b700 <signal+0x48>

0001b75c <_init_signal>:
   1b75c:	ff010113          	addi	sp,sp,-16
   1b760:	00812423          	sw	s0,8(sp)
   1b764:	f0c1a403          	lw	s0,-244(gp) # 239d4 <_impure_ptr>
   1b768:	00112623          	sw	ra,12(sp)
   1b76c:	11842783          	lw	a5,280(s0)
   1b770:	00078c63          	beqz	a5,1b788 <_init_signal+0x2c>
   1b774:	00000513          	li	a0,0
   1b778:	00c12083          	lw	ra,12(sp)
   1b77c:	00812403          	lw	s0,8(sp)
   1b780:	01010113          	addi	sp,sp,16
   1b784:	00008067          	ret
   1b788:	08000593          	li	a1,128
   1b78c:	00040513          	mv	a0,s0
   1b790:	99df50ef          	jal	ra,1112c <_malloc_r>
   1b794:	10a42c23          	sw	a0,280(s0)
   1b798:	00050c63          	beqz	a0,1b7b0 <_init_signal+0x54>
   1b79c:	08050793          	addi	a5,a0,128
   1b7a0:	00052023          	sw	zero,0(a0)
   1b7a4:	00450513          	addi	a0,a0,4
   1b7a8:	fef51ce3          	bne	a0,a5,1b7a0 <_init_signal+0x44>
   1b7ac:	fc9ff06f          	j	1b774 <_init_signal+0x18>
   1b7b0:	fff00513          	li	a0,-1
   1b7b4:	fc5ff06f          	j	1b778 <_init_signal+0x1c>

0001b7b8 <__sigtramp>:
   1b7b8:	ff010113          	addi	sp,sp,-16
   1b7bc:	00912223          	sw	s1,4(sp)
   1b7c0:	00112623          	sw	ra,12(sp)
   1b7c4:	01f00793          	li	a5,31
   1b7c8:	f0c1a483          	lw	s1,-244(gp) # 239d4 <_impure_ptr>
   1b7cc:	0ca7e463          	bltu	a5,a0,1b894 <__sigtramp+0xdc>
   1b7d0:	1184a783          	lw	a5,280(s1)
   1b7d4:	00812423          	sw	s0,8(sp)
   1b7d8:	00050413          	mv	s0,a0
   1b7dc:	08078263          	beqz	a5,1b860 <__sigtramp+0xa8>
   1b7e0:	00241713          	slli	a4,s0,0x2
   1b7e4:	00e787b3          	add	a5,a5,a4
   1b7e8:	0007a703          	lw	a4,0(a5)
   1b7ec:	02070c63          	beqz	a4,1b824 <__sigtramp+0x6c>
   1b7f0:	fff00693          	li	a3,-1
   1b7f4:	06d70063          	beq	a4,a3,1b854 <__sigtramp+0x9c>
   1b7f8:	00100693          	li	a3,1
   1b7fc:	04d70063          	beq	a4,a3,1b83c <__sigtramp+0x84>
   1b800:	00040513          	mv	a0,s0
   1b804:	0007a023          	sw	zero,0(a5)
   1b808:	000700e7          	jalr	a4
   1b80c:	00812403          	lw	s0,8(sp)
   1b810:	00000513          	li	a0,0
   1b814:	00c12083          	lw	ra,12(sp)
   1b818:	00412483          	lw	s1,4(sp)
   1b81c:	01010113          	addi	sp,sp,16
   1b820:	00008067          	ret
   1b824:	00812403          	lw	s0,8(sp)
   1b828:	00c12083          	lw	ra,12(sp)
   1b82c:	00412483          	lw	s1,4(sp)
   1b830:	00100513          	li	a0,1
   1b834:	01010113          	addi	sp,sp,16
   1b838:	00008067          	ret
   1b83c:	00812403          	lw	s0,8(sp)
   1b840:	00c12083          	lw	ra,12(sp)
   1b844:	00412483          	lw	s1,4(sp)
   1b848:	00300513          	li	a0,3
   1b84c:	01010113          	addi	sp,sp,16
   1b850:	00008067          	ret
   1b854:	00812403          	lw	s0,8(sp)
   1b858:	00200513          	li	a0,2
   1b85c:	fb9ff06f          	j	1b814 <__sigtramp+0x5c>
   1b860:	08000593          	li	a1,128
   1b864:	00048513          	mv	a0,s1
   1b868:	8c5f50ef          	jal	ra,1112c <_malloc_r>
   1b86c:	10a4ac23          	sw	a0,280(s1)
   1b870:	00050793          	mv	a5,a0
   1b874:	00050e63          	beqz	a0,1b890 <__sigtramp+0xd8>
   1b878:	00050713          	mv	a4,a0
   1b87c:	08050693          	addi	a3,a0,128
   1b880:	00072023          	sw	zero,0(a4)
   1b884:	00470713          	addi	a4,a4,4
   1b888:	fee69ce3          	bne	a3,a4,1b880 <__sigtramp+0xc8>
   1b88c:	f55ff06f          	j	1b7e0 <__sigtramp+0x28>
   1b890:	00812403          	lw	s0,8(sp)
   1b894:	fff00513          	li	a0,-1
   1b898:	f7dff06f          	j	1b814 <__sigtramp+0x5c>

0001b89c <_kill_r>:
   1b89c:	ff010113          	addi	sp,sp,-16
   1b8a0:	00058713          	mv	a4,a1
   1b8a4:	00812423          	sw	s0,8(sp)
   1b8a8:	00912223          	sw	s1,4(sp)
   1b8ac:	00050413          	mv	s0,a0
   1b8b0:	00060593          	mv	a1,a2
   1b8b4:	00070513          	mv	a0,a4
   1b8b8:	00112623          	sw	ra,12(sp)
   1b8bc:	f001ae23          	sw	zero,-228(gp) # 239e4 <errno>
   1b8c0:	160000ef          	jal	ra,1ba20 <_kill>
   1b8c4:	fff00793          	li	a5,-1
   1b8c8:	00f50c63          	beq	a0,a5,1b8e0 <_kill_r+0x44>
   1b8cc:	00c12083          	lw	ra,12(sp)
   1b8d0:	00812403          	lw	s0,8(sp)
   1b8d4:	00412483          	lw	s1,4(sp)
   1b8d8:	01010113          	addi	sp,sp,16
   1b8dc:	00008067          	ret
   1b8e0:	f1c1a783          	lw	a5,-228(gp) # 239e4 <errno>
   1b8e4:	fe0784e3          	beqz	a5,1b8cc <_kill_r+0x30>
   1b8e8:	00c12083          	lw	ra,12(sp)
   1b8ec:	00f42023          	sw	a5,0(s0)
   1b8f0:	00812403          	lw	s0,8(sp)
   1b8f4:	00412483          	lw	s1,4(sp)
   1b8f8:	01010113          	addi	sp,sp,16
   1b8fc:	00008067          	ret

0001b900 <_getpid_r>:
   1b900:	0d80006f          	j	1b9d8 <_getpid>

0001b904 <_close>:
   1b904:	ff010113          	addi	sp,sp,-16
   1b908:	00112623          	sw	ra,12(sp)
   1b90c:	00812423          	sw	s0,8(sp)
   1b910:	03900893          	li	a7,57
   1b914:	00000073          	ecall
   1b918:	00050413          	mv	s0,a0
   1b91c:	00054c63          	bltz	a0,1b934 <_close+0x30>
   1b920:	00c12083          	lw	ra,12(sp)
   1b924:	00040513          	mv	a0,s0
   1b928:	00812403          	lw	s0,8(sp)
   1b92c:	01010113          	addi	sp,sp,16
   1b930:	00008067          	ret
   1b934:	40800433          	neg	s0,s0
   1b938:	a05ff0ef          	jal	ra,1b33c <__errno>
   1b93c:	00852023          	sw	s0,0(a0)
   1b940:	fff00413          	li	s0,-1
   1b944:	fddff06f          	j	1b920 <_close+0x1c>

0001b948 <_exit>:
   1b948:	05d00893          	li	a7,93
   1b94c:	00000073          	ecall
   1b950:	00054463          	bltz	a0,1b958 <_exit+0x10>
   1b954:	0000006f          	j	1b954 <_exit+0xc>
   1b958:	ff010113          	addi	sp,sp,-16
   1b95c:	00812423          	sw	s0,8(sp)
   1b960:	00050413          	mv	s0,a0
   1b964:	00112623          	sw	ra,12(sp)
   1b968:	40800433          	neg	s0,s0
   1b96c:	9d1ff0ef          	jal	ra,1b33c <__errno>
   1b970:	00852023          	sw	s0,0(a0)
   1b974:	0000006f          	j	1b974 <_exit+0x2c>

0001b978 <_fstat>:
   1b978:	f7010113          	addi	sp,sp,-144
   1b97c:	08912223          	sw	s1,132(sp)
   1b980:	08112623          	sw	ra,140(sp)
   1b984:	00058493          	mv	s1,a1
   1b988:	08812423          	sw	s0,136(sp)
   1b98c:	05000893          	li	a7,80
   1b990:	00010593          	mv	a1,sp
   1b994:	00000073          	ecall
   1b998:	00050413          	mv	s0,a0
   1b99c:	02054463          	bltz	a0,1b9c4 <_fstat+0x4c>
   1b9a0:	00048513          	mv	a0,s1
   1b9a4:	00010593          	mv	a1,sp
   1b9a8:	1e0000ef          	jal	ra,1bb88 <_conv_stat>
   1b9ac:	08c12083          	lw	ra,140(sp)
   1b9b0:	00040513          	mv	a0,s0
   1b9b4:	08812403          	lw	s0,136(sp)
   1b9b8:	08412483          	lw	s1,132(sp)
   1b9bc:	09010113          	addi	sp,sp,144
   1b9c0:	00008067          	ret
   1b9c4:	40800433          	neg	s0,s0
   1b9c8:	975ff0ef          	jal	ra,1b33c <__errno>
   1b9cc:	00852023          	sw	s0,0(a0)
   1b9d0:	fff00413          	li	s0,-1
   1b9d4:	fcdff06f          	j	1b9a0 <_fstat+0x28>

0001b9d8 <_getpid>:
   1b9d8:	00100513          	li	a0,1
   1b9dc:	00008067          	ret

0001b9e0 <_isatty>:
   1b9e0:	f9010113          	addi	sp,sp,-112
   1b9e4:	00810593          	addi	a1,sp,8
   1b9e8:	06112623          	sw	ra,108(sp)
   1b9ec:	f8dff0ef          	jal	ra,1b978 <_fstat>
   1b9f0:	fff00793          	li	a5,-1
   1b9f4:	00f50e63          	beq	a0,a5,1ba10 <_isatty+0x30>
   1b9f8:	00c12503          	lw	a0,12(sp)
   1b9fc:	06c12083          	lw	ra,108(sp)
   1ba00:	00d55513          	srli	a0,a0,0xd
   1ba04:	00157513          	andi	a0,a0,1
   1ba08:	07010113          	addi	sp,sp,112
   1ba0c:	00008067          	ret
   1ba10:	06c12083          	lw	ra,108(sp)
   1ba14:	00000513          	li	a0,0
   1ba18:	07010113          	addi	sp,sp,112
   1ba1c:	00008067          	ret

0001ba20 <_kill>:
   1ba20:	ff010113          	addi	sp,sp,-16
   1ba24:	00112623          	sw	ra,12(sp)
   1ba28:	915ff0ef          	jal	ra,1b33c <__errno>
   1ba2c:	00c12083          	lw	ra,12(sp)
   1ba30:	01600793          	li	a5,22
   1ba34:	00f52023          	sw	a5,0(a0)
   1ba38:	fff00513          	li	a0,-1
   1ba3c:	01010113          	addi	sp,sp,16
   1ba40:	00008067          	ret

0001ba44 <_lseek>:
   1ba44:	ff010113          	addi	sp,sp,-16
   1ba48:	00112623          	sw	ra,12(sp)
   1ba4c:	00812423          	sw	s0,8(sp)
   1ba50:	03e00893          	li	a7,62
   1ba54:	00000073          	ecall
   1ba58:	00050413          	mv	s0,a0
   1ba5c:	00054c63          	bltz	a0,1ba74 <_lseek+0x30>
   1ba60:	00c12083          	lw	ra,12(sp)
   1ba64:	00040513          	mv	a0,s0
   1ba68:	00812403          	lw	s0,8(sp)
   1ba6c:	01010113          	addi	sp,sp,16
   1ba70:	00008067          	ret
   1ba74:	40800433          	neg	s0,s0
   1ba78:	8c5ff0ef          	jal	ra,1b33c <__errno>
   1ba7c:	00852023          	sw	s0,0(a0)
   1ba80:	fff00413          	li	s0,-1
   1ba84:	fddff06f          	j	1ba60 <_lseek+0x1c>

0001ba88 <_read>:
   1ba88:	ff010113          	addi	sp,sp,-16
   1ba8c:	00112623          	sw	ra,12(sp)
   1ba90:	00812423          	sw	s0,8(sp)
   1ba94:	03f00893          	li	a7,63
   1ba98:	00000073          	ecall
   1ba9c:	00050413          	mv	s0,a0
   1baa0:	00054c63          	bltz	a0,1bab8 <_read+0x30>
   1baa4:	00c12083          	lw	ra,12(sp)
   1baa8:	00040513          	mv	a0,s0
   1baac:	00812403          	lw	s0,8(sp)
   1bab0:	01010113          	addi	sp,sp,16
   1bab4:	00008067          	ret
   1bab8:	40800433          	neg	s0,s0
   1babc:	881ff0ef          	jal	ra,1b33c <__errno>
   1bac0:	00852023          	sw	s0,0(a0)
   1bac4:	fff00413          	li	s0,-1
   1bac8:	fddff06f          	j	1baa4 <_read+0x1c>

0001bacc <_sbrk>:
   1bacc:	f341a703          	lw	a4,-204(gp) # 239fc <heap_end.0>
   1bad0:	ff010113          	addi	sp,sp,-16
   1bad4:	00112623          	sw	ra,12(sp)
   1bad8:	00050793          	mv	a5,a0
   1badc:	02071063          	bnez	a4,1bafc <_sbrk+0x30>
   1bae0:	0d600893          	li	a7,214
   1bae4:	00000513          	li	a0,0
   1bae8:	00000073          	ecall
   1baec:	fff00613          	li	a2,-1
   1baf0:	00050713          	mv	a4,a0
   1baf4:	02c50a63          	beq	a0,a2,1bb28 <_sbrk+0x5c>
   1baf8:	f2a1aa23          	sw	a0,-204(gp) # 239fc <heap_end.0>
   1bafc:	0d600893          	li	a7,214
   1bb00:	00e78533          	add	a0,a5,a4
   1bb04:	00000073          	ecall
   1bb08:	f341a703          	lw	a4,-204(gp) # 239fc <heap_end.0>
   1bb0c:	00e787b3          	add	a5,a5,a4
   1bb10:	00f51c63          	bne	a0,a5,1bb28 <_sbrk+0x5c>
   1bb14:	00c12083          	lw	ra,12(sp)
   1bb18:	f2a1aa23          	sw	a0,-204(gp) # 239fc <heap_end.0>
   1bb1c:	00070513          	mv	a0,a4
   1bb20:	01010113          	addi	sp,sp,16
   1bb24:	00008067          	ret
   1bb28:	815ff0ef          	jal	ra,1b33c <__errno>
   1bb2c:	00c12083          	lw	ra,12(sp)
   1bb30:	00c00793          	li	a5,12
   1bb34:	00f52023          	sw	a5,0(a0)
   1bb38:	fff00513          	li	a0,-1
   1bb3c:	01010113          	addi	sp,sp,16
   1bb40:	00008067          	ret

0001bb44 <_write>:
   1bb44:	ff010113          	addi	sp,sp,-16
   1bb48:	00112623          	sw	ra,12(sp)
   1bb4c:	00812423          	sw	s0,8(sp)
   1bb50:	04000893          	li	a7,64
   1bb54:	00000073          	ecall
   1bb58:	00050413          	mv	s0,a0
   1bb5c:	00054c63          	bltz	a0,1bb74 <_write+0x30>
   1bb60:	00c12083          	lw	ra,12(sp)
   1bb64:	00040513          	mv	a0,s0
   1bb68:	00812403          	lw	s0,8(sp)
   1bb6c:	01010113          	addi	sp,sp,16
   1bb70:	00008067          	ret
   1bb74:	40800433          	neg	s0,s0
   1bb78:	fc4ff0ef          	jal	ra,1b33c <__errno>
   1bb7c:	00852023          	sw	s0,0(a0)
   1bb80:	fff00413          	li	s0,-1
   1bb84:	fddff06f          	j	1bb60 <_write+0x1c>

0001bb88 <_conv_stat>:
   1bb88:	0185d703          	lhu	a4,24(a1)
   1bb8c:	0145d783          	lhu	a5,20(a1)
   1bb90:	ff010113          	addi	sp,sp,-16
   1bb94:	01c5a283          	lw	t0,28(a1)
   1bb98:	0205af83          	lw	t6,32(a1)
   1bb9c:	0305af03          	lw	t5,48(a1)
   1bba0:	0405ae83          	lw	t4,64(a1)
   1bba4:	0385ae03          	lw	t3,56(a1)
   1bba8:	0485a303          	lw	t1,72(a1)
   1bbac:	04c5a383          	lw	t2,76(a1)
   1bbb0:	0585a803          	lw	a6,88(a1)
   1bbb4:	05c5a883          	lw	a7,92(a1)
   1bbb8:	00812623          	sw	s0,12(sp)
   1bbbc:	00912423          	sw	s1,8(sp)
   1bbc0:	0105a403          	lw	s0,16(a1)
   1bbc4:	0085a483          	lw	s1,8(a1)
   1bbc8:	01212223          	sw	s2,4(sp)
   1bbcc:	0005a903          	lw	s2,0(a1)
   1bbd0:	0685a603          	lw	a2,104(a1)
   1bbd4:	01071713          	slli	a4,a4,0x10
   1bbd8:	00e7e7b3          	or	a5,a5,a4
   1bbdc:	06c5a683          	lw	a3,108(a1)
   1bbe0:	01251023          	sh	s2,0(a0)
   1bbe4:	00951123          	sh	s1,2(a0)
   1bbe8:	00852223          	sw	s0,4(a0)
   1bbec:	00f52423          	sw	a5,8(a0)
   1bbf0:	00551623          	sh	t0,12(a0)
   1bbf4:	01f51723          	sh	t6,14(a0)
   1bbf8:	01e52823          	sw	t5,16(a0)
   1bbfc:	05d52623          	sw	t4,76(a0)
   1bc00:	05c52423          	sw	t3,72(a0)
   1bc04:	00652c23          	sw	t1,24(a0)
   1bc08:	00752e23          	sw	t2,28(a0)
   1bc0c:	03052423          	sw	a6,40(a0)
   1bc10:	03152623          	sw	a7,44(a0)
   1bc14:	02c52c23          	sw	a2,56(a0)
   1bc18:	00c12403          	lw	s0,12(sp)
   1bc1c:	02d52e23          	sw	a3,60(a0)
   1bc20:	00812483          	lw	s1,8(sp)
   1bc24:	00412903          	lw	s2,4(sp)
   1bc28:	01010113          	addi	sp,sp,16
   1bc2c:	00008067          	ret

0001bc30 <__udivdi3>:
   1bc30:	fd010113          	addi	sp,sp,-48
   1bc34:	01412c23          	sw	s4,24(sp)
   1bc38:	02112623          	sw	ra,44(sp)
   1bc3c:	02812423          	sw	s0,40(sp)
   1bc40:	02912223          	sw	s1,36(sp)
   1bc44:	03212023          	sw	s2,32(sp)
   1bc48:	01312e23          	sw	s3,28(sp)
   1bc4c:	01512a23          	sw	s5,20(sp)
   1bc50:	01612823          	sw	s6,16(sp)
   1bc54:	01712623          	sw	s7,12(sp)
   1bc58:	01812423          	sw	s8,8(sp)
   1bc5c:	01912223          	sw	s9,4(sp)
   1bc60:	00050a13          	mv	s4,a0
   1bc64:	38069463          	bnez	a3,1bfec <__udivdi3+0x3bc>
   1bc68:	000227b7          	lui	a5,0x22
   1bc6c:	00060993          	mv	s3,a2
   1bc70:	00050493          	mv	s1,a0
   1bc74:	10878793          	addi	a5,a5,264 # 22108 <__clz_tab>
   1bc78:	12c5f863          	bgeu	a1,a2,1bda8 <__udivdi3+0x178>
   1bc7c:	00010737          	lui	a4,0x10
   1bc80:	00058913          	mv	s2,a1
   1bc84:	10e67863          	bgeu	a2,a4,1bd94 <__udivdi3+0x164>
   1bc88:	10063713          	sltiu	a4,a2,256
   1bc8c:	00173713          	seqz	a4,a4
   1bc90:	00371713          	slli	a4,a4,0x3
   1bc94:	00e656b3          	srl	a3,a2,a4
   1bc98:	00d787b3          	add	a5,a5,a3
   1bc9c:	0007c783          	lbu	a5,0(a5)
   1bca0:	02000693          	li	a3,32
   1bca4:	00e787b3          	add	a5,a5,a4
   1bca8:	40f68733          	sub	a4,a3,a5
   1bcac:	00f68c63          	beq	a3,a5,1bcc4 <__udivdi3+0x94>
   1bcb0:	00e59933          	sll	s2,a1,a4
   1bcb4:	00fa57b3          	srl	a5,s4,a5
   1bcb8:	00e619b3          	sll	s3,a2,a4
   1bcbc:	0127e933          	or	s2,a5,s2
   1bcc0:	00ea14b3          	sll	s1,s4,a4
   1bcc4:	0109da93          	srli	s5,s3,0x10
   1bcc8:	000a8593          	mv	a1,s5
   1bccc:	00090513          	mv	a0,s2
   1bcd0:	01099b13          	slli	s6,s3,0x10
   1bcd4:	3f5050ef          	jal	ra,218c8 <__hidden___udivsi3>
   1bcd8:	010b5b13          	srli	s6,s6,0x10
   1bcdc:	00050593          	mv	a1,a0
   1bce0:	00050a13          	mv	s4,a0
   1bce4:	000b0513          	mv	a0,s6
   1bce8:	3b5050ef          	jal	ra,2189c <__mulsi3>
   1bcec:	00050413          	mv	s0,a0
   1bcf0:	000a8593          	mv	a1,s5
   1bcf4:	00090513          	mv	a0,s2
   1bcf8:	419050ef          	jal	ra,21910 <__umodsi3>
   1bcfc:	01051513          	slli	a0,a0,0x10
   1bd00:	0104d713          	srli	a4,s1,0x10
   1bd04:	00a76733          	or	a4,a4,a0
   1bd08:	000a0913          	mv	s2,s4
   1bd0c:	00877e63          	bgeu	a4,s0,1bd28 <__udivdi3+0xf8>
   1bd10:	00e98733          	add	a4,s3,a4
   1bd14:	fffa0913          	addi	s2,s4,-1
   1bd18:	01376863          	bltu	a4,s3,1bd28 <__udivdi3+0xf8>
   1bd1c:	00877663          	bgeu	a4,s0,1bd28 <__udivdi3+0xf8>
   1bd20:	ffea0913          	addi	s2,s4,-2
   1bd24:	01370733          	add	a4,a4,s3
   1bd28:	40870433          	sub	s0,a4,s0
   1bd2c:	000a8593          	mv	a1,s5
   1bd30:	00040513          	mv	a0,s0
   1bd34:	395050ef          	jal	ra,218c8 <__hidden___udivsi3>
   1bd38:	00050593          	mv	a1,a0
   1bd3c:	00050a13          	mv	s4,a0
   1bd40:	000b0513          	mv	a0,s6
   1bd44:	359050ef          	jal	ra,2189c <__mulsi3>
   1bd48:	00050b13          	mv	s6,a0
   1bd4c:	000a8593          	mv	a1,s5
   1bd50:	00040513          	mv	a0,s0
   1bd54:	3bd050ef          	jal	ra,21910 <__umodsi3>
   1bd58:	01049493          	slli	s1,s1,0x10
   1bd5c:	01051513          	slli	a0,a0,0x10
   1bd60:	0104d493          	srli	s1,s1,0x10
   1bd64:	00a4e4b3          	or	s1,s1,a0
   1bd68:	000a0713          	mv	a4,s4
   1bd6c:	0164fc63          	bgeu	s1,s6,1bd84 <__udivdi3+0x154>
   1bd70:	009984b3          	add	s1,s3,s1
   1bd74:	fffa0713          	addi	a4,s4,-1
   1bd78:	0134e663          	bltu	s1,s3,1bd84 <__udivdi3+0x154>
   1bd7c:	0164f463          	bgeu	s1,s6,1bd84 <__udivdi3+0x154>
   1bd80:	ffea0713          	addi	a4,s4,-2
   1bd84:	01091793          	slli	a5,s2,0x10
   1bd88:	00e7e7b3          	or	a5,a5,a4
   1bd8c:	00000913          	li	s2,0
   1bd90:	1200006f          	j	1beb0 <__udivdi3+0x280>
   1bd94:	010006b7          	lui	a3,0x1000
   1bd98:	01800713          	li	a4,24
   1bd9c:	eed67ce3          	bgeu	a2,a3,1bc94 <__udivdi3+0x64>
   1bda0:	01000713          	li	a4,16
   1bda4:	ef1ff06f          	j	1bc94 <__udivdi3+0x64>
   1bda8:	00000713          	li	a4,0
   1bdac:	00060c63          	beqz	a2,1bdc4 <__udivdi3+0x194>
   1bdb0:	00010737          	lui	a4,0x10
   1bdb4:	12e67c63          	bgeu	a2,a4,1beec <__udivdi3+0x2bc>
   1bdb8:	10063713          	sltiu	a4,a2,256
   1bdbc:	00173713          	seqz	a4,a4
   1bdc0:	00371713          	slli	a4,a4,0x3
   1bdc4:	00e656b3          	srl	a3,a2,a4
   1bdc8:	00d787b3          	add	a5,a5,a3
   1bdcc:	0007c783          	lbu	a5,0(a5)
   1bdd0:	02000693          	li	a3,32
   1bdd4:	00e787b3          	add	a5,a5,a4
   1bdd8:	40f68733          	sub	a4,a3,a5
   1bddc:	12f69263          	bne	a3,a5,1bf00 <__udivdi3+0x2d0>
   1bde0:	40c58a33          	sub	s4,a1,a2
   1bde4:	00100913          	li	s2,1
   1bde8:	0109db13          	srli	s6,s3,0x10
   1bdec:	000b0593          	mv	a1,s6
   1bdf0:	000a0513          	mv	a0,s4
   1bdf4:	01099b93          	slli	s7,s3,0x10
   1bdf8:	2d1050ef          	jal	ra,218c8 <__hidden___udivsi3>
   1bdfc:	010bdb93          	srli	s7,s7,0x10
   1be00:	00050593          	mv	a1,a0
   1be04:	00050c13          	mv	s8,a0
   1be08:	000b8513          	mv	a0,s7
   1be0c:	291050ef          	jal	ra,2189c <__mulsi3>
   1be10:	00050a93          	mv	s5,a0
   1be14:	000b0593          	mv	a1,s6
   1be18:	000a0513          	mv	a0,s4
   1be1c:	2f5050ef          	jal	ra,21910 <__umodsi3>
   1be20:	01051513          	slli	a0,a0,0x10
   1be24:	0104d713          	srli	a4,s1,0x10
   1be28:	00a76733          	or	a4,a4,a0
   1be2c:	000c0a13          	mv	s4,s8
   1be30:	01577e63          	bgeu	a4,s5,1be4c <__udivdi3+0x21c>
   1be34:	00e98733          	add	a4,s3,a4
   1be38:	fffc0a13          	addi	s4,s8,-1
   1be3c:	01376863          	bltu	a4,s3,1be4c <__udivdi3+0x21c>
   1be40:	01577663          	bgeu	a4,s5,1be4c <__udivdi3+0x21c>
   1be44:	ffec0a13          	addi	s4,s8,-2
   1be48:	01370733          	add	a4,a4,s3
   1be4c:	41570433          	sub	s0,a4,s5
   1be50:	000b0593          	mv	a1,s6
   1be54:	00040513          	mv	a0,s0
   1be58:	271050ef          	jal	ra,218c8 <__hidden___udivsi3>
   1be5c:	00050593          	mv	a1,a0
   1be60:	00050a93          	mv	s5,a0
   1be64:	000b8513          	mv	a0,s7
   1be68:	235050ef          	jal	ra,2189c <__mulsi3>
   1be6c:	00050b93          	mv	s7,a0
   1be70:	000b0593          	mv	a1,s6
   1be74:	00040513          	mv	a0,s0
   1be78:	299050ef          	jal	ra,21910 <__umodsi3>
   1be7c:	01049493          	slli	s1,s1,0x10
   1be80:	01051513          	slli	a0,a0,0x10
   1be84:	0104d493          	srli	s1,s1,0x10
   1be88:	00a4e4b3          	or	s1,s1,a0
   1be8c:	000a8713          	mv	a4,s5
   1be90:	0174fc63          	bgeu	s1,s7,1bea8 <__udivdi3+0x278>
   1be94:	009984b3          	add	s1,s3,s1
   1be98:	fffa8713          	addi	a4,s5,-1
   1be9c:	0134e663          	bltu	s1,s3,1bea8 <__udivdi3+0x278>
   1bea0:	0174f463          	bgeu	s1,s7,1bea8 <__udivdi3+0x278>
   1bea4:	ffea8713          	addi	a4,s5,-2
   1bea8:	010a1793          	slli	a5,s4,0x10
   1beac:	00e7e7b3          	or	a5,a5,a4
   1beb0:	02c12083          	lw	ra,44(sp)
   1beb4:	02812403          	lw	s0,40(sp)
   1beb8:	02412483          	lw	s1,36(sp)
   1bebc:	01c12983          	lw	s3,28(sp)
   1bec0:	01812a03          	lw	s4,24(sp)
   1bec4:	01412a83          	lw	s5,20(sp)
   1bec8:	01012b03          	lw	s6,16(sp)
   1becc:	00c12b83          	lw	s7,12(sp)
   1bed0:	00812c03          	lw	s8,8(sp)
   1bed4:	00412c83          	lw	s9,4(sp)
   1bed8:	00090593          	mv	a1,s2
   1bedc:	00078513          	mv	a0,a5
   1bee0:	02012903          	lw	s2,32(sp)
   1bee4:	03010113          	addi	sp,sp,48
   1bee8:	00008067          	ret
   1beec:	010006b7          	lui	a3,0x1000
   1bef0:	01800713          	li	a4,24
   1bef4:	ecd678e3          	bgeu	a2,a3,1bdc4 <__udivdi3+0x194>
   1bef8:	01000713          	li	a4,16
   1befc:	ec9ff06f          	j	1bdc4 <__udivdi3+0x194>
   1bf00:	00e619b3          	sll	s3,a2,a4
   1bf04:	00f5d933          	srl	s2,a1,a5
   1bf08:	0109db93          	srli	s7,s3,0x10
   1bf0c:	00e595b3          	sll	a1,a1,a4
   1bf10:	00fa57b3          	srl	a5,s4,a5
   1bf14:	00b7eab3          	or	s5,a5,a1
   1bf18:	00ea14b3          	sll	s1,s4,a4
   1bf1c:	000b8593          	mv	a1,s7
   1bf20:	00090513          	mv	a0,s2
   1bf24:	01099a13          	slli	s4,s3,0x10
   1bf28:	1a1050ef          	jal	ra,218c8 <__hidden___udivsi3>
   1bf2c:	010a5a13          	srli	s4,s4,0x10
   1bf30:	00050593          	mv	a1,a0
   1bf34:	00050b13          	mv	s6,a0
   1bf38:	000a0513          	mv	a0,s4
   1bf3c:	161050ef          	jal	ra,2189c <__mulsi3>
   1bf40:	00050413          	mv	s0,a0
   1bf44:	000b8593          	mv	a1,s7
   1bf48:	00090513          	mv	a0,s2
   1bf4c:	1c5050ef          	jal	ra,21910 <__umodsi3>
   1bf50:	01051513          	slli	a0,a0,0x10
   1bf54:	010ad713          	srli	a4,s5,0x10
   1bf58:	00a76733          	or	a4,a4,a0
   1bf5c:	000b0913          	mv	s2,s6
   1bf60:	00877e63          	bgeu	a4,s0,1bf7c <__udivdi3+0x34c>
   1bf64:	00e98733          	add	a4,s3,a4
   1bf68:	fffb0913          	addi	s2,s6,-1
   1bf6c:	01376863          	bltu	a4,s3,1bf7c <__udivdi3+0x34c>
   1bf70:	00877663          	bgeu	a4,s0,1bf7c <__udivdi3+0x34c>
   1bf74:	ffeb0913          	addi	s2,s6,-2
   1bf78:	01370733          	add	a4,a4,s3
   1bf7c:	40870433          	sub	s0,a4,s0
   1bf80:	000b8593          	mv	a1,s7
   1bf84:	00040513          	mv	a0,s0
   1bf88:	141050ef          	jal	ra,218c8 <__hidden___udivsi3>
   1bf8c:	00050593          	mv	a1,a0
   1bf90:	00050b13          	mv	s6,a0
   1bf94:	000a0513          	mv	a0,s4
   1bf98:	105050ef          	jal	ra,2189c <__mulsi3>
   1bf9c:	00050a13          	mv	s4,a0
   1bfa0:	000b8593          	mv	a1,s7
   1bfa4:	00040513          	mv	a0,s0
   1bfa8:	169050ef          	jal	ra,21910 <__umodsi3>
   1bfac:	010a9793          	slli	a5,s5,0x10
   1bfb0:	01051513          	slli	a0,a0,0x10
   1bfb4:	0107d793          	srli	a5,a5,0x10
   1bfb8:	00a7e7b3          	or	a5,a5,a0
   1bfbc:	000b0713          	mv	a4,s6
   1bfc0:	0147fe63          	bgeu	a5,s4,1bfdc <__udivdi3+0x3ac>
   1bfc4:	00f987b3          	add	a5,s3,a5
   1bfc8:	fffb0713          	addi	a4,s6,-1
   1bfcc:	0137e863          	bltu	a5,s3,1bfdc <__udivdi3+0x3ac>
   1bfd0:	0147f663          	bgeu	a5,s4,1bfdc <__udivdi3+0x3ac>
   1bfd4:	ffeb0713          	addi	a4,s6,-2
   1bfd8:	013787b3          	add	a5,a5,s3
   1bfdc:	01091913          	slli	s2,s2,0x10
   1bfe0:	41478a33          	sub	s4,a5,s4
   1bfe4:	00e96933          	or	s2,s2,a4
   1bfe8:	e01ff06f          	j	1bde8 <__udivdi3+0x1b8>
   1bfec:	1ed5ee63          	bltu	a1,a3,1c1e8 <__udivdi3+0x5b8>
   1bff0:	000107b7          	lui	a5,0x10
   1bff4:	04f6f463          	bgeu	a3,a5,1c03c <__udivdi3+0x40c>
   1bff8:	1006b713          	sltiu	a4,a3,256
   1bffc:	00173713          	seqz	a4,a4
   1c000:	00371713          	slli	a4,a4,0x3
   1c004:	000227b7          	lui	a5,0x22
   1c008:	00e6d533          	srl	a0,a3,a4
   1c00c:	10878793          	addi	a5,a5,264 # 22108 <__clz_tab>
   1c010:	00a787b3          	add	a5,a5,a0
   1c014:	0007c803          	lbu	a6,0(a5)
   1c018:	02000793          	li	a5,32
   1c01c:	00e80833          	add	a6,a6,a4
   1c020:	41078933          	sub	s2,a5,a6
   1c024:	03079663          	bne	a5,a6,1c050 <__udivdi3+0x420>
   1c028:	00100793          	li	a5,1
   1c02c:	e8b6e2e3          	bltu	a3,a1,1beb0 <__udivdi3+0x280>
   1c030:	00ca37b3          	sltu	a5,s4,a2
   1c034:	0017b793          	seqz	a5,a5
   1c038:	e79ff06f          	j	1beb0 <__udivdi3+0x280>
   1c03c:	010007b7          	lui	a5,0x1000
   1c040:	01800713          	li	a4,24
   1c044:	fcf6f0e3          	bgeu	a3,a5,1c004 <__udivdi3+0x3d4>
   1c048:	01000713          	li	a4,16
   1c04c:	fb9ff06f          	j	1c004 <__udivdi3+0x3d4>
   1c050:	012696b3          	sll	a3,a3,s2
   1c054:	01065b33          	srl	s6,a2,a6
   1c058:	00db6b33          	or	s6,s6,a3
   1c05c:	0105d4b3          	srl	s1,a1,a6
   1c060:	010b5c13          	srli	s8,s6,0x10
   1c064:	010a5833          	srl	a6,s4,a6
   1c068:	012595b3          	sll	a1,a1,s2
   1c06c:	00b869b3          	or	s3,a6,a1
   1c070:	00048513          	mv	a0,s1
   1c074:	000c0593          	mv	a1,s8
   1c078:	010b1b93          	slli	s7,s6,0x10
   1c07c:	01261433          	sll	s0,a2,s2
   1c080:	010bdb93          	srli	s7,s7,0x10
   1c084:	045050ef          	jal	ra,218c8 <__hidden___udivsi3>
   1c088:	00050593          	mv	a1,a0
   1c08c:	00050c93          	mv	s9,a0
   1c090:	000b8513          	mv	a0,s7
   1c094:	009050ef          	jal	ra,2189c <__mulsi3>
   1c098:	00050a93          	mv	s5,a0
   1c09c:	000c0593          	mv	a1,s8
   1c0a0:	00048513          	mv	a0,s1
   1c0a4:	06d050ef          	jal	ra,21910 <__umodsi3>
   1c0a8:	01051513          	slli	a0,a0,0x10
   1c0ac:	0109d693          	srli	a3,s3,0x10
   1c0b0:	00a6e6b3          	or	a3,a3,a0
   1c0b4:	000c8493          	mv	s1,s9
   1c0b8:	0156fe63          	bgeu	a3,s5,1c0d4 <__udivdi3+0x4a4>
   1c0bc:	00db06b3          	add	a3,s6,a3
   1c0c0:	fffc8493          	addi	s1,s9,-1
   1c0c4:	0166e863          	bltu	a3,s6,1c0d4 <__udivdi3+0x4a4>
   1c0c8:	0156f663          	bgeu	a3,s5,1c0d4 <__udivdi3+0x4a4>
   1c0cc:	ffec8493          	addi	s1,s9,-2
   1c0d0:	016686b3          	add	a3,a3,s6
   1c0d4:	41568ab3          	sub	s5,a3,s5
   1c0d8:	000c0593          	mv	a1,s8
   1c0dc:	000a8513          	mv	a0,s5
   1c0e0:	7e8050ef          	jal	ra,218c8 <__hidden___udivsi3>
   1c0e4:	00050593          	mv	a1,a0
   1c0e8:	00050c93          	mv	s9,a0
   1c0ec:	000b8513          	mv	a0,s7
   1c0f0:	7ac050ef          	jal	ra,2189c <__mulsi3>
   1c0f4:	00050b93          	mv	s7,a0
   1c0f8:	000c0593          	mv	a1,s8
   1c0fc:	000a8513          	mv	a0,s5
   1c100:	011050ef          	jal	ra,21910 <__umodsi3>
   1c104:	01099713          	slli	a4,s3,0x10
   1c108:	01051513          	slli	a0,a0,0x10
   1c10c:	01075713          	srli	a4,a4,0x10
   1c110:	00a76733          	or	a4,a4,a0
   1c114:	000c8693          	mv	a3,s9
   1c118:	01777e63          	bgeu	a4,s7,1c134 <__udivdi3+0x504>
   1c11c:	00eb0733          	add	a4,s6,a4
   1c120:	fffc8693          	addi	a3,s9,-1
   1c124:	01676863          	bltu	a4,s6,1c134 <__udivdi3+0x504>
   1c128:	01777663          	bgeu	a4,s7,1c134 <__udivdi3+0x504>
   1c12c:	ffec8693          	addi	a3,s9,-2
   1c130:	01670733          	add	a4,a4,s6
   1c134:	01049793          	slli	a5,s1,0x10
   1c138:	00010e37          	lui	t3,0x10
   1c13c:	00d7e7b3          	or	a5,a5,a3
   1c140:	fffe0313          	addi	t1,t3,-1 # ffff <exit-0x95>
   1c144:	0067f8b3          	and	a7,a5,t1
   1c148:	00647333          	and	t1,s0,t1
   1c14c:	41770733          	sub	a4,a4,s7
   1c150:	0107de93          	srli	t4,a5,0x10
   1c154:	01045413          	srli	s0,s0,0x10
   1c158:	00088513          	mv	a0,a7
   1c15c:	00030593          	mv	a1,t1
   1c160:	73c050ef          	jal	ra,2189c <__mulsi3>
   1c164:	00050813          	mv	a6,a0
   1c168:	00040593          	mv	a1,s0
   1c16c:	00088513          	mv	a0,a7
   1c170:	72c050ef          	jal	ra,2189c <__mulsi3>
   1c174:	00050893          	mv	a7,a0
   1c178:	00030593          	mv	a1,t1
   1c17c:	000e8513          	mv	a0,t4
   1c180:	71c050ef          	jal	ra,2189c <__mulsi3>
   1c184:	00050313          	mv	t1,a0
   1c188:	00040593          	mv	a1,s0
   1c18c:	000e8513          	mv	a0,t4
   1c190:	70c050ef          	jal	ra,2189c <__mulsi3>
   1c194:	01085693          	srli	a3,a6,0x10
   1c198:	006888b3          	add	a7,a7,t1
   1c19c:	011686b3          	add	a3,a3,a7
   1c1a0:	00050613          	mv	a2,a0
   1c1a4:	0066f463          	bgeu	a3,t1,1c1ac <__udivdi3+0x57c>
   1c1a8:	01c50633          	add	a2,a0,t3
   1c1ac:	0106d593          	srli	a1,a3,0x10
   1c1b0:	00c58633          	add	a2,a1,a2
   1c1b4:	02c76663          	bltu	a4,a2,1c1e0 <__udivdi3+0x5b0>
   1c1b8:	bcc71ae3          	bne	a4,a2,1bd8c <__udivdi3+0x15c>
   1c1bc:	00010637          	lui	a2,0x10
   1c1c0:	fff60613          	addi	a2,a2,-1 # ffff <exit-0x95>
   1c1c4:	00c6f6b3          	and	a3,a3,a2
   1c1c8:	01069693          	slli	a3,a3,0x10
   1c1cc:	00c87833          	and	a6,a6,a2
   1c1d0:	012a1733          	sll	a4,s4,s2
   1c1d4:	010686b3          	add	a3,a3,a6
   1c1d8:	00000913          	li	s2,0
   1c1dc:	ccd77ae3          	bgeu	a4,a3,1beb0 <__udivdi3+0x280>
   1c1e0:	fff78793          	addi	a5,a5,-1 # ffffff <__BSS_END__+0xfdc2f3>
   1c1e4:	ba9ff06f          	j	1bd8c <__udivdi3+0x15c>
   1c1e8:	00000913          	li	s2,0
   1c1ec:	00000793          	li	a5,0
   1c1f0:	cc1ff06f          	j	1beb0 <__udivdi3+0x280>

0001c1f4 <__umoddi3>:
   1c1f4:	fd010113          	addi	sp,sp,-48
   1c1f8:	02812423          	sw	s0,40(sp)
   1c1fc:	02912223          	sw	s1,36(sp)
   1c200:	02112623          	sw	ra,44(sp)
   1c204:	03212023          	sw	s2,32(sp)
   1c208:	01312e23          	sw	s3,28(sp)
   1c20c:	01412c23          	sw	s4,24(sp)
   1c210:	01512a23          	sw	s5,20(sp)
   1c214:	01612823          	sw	s6,16(sp)
   1c218:	01712623          	sw	s7,12(sp)
   1c21c:	01812423          	sw	s8,8(sp)
   1c220:	01912223          	sw	s9,4(sp)
   1c224:	01a12023          	sw	s10,0(sp)
   1c228:	00050413          	mv	s0,a0
   1c22c:	00058493          	mv	s1,a1
   1c230:	24069c63          	bnez	a3,1c488 <__umoddi3+0x294>
   1c234:	000227b7          	lui	a5,0x22
   1c238:	00060993          	mv	s3,a2
   1c23c:	10878793          	addi	a5,a5,264 # 22108 <__clz_tab>
   1c240:	12c5fe63          	bgeu	a1,a2,1c37c <__umoddi3+0x188>
   1c244:	00010737          	lui	a4,0x10
   1c248:	12e67063          	bgeu	a2,a4,1c368 <__umoddi3+0x174>
   1c24c:	10063713          	sltiu	a4,a2,256
   1c250:	00173713          	seqz	a4,a4
   1c254:	00371713          	slli	a4,a4,0x3
   1c258:	00e656b3          	srl	a3,a2,a4
   1c25c:	00d787b3          	add	a5,a5,a3
   1c260:	0007c783          	lbu	a5,0(a5)
   1c264:	00e787b3          	add	a5,a5,a4
   1c268:	02000713          	li	a4,32
   1c26c:	40f70933          	sub	s2,a4,a5
   1c270:	00f70c63          	beq	a4,a5,1c288 <__umoddi3+0x94>
   1c274:	012594b3          	sll	s1,a1,s2
   1c278:	00f557b3          	srl	a5,a0,a5
   1c27c:	012619b3          	sll	s3,a2,s2
   1c280:	0097e4b3          	or	s1,a5,s1
   1c284:	01251433          	sll	s0,a0,s2
   1c288:	0109da93          	srli	s5,s3,0x10
   1c28c:	000a8593          	mv	a1,s5
   1c290:	01099b13          	slli	s6,s3,0x10
   1c294:	00048513          	mv	a0,s1
   1c298:	630050ef          	jal	ra,218c8 <__hidden___udivsi3>
   1c29c:	010b5b13          	srli	s6,s6,0x10
   1c2a0:	000b0593          	mv	a1,s6
   1c2a4:	5f8050ef          	jal	ra,2189c <__mulsi3>
   1c2a8:	00050a13          	mv	s4,a0
   1c2ac:	000a8593          	mv	a1,s5
   1c2b0:	00048513          	mv	a0,s1
   1c2b4:	65c050ef          	jal	ra,21910 <__umodsi3>
   1c2b8:	01051513          	slli	a0,a0,0x10
   1c2bc:	01045793          	srli	a5,s0,0x10
   1c2c0:	00a7e7b3          	or	a5,a5,a0
   1c2c4:	0147fa63          	bgeu	a5,s4,1c2d8 <__umoddi3+0xe4>
   1c2c8:	00f987b3          	add	a5,s3,a5
   1c2cc:	0137e663          	bltu	a5,s3,1c2d8 <__umoddi3+0xe4>
   1c2d0:	0147f463          	bgeu	a5,s4,1c2d8 <__umoddi3+0xe4>
   1c2d4:	013787b3          	add	a5,a5,s3
   1c2d8:	414784b3          	sub	s1,a5,s4
   1c2dc:	000a8593          	mv	a1,s5
   1c2e0:	00048513          	mv	a0,s1
   1c2e4:	5e4050ef          	jal	ra,218c8 <__hidden___udivsi3>
   1c2e8:	000b0593          	mv	a1,s6
   1c2ec:	5b0050ef          	jal	ra,2189c <__mulsi3>
   1c2f0:	00050a13          	mv	s4,a0
   1c2f4:	000a8593          	mv	a1,s5
   1c2f8:	00048513          	mv	a0,s1
   1c2fc:	614050ef          	jal	ra,21910 <__umodsi3>
   1c300:	01041413          	slli	s0,s0,0x10
   1c304:	01051513          	slli	a0,a0,0x10
   1c308:	01045413          	srli	s0,s0,0x10
   1c30c:	00a46433          	or	s0,s0,a0
   1c310:	01447a63          	bgeu	s0,s4,1c324 <__umoddi3+0x130>
   1c314:	00898433          	add	s0,s3,s0
   1c318:	01346663          	bltu	s0,s3,1c324 <__umoddi3+0x130>
   1c31c:	01447463          	bgeu	s0,s4,1c324 <__umoddi3+0x130>
   1c320:	01340433          	add	s0,s0,s3
   1c324:	41440433          	sub	s0,s0,s4
   1c328:	01245533          	srl	a0,s0,s2
   1c32c:	00000593          	li	a1,0
   1c330:	02c12083          	lw	ra,44(sp)
   1c334:	02812403          	lw	s0,40(sp)
   1c338:	02412483          	lw	s1,36(sp)
   1c33c:	02012903          	lw	s2,32(sp)
   1c340:	01c12983          	lw	s3,28(sp)
   1c344:	01812a03          	lw	s4,24(sp)
   1c348:	01412a83          	lw	s5,20(sp)
   1c34c:	01012b03          	lw	s6,16(sp)
   1c350:	00c12b83          	lw	s7,12(sp)
   1c354:	00812c03          	lw	s8,8(sp)
   1c358:	00412c83          	lw	s9,4(sp)
   1c35c:	00012d03          	lw	s10,0(sp)
   1c360:	03010113          	addi	sp,sp,48
   1c364:	00008067          	ret
   1c368:	010006b7          	lui	a3,0x1000
   1c36c:	01800713          	li	a4,24
   1c370:	eed674e3          	bgeu	a2,a3,1c258 <__umoddi3+0x64>
   1c374:	01000713          	li	a4,16
   1c378:	ee1ff06f          	j	1c258 <__umoddi3+0x64>
   1c37c:	00000713          	li	a4,0
   1c380:	00060c63          	beqz	a2,1c398 <__umoddi3+0x1a4>
   1c384:	00010737          	lui	a4,0x10
   1c388:	0ee67663          	bgeu	a2,a4,1c474 <__umoddi3+0x280>
   1c38c:	10063713          	sltiu	a4,a2,256
   1c390:	00173713          	seqz	a4,a4
   1c394:	00371713          	slli	a4,a4,0x3
   1c398:	00e656b3          	srl	a3,a2,a4
   1c39c:	00d787b3          	add	a5,a5,a3
   1c3a0:	0007c783          	lbu	a5,0(a5)
   1c3a4:	40c584b3          	sub	s1,a1,a2
   1c3a8:	00e787b3          	add	a5,a5,a4
   1c3ac:	02000713          	li	a4,32
   1c3b0:	40f70933          	sub	s2,a4,a5
   1c3b4:	ecf70ae3          	beq	a4,a5,1c288 <__umoddi3+0x94>
   1c3b8:	012619b3          	sll	s3,a2,s2
   1c3bc:	00f5dbb3          	srl	s7,a1,a5
   1c3c0:	0109db13          	srli	s6,s3,0x10
   1c3c4:	00f557b3          	srl	a5,a0,a5
   1c3c8:	012595b3          	sll	a1,a1,s2
   1c3cc:	00b7ea33          	or	s4,a5,a1
   1c3d0:	01251433          	sll	s0,a0,s2
   1c3d4:	000b0593          	mv	a1,s6
   1c3d8:	01099a93          	slli	s5,s3,0x10
   1c3dc:	000b8513          	mv	a0,s7
   1c3e0:	4e8050ef          	jal	ra,218c8 <__hidden___udivsi3>
   1c3e4:	010ada93          	srli	s5,s5,0x10
   1c3e8:	000a8593          	mv	a1,s5
   1c3ec:	4b0050ef          	jal	ra,2189c <__mulsi3>
   1c3f0:	00050493          	mv	s1,a0
   1c3f4:	000b0593          	mv	a1,s6
   1c3f8:	000b8513          	mv	a0,s7
   1c3fc:	514050ef          	jal	ra,21910 <__umodsi3>
   1c400:	01051513          	slli	a0,a0,0x10
   1c404:	010a5713          	srli	a4,s4,0x10
   1c408:	00a76733          	or	a4,a4,a0
   1c40c:	00977a63          	bgeu	a4,s1,1c420 <__umoddi3+0x22c>
   1c410:	00e98733          	add	a4,s3,a4
   1c414:	01376663          	bltu	a4,s3,1c420 <__umoddi3+0x22c>
   1c418:	00977463          	bgeu	a4,s1,1c420 <__umoddi3+0x22c>
   1c41c:	01370733          	add	a4,a4,s3
   1c420:	409704b3          	sub	s1,a4,s1
   1c424:	000b0593          	mv	a1,s6
   1c428:	00048513          	mv	a0,s1
   1c42c:	49c050ef          	jal	ra,218c8 <__hidden___udivsi3>
   1c430:	000a8593          	mv	a1,s5
   1c434:	468050ef          	jal	ra,2189c <__mulsi3>
   1c438:	00050a93          	mv	s5,a0
   1c43c:	000b0593          	mv	a1,s6
   1c440:	00048513          	mv	a0,s1
   1c444:	4cc050ef          	jal	ra,21910 <__umodsi3>
   1c448:	010a1793          	slli	a5,s4,0x10
   1c44c:	01051513          	slli	a0,a0,0x10
   1c450:	0107d793          	srli	a5,a5,0x10
   1c454:	00a7e7b3          	or	a5,a5,a0
   1c458:	0157fa63          	bgeu	a5,s5,1c46c <__umoddi3+0x278>
   1c45c:	00f987b3          	add	a5,s3,a5
   1c460:	0137e663          	bltu	a5,s3,1c46c <__umoddi3+0x278>
   1c464:	0157f463          	bgeu	a5,s5,1c46c <__umoddi3+0x278>
   1c468:	013787b3          	add	a5,a5,s3
   1c46c:	415784b3          	sub	s1,a5,s5
   1c470:	e19ff06f          	j	1c288 <__umoddi3+0x94>
   1c474:	010006b7          	lui	a3,0x1000
   1c478:	01800713          	li	a4,24
   1c47c:	f0d67ee3          	bgeu	a2,a3,1c398 <__umoddi3+0x1a4>
   1c480:	01000713          	li	a4,16
   1c484:	f15ff06f          	j	1c398 <__umoddi3+0x1a4>
   1c488:	ead5e4e3          	bltu	a1,a3,1c330 <__umoddi3+0x13c>
   1c48c:	000107b7          	lui	a5,0x10
   1c490:	04f6fe63          	bgeu	a3,a5,1c4ec <__umoddi3+0x2f8>
   1c494:	1006b793          	sltiu	a5,a3,256
   1c498:	0017b793          	seqz	a5,a5
   1c49c:	00379793          	slli	a5,a5,0x3
   1c4a0:	00022737          	lui	a4,0x22
   1c4a4:	00f6d833          	srl	a6,a3,a5
   1c4a8:	10870713          	addi	a4,a4,264 # 22108 <__clz_tab>
   1c4ac:	01070733          	add	a4,a4,a6
   1c4b0:	00074a83          	lbu	s5,0(a4)
   1c4b4:	00fa8ab3          	add	s5,s5,a5
   1c4b8:	02000793          	li	a5,32
   1c4bc:	41578a33          	sub	s4,a5,s5
   1c4c0:	05579063          	bne	a5,s5,1c500 <__umoddi3+0x30c>
   1c4c4:	00b6e463          	bltu	a3,a1,1c4cc <__umoddi3+0x2d8>
   1c4c8:	00c56c63          	bltu	a0,a2,1c4e0 <__umoddi3+0x2ec>
   1c4cc:	40c50933          	sub	s2,a0,a2
   1c4d0:	40d586b3          	sub	a3,a1,a3
   1c4d4:	012534b3          	sltu	s1,a0,s2
   1c4d8:	00090413          	mv	s0,s2
   1c4dc:	409684b3          	sub	s1,a3,s1
   1c4e0:	00040513          	mv	a0,s0
   1c4e4:	00048593          	mv	a1,s1
   1c4e8:	e49ff06f          	j	1c330 <__umoddi3+0x13c>
   1c4ec:	01000737          	lui	a4,0x1000
   1c4f0:	01800793          	li	a5,24
   1c4f4:	fae6f6e3          	bgeu	a3,a4,1c4a0 <__umoddi3+0x2ac>
   1c4f8:	01000793          	li	a5,16
   1c4fc:	fa5ff06f          	j	1c4a0 <__umoddi3+0x2ac>
   1c500:	014696b3          	sll	a3,a3,s4
   1c504:	01565bb3          	srl	s7,a2,s5
   1c508:	00dbebb3          	or	s7,s7,a3
   1c50c:	0155d9b3          	srl	s3,a1,s5
   1c510:	01555433          	srl	s0,a0,s5
   1c514:	014595b3          	sll	a1,a1,s4
   1c518:	010bd493          	srli	s1,s7,0x10
   1c51c:	00b46433          	or	s0,s0,a1
   1c520:	01451b33          	sll	s6,a0,s4
   1c524:	00048593          	mv	a1,s1
   1c528:	00098513          	mv	a0,s3
   1c52c:	010b9c13          	slli	s8,s7,0x10
   1c530:	01461933          	sll	s2,a2,s4
   1c534:	010c5c13          	srli	s8,s8,0x10
   1c538:	390050ef          	jal	ra,218c8 <__hidden___udivsi3>
   1c53c:	00050593          	mv	a1,a0
   1c540:	00050d13          	mv	s10,a0
   1c544:	000c0513          	mv	a0,s8
   1c548:	354050ef          	jal	ra,2189c <__mulsi3>
   1c54c:	00050c93          	mv	s9,a0
   1c550:	00048593          	mv	a1,s1
   1c554:	00098513          	mv	a0,s3
   1c558:	3b8050ef          	jal	ra,21910 <__umodsi3>
   1c55c:	01051513          	slli	a0,a0,0x10
   1c560:	01045793          	srli	a5,s0,0x10
   1c564:	00a7e7b3          	or	a5,a5,a0
   1c568:	000d0993          	mv	s3,s10
   1c56c:	0197fe63          	bgeu	a5,s9,1c588 <__umoddi3+0x394>
   1c570:	00fb87b3          	add	a5,s7,a5
   1c574:	fffd0993          	addi	s3,s10,-1
   1c578:	0177e863          	bltu	a5,s7,1c588 <__umoddi3+0x394>
   1c57c:	0197f663          	bgeu	a5,s9,1c588 <__umoddi3+0x394>
   1c580:	ffed0993          	addi	s3,s10,-2
   1c584:	017787b3          	add	a5,a5,s7
   1c588:	41978cb3          	sub	s9,a5,s9
   1c58c:	00048593          	mv	a1,s1
   1c590:	000c8513          	mv	a0,s9
   1c594:	334050ef          	jal	ra,218c8 <__hidden___udivsi3>
   1c598:	00050593          	mv	a1,a0
   1c59c:	00050d13          	mv	s10,a0
   1c5a0:	000c0513          	mv	a0,s8
   1c5a4:	2f8050ef          	jal	ra,2189c <__mulsi3>
   1c5a8:	00048593          	mv	a1,s1
   1c5ac:	00050c13          	mv	s8,a0
   1c5b0:	000c8513          	mv	a0,s9
   1c5b4:	35c050ef          	jal	ra,21910 <__umodsi3>
   1c5b8:	01041593          	slli	a1,s0,0x10
   1c5bc:	01051513          	slli	a0,a0,0x10
   1c5c0:	0105d593          	srli	a1,a1,0x10
   1c5c4:	00a5e5b3          	or	a1,a1,a0
   1c5c8:	000d0793          	mv	a5,s10
   1c5cc:	0185fe63          	bgeu	a1,s8,1c5e8 <__umoddi3+0x3f4>
   1c5d0:	00bb85b3          	add	a1,s7,a1
   1c5d4:	fffd0793          	addi	a5,s10,-1
   1c5d8:	0175e863          	bltu	a1,s7,1c5e8 <__umoddi3+0x3f4>
   1c5dc:	0185f663          	bgeu	a1,s8,1c5e8 <__umoddi3+0x3f4>
   1c5e0:	ffed0793          	addi	a5,s10,-2
   1c5e4:	017585b3          	add	a1,a1,s7
   1c5e8:	00010e37          	lui	t3,0x10
   1c5ec:	01099993          	slli	s3,s3,0x10
   1c5f0:	00f9e9b3          	or	s3,s3,a5
   1c5f4:	fffe0793          	addi	a5,t3,-1 # ffff <exit-0x95>
   1c5f8:	00f9f733          	and	a4,s3,a5
   1c5fc:	00f977b3          	and	a5,s2,a5
   1c600:	418584b3          	sub	s1,a1,s8
   1c604:	0109d993          	srli	s3,s3,0x10
   1c608:	01095313          	srli	t1,s2,0x10
   1c60c:	00070513          	mv	a0,a4
   1c610:	00078593          	mv	a1,a5
   1c614:	288050ef          	jal	ra,2189c <__mulsi3>
   1c618:	00050813          	mv	a6,a0
   1c61c:	00030593          	mv	a1,t1
   1c620:	00070513          	mv	a0,a4
   1c624:	278050ef          	jal	ra,2189c <__mulsi3>
   1c628:	00050713          	mv	a4,a0
   1c62c:	00078593          	mv	a1,a5
   1c630:	00098513          	mv	a0,s3
   1c634:	268050ef          	jal	ra,2189c <__mulsi3>
   1c638:	00050893          	mv	a7,a0
   1c63c:	00030593          	mv	a1,t1
   1c640:	00098513          	mv	a0,s3
   1c644:	258050ef          	jal	ra,2189c <__mulsi3>
   1c648:	01085793          	srli	a5,a6,0x10
   1c64c:	01170733          	add	a4,a4,a7
   1c650:	00e787b3          	add	a5,a5,a4
   1c654:	00050693          	mv	a3,a0
   1c658:	0117f463          	bgeu	a5,a7,1c660 <__umoddi3+0x46c>
   1c65c:	01c506b3          	add	a3,a0,t3
   1c660:	0107d713          	srli	a4,a5,0x10
   1c664:	00d70733          	add	a4,a4,a3
   1c668:	000106b7          	lui	a3,0x10
   1c66c:	fff68693          	addi	a3,a3,-1 # ffff <exit-0x95>
   1c670:	00d7f7b3          	and	a5,a5,a3
   1c674:	01079793          	slli	a5,a5,0x10
   1c678:	00d87833          	and	a6,a6,a3
   1c67c:	010787b3          	add	a5,a5,a6
   1c680:	00e4e663          	bltu	s1,a4,1c68c <__umoddi3+0x498>
   1c684:	00e49e63          	bne	s1,a4,1c6a0 <__umoddi3+0x4ac>
   1c688:	00fb7c63          	bgeu	s6,a5,1c6a0 <__umoddi3+0x4ac>
   1c68c:	41278933          	sub	s2,a5,s2
   1c690:	0127b6b3          	sltu	a3,a5,s2
   1c694:	017686b3          	add	a3,a3,s7
   1c698:	00090793          	mv	a5,s2
   1c69c:	40d70733          	sub	a4,a4,a3
   1c6a0:	40fb07b3          	sub	a5,s6,a5
   1c6a4:	00fb3b33          	sltu	s6,s6,a5
   1c6a8:	40e485b3          	sub	a1,s1,a4
   1c6ac:	416585b3          	sub	a1,a1,s6
   1c6b0:	01559ab3          	sll	s5,a1,s5
   1c6b4:	0147d7b3          	srl	a5,a5,s4
   1c6b8:	00fae533          	or	a0,s5,a5
   1c6bc:	0145d5b3          	srl	a1,a1,s4
   1c6c0:	c71ff06f          	j	1c330 <__umoddi3+0x13c>

0001c6c4 <__adddf3>:
   1c6c4:	00100837          	lui	a6,0x100
   1c6c8:	fff80813          	addi	a6,a6,-1 # fffff <__BSS_END__+0xdc2f3>
   1c6cc:	fe010113          	addi	sp,sp,-32
   1c6d0:	00b878b3          	and	a7,a6,a1
   1c6d4:	0145d713          	srli	a4,a1,0x14
   1c6d8:	01d55793          	srli	a5,a0,0x1d
   1c6dc:	00d87833          	and	a6,a6,a3
   1c6e0:	00912a23          	sw	s1,20(sp)
   1c6e4:	7ff77493          	andi	s1,a4,2047
   1c6e8:	00389713          	slli	a4,a7,0x3
   1c6ec:	0146d893          	srli	a7,a3,0x14
   1c6f0:	00381813          	slli	a6,a6,0x3
   1c6f4:	01212823          	sw	s2,16(sp)
   1c6f8:	00e7e7b3          	or	a5,a5,a4
   1c6fc:	7ff8f893          	andi	a7,a7,2047
   1c700:	01d65713          	srli	a4,a2,0x1d
   1c704:	00112e23          	sw	ra,28(sp)
   1c708:	00812c23          	sw	s0,24(sp)
   1c70c:	01312623          	sw	s3,12(sp)
   1c710:	01f5d913          	srli	s2,a1,0x1f
   1c714:	01f6d693          	srli	a3,a3,0x1f
   1c718:	01076733          	or	a4,a4,a6
   1c71c:	00351513          	slli	a0,a0,0x3
   1c720:	00361613          	slli	a2,a2,0x3
   1c724:	41148833          	sub	a6,s1,a7
   1c728:	2ad91a63          	bne	s2,a3,1c9dc <__adddf3+0x318>
   1c72c:	11005c63          	blez	a6,1c844 <__adddf3+0x180>
   1c730:	04089063          	bnez	a7,1c770 <__adddf3+0xac>
   1c734:	00c766b3          	or	a3,a4,a2
   1c738:	66068063          	beqz	a3,1cd98 <__adddf3+0x6d4>
   1c73c:	fff80593          	addi	a1,a6,-1
   1c740:	02059063          	bnez	a1,1c760 <__adddf3+0x9c>
   1c744:	00c50633          	add	a2,a0,a2
   1c748:	00a636b3          	sltu	a3,a2,a0
   1c74c:	00e78733          	add	a4,a5,a4
   1c750:	00060513          	mv	a0,a2
   1c754:	00d707b3          	add	a5,a4,a3
   1c758:	00100493          	li	s1,1
   1c75c:	06c0006f          	j	1c7c8 <__adddf3+0x104>
   1c760:	7ff00693          	li	a3,2047
   1c764:	02d81063          	bne	a6,a3,1c784 <__adddf3+0xc0>
   1c768:	7ff00493          	li	s1,2047
   1c76c:	1f80006f          	j	1c964 <__adddf3+0x2a0>
   1c770:	7ff00693          	li	a3,2047
   1c774:	1ed48863          	beq	s1,a3,1c964 <__adddf3+0x2a0>
   1c778:	008006b7          	lui	a3,0x800
   1c77c:	00d76733          	or	a4,a4,a3
   1c780:	00080593          	mv	a1,a6
   1c784:	03800693          	li	a3,56
   1c788:	0ab6c863          	blt	a3,a1,1c838 <__adddf3+0x174>
   1c78c:	01f00693          	li	a3,31
   1c790:	06b6ca63          	blt	a3,a1,1c804 <__adddf3+0x140>
   1c794:	02000813          	li	a6,32
   1c798:	40b80833          	sub	a6,a6,a1
   1c79c:	010716b3          	sll	a3,a4,a6
   1c7a0:	00b658b3          	srl	a7,a2,a1
   1c7a4:	01061833          	sll	a6,a2,a6
   1c7a8:	0116e6b3          	or	a3,a3,a7
   1c7ac:	01003833          	snez	a6,a6
   1c7b0:	0106e6b3          	or	a3,a3,a6
   1c7b4:	00b755b3          	srl	a1,a4,a1
   1c7b8:	00a68533          	add	a0,a3,a0
   1c7bc:	00f585b3          	add	a1,a1,a5
   1c7c0:	00d536b3          	sltu	a3,a0,a3
   1c7c4:	00d587b3          	add	a5,a1,a3
   1c7c8:	00879713          	slli	a4,a5,0x8
   1c7cc:	18075c63          	bgez	a4,1c964 <__adddf3+0x2a0>
   1c7d0:	00148493          	addi	s1,s1,1
   1c7d4:	7ff00713          	li	a4,2047
   1c7d8:	5ae48a63          	beq	s1,a4,1cd8c <__adddf3+0x6c8>
   1c7dc:	ff800737          	lui	a4,0xff800
   1c7e0:	fff70713          	addi	a4,a4,-1 # ff7fffff <__BSS_END__+0xff7dc2f3>
   1c7e4:	00e7f733          	and	a4,a5,a4
   1c7e8:	00155793          	srli	a5,a0,0x1
   1c7ec:	00157513          	andi	a0,a0,1
   1c7f0:	00a7e7b3          	or	a5,a5,a0
   1c7f4:	01f71513          	slli	a0,a4,0x1f
   1c7f8:	00f56533          	or	a0,a0,a5
   1c7fc:	00175793          	srli	a5,a4,0x1
   1c800:	1640006f          	j	1c964 <__adddf3+0x2a0>
   1c804:	fe058693          	addi	a3,a1,-32
   1c808:	02000893          	li	a7,32
   1c80c:	00d756b3          	srl	a3,a4,a3
   1c810:	00000813          	li	a6,0
   1c814:	01158863          	beq	a1,a7,1c824 <__adddf3+0x160>
   1c818:	04000813          	li	a6,64
   1c81c:	40b80833          	sub	a6,a6,a1
   1c820:	01071833          	sll	a6,a4,a6
   1c824:	00c86833          	or	a6,a6,a2
   1c828:	01003833          	snez	a6,a6
   1c82c:	0106e6b3          	or	a3,a3,a6
   1c830:	00000593          	li	a1,0
   1c834:	f85ff06f          	j	1c7b8 <__adddf3+0xf4>
   1c838:	00c766b3          	or	a3,a4,a2
   1c83c:	00d036b3          	snez	a3,a3
   1c840:	ff1ff06f          	j	1c830 <__adddf3+0x16c>
   1c844:	0c080a63          	beqz	a6,1c918 <__adddf3+0x254>
   1c848:	409886b3          	sub	a3,a7,s1
   1c84c:	02049463          	bnez	s1,1c874 <__adddf3+0x1b0>
   1c850:	00a7e5b3          	or	a1,a5,a0
   1c854:	50058e63          	beqz	a1,1cd70 <__adddf3+0x6ac>
   1c858:	fff68593          	addi	a1,a3,-1 # 7fffff <__BSS_END__+0x7dc2f3>
   1c85c:	ee0584e3          	beqz	a1,1c744 <__adddf3+0x80>
   1c860:	7ff00813          	li	a6,2047
   1c864:	03069263          	bne	a3,a6,1c888 <__adddf3+0x1c4>
   1c868:	00070793          	mv	a5,a4
   1c86c:	00060513          	mv	a0,a2
   1c870:	ef9ff06f          	j	1c768 <__adddf3+0xa4>
   1c874:	7ff00593          	li	a1,2047
   1c878:	feb888e3          	beq	a7,a1,1c868 <__adddf3+0x1a4>
   1c87c:	008005b7          	lui	a1,0x800
   1c880:	00b7e7b3          	or	a5,a5,a1
   1c884:	00068593          	mv	a1,a3
   1c888:	03800693          	li	a3,56
   1c88c:	08b6c063          	blt	a3,a1,1c90c <__adddf3+0x248>
   1c890:	01f00693          	li	a3,31
   1c894:	04b6c263          	blt	a3,a1,1c8d8 <__adddf3+0x214>
   1c898:	02000813          	li	a6,32
   1c89c:	40b80833          	sub	a6,a6,a1
   1c8a0:	010796b3          	sll	a3,a5,a6
   1c8a4:	00b55333          	srl	t1,a0,a1
   1c8a8:	01051833          	sll	a6,a0,a6
   1c8ac:	0066e6b3          	or	a3,a3,t1
   1c8b0:	01003833          	snez	a6,a6
   1c8b4:	0106e6b3          	or	a3,a3,a6
   1c8b8:	00b7d5b3          	srl	a1,a5,a1
   1c8bc:	00c68633          	add	a2,a3,a2
   1c8c0:	00e585b3          	add	a1,a1,a4
   1c8c4:	00d636b3          	sltu	a3,a2,a3
   1c8c8:	00060513          	mv	a0,a2
   1c8cc:	00d587b3          	add	a5,a1,a3
   1c8d0:	00088493          	mv	s1,a7
   1c8d4:	ef5ff06f          	j	1c7c8 <__adddf3+0x104>
   1c8d8:	fe058693          	addi	a3,a1,-32 # 7fffe0 <__BSS_END__+0x7dc2d4>
   1c8dc:	02000313          	li	t1,32
   1c8e0:	00d7d6b3          	srl	a3,a5,a3
   1c8e4:	00000813          	li	a6,0
   1c8e8:	00658863          	beq	a1,t1,1c8f8 <__adddf3+0x234>
   1c8ec:	04000813          	li	a6,64
   1c8f0:	40b80833          	sub	a6,a6,a1
   1c8f4:	01079833          	sll	a6,a5,a6
   1c8f8:	00a86833          	or	a6,a6,a0
   1c8fc:	01003833          	snez	a6,a6
   1c900:	0106e6b3          	or	a3,a3,a6
   1c904:	00000593          	li	a1,0
   1c908:	fb5ff06f          	j	1c8bc <__adddf3+0x1f8>
   1c90c:	00a7e6b3          	or	a3,a5,a0
   1c910:	00d036b3          	snez	a3,a3
   1c914:	ff1ff06f          	j	1c904 <__adddf3+0x240>
   1c918:	00148693          	addi	a3,s1,1
   1c91c:	7fe6f593          	andi	a1,a3,2046
   1c920:	08059663          	bnez	a1,1c9ac <__adddf3+0x2e8>
   1c924:	00a7e6b3          	or	a3,a5,a0
   1c928:	06049263          	bnez	s1,1c98c <__adddf3+0x2c8>
   1c92c:	44068863          	beqz	a3,1cd7c <__adddf3+0x6b8>
   1c930:	00c766b3          	or	a3,a4,a2
   1c934:	02068863          	beqz	a3,1c964 <__adddf3+0x2a0>
   1c938:	00c50633          	add	a2,a0,a2
   1c93c:	00a636b3          	sltu	a3,a2,a0
   1c940:	00e78733          	add	a4,a5,a4
   1c944:	00d707b3          	add	a5,a4,a3
   1c948:	00879713          	slli	a4,a5,0x8
   1c94c:	00060513          	mv	a0,a2
   1c950:	00075a63          	bgez	a4,1c964 <__adddf3+0x2a0>
   1c954:	ff800737          	lui	a4,0xff800
   1c958:	fff70713          	addi	a4,a4,-1 # ff7fffff <__BSS_END__+0xff7dc2f3>
   1c95c:	00e7f7b3          	and	a5,a5,a4
   1c960:	00100493          	li	s1,1
   1c964:	00757713          	andi	a4,a0,7
   1c968:	44070863          	beqz	a4,1cdb8 <__adddf3+0x6f4>
   1c96c:	00f57713          	andi	a4,a0,15
   1c970:	00400693          	li	a3,4
   1c974:	44d70263          	beq	a4,a3,1cdb8 <__adddf3+0x6f4>
   1c978:	00450713          	addi	a4,a0,4
   1c97c:	00a736b3          	sltu	a3,a4,a0
   1c980:	00d787b3          	add	a5,a5,a3
   1c984:	00070513          	mv	a0,a4
   1c988:	4300006f          	j	1cdb8 <__adddf3+0x6f4>
   1c98c:	ec068ee3          	beqz	a3,1c868 <__adddf3+0x1a4>
   1c990:	00c76633          	or	a2,a4,a2
   1c994:	dc060ae3          	beqz	a2,1c768 <__adddf3+0xa4>
   1c998:	00000913          	li	s2,0
   1c99c:	004007b7          	lui	a5,0x400
   1c9a0:	00000513          	li	a0,0
   1c9a4:	7ff00493          	li	s1,2047
   1c9a8:	4100006f          	j	1cdb8 <__adddf3+0x6f4>
   1c9ac:	7ff00593          	li	a1,2047
   1c9b0:	3cb68c63          	beq	a3,a1,1cd88 <__adddf3+0x6c4>
   1c9b4:	00c50633          	add	a2,a0,a2
   1c9b8:	00a63533          	sltu	a0,a2,a0
   1c9bc:	00e78733          	add	a4,a5,a4
   1c9c0:	00a70733          	add	a4,a4,a0
   1c9c4:	01f71513          	slli	a0,a4,0x1f
   1c9c8:	00165613          	srli	a2,a2,0x1
   1c9cc:	00c56533          	or	a0,a0,a2
   1c9d0:	00175793          	srli	a5,a4,0x1
   1c9d4:	00068493          	mv	s1,a3
   1c9d8:	f8dff06f          	j	1c964 <__adddf3+0x2a0>
   1c9dc:	0f005c63          	blez	a6,1cad4 <__adddf3+0x410>
   1c9e0:	08089e63          	bnez	a7,1ca7c <__adddf3+0x3b8>
   1c9e4:	00c766b3          	or	a3,a4,a2
   1c9e8:	3a068863          	beqz	a3,1cd98 <__adddf3+0x6d4>
   1c9ec:	fff80693          	addi	a3,a6,-1
   1c9f0:	02069063          	bnez	a3,1ca10 <__adddf3+0x34c>
   1c9f4:	40c50633          	sub	a2,a0,a2
   1c9f8:	00c536b3          	sltu	a3,a0,a2
   1c9fc:	40e78733          	sub	a4,a5,a4
   1ca00:	00060513          	mv	a0,a2
   1ca04:	40d707b3          	sub	a5,a4,a3
   1ca08:	00100493          	li	s1,1
   1ca0c:	0540006f          	j	1ca60 <__adddf3+0x39c>
   1ca10:	7ff00593          	li	a1,2047
   1ca14:	d4b80ae3          	beq	a6,a1,1c768 <__adddf3+0xa4>
   1ca18:	03800593          	li	a1,56
   1ca1c:	0ad5c663          	blt	a1,a3,1cac8 <__adddf3+0x404>
   1ca20:	01f00593          	li	a1,31
   1ca24:	06d5c863          	blt	a1,a3,1ca94 <__adddf3+0x3d0>
   1ca28:	02000813          	li	a6,32
   1ca2c:	40d80833          	sub	a6,a6,a3
   1ca30:	00d658b3          	srl	a7,a2,a3
   1ca34:	010715b3          	sll	a1,a4,a6
   1ca38:	01061833          	sll	a6,a2,a6
   1ca3c:	0115e5b3          	or	a1,a1,a7
   1ca40:	01003833          	snez	a6,a6
   1ca44:	0105e633          	or	a2,a1,a6
   1ca48:	00d756b3          	srl	a3,a4,a3
   1ca4c:	40c50633          	sub	a2,a0,a2
   1ca50:	00c53733          	sltu	a4,a0,a2
   1ca54:	40d786b3          	sub	a3,a5,a3
   1ca58:	00060513          	mv	a0,a2
   1ca5c:	40e687b3          	sub	a5,a3,a4
   1ca60:	00879713          	slli	a4,a5,0x8
   1ca64:	f00750e3          	bgez	a4,1c964 <__adddf3+0x2a0>
   1ca68:	00800437          	lui	s0,0x800
   1ca6c:	fff40413          	addi	s0,s0,-1 # 7fffff <__BSS_END__+0x7dc2f3>
   1ca70:	0087f433          	and	s0,a5,s0
   1ca74:	00050993          	mv	s3,a0
   1ca78:	2100006f          	j	1cc88 <__adddf3+0x5c4>
   1ca7c:	7ff00693          	li	a3,2047
   1ca80:	eed482e3          	beq	s1,a3,1c964 <__adddf3+0x2a0>
   1ca84:	008006b7          	lui	a3,0x800
   1ca88:	00d76733          	or	a4,a4,a3
   1ca8c:	00080693          	mv	a3,a6
   1ca90:	f89ff06f          	j	1ca18 <__adddf3+0x354>
   1ca94:	fe068593          	addi	a1,a3,-32 # 7fffe0 <__BSS_END__+0x7dc2d4>
   1ca98:	02000893          	li	a7,32
   1ca9c:	00b755b3          	srl	a1,a4,a1
   1caa0:	00000813          	li	a6,0
   1caa4:	01168863          	beq	a3,a7,1cab4 <__adddf3+0x3f0>
   1caa8:	04000813          	li	a6,64
   1caac:	40d80833          	sub	a6,a6,a3
   1cab0:	01071833          	sll	a6,a4,a6
   1cab4:	00c86833          	or	a6,a6,a2
   1cab8:	01003833          	snez	a6,a6
   1cabc:	0105e633          	or	a2,a1,a6
   1cac0:	00000693          	li	a3,0
   1cac4:	f89ff06f          	j	1ca4c <__adddf3+0x388>
   1cac8:	00c76633          	or	a2,a4,a2
   1cacc:	00c03633          	snez	a2,a2
   1cad0:	ff1ff06f          	j	1cac0 <__adddf3+0x3fc>
   1cad4:	0e080863          	beqz	a6,1cbc4 <__adddf3+0x500>
   1cad8:	40988833          	sub	a6,a7,s1
   1cadc:	04049263          	bnez	s1,1cb20 <__adddf3+0x45c>
   1cae0:	00a7e5b3          	or	a1,a5,a0
   1cae4:	2a058e63          	beqz	a1,1cda0 <__adddf3+0x6dc>
   1cae8:	fff80593          	addi	a1,a6,-1
   1caec:	00059e63          	bnez	a1,1cb08 <__adddf3+0x444>
   1caf0:	40a60533          	sub	a0,a2,a0
   1caf4:	40f70733          	sub	a4,a4,a5
   1caf8:	00a63633          	sltu	a2,a2,a0
   1cafc:	40c707b3          	sub	a5,a4,a2
   1cb00:	00068913          	mv	s2,a3
   1cb04:	f05ff06f          	j	1ca08 <__adddf3+0x344>
   1cb08:	7ff00313          	li	t1,2047
   1cb0c:	02681463          	bne	a6,t1,1cb34 <__adddf3+0x470>
   1cb10:	00070793          	mv	a5,a4
   1cb14:	00060513          	mv	a0,a2
   1cb18:	7ff00493          	li	s1,2047
   1cb1c:	0d00006f          	j	1cbec <__adddf3+0x528>
   1cb20:	7ff00593          	li	a1,2047
   1cb24:	feb886e3          	beq	a7,a1,1cb10 <__adddf3+0x44c>
   1cb28:	008005b7          	lui	a1,0x800
   1cb2c:	00b7e7b3          	or	a5,a5,a1
   1cb30:	00080593          	mv	a1,a6
   1cb34:	03800813          	li	a6,56
   1cb38:	08b84063          	blt	a6,a1,1cbb8 <__adddf3+0x4f4>
   1cb3c:	01f00813          	li	a6,31
   1cb40:	04b84263          	blt	a6,a1,1cb84 <__adddf3+0x4c0>
   1cb44:	02000313          	li	t1,32
   1cb48:	40b30333          	sub	t1,t1,a1
   1cb4c:	00b55e33          	srl	t3,a0,a1
   1cb50:	00679833          	sll	a6,a5,t1
   1cb54:	00651333          	sll	t1,a0,t1
   1cb58:	01c86833          	or	a6,a6,t3
   1cb5c:	00603333          	snez	t1,t1
   1cb60:	00686533          	or	a0,a6,t1
   1cb64:	00b7d5b3          	srl	a1,a5,a1
   1cb68:	40a60533          	sub	a0,a2,a0
   1cb6c:	40b705b3          	sub	a1,a4,a1
   1cb70:	00a63633          	sltu	a2,a2,a0
   1cb74:	40c587b3          	sub	a5,a1,a2
   1cb78:	00088493          	mv	s1,a7
   1cb7c:	00068913          	mv	s2,a3
   1cb80:	ee1ff06f          	j	1ca60 <__adddf3+0x39c>
   1cb84:	fe058813          	addi	a6,a1,-32 # 7fffe0 <__BSS_END__+0x7dc2d4>
   1cb88:	02000e13          	li	t3,32
   1cb8c:	0107d833          	srl	a6,a5,a6
   1cb90:	00000313          	li	t1,0
   1cb94:	01c58863          	beq	a1,t3,1cba4 <__adddf3+0x4e0>
   1cb98:	04000313          	li	t1,64
   1cb9c:	40b30333          	sub	t1,t1,a1
   1cba0:	00679333          	sll	t1,a5,t1
   1cba4:	00a36333          	or	t1,t1,a0
   1cba8:	00603333          	snez	t1,t1
   1cbac:	00686533          	or	a0,a6,t1
   1cbb0:	00000593          	li	a1,0
   1cbb4:	fb5ff06f          	j	1cb68 <__adddf3+0x4a4>
   1cbb8:	00a7e533          	or	a0,a5,a0
   1cbbc:	00a03533          	snez	a0,a0
   1cbc0:	ff1ff06f          	j	1cbb0 <__adddf3+0x4ec>
   1cbc4:	00148593          	addi	a1,s1,1
   1cbc8:	7fe5f593          	andi	a1,a1,2046
   1cbcc:	08059663          	bnez	a1,1cc58 <__adddf3+0x594>
   1cbd0:	00a7e833          	or	a6,a5,a0
   1cbd4:	00c765b3          	or	a1,a4,a2
   1cbd8:	06049063          	bnez	s1,1cc38 <__adddf3+0x574>
   1cbdc:	00081c63          	bnez	a6,1cbf4 <__adddf3+0x530>
   1cbe0:	10058e63          	beqz	a1,1ccfc <__adddf3+0x638>
   1cbe4:	00070793          	mv	a5,a4
   1cbe8:	00060513          	mv	a0,a2
   1cbec:	00068913          	mv	s2,a3
   1cbf0:	d75ff06f          	j	1c964 <__adddf3+0x2a0>
   1cbf4:	d60588e3          	beqz	a1,1c964 <__adddf3+0x2a0>
   1cbf8:	40c50833          	sub	a6,a0,a2
   1cbfc:	010538b3          	sltu	a7,a0,a6
   1cc00:	40e785b3          	sub	a1,a5,a4
   1cc04:	411585b3          	sub	a1,a1,a7
   1cc08:	00859893          	slli	a7,a1,0x8
   1cc0c:	0008dc63          	bgez	a7,1cc24 <__adddf3+0x560>
   1cc10:	40a60533          	sub	a0,a2,a0
   1cc14:	40f70733          	sub	a4,a4,a5
   1cc18:	00a63633          	sltu	a2,a2,a0
   1cc1c:	40c707b3          	sub	a5,a4,a2
   1cc20:	fcdff06f          	j	1cbec <__adddf3+0x528>
   1cc24:	00b86533          	or	a0,a6,a1
   1cc28:	18050463          	beqz	a0,1cdb0 <__adddf3+0x6ec>
   1cc2c:	00058793          	mv	a5,a1
   1cc30:	00080513          	mv	a0,a6
   1cc34:	d31ff06f          	j	1c964 <__adddf3+0x2a0>
   1cc38:	00081c63          	bnez	a6,1cc50 <__adddf3+0x58c>
   1cc3c:	d4058ee3          	beqz	a1,1c998 <__adddf3+0x2d4>
   1cc40:	00070793          	mv	a5,a4
   1cc44:	00060513          	mv	a0,a2
   1cc48:	00068913          	mv	s2,a3
   1cc4c:	b1dff06f          	j	1c768 <__adddf3+0xa4>
   1cc50:	b0058ce3          	beqz	a1,1c768 <__adddf3+0xa4>
   1cc54:	d45ff06f          	j	1c998 <__adddf3+0x2d4>
   1cc58:	40c505b3          	sub	a1,a0,a2
   1cc5c:	00b53833          	sltu	a6,a0,a1
   1cc60:	40e78433          	sub	s0,a5,a4
   1cc64:	41040433          	sub	s0,s0,a6
   1cc68:	00841813          	slli	a6,s0,0x8
   1cc6c:	00058993          	mv	s3,a1
   1cc70:	08085063          	bgez	a6,1ccf0 <__adddf3+0x62c>
   1cc74:	40a609b3          	sub	s3,a2,a0
   1cc78:	40f70433          	sub	s0,a4,a5
   1cc7c:	01363633          	sltu	a2,a2,s3
   1cc80:	40c40433          	sub	s0,s0,a2
   1cc84:	00068913          	mv	s2,a3
   1cc88:	06040e63          	beqz	s0,1cd04 <__adddf3+0x640>
   1cc8c:	00040513          	mv	a0,s0
   1cc90:	4e5040ef          	jal	ra,21974 <__clzsi2>
   1cc94:	ff850693          	addi	a3,a0,-8
   1cc98:	02000793          	li	a5,32
   1cc9c:	40d787b3          	sub	a5,a5,a3
   1cca0:	00d41433          	sll	s0,s0,a3
   1cca4:	00f9d7b3          	srl	a5,s3,a5
   1cca8:	0087e7b3          	or	a5,a5,s0
   1ccac:	00d99433          	sll	s0,s3,a3
   1ccb0:	0a96c463          	blt	a3,s1,1cd58 <__adddf3+0x694>
   1ccb4:	409686b3          	sub	a3,a3,s1
   1ccb8:	00168613          	addi	a2,a3,1
   1ccbc:	01f00713          	li	a4,31
   1ccc0:	06c74263          	blt	a4,a2,1cd24 <__adddf3+0x660>
   1ccc4:	02000713          	li	a4,32
   1ccc8:	40c70733          	sub	a4,a4,a2
   1cccc:	00e79533          	sll	a0,a5,a4
   1ccd0:	00c456b3          	srl	a3,s0,a2
   1ccd4:	00e41733          	sll	a4,s0,a4
   1ccd8:	00d56533          	or	a0,a0,a3
   1ccdc:	00e03733          	snez	a4,a4
   1cce0:	00e56533          	or	a0,a0,a4
   1cce4:	00c7d7b3          	srl	a5,a5,a2
   1cce8:	00000493          	li	s1,0
   1ccec:	c79ff06f          	j	1c964 <__adddf3+0x2a0>
   1ccf0:	0085e5b3          	or	a1,a1,s0
   1ccf4:	f8059ae3          	bnez	a1,1cc88 <__adddf3+0x5c4>
   1ccf8:	00000493          	li	s1,0
   1ccfc:	00000913          	li	s2,0
   1cd00:	08c0006f          	j	1cd8c <__adddf3+0x6c8>
   1cd04:	00098513          	mv	a0,s3
   1cd08:	46d040ef          	jal	ra,21974 <__clzsi2>
   1cd0c:	01850693          	addi	a3,a0,24
   1cd10:	01f00793          	li	a5,31
   1cd14:	f8d7d2e3          	bge	a5,a3,1cc98 <__adddf3+0x5d4>
   1cd18:	ff850793          	addi	a5,a0,-8
   1cd1c:	00f997b3          	sll	a5,s3,a5
   1cd20:	f91ff06f          	j	1ccb0 <__adddf3+0x5ec>
   1cd24:	fe168693          	addi	a3,a3,-31
   1cd28:	00d7d533          	srl	a0,a5,a3
   1cd2c:	02000693          	li	a3,32
   1cd30:	00000713          	li	a4,0
   1cd34:	00d60863          	beq	a2,a3,1cd44 <__adddf3+0x680>
   1cd38:	04000713          	li	a4,64
   1cd3c:	40c70733          	sub	a4,a4,a2
   1cd40:	00e79733          	sll	a4,a5,a4
   1cd44:	00e46733          	or	a4,s0,a4
   1cd48:	00e03733          	snez	a4,a4
   1cd4c:	00e56533          	or	a0,a0,a4
   1cd50:	00000793          	li	a5,0
   1cd54:	f95ff06f          	j	1cce8 <__adddf3+0x624>
   1cd58:	ff800737          	lui	a4,0xff800
   1cd5c:	fff70713          	addi	a4,a4,-1 # ff7fffff <__BSS_END__+0xff7dc2f3>
   1cd60:	40d484b3          	sub	s1,s1,a3
   1cd64:	00e7f7b3          	and	a5,a5,a4
   1cd68:	00040513          	mv	a0,s0
   1cd6c:	bf9ff06f          	j	1c964 <__adddf3+0x2a0>
   1cd70:	00070793          	mv	a5,a4
   1cd74:	00060513          	mv	a0,a2
   1cd78:	c5dff06f          	j	1c9d4 <__adddf3+0x310>
   1cd7c:	00070793          	mv	a5,a4
   1cd80:	00060513          	mv	a0,a2
   1cd84:	be1ff06f          	j	1c964 <__adddf3+0x2a0>
   1cd88:	7ff00493          	li	s1,2047
   1cd8c:	00000793          	li	a5,0
   1cd90:	00000513          	li	a0,0
   1cd94:	0240006f          	j	1cdb8 <__adddf3+0x6f4>
   1cd98:	00080493          	mv	s1,a6
   1cd9c:	bc9ff06f          	j	1c964 <__adddf3+0x2a0>
   1cda0:	00070793          	mv	a5,a4
   1cda4:	00060513          	mv	a0,a2
   1cda8:	00080493          	mv	s1,a6
   1cdac:	e41ff06f          	j	1cbec <__adddf3+0x528>
   1cdb0:	00000793          	li	a5,0
   1cdb4:	00000913          	li	s2,0
   1cdb8:	00879713          	slli	a4,a5,0x8
   1cdbc:	00075e63          	bgez	a4,1cdd8 <__adddf3+0x714>
   1cdc0:	00148493          	addi	s1,s1,1
   1cdc4:	7ff00713          	li	a4,2047
   1cdc8:	08e48263          	beq	s1,a4,1ce4c <__adddf3+0x788>
   1cdcc:	ff800737          	lui	a4,0xff800
   1cdd0:	fff70713          	addi	a4,a4,-1 # ff7fffff <__BSS_END__+0xff7dc2f3>
   1cdd4:	00e7f7b3          	and	a5,a5,a4
   1cdd8:	01d79693          	slli	a3,a5,0x1d
   1cddc:	00355513          	srli	a0,a0,0x3
   1cde0:	7ff00713          	li	a4,2047
   1cde4:	00a6e6b3          	or	a3,a3,a0
   1cde8:	0037d793          	srli	a5,a5,0x3
   1cdec:	00e49e63          	bne	s1,a4,1ce08 <__adddf3+0x744>
   1cdf0:	00f6e6b3          	or	a3,a3,a5
   1cdf4:	00000793          	li	a5,0
   1cdf8:	00068863          	beqz	a3,1ce08 <__adddf3+0x744>
   1cdfc:	000807b7          	lui	a5,0x80
   1ce00:	00000693          	li	a3,0
   1ce04:	00000913          	li	s2,0
   1ce08:	01449713          	slli	a4,s1,0x14
   1ce0c:	7ff00637          	lui	a2,0x7ff00
   1ce10:	00c79793          	slli	a5,a5,0xc
   1ce14:	00c77733          	and	a4,a4,a2
   1ce18:	01c12083          	lw	ra,28(sp)
   1ce1c:	01812403          	lw	s0,24(sp)
   1ce20:	00c7d793          	srli	a5,a5,0xc
   1ce24:	00f767b3          	or	a5,a4,a5
   1ce28:	01f91713          	slli	a4,s2,0x1f
   1ce2c:	00e7e633          	or	a2,a5,a4
   1ce30:	01412483          	lw	s1,20(sp)
   1ce34:	01012903          	lw	s2,16(sp)
   1ce38:	00c12983          	lw	s3,12(sp)
   1ce3c:	00068513          	mv	a0,a3
   1ce40:	00060593          	mv	a1,a2
   1ce44:	02010113          	addi	sp,sp,32
   1ce48:	00008067          	ret
   1ce4c:	00000793          	li	a5,0
   1ce50:	00000513          	li	a0,0
   1ce54:	f85ff06f          	j	1cdd8 <__adddf3+0x714>

0001ce58 <__divdf3>:
   1ce58:	fb010113          	addi	sp,sp,-80
   1ce5c:	05212023          	sw	s2,64(sp)
   1ce60:	0145d913          	srli	s2,a1,0x14
   1ce64:	04912223          	sw	s1,68(sp)
   1ce68:	03312e23          	sw	s3,60(sp)
   1ce6c:	03412c23          	sw	s4,56(sp)
   1ce70:	03512a23          	sw	s5,52(sp)
   1ce74:	03712623          	sw	s7,44(sp)
   1ce78:	00c59493          	slli	s1,a1,0xc
   1ce7c:	04112623          	sw	ra,76(sp)
   1ce80:	04812423          	sw	s0,72(sp)
   1ce84:	03612823          	sw	s6,48(sp)
   1ce88:	03812423          	sw	s8,40(sp)
   1ce8c:	03912223          	sw	s9,36(sp)
   1ce90:	03a12023          	sw	s10,32(sp)
   1ce94:	01b12e23          	sw	s11,28(sp)
   1ce98:	7ff97913          	andi	s2,s2,2047
   1ce9c:	00050993          	mv	s3,a0
   1cea0:	00060b93          	mv	s7,a2
   1cea4:	00068a13          	mv	s4,a3
   1cea8:	00c4d493          	srli	s1,s1,0xc
   1ceac:	01f5da93          	srli	s5,a1,0x1f
   1ceb0:	0a090063          	beqz	s2,1cf50 <__divdf3+0xf8>
   1ceb4:	7ff00793          	li	a5,2047
   1ceb8:	10f90063          	beq	s2,a5,1cfb8 <__divdf3+0x160>
   1cebc:	01d55d13          	srli	s10,a0,0x1d
   1cec0:	00349493          	slli	s1,s1,0x3
   1cec4:	009d6d33          	or	s10,s10,s1
   1cec8:	008007b7          	lui	a5,0x800
   1cecc:	00fd6d33          	or	s10,s10,a5
   1ced0:	00351413          	slli	s0,a0,0x3
   1ced4:	c0190913          	addi	s2,s2,-1023
   1ced8:	00000b13          	li	s6,0
   1cedc:	014a5713          	srli	a4,s4,0x14
   1cee0:	00ca1993          	slli	s3,s4,0xc
   1cee4:	7ff77713          	andi	a4,a4,2047
   1cee8:	00c9d993          	srli	s3,s3,0xc
   1ceec:	01fa5a13          	srli	s4,s4,0x1f
   1cef0:	10070263          	beqz	a4,1cff4 <__divdf3+0x19c>
   1cef4:	7ff00793          	li	a5,2047
   1cef8:	16f70663          	beq	a4,a5,1d064 <__divdf3+0x20c>
   1cefc:	00399993          	slli	s3,s3,0x3
   1cf00:	01dbd793          	srli	a5,s7,0x1d
   1cf04:	0137e7b3          	or	a5,a5,s3
   1cf08:	008009b7          	lui	s3,0x800
   1cf0c:	0137e9b3          	or	s3,a5,s3
   1cf10:	003b9693          	slli	a3,s7,0x3
   1cf14:	c0170713          	addi	a4,a4,-1023
   1cf18:	00000793          	li	a5,0
   1cf1c:	40e90933          	sub	s2,s2,a4
   1cf20:	002b1713          	slli	a4,s6,0x2
   1cf24:	00f76733          	or	a4,a4,a5
   1cf28:	fff70713          	addi	a4,a4,-1
   1cf2c:	00e00613          	li	a2,14
   1cf30:	014ac4b3          	xor	s1,s5,s4
   1cf34:	16e66463          	bltu	a2,a4,1d09c <__divdf3+0x244>
   1cf38:	00022637          	lui	a2,0x22
   1cf3c:	00271713          	slli	a4,a4,0x2
   1cf40:	0cc60613          	addi	a2,a2,204 # 220cc <_ctype_+0x104>
   1cf44:	00c70733          	add	a4,a4,a2
   1cf48:	00072703          	lw	a4,0(a4)
   1cf4c:	00070067          	jr	a4
   1cf50:	00a4ed33          	or	s10,s1,a0
   1cf54:	060d0e63          	beqz	s10,1cfd0 <__divdf3+0x178>
   1cf58:	02048e63          	beqz	s1,1cf94 <__divdf3+0x13c>
   1cf5c:	00048513          	mv	a0,s1
   1cf60:	215040ef          	jal	ra,21974 <__clzsi2>
   1cf64:	ff550793          	addi	a5,a0,-11
   1cf68:	01d00d13          	li	s10,29
   1cf6c:	ff850713          	addi	a4,a0,-8
   1cf70:	40fd0d33          	sub	s10,s10,a5
   1cf74:	00e494b3          	sll	s1,s1,a4
   1cf78:	01a9dd33          	srl	s10,s3,s10
   1cf7c:	009d6d33          	or	s10,s10,s1
   1cf80:	00e994b3          	sll	s1,s3,a4
   1cf84:	c0d00913          	li	s2,-1011
   1cf88:	40a90933          	sub	s2,s2,a0
   1cf8c:	00048413          	mv	s0,s1
   1cf90:	f49ff06f          	j	1ced8 <__divdf3+0x80>
   1cf94:	1e1040ef          	jal	ra,21974 <__clzsi2>
   1cf98:	00050d13          	mv	s10,a0
   1cf9c:	015d0793          	addi	a5,s10,21
   1cfa0:	01c00713          	li	a4,28
   1cfa4:	02050513          	addi	a0,a0,32
   1cfa8:	fcf750e3          	bge	a4,a5,1cf68 <__divdf3+0x110>
   1cfac:	ff8d0d13          	addi	s10,s10,-8
   1cfb0:	01a99d33          	sll	s10,s3,s10
   1cfb4:	fd1ff06f          	j	1cf84 <__divdf3+0x12c>
   1cfb8:	00a4ed33          	or	s10,s1,a0
   1cfbc:	020d1263          	bnez	s10,1cfe0 <__divdf3+0x188>
   1cfc0:	00000413          	li	s0,0
   1cfc4:	7ff00913          	li	s2,2047
   1cfc8:	00200b13          	li	s6,2
   1cfcc:	f11ff06f          	j	1cedc <__divdf3+0x84>
   1cfd0:	00000413          	li	s0,0
   1cfd4:	00000913          	li	s2,0
   1cfd8:	00100b13          	li	s6,1
   1cfdc:	f01ff06f          	j	1cedc <__divdf3+0x84>
   1cfe0:	00050413          	mv	s0,a0
   1cfe4:	00048d13          	mv	s10,s1
   1cfe8:	7ff00913          	li	s2,2047
   1cfec:	00300b13          	li	s6,3
   1cff0:	eedff06f          	j	1cedc <__divdf3+0x84>
   1cff4:	0179e6b3          	or	a3,s3,s7
   1cff8:	08068263          	beqz	a3,1d07c <__divdf3+0x224>
   1cffc:	04098063          	beqz	s3,1d03c <__divdf3+0x1e4>
   1d000:	00098513          	mv	a0,s3
   1d004:	171040ef          	jal	ra,21974 <__clzsi2>
   1d008:	ff550713          	addi	a4,a0,-11
   1d00c:	01d00793          	li	a5,29
   1d010:	ff850693          	addi	a3,a0,-8
   1d014:	40e787b3          	sub	a5,a5,a4
   1d018:	00d999b3          	sll	s3,s3,a3
   1d01c:	00fbd7b3          	srl	a5,s7,a5
   1d020:	0137e7b3          	or	a5,a5,s3
   1d024:	00db99b3          	sll	s3,s7,a3
   1d028:	c0d00713          	li	a4,-1011
   1d02c:	00098693          	mv	a3,s3
   1d030:	40a70733          	sub	a4,a4,a0
   1d034:	00078993          	mv	s3,a5
   1d038:	ee1ff06f          	j	1cf18 <__divdf3+0xc0>
   1d03c:	000b8513          	mv	a0,s7
   1d040:	135040ef          	jal	ra,21974 <__clzsi2>
   1d044:	00050793          	mv	a5,a0
   1d048:	01578713          	addi	a4,a5,21 # 800015 <__BSS_END__+0x7dc309>
   1d04c:	01c00693          	li	a3,28
   1d050:	02050513          	addi	a0,a0,32
   1d054:	fae6dce3          	bge	a3,a4,1d00c <__divdf3+0x1b4>
   1d058:	ff878793          	addi	a5,a5,-8
   1d05c:	00fb97b3          	sll	a5,s7,a5
   1d060:	fc9ff06f          	j	1d028 <__divdf3+0x1d0>
   1d064:	0179e6b3          	or	a3,s3,s7
   1d068:	02069263          	bnez	a3,1d08c <__divdf3+0x234>
   1d06c:	00000993          	li	s3,0
   1d070:	7ff00713          	li	a4,2047
   1d074:	00200793          	li	a5,2
   1d078:	ea5ff06f          	j	1cf1c <__divdf3+0xc4>
   1d07c:	00000993          	li	s3,0
   1d080:	00000713          	li	a4,0
   1d084:	00100793          	li	a5,1
   1d088:	e95ff06f          	j	1cf1c <__divdf3+0xc4>
   1d08c:	000b8693          	mv	a3,s7
   1d090:	7ff00713          	li	a4,2047
   1d094:	00300793          	li	a5,3
   1d098:	e85ff06f          	j	1cf1c <__divdf3+0xc4>
   1d09c:	01a9e663          	bltu	s3,s10,1d0a8 <__divdf3+0x250>
   1d0a0:	453d1663          	bne	s10,s3,1d4ec <__divdf3+0x694>
   1d0a4:	44d46463          	bltu	s0,a3,1d4ec <__divdf3+0x694>
   1d0a8:	01fd1713          	slli	a4,s10,0x1f
   1d0ac:	00145793          	srli	a5,s0,0x1
   1d0b0:	01f41d93          	slli	s11,s0,0x1f
   1d0b4:	001d5d13          	srli	s10,s10,0x1
   1d0b8:	00f76433          	or	s0,a4,a5
   1d0bc:	0186dc13          	srli	s8,a3,0x18
   1d0c0:	00899b13          	slli	s6,s3,0x8
   1d0c4:	016c6c33          	or	s8,s8,s6
   1d0c8:	010b5b13          	srli	s6,s6,0x10
   1d0cc:	000b0593          	mv	a1,s6
   1d0d0:	010c1b93          	slli	s7,s8,0x10
   1d0d4:	000d0513          	mv	a0,s10
   1d0d8:	00869c93          	slli	s9,a3,0x8
   1d0dc:	010bdb93          	srli	s7,s7,0x10
   1d0e0:	7e8040ef          	jal	ra,218c8 <__hidden___udivsi3>
   1d0e4:	00050593          	mv	a1,a0
   1d0e8:	00050a93          	mv	s5,a0
   1d0ec:	000b8513          	mv	a0,s7
   1d0f0:	7ac040ef          	jal	ra,2189c <__mulsi3>
   1d0f4:	00050993          	mv	s3,a0
   1d0f8:	000b0593          	mv	a1,s6
   1d0fc:	000d0513          	mv	a0,s10
   1d100:	011040ef          	jal	ra,21910 <__umodsi3>
   1d104:	01051513          	slli	a0,a0,0x10
   1d108:	01045793          	srli	a5,s0,0x10
   1d10c:	00a7e7b3          	or	a5,a5,a0
   1d110:	000a8a13          	mv	s4,s5
   1d114:	0137fe63          	bgeu	a5,s3,1d130 <__divdf3+0x2d8>
   1d118:	00fc07b3          	add	a5,s8,a5
   1d11c:	fffa8a13          	addi	s4,s5,-1
   1d120:	0187e863          	bltu	a5,s8,1d130 <__divdf3+0x2d8>
   1d124:	0137f663          	bgeu	a5,s3,1d130 <__divdf3+0x2d8>
   1d128:	ffea8a13          	addi	s4,s5,-2
   1d12c:	018787b3          	add	a5,a5,s8
   1d130:	413789b3          	sub	s3,a5,s3
   1d134:	000b0593          	mv	a1,s6
   1d138:	00098513          	mv	a0,s3
   1d13c:	78c040ef          	jal	ra,218c8 <__hidden___udivsi3>
   1d140:	00050593          	mv	a1,a0
   1d144:	00050d13          	mv	s10,a0
   1d148:	000b8513          	mv	a0,s7
   1d14c:	750040ef          	jal	ra,2189c <__mulsi3>
   1d150:	00050a93          	mv	s5,a0
   1d154:	000b0593          	mv	a1,s6
   1d158:	00098513          	mv	a0,s3
   1d15c:	7b4040ef          	jal	ra,21910 <__umodsi3>
   1d160:	01041793          	slli	a5,s0,0x10
   1d164:	01051513          	slli	a0,a0,0x10
   1d168:	0107d793          	srli	a5,a5,0x10
   1d16c:	00a7e7b3          	or	a5,a5,a0
   1d170:	000d0713          	mv	a4,s10
   1d174:	0157fe63          	bgeu	a5,s5,1d190 <__divdf3+0x338>
   1d178:	00fc07b3          	add	a5,s8,a5
   1d17c:	fffd0713          	addi	a4,s10,-1
   1d180:	0187e863          	bltu	a5,s8,1d190 <__divdf3+0x338>
   1d184:	0157f663          	bgeu	a5,s5,1d190 <__divdf3+0x338>
   1d188:	ffed0713          	addi	a4,s10,-2
   1d18c:	018787b3          	add	a5,a5,s8
   1d190:	010a1813          	slli	a6,s4,0x10
   1d194:	00010eb7          	lui	t4,0x10
   1d198:	00e86833          	or	a6,a6,a4
   1d19c:	fffe8a13          	addi	s4,t4,-1 # ffff <exit-0x95>
   1d1a0:	014878b3          	and	a7,a6,s4
   1d1a4:	010cd693          	srli	a3,s9,0x10
   1d1a8:	014cfa33          	and	s4,s9,s4
   1d1ac:	415787b3          	sub	a5,a5,s5
   1d1b0:	01085713          	srli	a4,a6,0x10
   1d1b4:	00d12623          	sw	a3,12(sp)
   1d1b8:	00088513          	mv	a0,a7
   1d1bc:	000a0593          	mv	a1,s4
   1d1c0:	6dc040ef          	jal	ra,2189c <__mulsi3>
   1d1c4:	00050313          	mv	t1,a0
   1d1c8:	010cd593          	srli	a1,s9,0x10
   1d1cc:	00088513          	mv	a0,a7
   1d1d0:	6cc040ef          	jal	ra,2189c <__mulsi3>
   1d1d4:	00050893          	mv	a7,a0
   1d1d8:	000a0593          	mv	a1,s4
   1d1dc:	00070513          	mv	a0,a4
   1d1e0:	6bc040ef          	jal	ra,2189c <__mulsi3>
   1d1e4:	00050e13          	mv	t3,a0
   1d1e8:	010cd593          	srli	a1,s9,0x10
   1d1ec:	00070513          	mv	a0,a4
   1d1f0:	6ac040ef          	jal	ra,2189c <__mulsi3>
   1d1f4:	01035713          	srli	a4,t1,0x10
   1d1f8:	01c888b3          	add	a7,a7,t3
   1d1fc:	01170733          	add	a4,a4,a7
   1d200:	00050613          	mv	a2,a0
   1d204:	01c77463          	bgeu	a4,t3,1d20c <__divdf3+0x3b4>
   1d208:	01d50633          	add	a2,a0,t4
   1d20c:	01075693          	srli	a3,a4,0x10
   1d210:	00c686b3          	add	a3,a3,a2
   1d214:	00010637          	lui	a2,0x10
   1d218:	fff60613          	addi	a2,a2,-1 # ffff <exit-0x95>
   1d21c:	00c77733          	and	a4,a4,a2
   1d220:	01071713          	slli	a4,a4,0x10
   1d224:	00c37333          	and	t1,t1,a2
   1d228:	00670733          	add	a4,a4,t1
   1d22c:	00d7e863          	bltu	a5,a3,1d23c <__divdf3+0x3e4>
   1d230:	00080993          	mv	s3,a6
   1d234:	04d79863          	bne	a5,a3,1d284 <__divdf3+0x42c>
   1d238:	04edf663          	bgeu	s11,a4,1d284 <__divdf3+0x42c>
   1d23c:	019d8633          	add	a2,s11,s9
   1d240:	01b635b3          	sltu	a1,a2,s11
   1d244:	01858533          	add	a0,a1,s8
   1d248:	00a787b3          	add	a5,a5,a0
   1d24c:	fff80993          	addi	s3,a6,-1
   1d250:	00060d93          	mv	s11,a2
   1d254:	00fc6663          	bltu	s8,a5,1d260 <__divdf3+0x408>
   1d258:	02fc1663          	bne	s8,a5,1d284 <__divdf3+0x42c>
   1d25c:	02059463          	bnez	a1,1d284 <__divdf3+0x42c>
   1d260:	00d7e663          	bltu	a5,a3,1d26c <__divdf3+0x414>
   1d264:	02f69063          	bne	a3,a5,1d284 <__divdf3+0x42c>
   1d268:	00e67e63          	bgeu	a2,a4,1d284 <__divdf3+0x42c>
   1d26c:	00cc8633          	add	a2,s9,a2
   1d270:	00060d93          	mv	s11,a2
   1d274:	01963633          	sltu	a2,a2,s9
   1d278:	01860633          	add	a2,a2,s8
   1d27c:	ffe80993          	addi	s3,a6,-2
   1d280:	00c787b3          	add	a5,a5,a2
   1d284:	40ed8d33          	sub	s10,s11,a4
   1d288:	40d787b3          	sub	a5,a5,a3
   1d28c:	01adbdb3          	sltu	s11,s11,s10
   1d290:	41b78433          	sub	s0,a5,s11
   1d294:	fff00693          	li	a3,-1
   1d298:	188c0e63          	beq	s8,s0,1d434 <__divdf3+0x5dc>
   1d29c:	000b0593          	mv	a1,s6
   1d2a0:	00040513          	mv	a0,s0
   1d2a4:	624040ef          	jal	ra,218c8 <__hidden___udivsi3>
   1d2a8:	00050593          	mv	a1,a0
   1d2ac:	00050a93          	mv	s5,a0
   1d2b0:	000b8513          	mv	a0,s7
   1d2b4:	5e8040ef          	jal	ra,2189c <__mulsi3>
   1d2b8:	00050d93          	mv	s11,a0
   1d2bc:	000b0593          	mv	a1,s6
   1d2c0:	00040513          	mv	a0,s0
   1d2c4:	64c040ef          	jal	ra,21910 <__umodsi3>
   1d2c8:	01051513          	slli	a0,a0,0x10
   1d2cc:	010d5693          	srli	a3,s10,0x10
   1d2d0:	00a6e6b3          	or	a3,a3,a0
   1d2d4:	000a8413          	mv	s0,s5
   1d2d8:	01b6fe63          	bgeu	a3,s11,1d2f4 <__divdf3+0x49c>
   1d2dc:	00dc06b3          	add	a3,s8,a3
   1d2e0:	fffa8413          	addi	s0,s5,-1
   1d2e4:	0186e863          	bltu	a3,s8,1d2f4 <__divdf3+0x49c>
   1d2e8:	01b6f663          	bgeu	a3,s11,1d2f4 <__divdf3+0x49c>
   1d2ec:	ffea8413          	addi	s0,s5,-2
   1d2f0:	018686b3          	add	a3,a3,s8
   1d2f4:	41b68ab3          	sub	s5,a3,s11
   1d2f8:	000b0593          	mv	a1,s6
   1d2fc:	000a8513          	mv	a0,s5
   1d300:	5c8040ef          	jal	ra,218c8 <__hidden___udivsi3>
   1d304:	00050593          	mv	a1,a0
   1d308:	00050d93          	mv	s11,a0
   1d30c:	000b8513          	mv	a0,s7
   1d310:	58c040ef          	jal	ra,2189c <__mulsi3>
   1d314:	00050b93          	mv	s7,a0
   1d318:	000b0593          	mv	a1,s6
   1d31c:	000a8513          	mv	a0,s5
   1d320:	5f0040ef          	jal	ra,21910 <__umodsi3>
   1d324:	010d1793          	slli	a5,s10,0x10
   1d328:	01051513          	slli	a0,a0,0x10
   1d32c:	0107d793          	srli	a5,a5,0x10
   1d330:	00a7e7b3          	or	a5,a5,a0
   1d334:	000d8713          	mv	a4,s11
   1d338:	0177fe63          	bgeu	a5,s7,1d354 <__divdf3+0x4fc>
   1d33c:	00fc07b3          	add	a5,s8,a5
   1d340:	fffd8713          	addi	a4,s11,-1
   1d344:	0187e863          	bltu	a5,s8,1d354 <__divdf3+0x4fc>
   1d348:	0177f663          	bgeu	a5,s7,1d354 <__divdf3+0x4fc>
   1d34c:	ffed8713          	addi	a4,s11,-2
   1d350:	018787b3          	add	a5,a5,s8
   1d354:	01041813          	slli	a6,s0,0x10
   1d358:	00e86833          	or	a6,a6,a4
   1d35c:	01081893          	slli	a7,a6,0x10
   1d360:	0108d893          	srli	a7,a7,0x10
   1d364:	417787b3          	sub	a5,a5,s7
   1d368:	01085713          	srli	a4,a6,0x10
   1d36c:	00088513          	mv	a0,a7
   1d370:	000a0593          	mv	a1,s4
   1d374:	528040ef          	jal	ra,2189c <__mulsi3>
   1d378:	00050313          	mv	t1,a0
   1d37c:	010cd593          	srli	a1,s9,0x10
   1d380:	00088513          	mv	a0,a7
   1d384:	518040ef          	jal	ra,2189c <__mulsi3>
   1d388:	00050893          	mv	a7,a0
   1d38c:	000a0593          	mv	a1,s4
   1d390:	00070513          	mv	a0,a4
   1d394:	508040ef          	jal	ra,2189c <__mulsi3>
   1d398:	00050e13          	mv	t3,a0
   1d39c:	010cd593          	srli	a1,s9,0x10
   1d3a0:	00070513          	mv	a0,a4
   1d3a4:	4f8040ef          	jal	ra,2189c <__mulsi3>
   1d3a8:	01035713          	srli	a4,t1,0x10
   1d3ac:	01c888b3          	add	a7,a7,t3
   1d3b0:	01170733          	add	a4,a4,a7
   1d3b4:	00050693          	mv	a3,a0
   1d3b8:	01c77663          	bgeu	a4,t3,1d3c4 <__divdf3+0x56c>
   1d3bc:	00010637          	lui	a2,0x10
   1d3c0:	00c506b3          	add	a3,a0,a2
   1d3c4:	01075613          	srli	a2,a4,0x10
   1d3c8:	00d60633          	add	a2,a2,a3
   1d3cc:	000106b7          	lui	a3,0x10
   1d3d0:	fff68693          	addi	a3,a3,-1 # ffff <exit-0x95>
   1d3d4:	00d77733          	and	a4,a4,a3
   1d3d8:	01071713          	slli	a4,a4,0x10
   1d3dc:	00d37333          	and	t1,t1,a3
   1d3e0:	00670733          	add	a4,a4,t1
   1d3e4:	00c7e863          	bltu	a5,a2,1d3f4 <__divdf3+0x59c>
   1d3e8:	24c79463          	bne	a5,a2,1d630 <__divdf3+0x7d8>
   1d3ec:	00080693          	mv	a3,a6
   1d3f0:	04070263          	beqz	a4,1d434 <__divdf3+0x5dc>
   1d3f4:	00fc07b3          	add	a5,s8,a5
   1d3f8:	fff80693          	addi	a3,a6,-1
   1d3fc:	00078593          	mv	a1,a5
   1d400:	0387e463          	bltu	a5,s8,1d428 <__divdf3+0x5d0>
   1d404:	00c7e663          	bltu	a5,a2,1d410 <__divdf3+0x5b8>
   1d408:	22c79263          	bne	a5,a2,1d62c <__divdf3+0x7d4>
   1d40c:	02ecf063          	bgeu	s9,a4,1d42c <__divdf3+0x5d4>
   1d410:	001c9513          	slli	a0,s9,0x1
   1d414:	019535b3          	sltu	a1,a0,s9
   1d418:	018585b3          	add	a1,a1,s8
   1d41c:	ffe80693          	addi	a3,a6,-2
   1d420:	00b785b3          	add	a1,a5,a1
   1d424:	00050c93          	mv	s9,a0
   1d428:	00c59463          	bne	a1,a2,1d430 <__divdf3+0x5d8>
   1d42c:	01970463          	beq	a4,s9,1d434 <__divdf3+0x5dc>
   1d430:	0016e693          	ori	a3,a3,1
   1d434:	3ff90713          	addi	a4,s2,1023
   1d438:	10e05a63          	blez	a4,1d54c <__divdf3+0x6f4>
   1d43c:	0076f793          	andi	a5,a3,7
   1d440:	02078063          	beqz	a5,1d460 <__divdf3+0x608>
   1d444:	00f6f793          	andi	a5,a3,15
   1d448:	00400613          	li	a2,4
   1d44c:	00c78a63          	beq	a5,a2,1d460 <__divdf3+0x608>
   1d450:	00468793          	addi	a5,a3,4
   1d454:	00d7b633          	sltu	a2,a5,a3
   1d458:	00c989b3          	add	s3,s3,a2
   1d45c:	00078693          	mv	a3,a5
   1d460:	00799793          	slli	a5,s3,0x7
   1d464:	0007da63          	bgez	a5,1d478 <__divdf3+0x620>
   1d468:	ff0007b7          	lui	a5,0xff000
   1d46c:	fff78793          	addi	a5,a5,-1 # feffffff <__BSS_END__+0xfefdc2f3>
   1d470:	00f9f9b3          	and	s3,s3,a5
   1d474:	40090713          	addi	a4,s2,1024
   1d478:	7fe00793          	li	a5,2046
   1d47c:	0ae7c263          	blt	a5,a4,1d520 <__divdf3+0x6c8>
   1d480:	0036d693          	srli	a3,a3,0x3
   1d484:	01d99793          	slli	a5,s3,0x1d
   1d488:	00d7e6b3          	or	a3,a5,a3
   1d48c:	0039d593          	srli	a1,s3,0x3
   1d490:	00c59593          	slli	a1,a1,0xc
   1d494:	04c12083          	lw	ra,76(sp)
   1d498:	04812403          	lw	s0,72(sp)
   1d49c:	00c5d593          	srli	a1,a1,0xc
   1d4a0:	01471713          	slli	a4,a4,0x14
   1d4a4:	00b76733          	or	a4,a4,a1
   1d4a8:	01f49493          	slli	s1,s1,0x1f
   1d4ac:	009767b3          	or	a5,a4,s1
   1d4b0:	04012903          	lw	s2,64(sp)
   1d4b4:	04412483          	lw	s1,68(sp)
   1d4b8:	03c12983          	lw	s3,60(sp)
   1d4bc:	03812a03          	lw	s4,56(sp)
   1d4c0:	03412a83          	lw	s5,52(sp)
   1d4c4:	03012b03          	lw	s6,48(sp)
   1d4c8:	02c12b83          	lw	s7,44(sp)
   1d4cc:	02812c03          	lw	s8,40(sp)
   1d4d0:	02412c83          	lw	s9,36(sp)
   1d4d4:	02012d03          	lw	s10,32(sp)
   1d4d8:	01c12d83          	lw	s11,28(sp)
   1d4dc:	00068513          	mv	a0,a3
   1d4e0:	00078593          	mv	a1,a5
   1d4e4:	05010113          	addi	sp,sp,80
   1d4e8:	00008067          	ret
   1d4ec:	fff90913          	addi	s2,s2,-1
   1d4f0:	00000d93          	li	s11,0
   1d4f4:	bc9ff06f          	j	1d0bc <__divdf3+0x264>
   1d4f8:	000a8493          	mv	s1,s5
   1d4fc:	000d0993          	mv	s3,s10
   1d500:	00040693          	mv	a3,s0
   1d504:	000b0793          	mv	a5,s6
   1d508:	00300713          	li	a4,3
   1d50c:	0ee78863          	beq	a5,a4,1d5fc <__divdf3+0x7a4>
   1d510:	00100713          	li	a4,1
   1d514:	0ee78e63          	beq	a5,a4,1d610 <__divdf3+0x7b8>
   1d518:	00200713          	li	a4,2
   1d51c:	f0e79ce3          	bne	a5,a4,1d434 <__divdf3+0x5dc>
   1d520:	00000593          	li	a1,0
   1d524:	00000693          	li	a3,0
   1d528:	7ff00713          	li	a4,2047
   1d52c:	f65ff06f          	j	1d490 <__divdf3+0x638>
   1d530:	000a0493          	mv	s1,s4
   1d534:	fd5ff06f          	j	1d508 <__divdf3+0x6b0>
   1d538:	000809b7          	lui	s3,0x80
   1d53c:	00000693          	li	a3,0
   1d540:	00000493          	li	s1,0
   1d544:	00300793          	li	a5,3
   1d548:	fc1ff06f          	j	1d508 <__divdf3+0x6b0>
   1d54c:	00100593          	li	a1,1
   1d550:	40e585b3          	sub	a1,a1,a4
   1d554:	03800793          	li	a5,56
   1d558:	0ab7cc63          	blt	a5,a1,1d610 <__divdf3+0x7b8>
   1d55c:	01f00793          	li	a5,31
   1d560:	06b7c463          	blt	a5,a1,1d5c8 <__divdf3+0x770>
   1d564:	41e90913          	addi	s2,s2,1054
   1d568:	012997b3          	sll	a5,s3,s2
   1d56c:	00b6d733          	srl	a4,a3,a1
   1d570:	01269933          	sll	s2,a3,s2
   1d574:	00e7e7b3          	or	a5,a5,a4
   1d578:	01203933          	snez	s2,s2
   1d57c:	0127e7b3          	or	a5,a5,s2
   1d580:	00b9d5b3          	srl	a1,s3,a1
   1d584:	0077f713          	andi	a4,a5,7
   1d588:	02070063          	beqz	a4,1d5a8 <__divdf3+0x750>
   1d58c:	00f7f713          	andi	a4,a5,15
   1d590:	00400693          	li	a3,4
   1d594:	00d70a63          	beq	a4,a3,1d5a8 <__divdf3+0x750>
   1d598:	00478713          	addi	a4,a5,4
   1d59c:	00f736b3          	sltu	a3,a4,a5
   1d5a0:	00d585b3          	add	a1,a1,a3
   1d5a4:	00070793          	mv	a5,a4
   1d5a8:	00859713          	slli	a4,a1,0x8
   1d5ac:	06074863          	bltz	a4,1d61c <__divdf3+0x7c4>
   1d5b0:	01d59693          	slli	a3,a1,0x1d
   1d5b4:	0037d793          	srli	a5,a5,0x3
   1d5b8:	00f6e6b3          	or	a3,a3,a5
   1d5bc:	0035d593          	srli	a1,a1,0x3
   1d5c0:	00000713          	li	a4,0
   1d5c4:	ecdff06f          	j	1d490 <__divdf3+0x638>
   1d5c8:	fe100793          	li	a5,-31
   1d5cc:	40e787b3          	sub	a5,a5,a4
   1d5d0:	02000613          	li	a2,32
   1d5d4:	00f9d7b3          	srl	a5,s3,a5
   1d5d8:	00000713          	li	a4,0
   1d5dc:	00c58663          	beq	a1,a2,1d5e8 <__divdf3+0x790>
   1d5e0:	43e90713          	addi	a4,s2,1086
   1d5e4:	00e99733          	sll	a4,s3,a4
   1d5e8:	00d76733          	or	a4,a4,a3
   1d5ec:	00e03733          	snez	a4,a4
   1d5f0:	00e7e7b3          	or	a5,a5,a4
   1d5f4:	00000593          	li	a1,0
   1d5f8:	f8dff06f          	j	1d584 <__divdf3+0x72c>
   1d5fc:	000805b7          	lui	a1,0x80
   1d600:	00000693          	li	a3,0
   1d604:	7ff00713          	li	a4,2047
   1d608:	00000493          	li	s1,0
   1d60c:	e85ff06f          	j	1d490 <__divdf3+0x638>
   1d610:	00000593          	li	a1,0
   1d614:	00000693          	li	a3,0
   1d618:	fa9ff06f          	j	1d5c0 <__divdf3+0x768>
   1d61c:	00000593          	li	a1,0
   1d620:	00000693          	li	a3,0
   1d624:	00100713          	li	a4,1
   1d628:	e69ff06f          	j	1d490 <__divdf3+0x638>
   1d62c:	00068813          	mv	a6,a3
   1d630:	00080693          	mv	a3,a6
   1d634:	dfdff06f          	j	1d430 <__divdf3+0x5d8>

0001d638 <__eqdf2>:
   1d638:	0145d713          	srli	a4,a1,0x14
   1d63c:	001007b7          	lui	a5,0x100
   1d640:	fff78793          	addi	a5,a5,-1 # fffff <__BSS_END__+0xdc2f3>
   1d644:	0146d813          	srli	a6,a3,0x14
   1d648:	00050313          	mv	t1,a0
   1d64c:	00050e93          	mv	t4,a0
   1d650:	7ff77713          	andi	a4,a4,2047
   1d654:	7ff00513          	li	a0,2047
   1d658:	00b7f8b3          	and	a7,a5,a1
   1d65c:	00060f13          	mv	t5,a2
   1d660:	00d7f7b3          	and	a5,a5,a3
   1d664:	01f5d593          	srli	a1,a1,0x1f
   1d668:	7ff87813          	andi	a6,a6,2047
   1d66c:	01f6d693          	srli	a3,a3,0x1f
   1d670:	00a71c63          	bne	a4,a0,1d688 <__eqdf2+0x50>
   1d674:	0068ee33          	or	t3,a7,t1
   1d678:	00100513          	li	a0,1
   1d67c:	000e1463          	bnez	t3,1d684 <__eqdf2+0x4c>
   1d680:	00e80663          	beq	a6,a4,1d68c <__eqdf2+0x54>
   1d684:	00008067          	ret
   1d688:	00a81863          	bne	a6,a0,1d698 <__eqdf2+0x60>
   1d68c:	00c7e633          	or	a2,a5,a2
   1d690:	00100513          	li	a0,1
   1d694:	fe0618e3          	bnez	a2,1d684 <__eqdf2+0x4c>
   1d698:	00100513          	li	a0,1
   1d69c:	ff0714e3          	bne	a4,a6,1d684 <__eqdf2+0x4c>
   1d6a0:	fef892e3          	bne	a7,a5,1d684 <__eqdf2+0x4c>
   1d6a4:	ffee90e3          	bne	t4,t5,1d684 <__eqdf2+0x4c>
   1d6a8:	00d58a63          	beq	a1,a3,1d6bc <__eqdf2+0x84>
   1d6ac:	fc071ce3          	bnez	a4,1d684 <__eqdf2+0x4c>
   1d6b0:	0068e8b3          	or	a7,a7,t1
   1d6b4:	01103533          	snez	a0,a7
   1d6b8:	00008067          	ret
   1d6bc:	00000513          	li	a0,0
   1d6c0:	00008067          	ret

0001d6c4 <__gedf2>:
   1d6c4:	0146d793          	srli	a5,a3,0x14
   1d6c8:	0145d893          	srli	a7,a1,0x14
   1d6cc:	00100737          	lui	a4,0x100
   1d6d0:	fff70713          	addi	a4,a4,-1 # fffff <__BSS_END__+0xdc2f3>
   1d6d4:	00050813          	mv	a6,a0
   1d6d8:	00050e13          	mv	t3,a0
   1d6dc:	7ff8f893          	andi	a7,a7,2047
   1d6e0:	7ff7f513          	andi	a0,a5,2047
   1d6e4:	7ff00793          	li	a5,2047
   1d6e8:	00b77333          	and	t1,a4,a1
   1d6ec:	00060e93          	mv	t4,a2
   1d6f0:	00d77733          	and	a4,a4,a3
   1d6f4:	01f5d593          	srli	a1,a1,0x1f
   1d6f8:	01f6d693          	srli	a3,a3,0x1f
   1d6fc:	00f89663          	bne	a7,a5,1d708 <__gedf2+0x44>
   1d700:	010367b3          	or	a5,t1,a6
   1d704:	06079c63          	bnez	a5,1d77c <__gedf2+0xb8>
   1d708:	7ff00793          	li	a5,2047
   1d70c:	00f51663          	bne	a0,a5,1d718 <__gedf2+0x54>
   1d710:	00c767b3          	or	a5,a4,a2
   1d714:	06079463          	bnez	a5,1d77c <__gedf2+0xb8>
   1d718:	00000793          	li	a5,0
   1d71c:	00089663          	bnez	a7,1d728 <__gedf2+0x64>
   1d720:	01036833          	or	a6,t1,a6
   1d724:	00183793          	seqz	a5,a6
   1d728:	04051e63          	bnez	a0,1d784 <__gedf2+0xc0>
   1d72c:	00c76633          	or	a2,a4,a2
   1d730:	00078c63          	beqz	a5,1d748 <__gedf2+0x84>
   1d734:	02060063          	beqz	a2,1d754 <__gedf2+0x90>
   1d738:	00100513          	li	a0,1
   1d73c:	00069c63          	bnez	a3,1d754 <__gedf2+0x90>
   1d740:	fff00513          	li	a0,-1
   1d744:	00008067          	ret
   1d748:	04061063          	bnez	a2,1d788 <__gedf2+0xc4>
   1d74c:	fff00513          	li	a0,-1
   1d750:	04058463          	beqz	a1,1d798 <__gedf2+0xd4>
   1d754:	00008067          	ret
   1d758:	fea8c0e3          	blt	a7,a0,1d738 <__gedf2+0x74>
   1d75c:	fe6768e3          	bltu	a4,t1,1d74c <__gedf2+0x88>
   1d760:	00e31863          	bne	t1,a4,1d770 <__gedf2+0xac>
   1d764:	ffcee4e3          	bltu	t4,t3,1d74c <__gedf2+0x88>
   1d768:	00000513          	li	a0,0
   1d76c:	ffde74e3          	bgeu	t3,t4,1d754 <__gedf2+0x90>
   1d770:	00100513          	li	a0,1
   1d774:	fe0590e3          	bnez	a1,1d754 <__gedf2+0x90>
   1d778:	fc9ff06f          	j	1d740 <__gedf2+0x7c>
   1d77c:	ffe00513          	li	a0,-2
   1d780:	00008067          	ret
   1d784:	fa079ae3          	bnez	a5,1d738 <__gedf2+0x74>
   1d788:	fcb692e3          	bne	a3,a1,1d74c <__gedf2+0x88>
   1d78c:	fd1556e3          	bge	a0,a7,1d758 <__gedf2+0x94>
   1d790:	fff00513          	li	a0,-1
   1d794:	fc0690e3          	bnez	a3,1d754 <__gedf2+0x90>
   1d798:	00100513          	li	a0,1
   1d79c:	00008067          	ret

0001d7a0 <__ledf2>:
   1d7a0:	0146d793          	srli	a5,a3,0x14
   1d7a4:	0145d893          	srli	a7,a1,0x14
   1d7a8:	00100737          	lui	a4,0x100
   1d7ac:	fff70713          	addi	a4,a4,-1 # fffff <__BSS_END__+0xdc2f3>
   1d7b0:	00050813          	mv	a6,a0
   1d7b4:	00050e13          	mv	t3,a0
   1d7b8:	7ff8f893          	andi	a7,a7,2047
   1d7bc:	7ff7f513          	andi	a0,a5,2047
   1d7c0:	7ff00793          	li	a5,2047
   1d7c4:	00b77333          	and	t1,a4,a1
   1d7c8:	00060e93          	mv	t4,a2
   1d7cc:	00d77733          	and	a4,a4,a3
   1d7d0:	01f5d593          	srli	a1,a1,0x1f
   1d7d4:	01f6d693          	srli	a3,a3,0x1f
   1d7d8:	00f89663          	bne	a7,a5,1d7e4 <__ledf2+0x44>
   1d7dc:	010367b3          	or	a5,t1,a6
   1d7e0:	06079c63          	bnez	a5,1d858 <__ledf2+0xb8>
   1d7e4:	7ff00793          	li	a5,2047
   1d7e8:	00f51663          	bne	a0,a5,1d7f4 <__ledf2+0x54>
   1d7ec:	00c767b3          	or	a5,a4,a2
   1d7f0:	06079463          	bnez	a5,1d858 <__ledf2+0xb8>
   1d7f4:	00000793          	li	a5,0
   1d7f8:	00089663          	bnez	a7,1d804 <__ledf2+0x64>
   1d7fc:	01036833          	or	a6,t1,a6
   1d800:	00183793          	seqz	a5,a6
   1d804:	04051e63          	bnez	a0,1d860 <__ledf2+0xc0>
   1d808:	00c76633          	or	a2,a4,a2
   1d80c:	00078c63          	beqz	a5,1d824 <__ledf2+0x84>
   1d810:	02060063          	beqz	a2,1d830 <__ledf2+0x90>
   1d814:	00100513          	li	a0,1
   1d818:	00069c63          	bnez	a3,1d830 <__ledf2+0x90>
   1d81c:	fff00513          	li	a0,-1
   1d820:	00008067          	ret
   1d824:	04061063          	bnez	a2,1d864 <__ledf2+0xc4>
   1d828:	fff00513          	li	a0,-1
   1d82c:	04058463          	beqz	a1,1d874 <__ledf2+0xd4>
   1d830:	00008067          	ret
   1d834:	fea8c0e3          	blt	a7,a0,1d814 <__ledf2+0x74>
   1d838:	fe6768e3          	bltu	a4,t1,1d828 <__ledf2+0x88>
   1d83c:	00e31863          	bne	t1,a4,1d84c <__ledf2+0xac>
   1d840:	ffcee4e3          	bltu	t4,t3,1d828 <__ledf2+0x88>
   1d844:	00000513          	li	a0,0
   1d848:	ffde74e3          	bgeu	t3,t4,1d830 <__ledf2+0x90>
   1d84c:	00100513          	li	a0,1
   1d850:	fe0590e3          	bnez	a1,1d830 <__ledf2+0x90>
   1d854:	fc9ff06f          	j	1d81c <__ledf2+0x7c>
   1d858:	00200513          	li	a0,2
   1d85c:	00008067          	ret
   1d860:	fa079ae3          	bnez	a5,1d814 <__ledf2+0x74>
   1d864:	fcb692e3          	bne	a3,a1,1d828 <__ledf2+0x88>
   1d868:	fd1556e3          	bge	a0,a7,1d834 <__ledf2+0x94>
   1d86c:	fff00513          	li	a0,-1
   1d870:	fc0690e3          	bnez	a3,1d830 <__ledf2+0x90>
   1d874:	00100513          	li	a0,1
   1d878:	00008067          	ret

0001d87c <__muldf3>:
   1d87c:	fd010113          	addi	sp,sp,-48
   1d880:	01512a23          	sw	s5,20(sp)
   1d884:	0145da93          	srli	s5,a1,0x14
   1d888:	02812423          	sw	s0,40(sp)
   1d88c:	02912223          	sw	s1,36(sp)
   1d890:	03212023          	sw	s2,32(sp)
   1d894:	01312e23          	sw	s3,28(sp)
   1d898:	01612823          	sw	s6,16(sp)
   1d89c:	00c59493          	slli	s1,a1,0xc
   1d8a0:	02112623          	sw	ra,44(sp)
   1d8a4:	01412c23          	sw	s4,24(sp)
   1d8a8:	01712623          	sw	s7,12(sp)
   1d8ac:	7ffafa93          	andi	s5,s5,2047
   1d8b0:	00050413          	mv	s0,a0
   1d8b4:	00060b13          	mv	s6,a2
   1d8b8:	00068913          	mv	s2,a3
   1d8bc:	00c4d493          	srli	s1,s1,0xc
   1d8c0:	01f5d993          	srli	s3,a1,0x1f
   1d8c4:	300a8e63          	beqz	s5,1dbe0 <__muldf3+0x364>
   1d8c8:	7ff00793          	li	a5,2047
   1d8cc:	38fa8063          	beq	s5,a5,1dc4c <__muldf3+0x3d0>
   1d8d0:	00349493          	slli	s1,s1,0x3
   1d8d4:	01d55793          	srli	a5,a0,0x1d
   1d8d8:	0097e7b3          	or	a5,a5,s1
   1d8dc:	008004b7          	lui	s1,0x800
   1d8e0:	0097e4b3          	or	s1,a5,s1
   1d8e4:	00351a13          	slli	s4,a0,0x3
   1d8e8:	c01a8a93          	addi	s5,s5,-1023
   1d8ec:	00000b93          	li	s7,0
   1d8f0:	01495713          	srli	a4,s2,0x14
   1d8f4:	00c91413          	slli	s0,s2,0xc
   1d8f8:	7ff77713          	andi	a4,a4,2047
   1d8fc:	00c45413          	srli	s0,s0,0xc
   1d900:	01f95913          	srli	s2,s2,0x1f
   1d904:	38070063          	beqz	a4,1dc84 <__muldf3+0x408>
   1d908:	7ff00793          	li	a5,2047
   1d90c:	3ef70463          	beq	a4,a5,1dcf4 <__muldf3+0x478>
   1d910:	00341413          	slli	s0,s0,0x3
   1d914:	01db5793          	srli	a5,s6,0x1d
   1d918:	0087e7b3          	or	a5,a5,s0
   1d91c:	00800437          	lui	s0,0x800
   1d920:	0087e433          	or	s0,a5,s0
   1d924:	c0170693          	addi	a3,a4,-1023
   1d928:	003b1793          	slli	a5,s6,0x3
   1d92c:	00000713          	li	a4,0
   1d930:	00da8ab3          	add	s5,s5,a3
   1d934:	002b9693          	slli	a3,s7,0x2
   1d938:	00e6e6b3          	or	a3,a3,a4
   1d93c:	00a00613          	li	a2,10
   1d940:	001a8893          	addi	a7,s5,1
   1d944:	4cd64663          	blt	a2,a3,1de10 <__muldf3+0x594>
   1d948:	00200613          	li	a2,2
   1d94c:	0129c833          	xor	a6,s3,s2
   1d950:	3cd64e63          	blt	a2,a3,1dd2c <__muldf3+0x4b0>
   1d954:	fff68693          	addi	a3,a3,-1
   1d958:	00100613          	li	a2,1
   1d95c:	3ed67a63          	bgeu	a2,a3,1dd50 <__muldf3+0x4d4>
   1d960:	00010937          	lui	s2,0x10
   1d964:	fff90713          	addi	a4,s2,-1 # ffff <exit-0x95>
   1d968:	010a5293          	srli	t0,s4,0x10
   1d96c:	00e7ffb3          	and	t6,a5,a4
   1d970:	00ea7a33          	and	s4,s4,a4
   1d974:	0107df13          	srli	t5,a5,0x10
   1d978:	000a0513          	mv	a0,s4
   1d97c:	000f8593          	mv	a1,t6
   1d980:	71d030ef          	jal	ra,2189c <__mulsi3>
   1d984:	00050793          	mv	a5,a0
   1d988:	000f0593          	mv	a1,t5
   1d98c:	000a0513          	mv	a0,s4
   1d990:	70d030ef          	jal	ra,2189c <__mulsi3>
   1d994:	00050e93          	mv	t4,a0
   1d998:	000f8593          	mv	a1,t6
   1d99c:	00028513          	mv	a0,t0
   1d9a0:	6fd030ef          	jal	ra,2189c <__mulsi3>
   1d9a4:	00050393          	mv	t2,a0
   1d9a8:	000f0593          	mv	a1,t5
   1d9ac:	00028513          	mv	a0,t0
   1d9b0:	6ed030ef          	jal	ra,2189c <__mulsi3>
   1d9b4:	0107d313          	srli	t1,a5,0x10
   1d9b8:	007e8eb3          	add	t4,t4,t2
   1d9bc:	01d30333          	add	t1,t1,t4
   1d9c0:	00050e13          	mv	t3,a0
   1d9c4:	00737463          	bgeu	t1,t2,1d9cc <__muldf3+0x150>
   1d9c8:	01250e33          	add	t3,a0,s2
   1d9cc:	01035993          	srli	s3,t1,0x10
   1d9d0:	00e37333          	and	t1,t1,a4
   1d9d4:	00e7f7b3          	and	a5,a5,a4
   1d9d8:	01031313          	slli	t1,t1,0x10
   1d9dc:	00e47733          	and	a4,s0,a4
   1d9e0:	00f30333          	add	t1,t1,a5
   1d9e4:	01045913          	srli	s2,s0,0x10
   1d9e8:	000a0513          	mv	a0,s4
   1d9ec:	00070593          	mv	a1,a4
   1d9f0:	6ad030ef          	jal	ra,2189c <__mulsi3>
   1d9f4:	00050393          	mv	t2,a0
   1d9f8:	00090593          	mv	a1,s2
   1d9fc:	000a0513          	mv	a0,s4
   1da00:	69d030ef          	jal	ra,2189c <__mulsi3>
   1da04:	00050e93          	mv	t4,a0
   1da08:	00070593          	mv	a1,a4
   1da0c:	00028513          	mv	a0,t0
   1da10:	68d030ef          	jal	ra,2189c <__mulsi3>
   1da14:	00050413          	mv	s0,a0
   1da18:	00090593          	mv	a1,s2
   1da1c:	00028513          	mv	a0,t0
   1da20:	67d030ef          	jal	ra,2189c <__mulsi3>
   1da24:	0103d613          	srli	a2,t2,0x10
   1da28:	008e8eb3          	add	t4,t4,s0
   1da2c:	01d60633          	add	a2,a2,t4
   1da30:	00050793          	mv	a5,a0
   1da34:	00867663          	bgeu	a2,s0,1da40 <__muldf3+0x1c4>
   1da38:	000106b7          	lui	a3,0x10
   1da3c:	00d507b3          	add	a5,a0,a3
   1da40:	00010a37          	lui	s4,0x10
   1da44:	fffa0e93          	addi	t4,s4,-1 # ffff <exit-0x95>
   1da48:	01065293          	srli	t0,a2,0x10
   1da4c:	00f282b3          	add	t0,t0,a5
   1da50:	01d677b3          	and	a5,a2,t4
   1da54:	01d3f3b3          	and	t2,t2,t4
   1da58:	01079793          	slli	a5,a5,0x10
   1da5c:	007787b3          	add	a5,a5,t2
   1da60:	01d4feb3          	and	t4,s1,t4
   1da64:	00f98433          	add	s0,s3,a5
   1da68:	000e8513          	mv	a0,t4
   1da6c:	0104d993          	srli	s3,s1,0x10
   1da70:	000f8593          	mv	a1,t6
   1da74:	629030ef          	jal	ra,2189c <__mulsi3>
   1da78:	00050493          	mv	s1,a0
   1da7c:	000f0593          	mv	a1,t5
   1da80:	000e8513          	mv	a0,t4
   1da84:	619030ef          	jal	ra,2189c <__mulsi3>
   1da88:	00050393          	mv	t2,a0
   1da8c:	000f8593          	mv	a1,t6
   1da90:	00098513          	mv	a0,s3
   1da94:	609030ef          	jal	ra,2189c <__mulsi3>
   1da98:	00050f93          	mv	t6,a0
   1da9c:	000f0593          	mv	a1,t5
   1daa0:	00098513          	mv	a0,s3
   1daa4:	5f9030ef          	jal	ra,2189c <__mulsi3>
   1daa8:	0104d613          	srli	a2,s1,0x10
   1daac:	01f383b3          	add	t2,t2,t6
   1dab0:	00760633          	add	a2,a2,t2
   1dab4:	00050693          	mv	a3,a0
   1dab8:	01f67463          	bgeu	a2,t6,1dac0 <__muldf3+0x244>
   1dabc:	014506b3          	add	a3,a0,s4
   1dac0:	00010a37          	lui	s4,0x10
   1dac4:	fffa0393          	addi	t2,s4,-1 # ffff <exit-0x95>
   1dac8:	01065f93          	srli	t6,a2,0x10
   1dacc:	00767633          	and	a2,a2,t2
   1dad0:	01061613          	slli	a2,a2,0x10
   1dad4:	0074f4b3          	and	s1,s1,t2
   1dad8:	00df8fb3          	add	t6,t6,a3
   1dadc:	00960f33          	add	t5,a2,s1
   1dae0:	000e8513          	mv	a0,t4
   1dae4:	00070593          	mv	a1,a4
   1dae8:	5b5030ef          	jal	ra,2189c <__mulsi3>
   1daec:	00050493          	mv	s1,a0
   1daf0:	00090593          	mv	a1,s2
   1daf4:	000e8513          	mv	a0,t4
   1daf8:	5a5030ef          	jal	ra,2189c <__mulsi3>
   1dafc:	00050b13          	mv	s6,a0
   1db00:	00070593          	mv	a1,a4
   1db04:	00098513          	mv	a0,s3
   1db08:	595030ef          	jal	ra,2189c <__mulsi3>
   1db0c:	00050713          	mv	a4,a0
   1db10:	00090593          	mv	a1,s2
   1db14:	00098513          	mv	a0,s3
   1db18:	585030ef          	jal	ra,2189c <__mulsi3>
   1db1c:	0104d593          	srli	a1,s1,0x10
   1db20:	00eb0b33          	add	s6,s6,a4
   1db24:	016585b3          	add	a1,a1,s6
   1db28:	00050e93          	mv	t4,a0
   1db2c:	00e5f463          	bgeu	a1,a4,1db34 <__muldf3+0x2b8>
   1db30:	01450eb3          	add	t4,a0,s4
   1db34:	0075f733          	and	a4,a1,t2
   1db38:	01071713          	slli	a4,a4,0x10
   1db3c:	0074f4b3          	and	s1,s1,t2
   1db40:	008e06b3          	add	a3,t3,s0
   1db44:	00970733          	add	a4,a4,s1
   1db48:	005702b3          	add	t0,a4,t0
   1db4c:	00f6b7b3          	sltu	a5,a3,a5
   1db50:	00f287b3          	add	a5,t0,a5
   1db54:	00e2b633          	sltu	a2,t0,a4
   1db58:	0057b2b3          	sltu	t0,a5,t0
   1db5c:	0105d593          	srli	a1,a1,0x10
   1db60:	00566633          	or	a2,a2,t0
   1db64:	00b60633          	add	a2,a2,a1
   1db68:	01e685b3          	add	a1,a3,t5
   1db6c:	01f78fb3          	add	t6,a5,t6
   1db70:	00d5b6b3          	sltu	a3,a1,a3
   1db74:	00df86b3          	add	a3,t6,a3
   1db78:	00ffb733          	sltu	a4,t6,a5
   1db7c:	01f6bfb3          	sltu	t6,a3,t6
   1db80:	00959793          	slli	a5,a1,0x9
   1db84:	01f76733          	or	a4,a4,t6
   1db88:	00c70733          	add	a4,a4,a2
   1db8c:	0067e7b3          	or	a5,a5,t1
   1db90:	01d70733          	add	a4,a4,t4
   1db94:	00f037b3          	snez	a5,a5
   1db98:	0175d593          	srli	a1,a1,0x17
   1db9c:	00971713          	slli	a4,a4,0x9
   1dba0:	0176d413          	srli	s0,a3,0x17
   1dba4:	00b7e7b3          	or	a5,a5,a1
   1dba8:	00969693          	slli	a3,a3,0x9
   1dbac:	00d7e7b3          	or	a5,a5,a3
   1dbb0:	00771693          	slli	a3,a4,0x7
   1dbb4:	00876433          	or	s0,a4,s0
   1dbb8:	0206d063          	bgez	a3,1dbd8 <__muldf3+0x35c>
   1dbbc:	0017d713          	srli	a4,a5,0x1
   1dbc0:	0017f793          	andi	a5,a5,1
   1dbc4:	00f76733          	or	a4,a4,a5
   1dbc8:	01f41793          	slli	a5,s0,0x1f
   1dbcc:	00f767b3          	or	a5,a4,a5
   1dbd0:	00145413          	srli	s0,s0,0x1
   1dbd4:	00088a93          	mv	s5,a7
   1dbd8:	000a8893          	mv	a7,s5
   1dbdc:	18c0006f          	j	1dd68 <__muldf3+0x4ec>
   1dbe0:	00a4ea33          	or	s4,s1,a0
   1dbe4:	080a0063          	beqz	s4,1dc64 <__muldf3+0x3e8>
   1dbe8:	04048063          	beqz	s1,1dc28 <__muldf3+0x3ac>
   1dbec:	00048513          	mv	a0,s1
   1dbf0:	585030ef          	jal	ra,21974 <__clzsi2>
   1dbf4:	ff550713          	addi	a4,a0,-11
   1dbf8:	01d00793          	li	a5,29
   1dbfc:	ff850693          	addi	a3,a0,-8
   1dc00:	40e787b3          	sub	a5,a5,a4
   1dc04:	00d494b3          	sll	s1,s1,a3
   1dc08:	00f457b3          	srl	a5,s0,a5
   1dc0c:	0097e7b3          	or	a5,a5,s1
   1dc10:	00d414b3          	sll	s1,s0,a3
   1dc14:	c0d00a93          	li	s5,-1011
   1dc18:	00048a13          	mv	s4,s1
   1dc1c:	40aa8ab3          	sub	s5,s5,a0
   1dc20:	00078493          	mv	s1,a5
   1dc24:	cc9ff06f          	j	1d8ec <__muldf3+0x70>
   1dc28:	54d030ef          	jal	ra,21974 <__clzsi2>
   1dc2c:	00050793          	mv	a5,a0
   1dc30:	01578713          	addi	a4,a5,21
   1dc34:	01c00693          	li	a3,28
   1dc38:	02050513          	addi	a0,a0,32
   1dc3c:	fae6dee3          	bge	a3,a4,1dbf8 <__muldf3+0x37c>
   1dc40:	ff878793          	addi	a5,a5,-8
   1dc44:	00f417b3          	sll	a5,s0,a5
   1dc48:	fcdff06f          	j	1dc14 <__muldf3+0x398>
   1dc4c:	00a4ea33          	or	s4,s1,a0
   1dc50:	020a1263          	bnez	s4,1dc74 <__muldf3+0x3f8>
   1dc54:	00000493          	li	s1,0
   1dc58:	7ff00a93          	li	s5,2047
   1dc5c:	00200b93          	li	s7,2
   1dc60:	c91ff06f          	j	1d8f0 <__muldf3+0x74>
   1dc64:	00000493          	li	s1,0
   1dc68:	00000a93          	li	s5,0
   1dc6c:	00100b93          	li	s7,1
   1dc70:	c81ff06f          	j	1d8f0 <__muldf3+0x74>
   1dc74:	00050a13          	mv	s4,a0
   1dc78:	7ff00a93          	li	s5,2047
   1dc7c:	00300b93          	li	s7,3
   1dc80:	c71ff06f          	j	1d8f0 <__muldf3+0x74>
   1dc84:	016467b3          	or	a5,s0,s6
   1dc88:	08078263          	beqz	a5,1dd0c <__muldf3+0x490>
   1dc8c:	04040063          	beqz	s0,1dccc <__muldf3+0x450>
   1dc90:	00040513          	mv	a0,s0
   1dc94:	4e1030ef          	jal	ra,21974 <__clzsi2>
   1dc98:	ff550693          	addi	a3,a0,-11
   1dc9c:	01d00713          	li	a4,29
   1dca0:	ff850793          	addi	a5,a0,-8
   1dca4:	40d70733          	sub	a4,a4,a3
   1dca8:	00f41433          	sll	s0,s0,a5
   1dcac:	00eb5733          	srl	a4,s6,a4
   1dcb0:	00876733          	or	a4,a4,s0
   1dcb4:	00fb1433          	sll	s0,s6,a5
   1dcb8:	c0d00693          	li	a3,-1011
   1dcbc:	00040793          	mv	a5,s0
   1dcc0:	40a686b3          	sub	a3,a3,a0
   1dcc4:	00070413          	mv	s0,a4
   1dcc8:	c65ff06f          	j	1d92c <__muldf3+0xb0>
   1dccc:	000b0513          	mv	a0,s6
   1dcd0:	4a5030ef          	jal	ra,21974 <__clzsi2>
   1dcd4:	00050793          	mv	a5,a0
   1dcd8:	01578693          	addi	a3,a5,21
   1dcdc:	01c00713          	li	a4,28
   1dce0:	02050513          	addi	a0,a0,32
   1dce4:	fad75ce3          	bge	a4,a3,1dc9c <__muldf3+0x420>
   1dce8:	ff878793          	addi	a5,a5,-8
   1dcec:	00fb1733          	sll	a4,s6,a5
   1dcf0:	fc9ff06f          	j	1dcb8 <__muldf3+0x43c>
   1dcf4:	016467b3          	or	a5,s0,s6
   1dcf8:	02079263          	bnez	a5,1dd1c <__muldf3+0x4a0>
   1dcfc:	00000413          	li	s0,0
   1dd00:	7ff00693          	li	a3,2047
   1dd04:	00200713          	li	a4,2
   1dd08:	c29ff06f          	j	1d930 <__muldf3+0xb4>
   1dd0c:	00000413          	li	s0,0
   1dd10:	00000693          	li	a3,0
   1dd14:	00100713          	li	a4,1
   1dd18:	c19ff06f          	j	1d930 <__muldf3+0xb4>
   1dd1c:	000b0793          	mv	a5,s6
   1dd20:	7ff00693          	li	a3,2047
   1dd24:	00300713          	li	a4,3
   1dd28:	c09ff06f          	j	1d930 <__muldf3+0xb4>
   1dd2c:	00100613          	li	a2,1
   1dd30:	00d61633          	sll	a2,a2,a3
   1dd34:	53067693          	andi	a3,a2,1328
   1dd38:	0e069663          	bnez	a3,1de24 <__muldf3+0x5a8>
   1dd3c:	24067593          	andi	a1,a2,576
   1dd40:	1a059a63          	bnez	a1,1def4 <__muldf3+0x678>
   1dd44:	08867613          	andi	a2,a2,136
   1dd48:	c0060ce3          	beqz	a2,1d960 <__muldf3+0xe4>
   1dd4c:	00090813          	mv	a6,s2
   1dd50:	00200693          	li	a3,2
   1dd54:	18d70863          	beq	a4,a3,1dee4 <__muldf3+0x668>
   1dd58:	00300693          	li	a3,3
   1dd5c:	1ad70463          	beq	a4,a3,1df04 <__muldf3+0x688>
   1dd60:	00100693          	li	a3,1
   1dd64:	1ad70663          	beq	a4,a3,1df10 <__muldf3+0x694>
   1dd68:	3ff88613          	addi	a2,a7,1023
   1dd6c:	0cc05463          	blez	a2,1de34 <__muldf3+0x5b8>
   1dd70:	0077f713          	andi	a4,a5,7
   1dd74:	02070063          	beqz	a4,1dd94 <__muldf3+0x518>
   1dd78:	00f7f713          	andi	a4,a5,15
   1dd7c:	00400693          	li	a3,4
   1dd80:	00d70a63          	beq	a4,a3,1dd94 <__muldf3+0x518>
   1dd84:	00478713          	addi	a4,a5,4
   1dd88:	00f736b3          	sltu	a3,a4,a5
   1dd8c:	00d40433          	add	s0,s0,a3
   1dd90:	00070793          	mv	a5,a4
   1dd94:	00741713          	slli	a4,s0,0x7
   1dd98:	00075a63          	bgez	a4,1ddac <__muldf3+0x530>
   1dd9c:	ff000737          	lui	a4,0xff000
   1dda0:	fff70713          	addi	a4,a4,-1 # feffffff <__BSS_END__+0xfefdc2f3>
   1dda4:	00e47433          	and	s0,s0,a4
   1dda8:	40088613          	addi	a2,a7,1024
   1ddac:	7fe00713          	li	a4,2046
   1ddb0:	12c74a63          	blt	a4,a2,1dee4 <__muldf3+0x668>
   1ddb4:	0037d793          	srli	a5,a5,0x3
   1ddb8:	01d41693          	slli	a3,s0,0x1d
   1ddbc:	00f6e6b3          	or	a3,a3,a5
   1ddc0:	00345713          	srli	a4,s0,0x3
   1ddc4:	00c71713          	slli	a4,a4,0xc
   1ddc8:	02c12083          	lw	ra,44(sp)
   1ddcc:	02812403          	lw	s0,40(sp)
   1ddd0:	01461613          	slli	a2,a2,0x14
   1ddd4:	00c75713          	srli	a4,a4,0xc
   1ddd8:	00e66633          	or	a2,a2,a4
   1dddc:	01f81813          	slli	a6,a6,0x1f
   1dde0:	010667b3          	or	a5,a2,a6
   1dde4:	02412483          	lw	s1,36(sp)
   1dde8:	02012903          	lw	s2,32(sp)
   1ddec:	01c12983          	lw	s3,28(sp)
   1ddf0:	01812a03          	lw	s4,24(sp)
   1ddf4:	01412a83          	lw	s5,20(sp)
   1ddf8:	01012b03          	lw	s6,16(sp)
   1ddfc:	00c12b83          	lw	s7,12(sp)
   1de00:	00068513          	mv	a0,a3
   1de04:	00078593          	mv	a1,a5
   1de08:	03010113          	addi	sp,sp,48
   1de0c:	00008067          	ret
   1de10:	00f00613          	li	a2,15
   1de14:	0ec68863          	beq	a3,a2,1df04 <__muldf3+0x688>
   1de18:	00b00613          	li	a2,11
   1de1c:	00098813          	mv	a6,s3
   1de20:	f2c686e3          	beq	a3,a2,1dd4c <__muldf3+0x4d0>
   1de24:	00048413          	mv	s0,s1
   1de28:	000a0793          	mv	a5,s4
   1de2c:	000b8713          	mv	a4,s7
   1de30:	f21ff06f          	j	1dd50 <__muldf3+0x4d4>
   1de34:	00100713          	li	a4,1
   1de38:	40c70733          	sub	a4,a4,a2
   1de3c:	03800693          	li	a3,56
   1de40:	0ce6c863          	blt	a3,a4,1df10 <__muldf3+0x694>
   1de44:	01f00693          	li	a3,31
   1de48:	06e6c463          	blt	a3,a4,1deb0 <__muldf3+0x634>
   1de4c:	41e88893          	addi	a7,a7,1054
   1de50:	00e7d633          	srl	a2,a5,a4
   1de54:	011416b3          	sll	a3,s0,a7
   1de58:	011798b3          	sll	a7,a5,a7
   1de5c:	00c6e6b3          	or	a3,a3,a2
   1de60:	011038b3          	snez	a7,a7
   1de64:	0116e7b3          	or	a5,a3,a7
   1de68:	00e45733          	srl	a4,s0,a4
   1de6c:	0077f693          	andi	a3,a5,7
   1de70:	02068063          	beqz	a3,1de90 <__muldf3+0x614>
   1de74:	00f7f693          	andi	a3,a5,15
   1de78:	00400613          	li	a2,4
   1de7c:	00c68a63          	beq	a3,a2,1de90 <__muldf3+0x614>
   1de80:	00478693          	addi	a3,a5,4
   1de84:	00f6b633          	sltu	a2,a3,a5
   1de88:	00c70733          	add	a4,a4,a2
   1de8c:	00068793          	mv	a5,a3
   1de90:	00871693          	slli	a3,a4,0x8
   1de94:	0806c463          	bltz	a3,1df1c <__muldf3+0x6a0>
   1de98:	01d71693          	slli	a3,a4,0x1d
   1de9c:	0037d793          	srli	a5,a5,0x3
   1dea0:	00f6e6b3          	or	a3,a3,a5
   1dea4:	00375713          	srli	a4,a4,0x3
   1dea8:	00000613          	li	a2,0
   1deac:	f19ff06f          	j	1ddc4 <__muldf3+0x548>
   1deb0:	fe100693          	li	a3,-31
   1deb4:	40c686b3          	sub	a3,a3,a2
   1deb8:	02000593          	li	a1,32
   1debc:	00d456b3          	srl	a3,s0,a3
   1dec0:	00000613          	li	a2,0
   1dec4:	00b70663          	beq	a4,a1,1ded0 <__muldf3+0x654>
   1dec8:	43e88613          	addi	a2,a7,1086
   1decc:	00c41633          	sll	a2,s0,a2
   1ded0:	00f66633          	or	a2,a2,a5
   1ded4:	00c03633          	snez	a2,a2
   1ded8:	00c6e7b3          	or	a5,a3,a2
   1dedc:	00000713          	li	a4,0
   1dee0:	f8dff06f          	j	1de6c <__muldf3+0x5f0>
   1dee4:	00000713          	li	a4,0
   1dee8:	00000693          	li	a3,0
   1deec:	7ff00613          	li	a2,2047
   1def0:	ed5ff06f          	j	1ddc4 <__muldf3+0x548>
   1def4:	00080737          	lui	a4,0x80
   1def8:	7ff00613          	li	a2,2047
   1defc:	00000813          	li	a6,0
   1df00:	ec5ff06f          	j	1ddc4 <__muldf3+0x548>
   1df04:	00080737          	lui	a4,0x80
   1df08:	00000693          	li	a3,0
   1df0c:	fedff06f          	j	1def8 <__muldf3+0x67c>
   1df10:	00000713          	li	a4,0
   1df14:	00000693          	li	a3,0
   1df18:	f91ff06f          	j	1dea8 <__muldf3+0x62c>
   1df1c:	00000713          	li	a4,0
   1df20:	00000693          	li	a3,0
   1df24:	00100613          	li	a2,1
   1df28:	e9dff06f          	j	1ddc4 <__muldf3+0x548>

0001df2c <__subdf3>:
   1df2c:	00100837          	lui	a6,0x100
   1df30:	fff80813          	addi	a6,a6,-1 # fffff <__BSS_END__+0xdc2f3>
   1df34:	fe010113          	addi	sp,sp,-32
   1df38:	00b878b3          	and	a7,a6,a1
   1df3c:	0145d713          	srli	a4,a1,0x14
   1df40:	01d55793          	srli	a5,a0,0x1d
   1df44:	00d87833          	and	a6,a6,a3
   1df48:	01212823          	sw	s2,16(sp)
   1df4c:	7ff77913          	andi	s2,a4,2047
   1df50:	00389713          	slli	a4,a7,0x3
   1df54:	0146d893          	srli	a7,a3,0x14
   1df58:	00912a23          	sw	s1,20(sp)
   1df5c:	00e7e7b3          	or	a5,a5,a4
   1df60:	01f5d493          	srli	s1,a1,0x1f
   1df64:	01d65713          	srli	a4,a2,0x1d
   1df68:	00381813          	slli	a6,a6,0x3
   1df6c:	00112e23          	sw	ra,28(sp)
   1df70:	00812c23          	sw	s0,24(sp)
   1df74:	01312623          	sw	s3,12(sp)
   1df78:	7ff8f893          	andi	a7,a7,2047
   1df7c:	7ff00593          	li	a1,2047
   1df80:	00351513          	slli	a0,a0,0x3
   1df84:	01f6d693          	srli	a3,a3,0x1f
   1df88:	01076733          	or	a4,a4,a6
   1df8c:	00361613          	slli	a2,a2,0x3
   1df90:	00b89663          	bne	a7,a1,1df9c <__subdf3+0x70>
   1df94:	00c765b3          	or	a1,a4,a2
   1df98:	00059463          	bnez	a1,1dfa0 <__subdf3+0x74>
   1df9c:	0016c693          	xori	a3,a3,1
   1dfa0:	41190833          	sub	a6,s2,a7
   1dfa4:	2a969a63          	bne	a3,s1,1e258 <__subdf3+0x32c>
   1dfa8:	11005c63          	blez	a6,1e0c0 <__subdf3+0x194>
   1dfac:	04089063          	bnez	a7,1dfec <__subdf3+0xc0>
   1dfb0:	00c766b3          	or	a3,a4,a2
   1dfb4:	66068063          	beqz	a3,1e614 <__subdf3+0x6e8>
   1dfb8:	fff80593          	addi	a1,a6,-1
   1dfbc:	02059063          	bnez	a1,1dfdc <__subdf3+0xb0>
   1dfc0:	00c50633          	add	a2,a0,a2
   1dfc4:	00a636b3          	sltu	a3,a2,a0
   1dfc8:	00e78733          	add	a4,a5,a4
   1dfcc:	00060513          	mv	a0,a2
   1dfd0:	00d707b3          	add	a5,a4,a3
   1dfd4:	00100913          	li	s2,1
   1dfd8:	06c0006f          	j	1e044 <__subdf3+0x118>
   1dfdc:	7ff00693          	li	a3,2047
   1dfe0:	02d81063          	bne	a6,a3,1e000 <__subdf3+0xd4>
   1dfe4:	7ff00913          	li	s2,2047
   1dfe8:	1f80006f          	j	1e1e0 <__subdf3+0x2b4>
   1dfec:	7ff00693          	li	a3,2047
   1dff0:	1ed90863          	beq	s2,a3,1e1e0 <__subdf3+0x2b4>
   1dff4:	008006b7          	lui	a3,0x800
   1dff8:	00d76733          	or	a4,a4,a3
   1dffc:	00080593          	mv	a1,a6
   1e000:	03800693          	li	a3,56
   1e004:	0ab6c863          	blt	a3,a1,1e0b4 <__subdf3+0x188>
   1e008:	01f00693          	li	a3,31
   1e00c:	06b6ca63          	blt	a3,a1,1e080 <__subdf3+0x154>
   1e010:	02000813          	li	a6,32
   1e014:	40b80833          	sub	a6,a6,a1
   1e018:	010716b3          	sll	a3,a4,a6
   1e01c:	00b658b3          	srl	a7,a2,a1
   1e020:	01061833          	sll	a6,a2,a6
   1e024:	0116e6b3          	or	a3,a3,a7
   1e028:	01003833          	snez	a6,a6
   1e02c:	0106e6b3          	or	a3,a3,a6
   1e030:	00b755b3          	srl	a1,a4,a1
   1e034:	00a68533          	add	a0,a3,a0
   1e038:	00f585b3          	add	a1,a1,a5
   1e03c:	00d536b3          	sltu	a3,a0,a3
   1e040:	00d587b3          	add	a5,a1,a3
   1e044:	00879713          	slli	a4,a5,0x8
   1e048:	18075c63          	bgez	a4,1e1e0 <__subdf3+0x2b4>
   1e04c:	00190913          	addi	s2,s2,1
   1e050:	7ff00713          	li	a4,2047
   1e054:	5ae90a63          	beq	s2,a4,1e608 <__subdf3+0x6dc>
   1e058:	ff800737          	lui	a4,0xff800
   1e05c:	fff70713          	addi	a4,a4,-1 # ff7fffff <__BSS_END__+0xff7dc2f3>
   1e060:	00e7f733          	and	a4,a5,a4
   1e064:	00155793          	srli	a5,a0,0x1
   1e068:	00157513          	andi	a0,a0,1
   1e06c:	00a7e7b3          	or	a5,a5,a0
   1e070:	01f71513          	slli	a0,a4,0x1f
   1e074:	00f56533          	or	a0,a0,a5
   1e078:	00175793          	srli	a5,a4,0x1
   1e07c:	1640006f          	j	1e1e0 <__subdf3+0x2b4>
   1e080:	fe058693          	addi	a3,a1,-32 # 7ffe0 <__BSS_END__+0x5c2d4>
   1e084:	02000893          	li	a7,32
   1e088:	00d756b3          	srl	a3,a4,a3
   1e08c:	00000813          	li	a6,0
   1e090:	01158863          	beq	a1,a7,1e0a0 <__subdf3+0x174>
   1e094:	04000813          	li	a6,64
   1e098:	40b80833          	sub	a6,a6,a1
   1e09c:	01071833          	sll	a6,a4,a6
   1e0a0:	00c86833          	or	a6,a6,a2
   1e0a4:	01003833          	snez	a6,a6
   1e0a8:	0106e6b3          	or	a3,a3,a6
   1e0ac:	00000593          	li	a1,0
   1e0b0:	f85ff06f          	j	1e034 <__subdf3+0x108>
   1e0b4:	00c766b3          	or	a3,a4,a2
   1e0b8:	00d036b3          	snez	a3,a3
   1e0bc:	ff1ff06f          	j	1e0ac <__subdf3+0x180>
   1e0c0:	0c080a63          	beqz	a6,1e194 <__subdf3+0x268>
   1e0c4:	412886b3          	sub	a3,a7,s2
   1e0c8:	02091463          	bnez	s2,1e0f0 <__subdf3+0x1c4>
   1e0cc:	00a7e5b3          	or	a1,a5,a0
   1e0d0:	50058e63          	beqz	a1,1e5ec <__subdf3+0x6c0>
   1e0d4:	fff68593          	addi	a1,a3,-1 # 7fffff <__BSS_END__+0x7dc2f3>
   1e0d8:	ee0584e3          	beqz	a1,1dfc0 <__subdf3+0x94>
   1e0dc:	7ff00813          	li	a6,2047
   1e0e0:	03069263          	bne	a3,a6,1e104 <__subdf3+0x1d8>
   1e0e4:	00070793          	mv	a5,a4
   1e0e8:	00060513          	mv	a0,a2
   1e0ec:	ef9ff06f          	j	1dfe4 <__subdf3+0xb8>
   1e0f0:	7ff00593          	li	a1,2047
   1e0f4:	feb888e3          	beq	a7,a1,1e0e4 <__subdf3+0x1b8>
   1e0f8:	008005b7          	lui	a1,0x800
   1e0fc:	00b7e7b3          	or	a5,a5,a1
   1e100:	00068593          	mv	a1,a3
   1e104:	03800693          	li	a3,56
   1e108:	08b6c063          	blt	a3,a1,1e188 <__subdf3+0x25c>
   1e10c:	01f00693          	li	a3,31
   1e110:	04b6c263          	blt	a3,a1,1e154 <__subdf3+0x228>
   1e114:	02000813          	li	a6,32
   1e118:	40b80833          	sub	a6,a6,a1
   1e11c:	010796b3          	sll	a3,a5,a6
   1e120:	00b55333          	srl	t1,a0,a1
   1e124:	01051833          	sll	a6,a0,a6
   1e128:	0066e6b3          	or	a3,a3,t1
   1e12c:	01003833          	snez	a6,a6
   1e130:	0106e6b3          	or	a3,a3,a6
   1e134:	00b7d5b3          	srl	a1,a5,a1
   1e138:	00c68633          	add	a2,a3,a2
   1e13c:	00e585b3          	add	a1,a1,a4
   1e140:	00d636b3          	sltu	a3,a2,a3
   1e144:	00060513          	mv	a0,a2
   1e148:	00d587b3          	add	a5,a1,a3
   1e14c:	00088913          	mv	s2,a7
   1e150:	ef5ff06f          	j	1e044 <__subdf3+0x118>
   1e154:	fe058693          	addi	a3,a1,-32 # 7fffe0 <__BSS_END__+0x7dc2d4>
   1e158:	02000313          	li	t1,32
   1e15c:	00d7d6b3          	srl	a3,a5,a3
   1e160:	00000813          	li	a6,0
   1e164:	00658863          	beq	a1,t1,1e174 <__subdf3+0x248>
   1e168:	04000813          	li	a6,64
   1e16c:	40b80833          	sub	a6,a6,a1
   1e170:	01079833          	sll	a6,a5,a6
   1e174:	00a86833          	or	a6,a6,a0
   1e178:	01003833          	snez	a6,a6
   1e17c:	0106e6b3          	or	a3,a3,a6
   1e180:	00000593          	li	a1,0
   1e184:	fb5ff06f          	j	1e138 <__subdf3+0x20c>
   1e188:	00a7e6b3          	or	a3,a5,a0
   1e18c:	00d036b3          	snez	a3,a3
   1e190:	ff1ff06f          	j	1e180 <__subdf3+0x254>
   1e194:	00190693          	addi	a3,s2,1
   1e198:	7fe6f593          	andi	a1,a3,2046
   1e19c:	08059663          	bnez	a1,1e228 <__subdf3+0x2fc>
   1e1a0:	00a7e6b3          	or	a3,a5,a0
   1e1a4:	06091263          	bnez	s2,1e208 <__subdf3+0x2dc>
   1e1a8:	44068863          	beqz	a3,1e5f8 <__subdf3+0x6cc>
   1e1ac:	00c766b3          	or	a3,a4,a2
   1e1b0:	02068863          	beqz	a3,1e1e0 <__subdf3+0x2b4>
   1e1b4:	00c50633          	add	a2,a0,a2
   1e1b8:	00a636b3          	sltu	a3,a2,a0
   1e1bc:	00e78733          	add	a4,a5,a4
   1e1c0:	00d707b3          	add	a5,a4,a3
   1e1c4:	00879713          	slli	a4,a5,0x8
   1e1c8:	00060513          	mv	a0,a2
   1e1cc:	00075a63          	bgez	a4,1e1e0 <__subdf3+0x2b4>
   1e1d0:	ff800737          	lui	a4,0xff800
   1e1d4:	fff70713          	addi	a4,a4,-1 # ff7fffff <__BSS_END__+0xff7dc2f3>
   1e1d8:	00e7f7b3          	and	a5,a5,a4
   1e1dc:	00100913          	li	s2,1
   1e1e0:	00757713          	andi	a4,a0,7
   1e1e4:	44070863          	beqz	a4,1e634 <__subdf3+0x708>
   1e1e8:	00f57713          	andi	a4,a0,15
   1e1ec:	00400693          	li	a3,4
   1e1f0:	44d70263          	beq	a4,a3,1e634 <__subdf3+0x708>
   1e1f4:	00450713          	addi	a4,a0,4
   1e1f8:	00a736b3          	sltu	a3,a4,a0
   1e1fc:	00d787b3          	add	a5,a5,a3
   1e200:	00070513          	mv	a0,a4
   1e204:	4300006f          	j	1e634 <__subdf3+0x708>
   1e208:	ec068ee3          	beqz	a3,1e0e4 <__subdf3+0x1b8>
   1e20c:	00c76633          	or	a2,a4,a2
   1e210:	dc060ae3          	beqz	a2,1dfe4 <__subdf3+0xb8>
   1e214:	00000493          	li	s1,0
   1e218:	004007b7          	lui	a5,0x400
   1e21c:	00000513          	li	a0,0
   1e220:	7ff00913          	li	s2,2047
   1e224:	4100006f          	j	1e634 <__subdf3+0x708>
   1e228:	7ff00593          	li	a1,2047
   1e22c:	3cb68c63          	beq	a3,a1,1e604 <__subdf3+0x6d8>
   1e230:	00c50633          	add	a2,a0,a2
   1e234:	00a63533          	sltu	a0,a2,a0
   1e238:	00e78733          	add	a4,a5,a4
   1e23c:	00a70733          	add	a4,a4,a0
   1e240:	01f71513          	slli	a0,a4,0x1f
   1e244:	00165613          	srli	a2,a2,0x1
   1e248:	00c56533          	or	a0,a0,a2
   1e24c:	00175793          	srli	a5,a4,0x1
   1e250:	00068913          	mv	s2,a3
   1e254:	f8dff06f          	j	1e1e0 <__subdf3+0x2b4>
   1e258:	0f005c63          	blez	a6,1e350 <__subdf3+0x424>
   1e25c:	08089e63          	bnez	a7,1e2f8 <__subdf3+0x3cc>
   1e260:	00c766b3          	or	a3,a4,a2
   1e264:	3a068863          	beqz	a3,1e614 <__subdf3+0x6e8>
   1e268:	fff80693          	addi	a3,a6,-1
   1e26c:	02069063          	bnez	a3,1e28c <__subdf3+0x360>
   1e270:	40c50633          	sub	a2,a0,a2
   1e274:	00c536b3          	sltu	a3,a0,a2
   1e278:	40e78733          	sub	a4,a5,a4
   1e27c:	00060513          	mv	a0,a2
   1e280:	40d707b3          	sub	a5,a4,a3
   1e284:	00100913          	li	s2,1
   1e288:	0540006f          	j	1e2dc <__subdf3+0x3b0>
   1e28c:	7ff00593          	li	a1,2047
   1e290:	d4b80ae3          	beq	a6,a1,1dfe4 <__subdf3+0xb8>
   1e294:	03800593          	li	a1,56
   1e298:	0ad5c663          	blt	a1,a3,1e344 <__subdf3+0x418>
   1e29c:	01f00593          	li	a1,31
   1e2a0:	06d5c863          	blt	a1,a3,1e310 <__subdf3+0x3e4>
   1e2a4:	02000813          	li	a6,32
   1e2a8:	40d80833          	sub	a6,a6,a3
   1e2ac:	00d658b3          	srl	a7,a2,a3
   1e2b0:	010715b3          	sll	a1,a4,a6
   1e2b4:	01061833          	sll	a6,a2,a6
   1e2b8:	0115e5b3          	or	a1,a1,a7
   1e2bc:	01003833          	snez	a6,a6
   1e2c0:	0105e633          	or	a2,a1,a6
   1e2c4:	00d756b3          	srl	a3,a4,a3
   1e2c8:	40c50633          	sub	a2,a0,a2
   1e2cc:	00c53733          	sltu	a4,a0,a2
   1e2d0:	40d786b3          	sub	a3,a5,a3
   1e2d4:	00060513          	mv	a0,a2
   1e2d8:	40e687b3          	sub	a5,a3,a4
   1e2dc:	00879713          	slli	a4,a5,0x8
   1e2e0:	f00750e3          	bgez	a4,1e1e0 <__subdf3+0x2b4>
   1e2e4:	00800437          	lui	s0,0x800
   1e2e8:	fff40413          	addi	s0,s0,-1 # 7fffff <__BSS_END__+0x7dc2f3>
   1e2ec:	0087f433          	and	s0,a5,s0
   1e2f0:	00050993          	mv	s3,a0
   1e2f4:	2100006f          	j	1e504 <__subdf3+0x5d8>
   1e2f8:	7ff00693          	li	a3,2047
   1e2fc:	eed902e3          	beq	s2,a3,1e1e0 <__subdf3+0x2b4>
   1e300:	008006b7          	lui	a3,0x800
   1e304:	00d76733          	or	a4,a4,a3
   1e308:	00080693          	mv	a3,a6
   1e30c:	f89ff06f          	j	1e294 <__subdf3+0x368>
   1e310:	fe068593          	addi	a1,a3,-32 # 7fffe0 <__BSS_END__+0x7dc2d4>
   1e314:	02000893          	li	a7,32
   1e318:	00b755b3          	srl	a1,a4,a1
   1e31c:	00000813          	li	a6,0
   1e320:	01168863          	beq	a3,a7,1e330 <__subdf3+0x404>
   1e324:	04000813          	li	a6,64
   1e328:	40d80833          	sub	a6,a6,a3
   1e32c:	01071833          	sll	a6,a4,a6
   1e330:	00c86833          	or	a6,a6,a2
   1e334:	01003833          	snez	a6,a6
   1e338:	0105e633          	or	a2,a1,a6
   1e33c:	00000693          	li	a3,0
   1e340:	f89ff06f          	j	1e2c8 <__subdf3+0x39c>
   1e344:	00c76633          	or	a2,a4,a2
   1e348:	00c03633          	snez	a2,a2
   1e34c:	ff1ff06f          	j	1e33c <__subdf3+0x410>
   1e350:	0e080863          	beqz	a6,1e440 <__subdf3+0x514>
   1e354:	41288833          	sub	a6,a7,s2
   1e358:	04091263          	bnez	s2,1e39c <__subdf3+0x470>
   1e35c:	00a7e5b3          	or	a1,a5,a0
   1e360:	2a058e63          	beqz	a1,1e61c <__subdf3+0x6f0>
   1e364:	fff80593          	addi	a1,a6,-1
   1e368:	00059e63          	bnez	a1,1e384 <__subdf3+0x458>
   1e36c:	40a60533          	sub	a0,a2,a0
   1e370:	40f70733          	sub	a4,a4,a5
   1e374:	00a63633          	sltu	a2,a2,a0
   1e378:	40c707b3          	sub	a5,a4,a2
   1e37c:	00068493          	mv	s1,a3
   1e380:	f05ff06f          	j	1e284 <__subdf3+0x358>
   1e384:	7ff00313          	li	t1,2047
   1e388:	02681463          	bne	a6,t1,1e3b0 <__subdf3+0x484>
   1e38c:	00070793          	mv	a5,a4
   1e390:	00060513          	mv	a0,a2
   1e394:	7ff00913          	li	s2,2047
   1e398:	0d00006f          	j	1e468 <__subdf3+0x53c>
   1e39c:	7ff00593          	li	a1,2047
   1e3a0:	feb886e3          	beq	a7,a1,1e38c <__subdf3+0x460>
   1e3a4:	008005b7          	lui	a1,0x800
   1e3a8:	00b7e7b3          	or	a5,a5,a1
   1e3ac:	00080593          	mv	a1,a6
   1e3b0:	03800813          	li	a6,56
   1e3b4:	08b84063          	blt	a6,a1,1e434 <__subdf3+0x508>
   1e3b8:	01f00813          	li	a6,31
   1e3bc:	04b84263          	blt	a6,a1,1e400 <__subdf3+0x4d4>
   1e3c0:	02000313          	li	t1,32
   1e3c4:	40b30333          	sub	t1,t1,a1
   1e3c8:	00b55e33          	srl	t3,a0,a1
   1e3cc:	00679833          	sll	a6,a5,t1
   1e3d0:	00651333          	sll	t1,a0,t1
   1e3d4:	01c86833          	or	a6,a6,t3
   1e3d8:	00603333          	snez	t1,t1
   1e3dc:	00686533          	or	a0,a6,t1
   1e3e0:	00b7d5b3          	srl	a1,a5,a1
   1e3e4:	40a60533          	sub	a0,a2,a0
   1e3e8:	40b705b3          	sub	a1,a4,a1
   1e3ec:	00a63633          	sltu	a2,a2,a0
   1e3f0:	40c587b3          	sub	a5,a1,a2
   1e3f4:	00088913          	mv	s2,a7
   1e3f8:	00068493          	mv	s1,a3
   1e3fc:	ee1ff06f          	j	1e2dc <__subdf3+0x3b0>
   1e400:	fe058813          	addi	a6,a1,-32 # 7fffe0 <__BSS_END__+0x7dc2d4>
   1e404:	02000e13          	li	t3,32
   1e408:	0107d833          	srl	a6,a5,a6
   1e40c:	00000313          	li	t1,0
   1e410:	01c58863          	beq	a1,t3,1e420 <__subdf3+0x4f4>
   1e414:	04000313          	li	t1,64
   1e418:	40b30333          	sub	t1,t1,a1
   1e41c:	00679333          	sll	t1,a5,t1
   1e420:	00a36333          	or	t1,t1,a0
   1e424:	00603333          	snez	t1,t1
   1e428:	00686533          	or	a0,a6,t1
   1e42c:	00000593          	li	a1,0
   1e430:	fb5ff06f          	j	1e3e4 <__subdf3+0x4b8>
   1e434:	00a7e533          	or	a0,a5,a0
   1e438:	00a03533          	snez	a0,a0
   1e43c:	ff1ff06f          	j	1e42c <__subdf3+0x500>
   1e440:	00190593          	addi	a1,s2,1
   1e444:	7fe5f593          	andi	a1,a1,2046
   1e448:	08059663          	bnez	a1,1e4d4 <__subdf3+0x5a8>
   1e44c:	00c765b3          	or	a1,a4,a2
   1e450:	00a7e833          	or	a6,a5,a0
   1e454:	06091063          	bnez	s2,1e4b4 <__subdf3+0x588>
   1e458:	00081c63          	bnez	a6,1e470 <__subdf3+0x544>
   1e45c:	10058e63          	beqz	a1,1e578 <__subdf3+0x64c>
   1e460:	00070793          	mv	a5,a4
   1e464:	00060513          	mv	a0,a2
   1e468:	00068493          	mv	s1,a3
   1e46c:	d75ff06f          	j	1e1e0 <__subdf3+0x2b4>
   1e470:	d60588e3          	beqz	a1,1e1e0 <__subdf3+0x2b4>
   1e474:	40c50833          	sub	a6,a0,a2
   1e478:	010538b3          	sltu	a7,a0,a6
   1e47c:	40e785b3          	sub	a1,a5,a4
   1e480:	411585b3          	sub	a1,a1,a7
   1e484:	00859893          	slli	a7,a1,0x8
   1e488:	0008dc63          	bgez	a7,1e4a0 <__subdf3+0x574>
   1e48c:	40a60533          	sub	a0,a2,a0
   1e490:	40f70733          	sub	a4,a4,a5
   1e494:	00a63633          	sltu	a2,a2,a0
   1e498:	40c707b3          	sub	a5,a4,a2
   1e49c:	fcdff06f          	j	1e468 <__subdf3+0x53c>
   1e4a0:	00b86533          	or	a0,a6,a1
   1e4a4:	18050463          	beqz	a0,1e62c <__subdf3+0x700>
   1e4a8:	00058793          	mv	a5,a1
   1e4ac:	00080513          	mv	a0,a6
   1e4b0:	d31ff06f          	j	1e1e0 <__subdf3+0x2b4>
   1e4b4:	00081c63          	bnez	a6,1e4cc <__subdf3+0x5a0>
   1e4b8:	d4058ee3          	beqz	a1,1e214 <__subdf3+0x2e8>
   1e4bc:	00070793          	mv	a5,a4
   1e4c0:	00060513          	mv	a0,a2
   1e4c4:	00068493          	mv	s1,a3
   1e4c8:	b1dff06f          	j	1dfe4 <__subdf3+0xb8>
   1e4cc:	b0058ce3          	beqz	a1,1dfe4 <__subdf3+0xb8>
   1e4d0:	d45ff06f          	j	1e214 <__subdf3+0x2e8>
   1e4d4:	40c505b3          	sub	a1,a0,a2
   1e4d8:	00b53833          	sltu	a6,a0,a1
   1e4dc:	40e78433          	sub	s0,a5,a4
   1e4e0:	41040433          	sub	s0,s0,a6
   1e4e4:	00841813          	slli	a6,s0,0x8
   1e4e8:	00058993          	mv	s3,a1
   1e4ec:	08085063          	bgez	a6,1e56c <__subdf3+0x640>
   1e4f0:	40a609b3          	sub	s3,a2,a0
   1e4f4:	40f70433          	sub	s0,a4,a5
   1e4f8:	01363633          	sltu	a2,a2,s3
   1e4fc:	40c40433          	sub	s0,s0,a2
   1e500:	00068493          	mv	s1,a3
   1e504:	06040e63          	beqz	s0,1e580 <__subdf3+0x654>
   1e508:	00040513          	mv	a0,s0
   1e50c:	468030ef          	jal	ra,21974 <__clzsi2>
   1e510:	ff850693          	addi	a3,a0,-8
   1e514:	02000793          	li	a5,32
   1e518:	40d787b3          	sub	a5,a5,a3
   1e51c:	00d41433          	sll	s0,s0,a3
   1e520:	00f9d7b3          	srl	a5,s3,a5
   1e524:	0087e7b3          	or	a5,a5,s0
   1e528:	00d99433          	sll	s0,s3,a3
   1e52c:	0b26c463          	blt	a3,s2,1e5d4 <__subdf3+0x6a8>
   1e530:	412686b3          	sub	a3,a3,s2
   1e534:	00168613          	addi	a2,a3,1
   1e538:	01f00713          	li	a4,31
   1e53c:	06c74263          	blt	a4,a2,1e5a0 <__subdf3+0x674>
   1e540:	02000713          	li	a4,32
   1e544:	40c70733          	sub	a4,a4,a2
   1e548:	00e79533          	sll	a0,a5,a4
   1e54c:	00c456b3          	srl	a3,s0,a2
   1e550:	00e41733          	sll	a4,s0,a4
   1e554:	00d56533          	or	a0,a0,a3
   1e558:	00e03733          	snez	a4,a4
   1e55c:	00e56533          	or	a0,a0,a4
   1e560:	00c7d7b3          	srl	a5,a5,a2
   1e564:	00000913          	li	s2,0
   1e568:	c79ff06f          	j	1e1e0 <__subdf3+0x2b4>
   1e56c:	0085e5b3          	or	a1,a1,s0
   1e570:	f8059ae3          	bnez	a1,1e504 <__subdf3+0x5d8>
   1e574:	00000913          	li	s2,0
   1e578:	00000493          	li	s1,0
   1e57c:	08c0006f          	j	1e608 <__subdf3+0x6dc>
   1e580:	00098513          	mv	a0,s3
   1e584:	3f0030ef          	jal	ra,21974 <__clzsi2>
   1e588:	01850693          	addi	a3,a0,24
   1e58c:	01f00793          	li	a5,31
   1e590:	f8d7d2e3          	bge	a5,a3,1e514 <__subdf3+0x5e8>
   1e594:	ff850793          	addi	a5,a0,-8
   1e598:	00f997b3          	sll	a5,s3,a5
   1e59c:	f91ff06f          	j	1e52c <__subdf3+0x600>
   1e5a0:	fe168693          	addi	a3,a3,-31
   1e5a4:	00d7d533          	srl	a0,a5,a3
   1e5a8:	02000693          	li	a3,32
   1e5ac:	00000713          	li	a4,0
   1e5b0:	00d60863          	beq	a2,a3,1e5c0 <__subdf3+0x694>
   1e5b4:	04000713          	li	a4,64
   1e5b8:	40c70733          	sub	a4,a4,a2
   1e5bc:	00e79733          	sll	a4,a5,a4
   1e5c0:	00e46733          	or	a4,s0,a4
   1e5c4:	00e03733          	snez	a4,a4
   1e5c8:	00e56533          	or	a0,a0,a4
   1e5cc:	00000793          	li	a5,0
   1e5d0:	f95ff06f          	j	1e564 <__subdf3+0x638>
   1e5d4:	ff800737          	lui	a4,0xff800
   1e5d8:	fff70713          	addi	a4,a4,-1 # ff7fffff <__BSS_END__+0xff7dc2f3>
   1e5dc:	40d90933          	sub	s2,s2,a3
   1e5e0:	00e7f7b3          	and	a5,a5,a4
   1e5e4:	00040513          	mv	a0,s0
   1e5e8:	bf9ff06f          	j	1e1e0 <__subdf3+0x2b4>
   1e5ec:	00070793          	mv	a5,a4
   1e5f0:	00060513          	mv	a0,a2
   1e5f4:	c5dff06f          	j	1e250 <__subdf3+0x324>
   1e5f8:	00070793          	mv	a5,a4
   1e5fc:	00060513          	mv	a0,a2
   1e600:	be1ff06f          	j	1e1e0 <__subdf3+0x2b4>
   1e604:	7ff00913          	li	s2,2047
   1e608:	00000793          	li	a5,0
   1e60c:	00000513          	li	a0,0
   1e610:	0240006f          	j	1e634 <__subdf3+0x708>
   1e614:	00080913          	mv	s2,a6
   1e618:	bc9ff06f          	j	1e1e0 <__subdf3+0x2b4>
   1e61c:	00070793          	mv	a5,a4
   1e620:	00060513          	mv	a0,a2
   1e624:	00080913          	mv	s2,a6
   1e628:	e41ff06f          	j	1e468 <__subdf3+0x53c>
   1e62c:	00000793          	li	a5,0
   1e630:	00000493          	li	s1,0
   1e634:	00879713          	slli	a4,a5,0x8
   1e638:	00075e63          	bgez	a4,1e654 <__subdf3+0x728>
   1e63c:	00190913          	addi	s2,s2,1
   1e640:	7ff00713          	li	a4,2047
   1e644:	08e90263          	beq	s2,a4,1e6c8 <__subdf3+0x79c>
   1e648:	ff800737          	lui	a4,0xff800
   1e64c:	fff70713          	addi	a4,a4,-1 # ff7fffff <__BSS_END__+0xff7dc2f3>
   1e650:	00e7f7b3          	and	a5,a5,a4
   1e654:	01d79693          	slli	a3,a5,0x1d
   1e658:	00355513          	srli	a0,a0,0x3
   1e65c:	7ff00713          	li	a4,2047
   1e660:	00a6e6b3          	or	a3,a3,a0
   1e664:	0037d793          	srli	a5,a5,0x3
   1e668:	00e91e63          	bne	s2,a4,1e684 <__subdf3+0x758>
   1e66c:	00f6e6b3          	or	a3,a3,a5
   1e670:	00000793          	li	a5,0
   1e674:	00068863          	beqz	a3,1e684 <__subdf3+0x758>
   1e678:	000807b7          	lui	a5,0x80
   1e67c:	00000693          	li	a3,0
   1e680:	00000493          	li	s1,0
   1e684:	01491713          	slli	a4,s2,0x14
   1e688:	7ff00637          	lui	a2,0x7ff00
   1e68c:	00c79793          	slli	a5,a5,0xc
   1e690:	00c77733          	and	a4,a4,a2
   1e694:	01c12083          	lw	ra,28(sp)
   1e698:	01812403          	lw	s0,24(sp)
   1e69c:	00c7d793          	srli	a5,a5,0xc
   1e6a0:	00f767b3          	or	a5,a4,a5
   1e6a4:	01f49713          	slli	a4,s1,0x1f
   1e6a8:	00e7e633          	or	a2,a5,a4
   1e6ac:	01412483          	lw	s1,20(sp)
   1e6b0:	01012903          	lw	s2,16(sp)
   1e6b4:	00c12983          	lw	s3,12(sp)
   1e6b8:	00068513          	mv	a0,a3
   1e6bc:	00060593          	mv	a1,a2
   1e6c0:	02010113          	addi	sp,sp,32
   1e6c4:	00008067          	ret
   1e6c8:	00000793          	li	a5,0
   1e6cc:	00000513          	li	a0,0
   1e6d0:	f85ff06f          	j	1e654 <__subdf3+0x728>

0001e6d4 <__fixdfsi>:
   1e6d4:	0145d713          	srli	a4,a1,0x14
   1e6d8:	001006b7          	lui	a3,0x100
   1e6dc:	fff68793          	addi	a5,a3,-1 # fffff <__BSS_END__+0xdc2f3>
   1e6e0:	7ff77713          	andi	a4,a4,2047
   1e6e4:	3fe00613          	li	a2,1022
   1e6e8:	00b7f7b3          	and	a5,a5,a1
   1e6ec:	01f5d593          	srli	a1,a1,0x1f
   1e6f0:	04e65e63          	bge	a2,a4,1e74c <__fixdfsi+0x78>
   1e6f4:	41d00613          	li	a2,1053
   1e6f8:	00e65a63          	bge	a2,a4,1e70c <__fixdfsi+0x38>
   1e6fc:	80000537          	lui	a0,0x80000
   1e700:	fff50513          	addi	a0,a0,-1 # 7fffffff <__BSS_END__+0x7ffdc2f3>
   1e704:	00a58533          	add	a0,a1,a0
   1e708:	00008067          	ret
   1e70c:	00d7e7b3          	or	a5,a5,a3
   1e710:	43300693          	li	a3,1075
   1e714:	40e686b3          	sub	a3,a3,a4
   1e718:	01f00613          	li	a2,31
   1e71c:	02d64063          	blt	a2,a3,1e73c <__fixdfsi+0x68>
   1e720:	bed70713          	addi	a4,a4,-1043
   1e724:	00e797b3          	sll	a5,a5,a4
   1e728:	00d55533          	srl	a0,a0,a3
   1e72c:	00a7e533          	or	a0,a5,a0
   1e730:	02058063          	beqz	a1,1e750 <__fixdfsi+0x7c>
   1e734:	40a00533          	neg	a0,a0
   1e738:	00008067          	ret
   1e73c:	41300693          	li	a3,1043
   1e740:	40e68733          	sub	a4,a3,a4
   1e744:	00e7d533          	srl	a0,a5,a4
   1e748:	fe9ff06f          	j	1e730 <__fixdfsi+0x5c>
   1e74c:	00000513          	li	a0,0
   1e750:	00008067          	ret

0001e754 <__floatsidf>:
   1e754:	ff010113          	addi	sp,sp,-16
   1e758:	00112623          	sw	ra,12(sp)
   1e75c:	00812423          	sw	s0,8(sp)
   1e760:	00912223          	sw	s1,4(sp)
   1e764:	08050663          	beqz	a0,1e7f0 <__floatsidf+0x9c>
   1e768:	41f55793          	srai	a5,a0,0x1f
   1e76c:	00a7c433          	xor	s0,a5,a0
   1e770:	40f40433          	sub	s0,s0,a5
   1e774:	01f55493          	srli	s1,a0,0x1f
   1e778:	00040513          	mv	a0,s0
   1e77c:	1f8030ef          	jal	ra,21974 <__clzsi2>
   1e780:	41e00713          	li	a4,1054
   1e784:	00a00793          	li	a5,10
   1e788:	40a70733          	sub	a4,a4,a0
   1e78c:	04a7c863          	blt	a5,a0,1e7dc <__floatsidf+0x88>
   1e790:	00b00793          	li	a5,11
   1e794:	40a787b3          	sub	a5,a5,a0
   1e798:	01550513          	addi	a0,a0,21
   1e79c:	00f457b3          	srl	a5,s0,a5
   1e7a0:	00a41433          	sll	s0,s0,a0
   1e7a4:	00048513          	mv	a0,s1
   1e7a8:	00c79793          	slli	a5,a5,0xc
   1e7ac:	00c7d793          	srli	a5,a5,0xc
   1e7b0:	01471713          	slli	a4,a4,0x14
   1e7b4:	01f51513          	slli	a0,a0,0x1f
   1e7b8:	00f76733          	or	a4,a4,a5
   1e7bc:	00c12083          	lw	ra,12(sp)
   1e7c0:	00a767b3          	or	a5,a4,a0
   1e7c4:	00040513          	mv	a0,s0
   1e7c8:	00812403          	lw	s0,8(sp)
   1e7cc:	00412483          	lw	s1,4(sp)
   1e7d0:	00078593          	mv	a1,a5
   1e7d4:	01010113          	addi	sp,sp,16
   1e7d8:	00008067          	ret
   1e7dc:	ff550513          	addi	a0,a0,-11
   1e7e0:	00a417b3          	sll	a5,s0,a0
   1e7e4:	00048513          	mv	a0,s1
   1e7e8:	00000413          	li	s0,0
   1e7ec:	fbdff06f          	j	1e7a8 <__floatsidf+0x54>
   1e7f0:	00000713          	li	a4,0
   1e7f4:	00000793          	li	a5,0
   1e7f8:	ff1ff06f          	j	1e7e8 <__floatsidf+0x94>

0001e7fc <__eqtf2>:
   1e7fc:	00c52783          	lw	a5,12(a0)
   1e800:	0005af03          	lw	t5,0(a1)
   1e804:	0045af83          	lw	t6,4(a1)
   1e808:	0085a283          	lw	t0,8(a1)
   1e80c:	00c5a583          	lw	a1,12(a1)
   1e810:	00008737          	lui	a4,0x8
   1e814:	0107d693          	srli	a3,a5,0x10
   1e818:	fff70713          	addi	a4,a4,-1 # 7fff <exit-0x8095>
   1e81c:	01079813          	slli	a6,a5,0x10
   1e820:	01059e93          	slli	t4,a1,0x10
   1e824:	01f7d613          	srli	a2,a5,0x1f
   1e828:	00e6f6b3          	and	a3,a3,a4
   1e82c:	0105d793          	srli	a5,a1,0x10
   1e830:	00052883          	lw	a7,0(a0)
   1e834:	00452303          	lw	t1,4(a0)
   1e838:	00852e03          	lw	t3,8(a0)
   1e83c:	ff010113          	addi	sp,sp,-16
   1e840:	01085813          	srli	a6,a6,0x10
   1e844:	010ede93          	srli	t4,t4,0x10
   1e848:	00e7f7b3          	and	a5,a5,a4
   1e84c:	01f5d593          	srli	a1,a1,0x1f
   1e850:	02e69063          	bne	a3,a4,1e870 <__eqtf2+0x74>
   1e854:	0068e733          	or	a4,a7,t1
   1e858:	01c76733          	or	a4,a4,t3
   1e85c:	01076733          	or	a4,a4,a6
   1e860:	00100513          	li	a0,1
   1e864:	04071a63          	bnez	a4,1e8b8 <__eqtf2+0xbc>
   1e868:	04d79863          	bne	a5,a3,1e8b8 <__eqtf2+0xbc>
   1e86c:	0080006f          	j	1e874 <__eqtf2+0x78>
   1e870:	00e79c63          	bne	a5,a4,1e888 <__eqtf2+0x8c>
   1e874:	01ff6733          	or	a4,t5,t6
   1e878:	00576733          	or	a4,a4,t0
   1e87c:	01d76733          	or	a4,a4,t4
   1e880:	00100513          	li	a0,1
   1e884:	02071a63          	bnez	a4,1e8b8 <__eqtf2+0xbc>
   1e888:	00100513          	li	a0,1
   1e88c:	02d79663          	bne	a5,a3,1e8b8 <__eqtf2+0xbc>
   1e890:	03e89463          	bne	a7,t5,1e8b8 <__eqtf2+0xbc>
   1e894:	03f31263          	bne	t1,t6,1e8b8 <__eqtf2+0xbc>
   1e898:	025e1063          	bne	t3,t0,1e8b8 <__eqtf2+0xbc>
   1e89c:	01d81e63          	bne	a6,t4,1e8b8 <__eqtf2+0xbc>
   1e8a0:	02b60063          	beq	a2,a1,1e8c0 <__eqtf2+0xc4>
   1e8a4:	00079a63          	bnez	a5,1e8b8 <__eqtf2+0xbc>
   1e8a8:	0068e533          	or	a0,a7,t1
   1e8ac:	01c56533          	or	a0,a0,t3
   1e8b0:	01056533          	or	a0,a0,a6
   1e8b4:	00a03533          	snez	a0,a0
   1e8b8:	01010113          	addi	sp,sp,16
   1e8bc:	00008067          	ret
   1e8c0:	00000513          	li	a0,0
   1e8c4:	ff5ff06f          	j	1e8b8 <__eqtf2+0xbc>

0001e8c8 <__getf2>:
   1e8c8:	00c52783          	lw	a5,12(a0)
   1e8cc:	00c5a683          	lw	a3,12(a1)
   1e8d0:	00008737          	lui	a4,0x8
   1e8d4:	0107d613          	srli	a2,a5,0x10
   1e8d8:	fff70713          	addi	a4,a4,-1 # 7fff <exit-0x8095>
   1e8dc:	01079813          	slli	a6,a5,0x10
   1e8e0:	01069293          	slli	t0,a3,0x10
   1e8e4:	00052883          	lw	a7,0(a0)
   1e8e8:	00452303          	lw	t1,4(a0)
   1e8ec:	00852e03          	lw	t3,8(a0)
   1e8f0:	00e67633          	and	a2,a2,a4
   1e8f4:	0106d513          	srli	a0,a3,0x10
   1e8f8:	0005ae83          	lw	t4,0(a1)
   1e8fc:	0045af03          	lw	t5,4(a1)
   1e900:	0085af83          	lw	t6,8(a1)
   1e904:	ff010113          	addi	sp,sp,-16
   1e908:	01085813          	srli	a6,a6,0x10
   1e90c:	01f7d793          	srli	a5,a5,0x1f
   1e910:	0102d293          	srli	t0,t0,0x10
   1e914:	00e57533          	and	a0,a0,a4
   1e918:	01f6d693          	srli	a3,a3,0x1f
   1e91c:	00e61a63          	bne	a2,a4,1e930 <__getf2+0x68>
   1e920:	01136733          	or	a4,t1,a7
   1e924:	01c76733          	or	a4,a4,t3
   1e928:	01076733          	or	a4,a4,a6
   1e92c:	0a071463          	bnez	a4,1e9d4 <__getf2+0x10c>
   1e930:	00008737          	lui	a4,0x8
   1e934:	fff70713          	addi	a4,a4,-1 # 7fff <exit-0x8095>
   1e938:	00e51a63          	bne	a0,a4,1e94c <__getf2+0x84>
   1e93c:	01eee733          	or	a4,t4,t5
   1e940:	01f76733          	or	a4,a4,t6
   1e944:	00576733          	or	a4,a4,t0
   1e948:	08071663          	bnez	a4,1e9d4 <__getf2+0x10c>
   1e94c:	00000713          	li	a4,0
   1e950:	00061a63          	bnez	a2,1e964 <__getf2+0x9c>
   1e954:	01136733          	or	a4,t1,a7
   1e958:	01c76733          	or	a4,a4,t3
   1e95c:	01076733          	or	a4,a4,a6
   1e960:	00173713          	seqz	a4,a4
   1e964:	06051c63          	bnez	a0,1e9dc <__getf2+0x114>
   1e968:	01eee5b3          	or	a1,t4,t5
   1e96c:	01f5e5b3          	or	a1,a1,t6
   1e970:	0055e5b3          	or	a1,a1,t0
   1e974:	00070c63          	beqz	a4,1e98c <__getf2+0xc4>
   1e978:	02058063          	beqz	a1,1e998 <__getf2+0xd0>
   1e97c:	00100513          	li	a0,1
   1e980:	00069c63          	bnez	a3,1e998 <__getf2+0xd0>
   1e984:	fff00513          	li	a0,-1
   1e988:	0100006f          	j	1e998 <__getf2+0xd0>
   1e98c:	04059a63          	bnez	a1,1e9e0 <__getf2+0x118>
   1e990:	fff00513          	li	a0,-1
   1e994:	04078e63          	beqz	a5,1e9f0 <__getf2+0x128>
   1e998:	01010113          	addi	sp,sp,16
   1e99c:	00008067          	ret
   1e9a0:	fca64ee3          	blt	a2,a0,1e97c <__getf2+0xb4>
   1e9a4:	ff02e6e3          	bltu	t0,a6,1e990 <__getf2+0xc8>
   1e9a8:	02581063          	bne	a6,t0,1e9c8 <__getf2+0x100>
   1e9ac:	ffcfe2e3          	bltu	t6,t3,1e990 <__getf2+0xc8>
   1e9b0:	01fe1c63          	bne	t3,t6,1e9c8 <__getf2+0x100>
   1e9b4:	fc6f6ee3          	bltu	t5,t1,1e990 <__getf2+0xc8>
   1e9b8:	01e31863          	bne	t1,t5,1e9c8 <__getf2+0x100>
   1e9bc:	fd1eeae3          	bltu	t4,a7,1e990 <__getf2+0xc8>
   1e9c0:	00000513          	li	a0,0
   1e9c4:	fdd8fae3          	bgeu	a7,t4,1e998 <__getf2+0xd0>
   1e9c8:	00100513          	li	a0,1
   1e9cc:	fc0796e3          	bnez	a5,1e998 <__getf2+0xd0>
   1e9d0:	fb5ff06f          	j	1e984 <__getf2+0xbc>
   1e9d4:	ffe00513          	li	a0,-2
   1e9d8:	fc1ff06f          	j	1e998 <__getf2+0xd0>
   1e9dc:	fa0710e3          	bnez	a4,1e97c <__getf2+0xb4>
   1e9e0:	faf698e3          	bne	a3,a5,1e990 <__getf2+0xc8>
   1e9e4:	fac55ee3          	bge	a0,a2,1e9a0 <__getf2+0xd8>
   1e9e8:	fff00513          	li	a0,-1
   1e9ec:	fa0696e3          	bnez	a3,1e998 <__getf2+0xd0>
   1e9f0:	00100513          	li	a0,1
   1e9f4:	fa5ff06f          	j	1e998 <__getf2+0xd0>

0001e9f8 <__letf2>:
   1e9f8:	00c52783          	lw	a5,12(a0)
   1e9fc:	00c5a683          	lw	a3,12(a1)
   1ea00:	00008737          	lui	a4,0x8
   1ea04:	0107d613          	srli	a2,a5,0x10
   1ea08:	fff70713          	addi	a4,a4,-1 # 7fff <exit-0x8095>
   1ea0c:	01079813          	slli	a6,a5,0x10
   1ea10:	01069293          	slli	t0,a3,0x10
   1ea14:	00052883          	lw	a7,0(a0)
   1ea18:	00452303          	lw	t1,4(a0)
   1ea1c:	00852e03          	lw	t3,8(a0)
   1ea20:	00e67633          	and	a2,a2,a4
   1ea24:	0106d513          	srli	a0,a3,0x10
   1ea28:	0005ae83          	lw	t4,0(a1)
   1ea2c:	0045af03          	lw	t5,4(a1)
   1ea30:	0085af83          	lw	t6,8(a1)
   1ea34:	ff010113          	addi	sp,sp,-16
   1ea38:	01085813          	srli	a6,a6,0x10
   1ea3c:	01f7d793          	srli	a5,a5,0x1f
   1ea40:	0102d293          	srli	t0,t0,0x10
   1ea44:	00e57533          	and	a0,a0,a4
   1ea48:	01f6d693          	srli	a3,a3,0x1f
   1ea4c:	00e61a63          	bne	a2,a4,1ea60 <__letf2+0x68>
   1ea50:	01136733          	or	a4,t1,a7
   1ea54:	01c76733          	or	a4,a4,t3
   1ea58:	01076733          	or	a4,a4,a6
   1ea5c:	0a071463          	bnez	a4,1eb04 <__letf2+0x10c>
   1ea60:	00008737          	lui	a4,0x8
   1ea64:	fff70713          	addi	a4,a4,-1 # 7fff <exit-0x8095>
   1ea68:	00e51a63          	bne	a0,a4,1ea7c <__letf2+0x84>
   1ea6c:	01eee733          	or	a4,t4,t5
   1ea70:	01f76733          	or	a4,a4,t6
   1ea74:	00576733          	or	a4,a4,t0
   1ea78:	08071663          	bnez	a4,1eb04 <__letf2+0x10c>
   1ea7c:	00000713          	li	a4,0
   1ea80:	00061a63          	bnez	a2,1ea94 <__letf2+0x9c>
   1ea84:	01136733          	or	a4,t1,a7
   1ea88:	01c76733          	or	a4,a4,t3
   1ea8c:	01076733          	or	a4,a4,a6
   1ea90:	00173713          	seqz	a4,a4
   1ea94:	06051c63          	bnez	a0,1eb0c <__letf2+0x114>
   1ea98:	01eee5b3          	or	a1,t4,t5
   1ea9c:	01f5e5b3          	or	a1,a1,t6
   1eaa0:	0055e5b3          	or	a1,a1,t0
   1eaa4:	00070c63          	beqz	a4,1eabc <__letf2+0xc4>
   1eaa8:	02058063          	beqz	a1,1eac8 <__letf2+0xd0>
   1eaac:	00100513          	li	a0,1
   1eab0:	00069c63          	bnez	a3,1eac8 <__letf2+0xd0>
   1eab4:	fff00513          	li	a0,-1
   1eab8:	0100006f          	j	1eac8 <__letf2+0xd0>
   1eabc:	04059a63          	bnez	a1,1eb10 <__letf2+0x118>
   1eac0:	fff00513          	li	a0,-1
   1eac4:	04078e63          	beqz	a5,1eb20 <__letf2+0x128>
   1eac8:	01010113          	addi	sp,sp,16
   1eacc:	00008067          	ret
   1ead0:	fca64ee3          	blt	a2,a0,1eaac <__letf2+0xb4>
   1ead4:	ff02e6e3          	bltu	t0,a6,1eac0 <__letf2+0xc8>
   1ead8:	02581063          	bne	a6,t0,1eaf8 <__letf2+0x100>
   1eadc:	ffcfe2e3          	bltu	t6,t3,1eac0 <__letf2+0xc8>
   1eae0:	01fe1c63          	bne	t3,t6,1eaf8 <__letf2+0x100>
   1eae4:	fc6f6ee3          	bltu	t5,t1,1eac0 <__letf2+0xc8>
   1eae8:	01e31863          	bne	t1,t5,1eaf8 <__letf2+0x100>
   1eaec:	fd1eeae3          	bltu	t4,a7,1eac0 <__letf2+0xc8>
   1eaf0:	00000513          	li	a0,0
   1eaf4:	fdd8fae3          	bgeu	a7,t4,1eac8 <__letf2+0xd0>
   1eaf8:	00100513          	li	a0,1
   1eafc:	fc0796e3          	bnez	a5,1eac8 <__letf2+0xd0>
   1eb00:	fb5ff06f          	j	1eab4 <__letf2+0xbc>
   1eb04:	00200513          	li	a0,2
   1eb08:	fc1ff06f          	j	1eac8 <__letf2+0xd0>
   1eb0c:	fa0710e3          	bnez	a4,1eaac <__letf2+0xb4>
   1eb10:	faf698e3          	bne	a3,a5,1eac0 <__letf2+0xc8>
   1eb14:	fac55ee3          	bge	a0,a2,1ead0 <__letf2+0xd8>
   1eb18:	fff00513          	li	a0,-1
   1eb1c:	fa0696e3          	bnez	a3,1eac8 <__letf2+0xd0>
   1eb20:	00100513          	li	a0,1
   1eb24:	fa5ff06f          	j	1eac8 <__letf2+0xd0>

0001eb28 <__multf3>:
   1eb28:	00c5a883          	lw	a7,12(a1)
   1eb2c:	f6010113          	addi	sp,sp,-160
   1eb30:	0005a703          	lw	a4,0(a1)
   1eb34:	0085a683          	lw	a3,8(a1)
   1eb38:	08812c23          	sw	s0,152(sp)
   1eb3c:	00050413          	mv	s0,a0
   1eb40:	0045a503          	lw	a0,4(a1)
   1eb44:	09212823          	sw	s2,144(sp)
   1eb48:	09412423          	sw	s4,136(sp)
   1eb4c:	00c62903          	lw	s2,12(a2) # 7ff0000c <__BSS_END__+0x7fedc300>
   1eb50:	00062a03          	lw	s4,0(a2)
   1eb54:	09512223          	sw	s5,132(sp)
   1eb58:	09612023          	sw	s6,128(sp)
   1eb5c:	00862a83          	lw	s5,8(a2)
   1eb60:	00462b03          	lw	s6,4(a2)
   1eb64:	01089793          	slli	a5,a7,0x10
   1eb68:	00008637          	lui	a2,0x8
   1eb6c:	09312623          	sw	s3,140(sp)
   1eb70:	0107d793          	srli	a5,a5,0x10
   1eb74:	0108d993          	srli	s3,a7,0x10
   1eb78:	fff60613          	addi	a2,a2,-1 # 7fff <exit-0x8095>
   1eb7c:	08912a23          	sw	s1,148(sp)
   1eb80:	08112e23          	sw	ra,156(sp)
   1eb84:	07712e23          	sw	s7,124(sp)
   1eb88:	07812c23          	sw	s8,120(sp)
   1eb8c:	07912a23          	sw	s9,116(sp)
   1eb90:	07a12823          	sw	s10,112(sp)
   1eb94:	07b12623          	sw	s11,108(sp)
   1eb98:	04e12023          	sw	a4,64(sp)
   1eb9c:	04a12223          	sw	a0,68(sp)
   1eba0:	04d12423          	sw	a3,72(sp)
   1eba4:	05112623          	sw	a7,76(sp)
   1eba8:	00e12823          	sw	a4,16(sp)
   1ebac:	00a12a23          	sw	a0,20(sp)
   1ebb0:	00d12c23          	sw	a3,24(sp)
   1ebb4:	00f12e23          	sw	a5,28(sp)
   1ebb8:	00c9f9b3          	and	s3,s3,a2
   1ebbc:	01f8d493          	srli	s1,a7,0x1f
   1ebc0:	440984e3          	beqz	s3,1f808 <__multf3+0xce0>
   1ebc4:	56c98ce3          	beq	s3,a2,1f93c <__multf3+0xe14>
   1ebc8:	000106b7          	lui	a3,0x10
   1ebcc:	00d7e7b3          	or	a5,a5,a3
   1ebd0:	00f12e23          	sw	a5,28(sp)
   1ebd4:	01010593          	addi	a1,sp,16
   1ebd8:	01c10793          	addi	a5,sp,28
   1ebdc:	0007a683          	lw	a3,0(a5) # 80000 <__BSS_END__+0x5c2f4>
   1ebe0:	ffc7a603          	lw	a2,-4(a5)
   1ebe4:	ffc78793          	addi	a5,a5,-4
   1ebe8:	00369693          	slli	a3,a3,0x3
   1ebec:	01d65613          	srli	a2,a2,0x1d
   1ebf0:	00c6e6b3          	or	a3,a3,a2
   1ebf4:	00d7a223          	sw	a3,4(a5)
   1ebf8:	fef592e3          	bne	a1,a5,1ebdc <__multf3+0xb4>
   1ebfc:	ffffc7b7          	lui	a5,0xffffc
   1ec00:	00371713          	slli	a4,a4,0x3
   1ec04:	00178793          	addi	a5,a5,1 # ffffc001 <__BSS_END__+0xfffd82f5>
   1ec08:	00e12823          	sw	a4,16(sp)
   1ec0c:	00f989b3          	add	s3,s3,a5
   1ec10:	00000b93          	li	s7,0
   1ec14:	01091513          	slli	a0,s2,0x10
   1ec18:	000087b7          	lui	a5,0x8
   1ec1c:	01095813          	srli	a6,s2,0x10
   1ec20:	01055513          	srli	a0,a0,0x10
   1ec24:	fff78793          	addi	a5,a5,-1 # 7fff <exit-0x8095>
   1ec28:	05212623          	sw	s2,76(sp)
   1ec2c:	05412023          	sw	s4,64(sp)
   1ec30:	05612223          	sw	s6,68(sp)
   1ec34:	05512423          	sw	s5,72(sp)
   1ec38:	03412023          	sw	s4,32(sp)
   1ec3c:	03612223          	sw	s6,36(sp)
   1ec40:	03512423          	sw	s5,40(sp)
   1ec44:	02a12623          	sw	a0,44(sp)
   1ec48:	00f87833          	and	a6,a6,a5
   1ec4c:	01f95913          	srli	s2,s2,0x1f
   1ec50:	50080ae3          	beqz	a6,1f964 <__multf3+0xe3c>
   1ec54:	64f802e3          	beq	a6,a5,1fa98 <__multf3+0xf70>
   1ec58:	000107b7          	lui	a5,0x10
   1ec5c:	00f56533          	or	a0,a0,a5
   1ec60:	02a12623          	sw	a0,44(sp)
   1ec64:	02010613          	addi	a2,sp,32
   1ec68:	02c10793          	addi	a5,sp,44
   1ec6c:	0007a703          	lw	a4,0(a5) # 10000 <exit-0x94>
   1ec70:	ffc7a683          	lw	a3,-4(a5)
   1ec74:	ffc78793          	addi	a5,a5,-4
   1ec78:	00371713          	slli	a4,a4,0x3
   1ec7c:	01d6d693          	srli	a3,a3,0x1d
   1ec80:	00d76733          	or	a4,a4,a3
   1ec84:	00e7a223          	sw	a4,4(a5)
   1ec88:	fef612e3          	bne	a2,a5,1ec6c <__multf3+0x144>
   1ec8c:	003a1793          	slli	a5,s4,0x3
   1ec90:	02f12023          	sw	a5,32(sp)
   1ec94:	ffffc7b7          	lui	a5,0xffffc
   1ec98:	00178793          	addi	a5,a5,1 # ffffc001 <__BSS_END__+0xfffd82f5>
   1ec9c:	00f80833          	add	a6,a6,a5
   1eca0:	00000693          	li	a3,0
   1eca4:	002b9793          	slli	a5,s7,0x2
   1eca8:	01380833          	add	a6,a6,s3
   1ecac:	00d7e7b3          	or	a5,a5,a3
   1ecb0:	00a00713          	li	a4,10
   1ecb4:	00180c13          	addi	s8,a6,1
   1ecb8:	64f744e3          	blt	a4,a5,1fb00 <__multf3+0xfd8>
   1ecbc:	00200713          	li	a4,2
   1ecc0:	0124c8b3          	xor	a7,s1,s2
   1ecc4:	5ef74ee3          	blt	a4,a5,1fac0 <__multf3+0xf98>
   1ecc8:	fff78793          	addi	a5,a5,-1
   1eccc:	00100713          	li	a4,1
   1ecd0:	64f774e3          	bgeu	a4,a5,1fb18 <__multf3+0xff0>
   1ecd4:	01012e83          	lw	t4,16(sp)
   1ecd8:	02012e03          	lw	t3,32(sp)
   1ecdc:	000102b7          	lui	t0,0x10
   1ece0:	fff28793          	addi	a5,t0,-1 # ffff <exit-0x95>
   1ece4:	00fef333          	and	t1,t4,a5
   1ece8:	00fe77b3          	and	a5,t3,a5
   1ecec:	010ed393          	srli	t2,t4,0x10
   1ecf0:	010e5713          	srli	a4,t3,0x10
   1ecf4:	00030513          	mv	a0,t1
   1ecf8:	00078593          	mv	a1,a5
   1ecfc:	3a1020ef          	jal	ra,2189c <__mulsi3>
   1ed00:	00050f93          	mv	t6,a0
   1ed04:	00070593          	mv	a1,a4
   1ed08:	00030513          	mv	a0,t1
   1ed0c:	391020ef          	jal	ra,2189c <__mulsi3>
   1ed10:	00050313          	mv	t1,a0
   1ed14:	00078593          	mv	a1,a5
   1ed18:	00038513          	mv	a0,t2
   1ed1c:	381020ef          	jal	ra,2189c <__mulsi3>
   1ed20:	00050f13          	mv	t5,a0
   1ed24:	00070593          	mv	a1,a4
   1ed28:	00038513          	mv	a0,t2
   1ed2c:	371020ef          	jal	ra,2189c <__mulsi3>
   1ed30:	010fd713          	srli	a4,t6,0x10
   1ed34:	01e30333          	add	t1,t1,t5
   1ed38:	00670733          	add	a4,a4,t1
   1ed3c:	00050793          	mv	a5,a0
   1ed40:	01e77463          	bgeu	a4,t5,1ed48 <__multf3+0x220>
   1ed44:	005507b3          	add	a5,a0,t0
   1ed48:	01075693          	srli	a3,a4,0x10
   1ed4c:	00f687b3          	add	a5,a3,a5
   1ed50:	000102b7          	lui	t0,0x10
   1ed54:	04f12223          	sw	a5,68(sp)
   1ed58:	fff28793          	addi	a5,t0,-1 # ffff <exit-0x95>
   1ed5c:	00fff533          	and	a0,t6,a5
   1ed60:	02412f83          	lw	t6,36(sp)
   1ed64:	00f77733          	and	a4,a4,a5
   1ed68:	01071713          	slli	a4,a4,0x10
   1ed6c:	00a70533          	add	a0,a4,a0
   1ed70:	00ffff33          	and	t5,t6,a5
   1ed74:	00fef733          	and	a4,t4,a5
   1ed78:	04a12023          	sw	a0,64(sp)
   1ed7c:	010ed313          	srli	t1,t4,0x10
   1ed80:	010fd493          	srli	s1,t6,0x10
   1ed84:	00070513          	mv	a0,a4
   1ed88:	000f0593          	mv	a1,t5
   1ed8c:	311020ef          	jal	ra,2189c <__mulsi3>
   1ed90:	00050393          	mv	t2,a0
   1ed94:	00048593          	mv	a1,s1
   1ed98:	00070513          	mv	a0,a4
   1ed9c:	301020ef          	jal	ra,2189c <__mulsi3>
   1eda0:	00050713          	mv	a4,a0
   1eda4:	000f0593          	mv	a1,t5
   1eda8:	00030513          	mv	a0,t1
   1edac:	2f1020ef          	jal	ra,2189c <__mulsi3>
   1edb0:	00050f13          	mv	t5,a0
   1edb4:	00048593          	mv	a1,s1
   1edb8:	00030513          	mv	a0,t1
   1edbc:	2e1020ef          	jal	ra,2189c <__mulsi3>
   1edc0:	0103d313          	srli	t1,t2,0x10
   1edc4:	01e70733          	add	a4,a4,t5
   1edc8:	00e30333          	add	t1,t1,a4
   1edcc:	00050b13          	mv	s6,a0
   1edd0:	01e37463          	bgeu	t1,t5,1edd8 <__multf3+0x2b0>
   1edd4:	00550b33          	add	s6,a0,t0
   1edd8:	01412283          	lw	t0,20(sp)
   1eddc:	01035493          	srli	s1,t1,0x10
   1ede0:	00f37333          	and	t1,t1,a5
   1ede4:	00f3f533          	and	a0,t2,a5
   1ede8:	00f2ff33          	and	t5,t0,a5
   1edec:	01031313          	slli	t1,t1,0x10
   1edf0:	00fe77b3          	and	a5,t3,a5
   1edf4:	00a30333          	add	t1,t1,a0
   1edf8:	0102d993          	srli	s3,t0,0x10
   1edfc:	010e5713          	srli	a4,t3,0x10
   1ee00:	000f0513          	mv	a0,t5
   1ee04:	00078593          	mv	a1,a5
   1ee08:	295020ef          	jal	ra,2189c <__mulsi3>
   1ee0c:	00050393          	mv	t2,a0
   1ee10:	00070593          	mv	a1,a4
   1ee14:	000f0513          	mv	a0,t5
   1ee18:	285020ef          	jal	ra,2189c <__mulsi3>
   1ee1c:	00050f13          	mv	t5,a0
   1ee20:	00078593          	mv	a1,a5
   1ee24:	00098513          	mv	a0,s3
   1ee28:	275020ef          	jal	ra,2189c <__mulsi3>
   1ee2c:	00050913          	mv	s2,a0
   1ee30:	00070593          	mv	a1,a4
   1ee34:	00098513          	mv	a0,s3
   1ee38:	265020ef          	jal	ra,2189c <__mulsi3>
   1ee3c:	0103d793          	srli	a5,t2,0x10
   1ee40:	012f0f33          	add	t5,t5,s2
   1ee44:	01e787b3          	add	a5,a5,t5
   1ee48:	00050713          	mv	a4,a0
   1ee4c:	0127f663          	bgeu	a5,s2,1ee58 <__multf3+0x330>
   1ee50:	000106b7          	lui	a3,0x10
   1ee54:	00d50733          	add	a4,a0,a3
   1ee58:	000109b7          	lui	s3,0x10
   1ee5c:	fff98593          	addi	a1,s3,-1 # ffff <exit-0x95>
   1ee60:	0107d913          	srli	s2,a5,0x10
   1ee64:	00b7f7b3          	and	a5,a5,a1
   1ee68:	00b3f3b3          	and	t2,t2,a1
   1ee6c:	00b2fab3          	and	s5,t0,a1
   1ee70:	00bffa33          	and	s4,t6,a1
   1ee74:	01079793          	slli	a5,a5,0x10
   1ee78:	00e90933          	add	s2,s2,a4
   1ee7c:	007787b3          	add	a5,a5,t2
   1ee80:	010fd713          	srli	a4,t6,0x10
   1ee84:	0102d393          	srli	t2,t0,0x10
   1ee88:	000a8513          	mv	a0,s5
   1ee8c:	000a0593          	mv	a1,s4
   1ee90:	20d020ef          	jal	ra,2189c <__mulsi3>
   1ee94:	00050f13          	mv	t5,a0
   1ee98:	00070593          	mv	a1,a4
   1ee9c:	000a8513          	mv	a0,s5
   1eea0:	1fd020ef          	jal	ra,2189c <__mulsi3>
   1eea4:	00050a93          	mv	s5,a0
   1eea8:	000a0593          	mv	a1,s4
   1eeac:	00038513          	mv	a0,t2
   1eeb0:	1ed020ef          	jal	ra,2189c <__mulsi3>
   1eeb4:	00050a13          	mv	s4,a0
   1eeb8:	00070593          	mv	a1,a4
   1eebc:	00038513          	mv	a0,t2
   1eec0:	1dd020ef          	jal	ra,2189c <__mulsi3>
   1eec4:	010f5713          	srli	a4,t5,0x10
   1eec8:	014a8633          	add	a2,s5,s4
   1eecc:	00c70733          	add	a4,a4,a2
   1eed0:	00050693          	mv	a3,a0
   1eed4:	01477463          	bgeu	a4,s4,1eedc <__multf3+0x3b4>
   1eed8:	013506b3          	add	a3,a0,s3
   1eedc:	02812983          	lw	s3,40(sp)
   1eee0:	00010a37          	lui	s4,0x10
   1eee4:	fffa0593          	addi	a1,s4,-1 # ffff <exit-0x95>
   1eee8:	01075393          	srli	t2,a4,0x10
   1eeec:	00b77733          	and	a4,a4,a1
   1eef0:	00bf7f33          	and	t5,t5,a1
   1eef4:	00befbb3          	and	s7,t4,a1
   1eef8:	00b9fab3          	and	s5,s3,a1
   1eefc:	01071713          	slli	a4,a4,0x10
   1ef00:	00d383b3          	add	t2,t2,a3
   1ef04:	01e70733          	add	a4,a4,t5
   1ef08:	010edd13          	srli	s10,t4,0x10
   1ef0c:	0109dc93          	srli	s9,s3,0x10
   1ef10:	000b8513          	mv	a0,s7
   1ef14:	000a8593          	mv	a1,s5
   1ef18:	185020ef          	jal	ra,2189c <__mulsi3>
   1ef1c:	00050f13          	mv	t5,a0
   1ef20:	000c8593          	mv	a1,s9
   1ef24:	000b8513          	mv	a0,s7
   1ef28:	175020ef          	jal	ra,2189c <__mulsi3>
   1ef2c:	00050b93          	mv	s7,a0
   1ef30:	000a8593          	mv	a1,s5
   1ef34:	000d0513          	mv	a0,s10
   1ef38:	165020ef          	jal	ra,2189c <__mulsi3>
   1ef3c:	00050a93          	mv	s5,a0
   1ef40:	000c8593          	mv	a1,s9
   1ef44:	000d0513          	mv	a0,s10
   1ef48:	155020ef          	jal	ra,2189c <__mulsi3>
   1ef4c:	010f5693          	srli	a3,t5,0x10
   1ef50:	015b8633          	add	a2,s7,s5
   1ef54:	00c686b3          	add	a3,a3,a2
   1ef58:	0156f463          	bgeu	a3,s5,1ef60 <__multf3+0x438>
   1ef5c:	01450533          	add	a0,a0,s4
   1ef60:	00010d37          	lui	s10,0x10
   1ef64:	fffd0a13          	addi	s4,s10,-1 # ffff <exit-0x95>
   1ef68:	0106d613          	srli	a2,a3,0x10
   1ef6c:	0146f6b3          	and	a3,a3,s4
   1ef70:	014f7f33          	and	t5,t5,s4
   1ef74:	01069693          	slli	a3,a3,0x10
   1ef78:	01e686b3          	add	a3,a3,t5
   1ef7c:	01812f03          	lw	t5,24(sp)
   1ef80:	00a60db3          	add	s11,a2,a0
   1ef84:	00d12623          	sw	a3,12(sp)
   1ef88:	014f7bb3          	and	s7,t5,s4
   1ef8c:	014e7a33          	and	s4,t3,s4
   1ef90:	010e5c93          	srli	s9,t3,0x10
   1ef94:	000b8513          	mv	a0,s7
   1ef98:	000a0593          	mv	a1,s4
   1ef9c:	101020ef          	jal	ra,2189c <__mulsi3>
   1efa0:	00050a93          	mv	s5,a0
   1efa4:	000c8593          	mv	a1,s9
   1efa8:	000b8513          	mv	a0,s7
   1efac:	0f1020ef          	jal	ra,2189c <__mulsi3>
   1efb0:	00050b93          	mv	s7,a0
   1efb4:	000a0593          	mv	a1,s4
   1efb8:	010f5513          	srli	a0,t5,0x10
   1efbc:	0e1020ef          	jal	ra,2189c <__mulsi3>
   1efc0:	00050a13          	mv	s4,a0
   1efc4:	000c8593          	mv	a1,s9
   1efc8:	010f5513          	srli	a0,t5,0x10
   1efcc:	0d1020ef          	jal	ra,2189c <__mulsi3>
   1efd0:	010ad693          	srli	a3,s5,0x10
   1efd4:	014b8bb3          	add	s7,s7,s4
   1efd8:	01768bb3          	add	s7,a3,s7
   1efdc:	014bf463          	bgeu	s7,s4,1efe4 <__multf3+0x4bc>
   1efe0:	01a50533          	add	a0,a0,s10
   1efe4:	04412603          	lw	a2,68(sp)
   1efe8:	010bd693          	srli	a3,s7,0x10
   1efec:	00a68533          	add	a0,a3,a0
   1eff0:	00660333          	add	t1,a2,t1
   1eff4:	00c33633          	sltu	a2,t1,a2
   1eff8:	00c484b3          	add	s1,s1,a2
   1effc:	016484b3          	add	s1,s1,s6
   1f000:	00f307b3          	add	a5,t1,a5
   1f004:	01248933          	add	s2,s1,s2
   1f008:	04f12223          	sw	a5,68(sp)
   1f00c:	0067b7b3          	sltu	a5,a5,t1
   1f010:	00f907b3          	add	a5,s2,a5
   1f014:	009936b3          	sltu	a3,s2,s1
   1f018:	0127b933          	sltu	s2,a5,s2
   1f01c:	00c4b4b3          	sltu	s1,s1,a2
   1f020:	00010a37          	lui	s4,0x10
   1f024:	00c12603          	lw	a2,12(sp)
   1f028:	0126e6b3          	or	a3,a3,s2
   1f02c:	fffa0593          	addi	a1,s4,-1 # ffff <exit-0x95>
   1f030:	009686b3          	add	a3,a3,s1
   1f034:	00e78733          	add	a4,a5,a4
   1f038:	007683b3          	add	t2,a3,t2
   1f03c:	00bbfbb3          	and	s7,s7,a1
   1f040:	00f737b3          	sltu	a5,a4,a5
   1f044:	00c70333          	add	t1,a4,a2
   1f048:	00f387b3          	add	a5,t2,a5
   1f04c:	010b9b93          	slli	s7,s7,0x10
   1f050:	00bafab3          	and	s5,s5,a1
   1f054:	01b78633          	add	a2,a5,s11
   1f058:	015b8ab3          	add	s5,s7,s5
   1f05c:	00e33733          	sltu	a4,t1,a4
   1f060:	00e60733          	add	a4,a2,a4
   1f064:	01530ab3          	add	s5,t1,s5
   1f068:	00a70533          	add	a0,a4,a0
   1f06c:	05512423          	sw	s5,72(sp)
   1f070:	006abab3          	sltu	s5,s5,t1
   1f074:	01550ab3          	add	s5,a0,s5
   1f078:	02c12303          	lw	t1,44(sp)
   1f07c:	00d3b6b3          	sltu	a3,t2,a3
   1f080:	0077b3b3          	sltu	t2,a5,t2
   1f084:	00f637b3          	sltu	a5,a2,a5
   1f088:	00c73633          	sltu	a2,a4,a2
   1f08c:	00c7e7b3          	or	a5,a5,a2
   1f090:	0076e6b3          	or	a3,a3,t2
   1f094:	05512623          	sw	s5,76(sp)
   1f098:	00e53733          	sltu	a4,a0,a4
   1f09c:	00aabab3          	sltu	s5,s5,a0
   1f0a0:	00f686b3          	add	a3,a3,a5
   1f0a4:	01576733          	or	a4,a4,s5
   1f0a8:	00d70733          	add	a4,a4,a3
   1f0ac:	010ed493          	srli	s1,t4,0x10
   1f0b0:	00b377b3          	and	a5,t1,a1
   1f0b4:	00befeb3          	and	t4,t4,a1
   1f0b8:	04e12823          	sw	a4,80(sp)
   1f0bc:	000e8513          	mv	a0,t4
   1f0c0:	01035713          	srli	a4,t1,0x10
   1f0c4:	00078593          	mv	a1,a5
   1f0c8:	7d4020ef          	jal	ra,2189c <__mulsi3>
   1f0cc:	00050913          	mv	s2,a0
   1f0d0:	00070593          	mv	a1,a4
   1f0d4:	000e8513          	mv	a0,t4
   1f0d8:	7c4020ef          	jal	ra,2189c <__mulsi3>
   1f0dc:	00050e93          	mv	t4,a0
   1f0e0:	00078593          	mv	a1,a5
   1f0e4:	00048513          	mv	a0,s1
   1f0e8:	7b4020ef          	jal	ra,2189c <__mulsi3>
   1f0ec:	00050393          	mv	t2,a0
   1f0f0:	00070593          	mv	a1,a4
   1f0f4:	00048513          	mv	a0,s1
   1f0f8:	7a4020ef          	jal	ra,2189c <__mulsi3>
   1f0fc:	01095713          	srli	a4,s2,0x10
   1f100:	007e8eb3          	add	t4,t4,t2
   1f104:	01d70733          	add	a4,a4,t4
   1f108:	00050793          	mv	a5,a0
   1f10c:	00777463          	bgeu	a4,t2,1f114 <__multf3+0x5ec>
   1f110:	014507b3          	add	a5,a0,s4
   1f114:	01075393          	srli	t2,a4,0x10
   1f118:	000104b7          	lui	s1,0x10
   1f11c:	01c12e83          	lw	t4,28(sp)
   1f120:	00f383b3          	add	t2,t2,a5
   1f124:	fff48793          	addi	a5,s1,-1 # ffff <exit-0x95>
   1f128:	00f77733          	and	a4,a4,a5
   1f12c:	00f97933          	and	s2,s2,a5
   1f130:	01071713          	slli	a4,a4,0x10
   1f134:	01270733          	add	a4,a4,s2
   1f138:	00fefb33          	and	s6,t4,a5
   1f13c:	010e5913          	srli	s2,t3,0x10
   1f140:	00fe7e33          	and	t3,t3,a5
   1f144:	010eda93          	srli	s5,t4,0x10
   1f148:	000b0513          	mv	a0,s6
   1f14c:	000e0593          	mv	a1,t3
   1f150:	74c020ef          	jal	ra,2189c <__mulsi3>
   1f154:	00050a13          	mv	s4,a0
   1f158:	00090593          	mv	a1,s2
   1f15c:	000b0513          	mv	a0,s6
   1f160:	73c020ef          	jal	ra,2189c <__mulsi3>
   1f164:	00050793          	mv	a5,a0
   1f168:	000e0593          	mv	a1,t3
   1f16c:	000a8513          	mv	a0,s5
   1f170:	72c020ef          	jal	ra,2189c <__mulsi3>
   1f174:	00050e13          	mv	t3,a0
   1f178:	00090593          	mv	a1,s2
   1f17c:	000a8513          	mv	a0,s5
   1f180:	71c020ef          	jal	ra,2189c <__mulsi3>
   1f184:	01c787b3          	add	a5,a5,t3
   1f188:	010a5693          	srli	a3,s4,0x10
   1f18c:	00d787b3          	add	a5,a5,a3
   1f190:	01c7f463          	bgeu	a5,t3,1f198 <__multf3+0x670>
   1f194:	00950533          	add	a0,a0,s1
   1f198:	00010937          	lui	s2,0x10
   1f19c:	fff90693          	addi	a3,s2,-1 # ffff <exit-0x95>
   1f1a0:	0107d493          	srli	s1,a5,0x10
   1f1a4:	00d7f7b3          	and	a5,a5,a3
   1f1a8:	00da7a33          	and	s4,s4,a3
   1f1ac:	0102db13          	srli	s6,t0,0x10
   1f1b0:	0109da93          	srli	s5,s3,0x10
   1f1b4:	00d2f2b3          	and	t0,t0,a3
   1f1b8:	00d9f9b3          	and	s3,s3,a3
   1f1bc:	01079793          	slli	a5,a5,0x10
   1f1c0:	00a484b3          	add	s1,s1,a0
   1f1c4:	014787b3          	add	a5,a5,s4
   1f1c8:	00028513          	mv	a0,t0
   1f1cc:	00098593          	mv	a1,s3
   1f1d0:	6cc020ef          	jal	ra,2189c <__mulsi3>
   1f1d4:	00050e13          	mv	t3,a0
   1f1d8:	000a8593          	mv	a1,s5
   1f1dc:	00028513          	mv	a0,t0
   1f1e0:	6bc020ef          	jal	ra,2189c <__mulsi3>
   1f1e4:	00050a13          	mv	s4,a0
   1f1e8:	00098593          	mv	a1,s3
   1f1ec:	000b0513          	mv	a0,s6
   1f1f0:	6ac020ef          	jal	ra,2189c <__mulsi3>
   1f1f4:	00050993          	mv	s3,a0
   1f1f8:	000a8593          	mv	a1,s5
   1f1fc:	000b0513          	mv	a0,s6
   1f200:	69c020ef          	jal	ra,2189c <__mulsi3>
   1f204:	010e5293          	srli	t0,t3,0x10
   1f208:	013a0a33          	add	s4,s4,s3
   1f20c:	014282b3          	add	t0,t0,s4
   1f210:	00050693          	mv	a3,a0
   1f214:	0132f463          	bgeu	t0,s3,1f21c <__multf3+0x6f4>
   1f218:	012506b3          	add	a3,a0,s2
   1f21c:	0102d913          	srli	s2,t0,0x10
   1f220:	00010a37          	lui	s4,0x10
   1f224:	00d90933          	add	s2,s2,a3
   1f228:	fffa0693          	addi	a3,s4,-1 # ffff <exit-0x95>
   1f22c:	00d2f2b3          	and	t0,t0,a3
   1f230:	00de7e33          	and	t3,t3,a3
   1f234:	010fdb13          	srli	s6,t6,0x10
   1f238:	00df7ab3          	and	s5,t5,a3
   1f23c:	00dfffb3          	and	t6,t6,a3
   1f240:	01029293          	slli	t0,t0,0x10
   1f244:	01c282b3          	add	t0,t0,t3
   1f248:	000a8513          	mv	a0,s5
   1f24c:	010f5e13          	srli	t3,t5,0x10
   1f250:	000f8593          	mv	a1,t6
   1f254:	648020ef          	jal	ra,2189c <__mulsi3>
   1f258:	00050993          	mv	s3,a0
   1f25c:	000b0593          	mv	a1,s6
   1f260:	000a8513          	mv	a0,s5
   1f264:	638020ef          	jal	ra,2189c <__mulsi3>
   1f268:	00050a93          	mv	s5,a0
   1f26c:	000f8593          	mv	a1,t6
   1f270:	000e0513          	mv	a0,t3
   1f274:	628020ef          	jal	ra,2189c <__mulsi3>
   1f278:	00050f93          	mv	t6,a0
   1f27c:	000b0593          	mv	a1,s6
   1f280:	000e0513          	mv	a0,t3
   1f284:	618020ef          	jal	ra,2189c <__mulsi3>
   1f288:	0109d693          	srli	a3,s3,0x10
   1f28c:	01fa8633          	add	a2,s5,t6
   1f290:	00c686b3          	add	a3,a3,a2
   1f294:	01f6f463          	bgeu	a3,t6,1f29c <__multf3+0x774>
   1f298:	01450533          	add	a0,a0,s4
   1f29c:	00010e37          	lui	t3,0x10
   1f2a0:	fffe0613          	addi	a2,t3,-1 # ffff <exit-0x95>
   1f2a4:	0106d593          	srli	a1,a3,0x10
   1f2a8:	00c6f6b3          	and	a3,a3,a2
   1f2ac:	00c9f9b3          	and	s3,s3,a2
   1f2b0:	01069693          	slli	a3,a3,0x10
   1f2b4:	00a585b3          	add	a1,a1,a0
   1f2b8:	01368533          	add	a0,a3,s3
   1f2bc:	04c12683          	lw	a3,76(sp)
   1f2c0:	05012f83          	lw	t6,80(sp)
   1f2c4:	02812983          	lw	s3,40(sp)
   1f2c8:	00e68733          	add	a4,a3,a4
   1f2cc:	007f83b3          	add	t2,t6,t2
   1f2d0:	00d736b3          	sltu	a3,a4,a3
   1f2d4:	00d386b3          	add	a3,t2,a3
   1f2d8:	00f707b3          	add	a5,a4,a5
   1f2dc:	009684b3          	add	s1,a3,s1
   1f2e0:	00e7b733          	sltu	a4,a5,a4
   1f2e4:	00e48733          	add	a4,s1,a4
   1f2e8:	005782b3          	add	t0,a5,t0
   1f2ec:	01f3bfb3          	sltu	t6,t2,t6
   1f2f0:	0076b3b3          	sltu	t2,a3,t2
   1f2f4:	00d4b6b3          	sltu	a3,s1,a3
   1f2f8:	009734b3          	sltu	s1,a4,s1
   1f2fc:	0096e6b3          	or	a3,a3,s1
   1f300:	01270933          	add	s2,a4,s2
   1f304:	007fefb3          	or	t6,t6,t2
   1f308:	00f2b7b3          	sltu	a5,t0,a5
   1f30c:	00df8fb3          	add	t6,t6,a3
   1f310:	00f907b3          	add	a5,s2,a5
   1f314:	00a286b3          	add	a3,t0,a0
   1f318:	00b785b3          	add	a1,a5,a1
   1f31c:	04d12623          	sw	a3,76(sp)
   1f320:	0056b6b3          	sltu	a3,a3,t0
   1f324:	00d586b3          	add	a3,a1,a3
   1f328:	00e93733          	sltu	a4,s2,a4
   1f32c:	0127b933          	sltu	s2,a5,s2
   1f330:	01276733          	or	a4,a4,s2
   1f334:	04d12823          	sw	a3,80(sp)
   1f338:	00f5b7b3          	sltu	a5,a1,a5
   1f33c:	00b6b6b3          	sltu	a3,a3,a1
   1f340:	01f70733          	add	a4,a4,t6
   1f344:	00d7e7b3          	or	a5,a5,a3
   1f348:	00e787b3          	add	a5,a5,a4
   1f34c:	04f12a23          	sw	a5,84(sp)
   1f350:	010f5393          	srli	t2,t5,0x10
   1f354:	00c9f7b3          	and	a5,s3,a2
   1f358:	00cf7f33          	and	t5,t5,a2
   1f35c:	0109d713          	srli	a4,s3,0x10
   1f360:	000f0513          	mv	a0,t5
   1f364:	00078593          	mv	a1,a5
   1f368:	534020ef          	jal	ra,2189c <__mulsi3>
   1f36c:	00050f93          	mv	t6,a0
   1f370:	00070593          	mv	a1,a4
   1f374:	000f0513          	mv	a0,t5
   1f378:	524020ef          	jal	ra,2189c <__mulsi3>
   1f37c:	00050f13          	mv	t5,a0
   1f380:	00078593          	mv	a1,a5
   1f384:	00038513          	mv	a0,t2
   1f388:	514020ef          	jal	ra,2189c <__mulsi3>
   1f38c:	00050293          	mv	t0,a0
   1f390:	00070593          	mv	a1,a4
   1f394:	00038513          	mv	a0,t2
   1f398:	504020ef          	jal	ra,2189c <__mulsi3>
   1f39c:	010fd793          	srli	a5,t6,0x10
   1f3a0:	005f0f33          	add	t5,t5,t0
   1f3a4:	01e787b3          	add	a5,a5,t5
   1f3a8:	00050713          	mv	a4,a0
   1f3ac:	0057f463          	bgeu	a5,t0,1f3b4 <__multf3+0x88c>
   1f3b0:	01c50733          	add	a4,a0,t3
   1f3b4:	01412f03          	lw	t5,20(sp)
   1f3b8:	0107d913          	srli	s2,a5,0x10
   1f3bc:	000103b7          	lui	t2,0x10
   1f3c0:	00e90933          	add	s2,s2,a4
   1f3c4:	fff38713          	addi	a4,t2,-1 # ffff <exit-0x95>
   1f3c8:	00e7f7b3          	and	a5,a5,a4
   1f3cc:	00efffb3          	and	t6,t6,a4
   1f3d0:	010f5493          	srli	s1,t5,0x10
   1f3d4:	01079793          	slli	a5,a5,0x10
   1f3d8:	00ef7f33          	and	t5,t5,a4
   1f3dc:	00e37733          	and	a4,t1,a4
   1f3e0:	01f787b3          	add	a5,a5,t6
   1f3e4:	01035293          	srli	t0,t1,0x10
   1f3e8:	000f0513          	mv	a0,t5
   1f3ec:	00070593          	mv	a1,a4
   1f3f0:	4ac020ef          	jal	ra,2189c <__mulsi3>
   1f3f4:	00050e13          	mv	t3,a0
   1f3f8:	00028593          	mv	a1,t0
   1f3fc:	000f0513          	mv	a0,t5
   1f400:	49c020ef          	jal	ra,2189c <__mulsi3>
   1f404:	00050f13          	mv	t5,a0
   1f408:	00070593          	mv	a1,a4
   1f40c:	00048513          	mv	a0,s1
   1f410:	48c020ef          	jal	ra,2189c <__mulsi3>
   1f414:	00050f93          	mv	t6,a0
   1f418:	00028593          	mv	a1,t0
   1f41c:	00048513          	mv	a0,s1
   1f420:	47c020ef          	jal	ra,2189c <__mulsi3>
   1f424:	010e5293          	srli	t0,t3,0x10
   1f428:	01ff0f33          	add	t5,t5,t6
   1f42c:	01e282b3          	add	t0,t0,t5
   1f430:	00050713          	mv	a4,a0
   1f434:	01f2f463          	bgeu	t0,t6,1f43c <__multf3+0x914>
   1f438:	00750733          	add	a4,a0,t2
   1f43c:	0102d493          	srli	s1,t0,0x10
   1f440:	00e484b3          	add	s1,s1,a4
   1f444:	00010fb7          	lui	t6,0x10
   1f448:	02412703          	lw	a4,36(sp)
   1f44c:	ffff8693          	addi	a3,t6,-1 # ffff <exit-0x95>
   1f450:	00d2f2b3          	and	t0,t0,a3
   1f454:	00de7e33          	and	t3,t3,a3
   1f458:	01075a93          	srli	s5,a4,0x10
   1f45c:	00deff33          	and	t5,t4,a3
   1f460:	00d77733          	and	a4,a4,a3
   1f464:	01029293          	slli	t0,t0,0x10
   1f468:	01c282b3          	add	t0,t0,t3
   1f46c:	010eda13          	srli	s4,t4,0x10
   1f470:	000f0513          	mv	a0,t5
   1f474:	00070593          	mv	a1,a4
   1f478:	424020ef          	jal	ra,2189c <__mulsi3>
   1f47c:	00050e13          	mv	t3,a0
   1f480:	000a8593          	mv	a1,s5
   1f484:	000f0513          	mv	a0,t5
   1f488:	414020ef          	jal	ra,2189c <__mulsi3>
   1f48c:	00050f13          	mv	t5,a0
   1f490:	00070593          	mv	a1,a4
   1f494:	000a0513          	mv	a0,s4
   1f498:	404020ef          	jal	ra,2189c <__mulsi3>
   1f49c:	00050393          	mv	t2,a0
   1f4a0:	000a8593          	mv	a1,s5
   1f4a4:	000a0513          	mv	a0,s4
   1f4a8:	3f4020ef          	jal	ra,2189c <__mulsi3>
   1f4ac:	010e5713          	srli	a4,t3,0x10
   1f4b0:	007f0f33          	add	t5,t5,t2
   1f4b4:	01e70733          	add	a4,a4,t5
   1f4b8:	00050693          	mv	a3,a0
   1f4bc:	00777463          	bgeu	a4,t2,1f4c4 <__multf3+0x99c>
   1f4c0:	01f506b3          	add	a3,a0,t6
   1f4c4:	01812f03          	lw	t5,24(sp)
   1f4c8:	01075393          	srli	t2,a4,0x10
   1f4cc:	00010fb7          	lui	t6,0x10
   1f4d0:	00d383b3          	add	t2,t2,a3
   1f4d4:	ffff8693          	addi	a3,t6,-1 # ffff <exit-0x95>
   1f4d8:	00d77733          	and	a4,a4,a3
   1f4dc:	00de7e33          	and	t3,t3,a3
   1f4e0:	010f5b13          	srli	s6,t5,0x10
   1f4e4:	01035a93          	srli	s5,t1,0x10
   1f4e8:	00df7f33          	and	t5,t5,a3
   1f4ec:	00d37333          	and	t1,t1,a3
   1f4f0:	01071713          	slli	a4,a4,0x10
   1f4f4:	01c70733          	add	a4,a4,t3
   1f4f8:	000f0513          	mv	a0,t5
   1f4fc:	00030593          	mv	a1,t1
   1f500:	39c020ef          	jal	ra,2189c <__mulsi3>
   1f504:	00050e13          	mv	t3,a0
   1f508:	000a8593          	mv	a1,s5
   1f50c:	000f0513          	mv	a0,t5
   1f510:	38c020ef          	jal	ra,2189c <__mulsi3>
   1f514:	00050a13          	mv	s4,a0
   1f518:	00030593          	mv	a1,t1
   1f51c:	000b0513          	mv	a0,s6
   1f520:	37c020ef          	jal	ra,2189c <__mulsi3>
   1f524:	00050313          	mv	t1,a0
   1f528:	000a8593          	mv	a1,s5
   1f52c:	000b0513          	mv	a0,s6
   1f530:	36c020ef          	jal	ra,2189c <__mulsi3>
   1f534:	010e5f13          	srli	t5,t3,0x10
   1f538:	006a0a33          	add	s4,s4,t1
   1f53c:	014f0f33          	add	t5,t5,s4
   1f540:	00050693          	mv	a3,a0
   1f544:	006f7463          	bgeu	t5,t1,1f54c <__multf3+0xa24>
   1f548:	01f506b3          	add	a3,a0,t6
   1f54c:	010f5f93          	srli	t6,t5,0x10
   1f550:	00010337          	lui	t1,0x10
   1f554:	00df8fb3          	add	t6,t6,a3
   1f558:	fff30693          	addi	a3,t1,-1 # ffff <exit-0x95>
   1f55c:	00df7f33          	and	t5,t5,a3
   1f560:	00de7e33          	and	t3,t3,a3
   1f564:	010edb13          	srli	s6,t4,0x10
   1f568:	0109da93          	srli	s5,s3,0x10
   1f56c:	00defeb3          	and	t4,t4,a3
   1f570:	00d9f9b3          	and	s3,s3,a3
   1f574:	010f1f13          	slli	t5,t5,0x10
   1f578:	01cf0f33          	add	t5,t5,t3
   1f57c:	000e8513          	mv	a0,t4
   1f580:	00098593          	mv	a1,s3
   1f584:	318020ef          	jal	ra,2189c <__mulsi3>
   1f588:	00050a13          	mv	s4,a0
   1f58c:	000a8593          	mv	a1,s5
   1f590:	000e8513          	mv	a0,t4
   1f594:	308020ef          	jal	ra,2189c <__mulsi3>
   1f598:	00050e13          	mv	t3,a0
   1f59c:	00098593          	mv	a1,s3
   1f5a0:	000b0513          	mv	a0,s6
   1f5a4:	2f8020ef          	jal	ra,2189c <__mulsi3>
   1f5a8:	00050e93          	mv	t4,a0
   1f5ac:	000a8593          	mv	a1,s5
   1f5b0:	000b0513          	mv	a0,s6
   1f5b4:	2e8020ef          	jal	ra,2189c <__mulsi3>
   1f5b8:	010a5693          	srli	a3,s4,0x10
   1f5bc:	01de0e33          	add	t3,t3,t4
   1f5c0:	01c686b3          	add	a3,a3,t3
   1f5c4:	00050613          	mv	a2,a0
   1f5c8:	01d6f463          	bgeu	a3,t4,1f5d0 <__multf3+0xaa8>
   1f5cc:	00650633          	add	a2,a0,t1
   1f5d0:	00010e37          	lui	t3,0x10
   1f5d4:	fffe0313          	addi	t1,t3,-1 # ffff <exit-0x95>
   1f5d8:	0106d593          	srli	a1,a3,0x10
   1f5dc:	0066f6b3          	and	a3,a3,t1
   1f5e0:	01069693          	slli	a3,a3,0x10
   1f5e4:	006a7a33          	and	s4,s4,t1
   1f5e8:	00c585b3          	add	a1,a1,a2
   1f5ec:	01468633          	add	a2,a3,s4
   1f5f0:	05012683          	lw	a3,80(sp)
   1f5f4:	05412503          	lw	a0,84(sp)
   1f5f8:	00f687b3          	add	a5,a3,a5
   1f5fc:	01250933          	add	s2,a0,s2
   1f600:	00d7b6b3          	sltu	a3,a5,a3
   1f604:	005782b3          	add	t0,a5,t0
   1f608:	00d906b3          	add	a3,s2,a3
   1f60c:	009684b3          	add	s1,a3,s1
   1f610:	00f2b7b3          	sltu	a5,t0,a5
   1f614:	00f487b3          	add	a5,s1,a5
   1f618:	00e28733          	add	a4,t0,a4
   1f61c:	007783b3          	add	t2,a5,t2
   1f620:	04e12823          	sw	a4,80(sp)
   1f624:	00573733          	sltu	a4,a4,t0
   1f628:	00e38733          	add	a4,t2,a4
   1f62c:	00a93533          	sltu	a0,s2,a0
   1f630:	0126b933          	sltu	s2,a3,s2
   1f634:	00d4b6b3          	sltu	a3,s1,a3
   1f638:	0097b4b3          	sltu	s1,a5,s1
   1f63c:	0096e6b3          	or	a3,a3,s1
   1f640:	01256533          	or	a0,a0,s2
   1f644:	00f3b7b3          	sltu	a5,t2,a5
   1f648:	007733b3          	sltu	t2,a4,t2
   1f64c:	00d50533          	add	a0,a0,a3
   1f650:	0077e7b3          	or	a5,a5,t2
   1f654:	01e70f33          	add	t5,a4,t5
   1f658:	00a787b3          	add	a5,a5,a0
   1f65c:	01f78fb3          	add	t6,a5,t6
   1f660:	00ef3733          	sltu	a4,t5,a4
   1f664:	00cf06b3          	add	a3,t5,a2
   1f668:	00ef8733          	add	a4,t6,a4
   1f66c:	00b705b3          	add	a1,a4,a1
   1f670:	04d12a23          	sw	a3,84(sp)
   1f674:	01e6b6b3          	sltu	a3,a3,t5
   1f678:	00d586b3          	add	a3,a1,a3
   1f67c:	04d12c23          	sw	a3,88(sp)
   1f680:	00ffb7b3          	sltu	a5,t6,a5
   1f684:	00b6b6b3          	sltu	a3,a3,a1
   1f688:	01f73fb3          	sltu	t6,a4,t6
   1f68c:	00e5b733          	sltu	a4,a1,a4
   1f690:	00d76733          	or	a4,a4,a3
   1f694:	01f7e7b3          	or	a5,a5,t6
   1f698:	00e787b3          	add	a5,a5,a4
   1f69c:	04f12e23          	sw	a5,92(sp)
   1f6a0:	02c12703          	lw	a4,44(sp)
   1f6a4:	01c12783          	lw	a5,28(sp)
   1f6a8:	01075f13          	srli	t5,a4,0x10
   1f6ac:	0107df93          	srli	t6,a5,0x10
   1f6b0:	00677733          	and	a4,a4,t1
   1f6b4:	0067f7b3          	and	a5,a5,t1
   1f6b8:	00078513          	mv	a0,a5
   1f6bc:	00070593          	mv	a1,a4
   1f6c0:	1dc020ef          	jal	ra,2189c <__mulsi3>
   1f6c4:	00050e93          	mv	t4,a0
   1f6c8:	000f0593          	mv	a1,t5
   1f6cc:	00078513          	mv	a0,a5
   1f6d0:	1cc020ef          	jal	ra,2189c <__mulsi3>
   1f6d4:	00050793          	mv	a5,a0
   1f6d8:	00070593          	mv	a1,a4
   1f6dc:	000f8513          	mv	a0,t6
   1f6e0:	1bc020ef          	jal	ra,2189c <__mulsi3>
   1f6e4:	00050713          	mv	a4,a0
   1f6e8:	000f0593          	mv	a1,t5
   1f6ec:	000f8513          	mv	a0,t6
   1f6f0:	1ac020ef          	jal	ra,2189c <__mulsi3>
   1f6f4:	00e787b3          	add	a5,a5,a4
   1f6f8:	010ed693          	srli	a3,t4,0x10
   1f6fc:	00d787b3          	add	a5,a5,a3
   1f700:	00e7f463          	bgeu	a5,a4,1f708 <__multf3+0xbe0>
   1f704:	01c50533          	add	a0,a0,t3
   1f708:	05812683          	lw	a3,88(sp)
   1f70c:	0067f733          	and	a4,a5,t1
   1f710:	05c12603          	lw	a2,92(sp)
   1f714:	01071713          	slli	a4,a4,0x10
   1f718:	006efeb3          	and	t4,t4,t1
   1f71c:	01d70733          	add	a4,a4,t4
   1f720:	00e68733          	add	a4,a3,a4
   1f724:	0107d793          	srli	a5,a5,0x10
   1f728:	00d736b3          	sltu	a3,a4,a3
   1f72c:	00c787b3          	add	a5,a5,a2
   1f730:	00d787b3          	add	a5,a5,a3
   1f734:	00a78533          	add	a0,a5,a0
   1f738:	04e12c23          	sw	a4,88(sp)
   1f73c:	04012783          	lw	a5,64(sp)
   1f740:	04412703          	lw	a4,68(sp)
   1f744:	04a12e23          	sw	a0,92(sp)
   1f748:	05010593          	addi	a1,sp,80
   1f74c:	00f76733          	or	a4,a4,a5
   1f750:	04812783          	lw	a5,72(sp)
   1f754:	00f76733          	or	a4,a4,a5
   1f758:	04c12783          	lw	a5,76(sp)
   1f75c:	00d79793          	slli	a5,a5,0xd
   1f760:	00e7e7b3          	or	a5,a5,a4
   1f764:	04010713          	addi	a4,sp,64
   1f768:	00c72683          	lw	a3,12(a4)
   1f76c:	01072603          	lw	a2,16(a4)
   1f770:	00470713          	addi	a4,a4,4
   1f774:	0136d693          	srli	a3,a3,0x13
   1f778:	00d61613          	slli	a2,a2,0xd
   1f77c:	00c6e6b3          	or	a3,a3,a2
   1f780:	fed72e23          	sw	a3,-4(a4)
   1f784:	fee592e3          	bne	a1,a4,1f768 <__multf3+0xc40>
   1f788:	04012703          	lw	a4,64(sp)
   1f78c:	00f037b3          	snez	a5,a5
   1f790:	04c12683          	lw	a3,76(sp)
   1f794:	00e7e7b3          	or	a5,a5,a4
   1f798:	04812703          	lw	a4,72(sp)
   1f79c:	02d12e23          	sw	a3,60(sp)
   1f7a0:	02f12823          	sw	a5,48(sp)
   1f7a4:	02e12c23          	sw	a4,56(sp)
   1f7a8:	04412703          	lw	a4,68(sp)
   1f7ac:	02e12a23          	sw	a4,52(sp)
   1f7b0:	00b69713          	slli	a4,a3,0xb
   1f7b4:	04075663          	bgez	a4,1f800 <__multf3+0xcd8>
   1f7b8:	01f79793          	slli	a5,a5,0x1f
   1f7bc:	03010713          	addi	a4,sp,48
   1f7c0:	03c10513          	addi	a0,sp,60
   1f7c4:	00072603          	lw	a2,0(a4)
   1f7c8:	00472583          	lw	a1,4(a4)
   1f7cc:	00470713          	addi	a4,a4,4
   1f7d0:	00165613          	srli	a2,a2,0x1
   1f7d4:	01f59593          	slli	a1,a1,0x1f
   1f7d8:	00b66633          	or	a2,a2,a1
   1f7dc:	fec72e23          	sw	a2,-4(a4)
   1f7e0:	fee512e3          	bne	a0,a4,1f7c4 <__multf3+0xc9c>
   1f7e4:	03012703          	lw	a4,48(sp)
   1f7e8:	00f037b3          	snez	a5,a5
   1f7ec:	0016d693          	srli	a3,a3,0x1
   1f7f0:	00f767b3          	or	a5,a4,a5
   1f7f4:	02d12e23          	sw	a3,60(sp)
   1f7f8:	02f12823          	sw	a5,48(sp)
   1f7fc:	000c0813          	mv	a6,s8
   1f800:	00080c13          	mv	s8,a6
   1f804:	3700006f          	j	1fb74 <__multf3+0x104c>
   1f808:	00a76633          	or	a2,a4,a0
   1f80c:	00d66633          	or	a2,a2,a3
   1f810:	00f66633          	or	a2,a2,a5
   1f814:	14060263          	beqz	a2,1f958 <__multf3+0xe30>
   1f818:	0a078063          	beqz	a5,1f8b8 <__multf3+0xd90>
   1f81c:	00078513          	mv	a0,a5
   1f820:	154020ef          	jal	ra,21974 <__clzsi2>
   1f824:	ff450613          	addi	a2,a0,-12
   1f828:	40565713          	srai	a4,a2,0x5
   1f82c:	01f67613          	andi	a2,a2,31
   1f830:	40e007b3          	neg	a5,a4
   1f834:	0a060c63          	beqz	a2,1f8ec <__multf3+0xdc4>
   1f838:	00279793          	slli	a5,a5,0x2
   1f83c:	00c78693          	addi	a3,a5,12
   1f840:	02000813          	li	a6,32
   1f844:	01010313          	addi	t1,sp,16
   1f848:	40c80833          	sub	a6,a6,a2
   1f84c:	00d306b3          	add	a3,t1,a3
   1f850:	40f007b3          	neg	a5,a5
   1f854:	0cd31263          	bne	t1,a3,1f918 <__multf3+0xdf0>
   1f858:	fff70793          	addi	a5,a4,-1
   1f85c:	00271713          	slli	a4,a4,0x2
   1f860:	01010693          	addi	a3,sp,16
   1f864:	05070713          	addi	a4,a4,80
   1f868:	00d70733          	add	a4,a4,a3
   1f86c:	01012683          	lw	a3,16(sp)
   1f870:	00c696b3          	sll	a3,a3,a2
   1f874:	fad72823          	sw	a3,-80(a4)
   1f878:	00178793          	addi	a5,a5,1
   1f87c:	00279793          	slli	a5,a5,0x2
   1f880:	00800693          	li	a3,8
   1f884:	01010713          	addi	a4,sp,16
   1f888:	00d7ea63          	bltu	a5,a3,1f89c <__multf3+0xd74>
   1f88c:	00012823          	sw	zero,16(sp)
   1f890:	00072223          	sw	zero,4(a4)
   1f894:	ff878793          	addi	a5,a5,-8
   1f898:	01810713          	addi	a4,sp,24
   1f89c:	00400693          	li	a3,4
   1f8a0:	00d7e463          	bltu	a5,a3,1f8a8 <__multf3+0xd80>
   1f8a4:	00072023          	sw	zero,0(a4)
   1f8a8:	ffffc9b7          	lui	s3,0xffffc
   1f8ac:	01198993          	addi	s3,s3,17 # ffffc011 <__BSS_END__+0xfffd8305>
   1f8b0:	40a989b3          	sub	s3,s3,a0
   1f8b4:	b5cff06f          	j	1ec10 <__multf3+0xe8>
   1f8b8:	00068a63          	beqz	a3,1f8cc <__multf3+0xda4>
   1f8bc:	00068513          	mv	a0,a3
   1f8c0:	0b4020ef          	jal	ra,21974 <__clzsi2>
   1f8c4:	02050513          	addi	a0,a0,32
   1f8c8:	f5dff06f          	j	1f824 <__multf3+0xcfc>
   1f8cc:	00050863          	beqz	a0,1f8dc <__multf3+0xdb4>
   1f8d0:	0a4020ef          	jal	ra,21974 <__clzsi2>
   1f8d4:	04050513          	addi	a0,a0,64
   1f8d8:	f4dff06f          	j	1f824 <__multf3+0xcfc>
   1f8dc:	00070513          	mv	a0,a4
   1f8e0:	094020ef          	jal	ra,21974 <__clzsi2>
   1f8e4:	06050513          	addi	a0,a0,96
   1f8e8:	f3dff06f          	j	1f824 <__multf3+0xcfc>
   1f8ec:	01c10693          	addi	a3,sp,28
   1f8f0:	00279793          	slli	a5,a5,0x2
   1f8f4:	00300613          	li	a2,3
   1f8f8:	00f685b3          	add	a1,a3,a5
   1f8fc:	0005a583          	lw	a1,0(a1)
   1f900:	fff60613          	addi	a2,a2,-1
   1f904:	ffc68693          	addi	a3,a3,-4 # fffc <exit-0x98>
   1f908:	00b6a223          	sw	a1,4(a3)
   1f90c:	fee656e3          	bge	a2,a4,1f8f8 <__multf3+0xdd0>
   1f910:	fff70793          	addi	a5,a4,-1
   1f914:	f65ff06f          	j	1f878 <__multf3+0xd50>
   1f918:	0006a583          	lw	a1,0(a3)
   1f91c:	ffc6a883          	lw	a7,-4(a3)
   1f920:	00f68e33          	add	t3,a3,a5
   1f924:	00c595b3          	sll	a1,a1,a2
   1f928:	0108d8b3          	srl	a7,a7,a6
   1f92c:	0115e5b3          	or	a1,a1,a7
   1f930:	00be2023          	sw	a1,0(t3)
   1f934:	ffc68693          	addi	a3,a3,-4
   1f938:	f1dff06f          	j	1f854 <__multf3+0xd2c>
   1f93c:	00a76733          	or	a4,a4,a0
   1f940:	00d76733          	or	a4,a4,a3
   1f944:	00f76733          	or	a4,a4,a5
   1f948:	00200b93          	li	s7,2
   1f94c:	ac070463          	beqz	a4,1ec14 <__multf3+0xec>
   1f950:	00300b93          	li	s7,3
   1f954:	ac0ff06f          	j	1ec14 <__multf3+0xec>
   1f958:	00000993          	li	s3,0
   1f95c:	00100b93          	li	s7,1
   1f960:	ab4ff06f          	j	1ec14 <__multf3+0xec>
   1f964:	016a67b3          	or	a5,s4,s6
   1f968:	0157e7b3          	or	a5,a5,s5
   1f96c:	00a7e7b3          	or	a5,a5,a0
   1f970:	14078263          	beqz	a5,1fab4 <__multf3+0xf8c>
   1f974:	08050e63          	beqz	a0,1fa10 <__multf3+0xee8>
   1f978:	7fd010ef          	jal	ra,21974 <__clzsi2>
   1f97c:	ff450613          	addi	a2,a0,-12
   1f980:	40565713          	srai	a4,a2,0x5
   1f984:	01f67613          	andi	a2,a2,31
   1f988:	40e007b3          	neg	a5,a4
   1f98c:	0a060e63          	beqz	a2,1fa48 <__multf3+0xf20>
   1f990:	00279793          	slli	a5,a5,0x2
   1f994:	00c78693          	addi	a3,a5,12
   1f998:	02000813          	li	a6,32
   1f99c:	02010313          	addi	t1,sp,32
   1f9a0:	40c80833          	sub	a6,a6,a2
   1f9a4:	00d306b3          	add	a3,t1,a3
   1f9a8:	40f007b3          	neg	a5,a5
   1f9ac:	0cd31463          	bne	t1,a3,1fa74 <__multf3+0xf4c>
   1f9b0:	fff70793          	addi	a5,a4,-1
   1f9b4:	00271713          	slli	a4,a4,0x2
   1f9b8:	01010693          	addi	a3,sp,16
   1f9bc:	05070713          	addi	a4,a4,80
   1f9c0:	00d70733          	add	a4,a4,a3
   1f9c4:	02012683          	lw	a3,32(sp)
   1f9c8:	00c696b3          	sll	a3,a3,a2
   1f9cc:	fcd72023          	sw	a3,-64(a4)
   1f9d0:	00178793          	addi	a5,a5,1
   1f9d4:	00279793          	slli	a5,a5,0x2
   1f9d8:	00800693          	li	a3,8
   1f9dc:	02010713          	addi	a4,sp,32
   1f9e0:	00d7ea63          	bltu	a5,a3,1f9f4 <__multf3+0xecc>
   1f9e4:	02012023          	sw	zero,32(sp)
   1f9e8:	00072223          	sw	zero,4(a4)
   1f9ec:	ff878793          	addi	a5,a5,-8
   1f9f0:	02810713          	addi	a4,sp,40
   1f9f4:	00400693          	li	a3,4
   1f9f8:	00d7e463          	bltu	a5,a3,1fa00 <__multf3+0xed8>
   1f9fc:	00072023          	sw	zero,0(a4)
   1fa00:	ffffc837          	lui	a6,0xffffc
   1fa04:	01180813          	addi	a6,a6,17 # ffffc011 <__BSS_END__+0xfffd8305>
   1fa08:	40a80833          	sub	a6,a6,a0
   1fa0c:	a94ff06f          	j	1eca0 <__multf3+0x178>
   1fa10:	000a8a63          	beqz	s5,1fa24 <__multf3+0xefc>
   1fa14:	000a8513          	mv	a0,s5
   1fa18:	75d010ef          	jal	ra,21974 <__clzsi2>
   1fa1c:	02050513          	addi	a0,a0,32
   1fa20:	f5dff06f          	j	1f97c <__multf3+0xe54>
   1fa24:	000b0a63          	beqz	s6,1fa38 <__multf3+0xf10>
   1fa28:	000b0513          	mv	a0,s6
   1fa2c:	749010ef          	jal	ra,21974 <__clzsi2>
   1fa30:	04050513          	addi	a0,a0,64
   1fa34:	f49ff06f          	j	1f97c <__multf3+0xe54>
   1fa38:	000a0513          	mv	a0,s4
   1fa3c:	739010ef          	jal	ra,21974 <__clzsi2>
   1fa40:	06050513          	addi	a0,a0,96
   1fa44:	f39ff06f          	j	1f97c <__multf3+0xe54>
   1fa48:	02c10693          	addi	a3,sp,44
   1fa4c:	00279793          	slli	a5,a5,0x2
   1fa50:	00300613          	li	a2,3
   1fa54:	00f685b3          	add	a1,a3,a5
   1fa58:	0005a583          	lw	a1,0(a1)
   1fa5c:	fff60613          	addi	a2,a2,-1
   1fa60:	ffc68693          	addi	a3,a3,-4
   1fa64:	00b6a223          	sw	a1,4(a3)
   1fa68:	fee656e3          	bge	a2,a4,1fa54 <__multf3+0xf2c>
   1fa6c:	fff70793          	addi	a5,a4,-1
   1fa70:	f61ff06f          	j	1f9d0 <__multf3+0xea8>
   1fa74:	0006a583          	lw	a1,0(a3)
   1fa78:	ffc6a883          	lw	a7,-4(a3)
   1fa7c:	00f68e33          	add	t3,a3,a5
   1fa80:	00c595b3          	sll	a1,a1,a2
   1fa84:	0108d8b3          	srl	a7,a7,a6
   1fa88:	0115e5b3          	or	a1,a1,a7
   1fa8c:	00be2023          	sw	a1,0(t3)
   1fa90:	ffc68693          	addi	a3,a3,-4
   1fa94:	f19ff06f          	j	1f9ac <__multf3+0xe84>
   1fa98:	016a67b3          	or	a5,s4,s6
   1fa9c:	0157e7b3          	or	a5,a5,s5
   1faa0:	00a7e7b3          	or	a5,a5,a0
   1faa4:	00200693          	li	a3,2
   1faa8:	9e078e63          	beqz	a5,1eca4 <__multf3+0x17c>
   1faac:	00300693          	li	a3,3
   1fab0:	9f4ff06f          	j	1eca4 <__multf3+0x17c>
   1fab4:	00000813          	li	a6,0
   1fab8:	00100693          	li	a3,1
   1fabc:	9e8ff06f          	j	1eca4 <__multf3+0x17c>
   1fac0:	00100713          	li	a4,1
   1fac4:	00f717b3          	sll	a5,a4,a5
   1fac8:	5307f713          	andi	a4,a5,1328
   1facc:	06071863          	bnez	a4,1fb3c <__multf3+0x1014>
   1fad0:	0887f713          	andi	a4,a5,136
   1fad4:	04071063          	bnez	a4,1fb14 <__multf3+0xfec>
   1fad8:	2407f793          	andi	a5,a5,576
   1fadc:	9e078c63          	beqz	a5,1ecd4 <__multf3+0x1ac>
   1fae0:	000087b7          	lui	a5,0x8
   1fae4:	02f12e23          	sw	a5,60(sp)
   1fae8:	02012c23          	sw	zero,56(sp)
   1faec:	02012a23          	sw	zero,52(sp)
   1faf0:	02012823          	sw	zero,48(sp)
   1faf4:	fff78793          	addi	a5,a5,-1 # 7fff <exit-0x8095>
   1faf8:	00000893          	li	a7,0
   1fafc:	13c0006f          	j	1fc38 <__multf3+0x1110>
   1fb00:	00f00713          	li	a4,15
   1fb04:	fce78ee3          	beq	a5,a4,1fae0 <__multf3+0xfb8>
   1fb08:	00b00713          	li	a4,11
   1fb0c:	00048893          	mv	a7,s1
   1fb10:	02e79663          	bne	a5,a4,1fb3c <__multf3+0x1014>
   1fb14:	00090893          	mv	a7,s2
   1fb18:	02012783          	lw	a5,32(sp)
   1fb1c:	00068b93          	mv	s7,a3
   1fb20:	02f12823          	sw	a5,48(sp)
   1fb24:	02412783          	lw	a5,36(sp)
   1fb28:	02f12a23          	sw	a5,52(sp)
   1fb2c:	02812783          	lw	a5,40(sp)
   1fb30:	02f12c23          	sw	a5,56(sp)
   1fb34:	02c12783          	lw	a5,44(sp)
   1fb38:	0200006f          	j	1fb58 <__multf3+0x1030>
   1fb3c:	01012783          	lw	a5,16(sp)
   1fb40:	02f12823          	sw	a5,48(sp)
   1fb44:	01412783          	lw	a5,20(sp)
   1fb48:	02f12a23          	sw	a5,52(sp)
   1fb4c:	01812783          	lw	a5,24(sp)
   1fb50:	02f12c23          	sw	a5,56(sp)
   1fb54:	01c12783          	lw	a5,28(sp)
   1fb58:	02f12e23          	sw	a5,60(sp)
   1fb5c:	00200793          	li	a5,2
   1fb60:	36fb8063          	beq	s7,a5,1fec0 <__multf3+0x1398>
   1fb64:	00300793          	li	a5,3
   1fb68:	f6fb8ce3          	beq	s7,a5,1fae0 <__multf3+0xfb8>
   1fb6c:	00100793          	li	a5,1
   1fb70:	32fb8e63          	beq	s7,a5,1feac <__multf3+0x1384>
   1fb74:	000047b7          	lui	a5,0x4
   1fb78:	fff78793          	addi	a5,a5,-1 # 3fff <exit-0xc095>
   1fb7c:	00fc07b3          	add	a5,s8,a5
   1fb80:	12f05663          	blez	a5,1fcac <__multf3+0x1184>
   1fb84:	03012703          	lw	a4,48(sp)
   1fb88:	00777693          	andi	a3,a4,7
   1fb8c:	04068463          	beqz	a3,1fbd4 <__multf3+0x10ac>
   1fb90:	00f77693          	andi	a3,a4,15
   1fb94:	00400613          	li	a2,4
   1fb98:	02c68e63          	beq	a3,a2,1fbd4 <__multf3+0x10ac>
   1fb9c:	00470713          	addi	a4,a4,4
   1fba0:	00473693          	sltiu	a3,a4,4
   1fba4:	02e12823          	sw	a4,48(sp)
   1fba8:	03412703          	lw	a4,52(sp)
   1fbac:	00e68733          	add	a4,a3,a4
   1fbb0:	02e12a23          	sw	a4,52(sp)
   1fbb4:	00d73733          	sltu	a4,a4,a3
   1fbb8:	03812683          	lw	a3,56(sp)
   1fbbc:	00e68733          	add	a4,a3,a4
   1fbc0:	02e12c23          	sw	a4,56(sp)
   1fbc4:	00d73733          	sltu	a4,a4,a3
   1fbc8:	03c12683          	lw	a3,60(sp)
   1fbcc:	00d70733          	add	a4,a4,a3
   1fbd0:	02e12e23          	sw	a4,60(sp)
   1fbd4:	03c12703          	lw	a4,60(sp)
   1fbd8:	00b71693          	slli	a3,a4,0xb
   1fbdc:	0006de63          	bgez	a3,1fbf8 <__multf3+0x10d0>
   1fbe0:	fff007b7          	lui	a5,0xfff00
   1fbe4:	fff78793          	addi	a5,a5,-1 # ffefffff <__BSS_END__+0xffedc2f3>
   1fbe8:	00f77733          	and	a4,a4,a5
   1fbec:	000047b7          	lui	a5,0x4
   1fbf0:	02e12e23          	sw	a4,60(sp)
   1fbf4:	00fc07b3          	add	a5,s8,a5
   1fbf8:	03010713          	addi	a4,sp,48
   1fbfc:	03c10593          	addi	a1,sp,60
   1fc00:	00072683          	lw	a3,0(a4)
   1fc04:	00472603          	lw	a2,4(a4)
   1fc08:	00470713          	addi	a4,a4,4
   1fc0c:	0036d693          	srli	a3,a3,0x3
   1fc10:	01d61613          	slli	a2,a2,0x1d
   1fc14:	00c6e6b3          	or	a3,a3,a2
   1fc18:	fed72e23          	sw	a3,-4(a4)
   1fc1c:	fee592e3          	bne	a1,a4,1fc00 <__multf3+0x10d8>
   1fc20:	000086b7          	lui	a3,0x8
   1fc24:	ffe68693          	addi	a3,a3,-2 # 7ffe <exit-0x8096>
   1fc28:	03c12703          	lw	a4,60(sp)
   1fc2c:	28f6ca63          	blt	a3,a5,1fec0 <__multf3+0x1398>
   1fc30:	00375713          	srli	a4,a4,0x3
   1fc34:	02e12e23          	sw	a4,60(sp)
   1fc38:	00f89893          	slli	a7,a7,0xf
   1fc3c:	00f8e8b3          	or	a7,a7,a5
   1fc40:	03012783          	lw	a5,48(sp)
   1fc44:	03c12703          	lw	a4,60(sp)
   1fc48:	05111723          	sh	a7,78(sp)
   1fc4c:	00f42023          	sw	a5,0(s0)
   1fc50:	03412783          	lw	a5,52(sp)
   1fc54:	04e11623          	sh	a4,76(sp)
   1fc58:	09c12083          	lw	ra,156(sp)
   1fc5c:	00f42223          	sw	a5,4(s0)
   1fc60:	03812783          	lw	a5,56(sp)
   1fc64:	00040513          	mv	a0,s0
   1fc68:	09412483          	lw	s1,148(sp)
   1fc6c:	00f42423          	sw	a5,8(s0)
   1fc70:	04c12783          	lw	a5,76(sp)
   1fc74:	09012903          	lw	s2,144(sp)
   1fc78:	08c12983          	lw	s3,140(sp)
   1fc7c:	00f42623          	sw	a5,12(s0)
   1fc80:	09812403          	lw	s0,152(sp)
   1fc84:	08812a03          	lw	s4,136(sp)
   1fc88:	08412a83          	lw	s5,132(sp)
   1fc8c:	08012b03          	lw	s6,128(sp)
   1fc90:	07c12b83          	lw	s7,124(sp)
   1fc94:	07812c03          	lw	s8,120(sp)
   1fc98:	07412c83          	lw	s9,116(sp)
   1fc9c:	07012d03          	lw	s10,112(sp)
   1fca0:	06c12d83          	lw	s11,108(sp)
   1fca4:	0a010113          	addi	sp,sp,160
   1fca8:	00008067          	ret
   1fcac:	00100693          	li	a3,1
   1fcb0:	40f686b3          	sub	a3,a3,a5
   1fcb4:	07400793          	li	a5,116
   1fcb8:	1cd7ca63          	blt	a5,a3,1fe8c <__multf3+0x1364>
   1fcbc:	03010513          	addi	a0,sp,48
   1fcc0:	4056d713          	srai	a4,a3,0x5
   1fcc4:	00050593          	mv	a1,a0
   1fcc8:	01f6f693          	andi	a3,a3,31
   1fccc:	00000793          	li	a5,0
   1fcd0:	00000613          	li	a2,0
   1fcd4:	02e61e63          	bne	a2,a4,1fd10 <__multf3+0x11e8>
   1fcd8:	00300613          	li	a2,3
   1fcdc:	40e60633          	sub	a2,a2,a4
   1fce0:	00271593          	slli	a1,a4,0x2
   1fce4:	04069063          	bnez	a3,1fd24 <__multf3+0x11fc>
   1fce8:	00050813          	mv	a6,a0
   1fcec:	00b80333          	add	t1,a6,a1
   1fcf0:	00032303          	lw	t1,0(t1)
   1fcf4:	00168693          	addi	a3,a3,1
   1fcf8:	00480813          	addi	a6,a6,4
   1fcfc:	fe682e23          	sw	t1,-4(a6)
   1fd00:	fed656e3          	bge	a2,a3,1fcec <__multf3+0x11c4>
   1fd04:	00400693          	li	a3,4
   1fd08:	40e68733          	sub	a4,a3,a4
   1fd0c:	06c0006f          	j	1fd78 <__multf3+0x1250>
   1fd10:	0005a803          	lw	a6,0(a1)
   1fd14:	00160613          	addi	a2,a2,1
   1fd18:	00458593          	addi	a1,a1,4
   1fd1c:	0107e7b3          	or	a5,a5,a6
   1fd20:	fb5ff06f          	j	1fcd4 <__multf3+0x11ac>
   1fd24:	05058813          	addi	a6,a1,80
   1fd28:	01010e13          	addi	t3,sp,16
   1fd2c:	01c80833          	add	a6,a6,t3
   1fd30:	fd082803          	lw	a6,-48(a6)
   1fd34:	02000313          	li	t1,32
   1fd38:	40d30333          	sub	t1,t1,a3
   1fd3c:	00681833          	sll	a6,a6,t1
   1fd40:	0107e7b3          	or	a5,a5,a6
   1fd44:	00b505b3          	add	a1,a0,a1
   1fd48:	00050e93          	mv	t4,a0
   1fd4c:	00000e13          	li	t3,0
   1fd50:	0ece4063          	blt	t3,a2,1fe30 <__multf3+0x1308>
   1fd54:	00400593          	li	a1,4
   1fd58:	00261613          	slli	a2,a2,0x2
   1fd5c:	40e58733          	sub	a4,a1,a4
   1fd60:	05060613          	addi	a2,a2,80
   1fd64:	01010593          	addi	a1,sp,16
   1fd68:	00b60633          	add	a2,a2,a1
   1fd6c:	03c12583          	lw	a1,60(sp)
   1fd70:	00d5d6b3          	srl	a3,a1,a3
   1fd74:	fcd62823          	sw	a3,-48(a2)
   1fd78:	00400693          	li	a3,4
   1fd7c:	40e686b3          	sub	a3,a3,a4
   1fd80:	00269693          	slli	a3,a3,0x2
   1fd84:	00271713          	slli	a4,a4,0x2
   1fd88:	00800613          	li	a2,8
   1fd8c:	00e50733          	add	a4,a0,a4
   1fd90:	00c6ea63          	bltu	a3,a2,1fda4 <__multf3+0x127c>
   1fd94:	00072023          	sw	zero,0(a4)
   1fd98:	00072223          	sw	zero,4(a4)
   1fd9c:	ff868693          	addi	a3,a3,-8
   1fda0:	00870713          	addi	a4,a4,8
   1fda4:	00400613          	li	a2,4
   1fda8:	00c6e463          	bltu	a3,a2,1fdb0 <__multf3+0x1288>
   1fdac:	00072023          	sw	zero,0(a4)
   1fdb0:	03012703          	lw	a4,48(sp)
   1fdb4:	00f037b3          	snez	a5,a5
   1fdb8:	00e7e7b3          	or	a5,a5,a4
   1fdbc:	02f12823          	sw	a5,48(sp)
   1fdc0:	0077f713          	andi	a4,a5,7
   1fdc4:	04070463          	beqz	a4,1fe0c <__multf3+0x12e4>
   1fdc8:	00f7f713          	andi	a4,a5,15
   1fdcc:	00400693          	li	a3,4
   1fdd0:	02d70e63          	beq	a4,a3,1fe0c <__multf3+0x12e4>
   1fdd4:	03412703          	lw	a4,52(sp)
   1fdd8:	00478793          	addi	a5,a5,4 # 4004 <exit-0xc090>
   1fddc:	02f12823          	sw	a5,48(sp)
   1fde0:	0047b793          	sltiu	a5,a5,4
   1fde4:	00f707b3          	add	a5,a4,a5
   1fde8:	02f12a23          	sw	a5,52(sp)
   1fdec:	00e7b7b3          	sltu	a5,a5,a4
   1fdf0:	03812703          	lw	a4,56(sp)
   1fdf4:	00f707b3          	add	a5,a4,a5
   1fdf8:	02f12c23          	sw	a5,56(sp)
   1fdfc:	00e7b7b3          	sltu	a5,a5,a4
   1fe00:	03c12703          	lw	a4,60(sp)
   1fe04:	00e787b3          	add	a5,a5,a4
   1fe08:	02f12e23          	sw	a5,60(sp)
   1fe0c:	03c12703          	lw	a4,60(sp)
   1fe10:	00c71793          	slli	a5,a4,0xc
   1fe14:	0407d263          	bgez	a5,1fe58 <__multf3+0x1330>
   1fe18:	02012e23          	sw	zero,60(sp)
   1fe1c:	02012c23          	sw	zero,56(sp)
   1fe20:	02012a23          	sw	zero,52(sp)
   1fe24:	02012823          	sw	zero,48(sp)
   1fe28:	00100793          	li	a5,1
   1fe2c:	e0dff06f          	j	1fc38 <__multf3+0x1110>
   1fe30:	0005a803          	lw	a6,0(a1)
   1fe34:	0045af03          	lw	t5,4(a1)
   1fe38:	00458593          	addi	a1,a1,4
   1fe3c:	00d85833          	srl	a6,a6,a3
   1fe40:	006f1f33          	sll	t5,t5,t1
   1fe44:	01e86833          	or	a6,a6,t5
   1fe48:	010ea023          	sw	a6,0(t4)
   1fe4c:	001e0e13          	addi	t3,t3,1
   1fe50:	004e8e93          	addi	t4,t4,4
   1fe54:	efdff06f          	j	1fd50 <__multf3+0x1228>
   1fe58:	00c50613          	addi	a2,a0,12
   1fe5c:	00052783          	lw	a5,0(a0)
   1fe60:	00452683          	lw	a3,4(a0)
   1fe64:	00450513          	addi	a0,a0,4
   1fe68:	0037d793          	srli	a5,a5,0x3
   1fe6c:	01d69693          	slli	a3,a3,0x1d
   1fe70:	00d7e7b3          	or	a5,a5,a3
   1fe74:	fef52e23          	sw	a5,-4(a0)
   1fe78:	fea612e3          	bne	a2,a0,1fe5c <__multf3+0x1334>
   1fe7c:	00375713          	srli	a4,a4,0x3
   1fe80:	02e12e23          	sw	a4,60(sp)
   1fe84:	00000793          	li	a5,0
   1fe88:	db1ff06f          	j	1fc38 <__multf3+0x1110>
   1fe8c:	03412703          	lw	a4,52(sp)
   1fe90:	03012783          	lw	a5,48(sp)
   1fe94:	00e7e7b3          	or	a5,a5,a4
   1fe98:	03812703          	lw	a4,56(sp)
   1fe9c:	00e7e7b3          	or	a5,a5,a4
   1fea0:	03c12703          	lw	a4,60(sp)
   1fea4:	00e7e7b3          	or	a5,a5,a4
   1fea8:	fc078ee3          	beqz	a5,1fe84 <__multf3+0x135c>
   1feac:	02012e23          	sw	zero,60(sp)
   1feb0:	02012c23          	sw	zero,56(sp)
   1feb4:	02012a23          	sw	zero,52(sp)
   1feb8:	02012823          	sw	zero,48(sp)
   1febc:	fc9ff06f          	j	1fe84 <__multf3+0x135c>
   1fec0:	000087b7          	lui	a5,0x8
   1fec4:	02012e23          	sw	zero,60(sp)
   1fec8:	02012c23          	sw	zero,56(sp)
   1fecc:	02012a23          	sw	zero,52(sp)
   1fed0:	02012823          	sw	zero,48(sp)
   1fed4:	fff78793          	addi	a5,a5,-1 # 7fff <exit-0x8095>
   1fed8:	d61ff06f          	j	1fc38 <__multf3+0x1110>

0001fedc <__subtf3>:
   1fedc:	f9010113          	addi	sp,sp,-112
   1fee0:	0085a703          	lw	a4,8(a1)
   1fee4:	05512a23          	sw	s5,84(sp)
   1fee8:	00c5aa83          	lw	s5,12(a1)
   1feec:	0005a783          	lw	a5,0(a1)
   1fef0:	0045a683          	lw	a3,4(a1)
   1fef4:	02e12c23          	sw	a4,56(sp)
   1fef8:	00e12c23          	sw	a4,24(sp)
   1fefc:	010a9713          	slli	a4,s5,0x10
   1ff00:	06912223          	sw	s1,100(sp)
   1ff04:	01075713          	srli	a4,a4,0x10
   1ff08:	001a9493          	slli	s1,s5,0x1
   1ff0c:	00462803          	lw	a6,4(a2)
   1ff10:	00862583          	lw	a1,8(a2)
   1ff14:	06812423          	sw	s0,104(sp)
   1ff18:	07212023          	sw	s2,96(sp)
   1ff1c:	00062403          	lw	s0,0(a2)
   1ff20:	00c62903          	lw	s2,12(a2)
   1ff24:	05412c23          	sw	s4,88(sp)
   1ff28:	03512e23          	sw	s5,60(sp)
   1ff2c:	00050a13          	mv	s4,a0
   1ff30:	06112623          	sw	ra,108(sp)
   1ff34:	05312e23          	sw	s3,92(sp)
   1ff38:	05612823          	sw	s6,80(sp)
   1ff3c:	05712623          	sw	s7,76(sp)
   1ff40:	05812423          	sw	s8,72(sp)
   1ff44:	02f12823          	sw	a5,48(sp)
   1ff48:	02d12a23          	sw	a3,52(sp)
   1ff4c:	00f12823          	sw	a5,16(sp)
   1ff50:	00d12a23          	sw	a3,20(sp)
   1ff54:	00e12e23          	sw	a4,28(sp)
   1ff58:	0114d493          	srli	s1,s1,0x11
   1ff5c:	01fada93          	srli	s5,s5,0x1f
   1ff60:	01010513          	addi	a0,sp,16
   1ff64:	01c10613          	addi	a2,sp,28
   1ff68:	00062703          	lw	a4,0(a2)
   1ff6c:	ffc62683          	lw	a3,-4(a2)
   1ff70:	ffc60613          	addi	a2,a2,-4
   1ff74:	00371713          	slli	a4,a4,0x3
   1ff78:	01d6d693          	srli	a3,a3,0x1d
   1ff7c:	00d76733          	or	a4,a4,a3
   1ff80:	00e62223          	sw	a4,4(a2)
   1ff84:	fec512e3          	bne	a0,a2,1ff68 <__subtf3+0x8c>
   1ff88:	01091713          	slli	a4,s2,0x10
   1ff8c:	00191b93          	slli	s7,s2,0x1
   1ff90:	00379793          	slli	a5,a5,0x3
   1ff94:	01075713          	srli	a4,a4,0x10
   1ff98:	03012a23          	sw	a6,52(sp)
   1ff9c:	03212e23          	sw	s2,60(sp)
   1ffa0:	03012223          	sw	a6,36(sp)
   1ffa4:	00f12823          	sw	a5,16(sp)
   1ffa8:	02812823          	sw	s0,48(sp)
   1ffac:	02b12c23          	sw	a1,56(sp)
   1ffb0:	02812023          	sw	s0,32(sp)
   1ffb4:	02b12423          	sw	a1,40(sp)
   1ffb8:	02e12623          	sw	a4,44(sp)
   1ffbc:	011bdb93          	srli	s7,s7,0x11
   1ffc0:	01f95913          	srli	s2,s2,0x1f
   1ffc4:	02010813          	addi	a6,sp,32
   1ffc8:	02c10313          	addi	t1,sp,44
   1ffcc:	00032703          	lw	a4,0(t1)
   1ffd0:	ffc32683          	lw	a3,-4(t1)
   1ffd4:	ffc30313          	addi	t1,t1,-4
   1ffd8:	00371713          	slli	a4,a4,0x3
   1ffdc:	01d6d693          	srli	a3,a3,0x1d
   1ffe0:	00d76733          	or	a4,a4,a3
   1ffe4:	00e32223          	sw	a4,4(t1)
   1ffe8:	fe6812e3          	bne	a6,t1,1ffcc <__subtf3+0xf0>
   1ffec:	00341413          	slli	s0,s0,0x3
   1fff0:	00008737          	lui	a4,0x8
   1fff4:	02812023          	sw	s0,32(sp)
   1fff8:	fff70713          	addi	a4,a4,-1 # 7fff <exit-0x8095>
   1fffc:	02eb9063          	bne	s7,a4,2001c <__subtf3+0x140>
   20000:	02812683          	lw	a3,40(sp)
   20004:	02412703          	lw	a4,36(sp)
   20008:	00d76733          	or	a4,a4,a3
   2000c:	02c12683          	lw	a3,44(sp)
   20010:	00d76733          	or	a4,a4,a3
   20014:	00876733          	or	a4,a4,s0
   20018:	00071463          	bnez	a4,20020 <__subtf3+0x144>
   2001c:	00194913          	xori	s2,s2,1
   20020:	417488b3          	sub	a7,s1,s7
   20024:	0b5914e3          	bne	s2,s5,208cc <__subtf3+0x9f0>
   20028:	45105063          	blez	a7,20468 <__subtf3+0x58c>
   2002c:	01412903          	lw	s2,20(sp)
   20030:	01812983          	lw	s3,24(sp)
   20034:	01c12b03          	lw	s6,28(sp)
   20038:	0a0b9263          	bnez	s7,200dc <__subtf3+0x200>
   2003c:	02412683          	lw	a3,36(sp)
   20040:	02812703          	lw	a4,40(sp)
   20044:	02c12583          	lw	a1,44(sp)
   20048:	00e6e633          	or	a2,a3,a4
   2004c:	00b66633          	or	a2,a2,a1
   20050:	00866633          	or	a2,a2,s0
   20054:	00061e63          	bnez	a2,20070 <__subtf3+0x194>
   20058:	02f12823          	sw	a5,48(sp)
   2005c:	03212a23          	sw	s2,52(sp)
   20060:	03312c23          	sw	s3,56(sp)
   20064:	03612e23          	sw	s6,60(sp)
   20068:	00088493          	mv	s1,a7
   2006c:	08c0006f          	j	200f8 <__subtf3+0x21c>
   20070:	fff88613          	addi	a2,a7,-1
   20074:	04061863          	bnez	a2,200c4 <__subtf3+0x1e8>
   20078:	00878433          	add	s0,a5,s0
   2007c:	01268933          	add	s2,a3,s2
   20080:	02812823          	sw	s0,48(sp)
   20084:	00f43433          	sltu	s0,s0,a5
   20088:	00890433          	add	s0,s2,s0
   2008c:	02812a23          	sw	s0,52(sp)
   20090:	00d936b3          	sltu	a3,s2,a3
   20094:	01243433          	sltu	s0,s0,s2
   20098:	013709b3          	add	s3,a4,s3
   2009c:	0086e6b3          	or	a3,a3,s0
   200a0:	00d986b3          	add	a3,s3,a3
   200a4:	02d12c23          	sw	a3,56(sp)
   200a8:	00e9b7b3          	sltu	a5,s3,a4
   200ac:	0136b6b3          	sltu	a3,a3,s3
   200b0:	00d7e7b3          	or	a5,a5,a3
   200b4:	016585b3          	add	a1,a1,s6
   200b8:	00b787b3          	add	a5,a5,a1
   200bc:	00100493          	li	s1,1
   200c0:	2f80006f          	j	203b8 <__subtf3+0x4dc>
   200c4:	00008737          	lui	a4,0x8
   200c8:	fff70713          	addi	a4,a4,-1 # 7fff <exit-0x8095>
   200cc:	00e88463          	beq	a7,a4,200d4 <__subtf3+0x1f8>
   200d0:	2a00106f          	j	21370 <__subtf3+0x1494>
   200d4:	02f12823          	sw	a5,48(sp)
   200d8:	43c0006f          	j	20514 <__subtf3+0x638>
   200dc:	00008737          	lui	a4,0x8
   200e0:	fff70713          	addi	a4,a4,-1 # 7fff <exit-0x8095>
   200e4:	16e49a63          	bne	s1,a4,20258 <__subtf3+0x37c>
   200e8:	02f12823          	sw	a5,48(sp)
   200ec:	03212a23          	sw	s2,52(sp)
   200f0:	03312c23          	sw	s3,56(sp)
   200f4:	03612e23          	sw	s6,60(sp)
   200f8:	03012783          	lw	a5,48(sp)
   200fc:	0077f713          	andi	a4,a5,7
   20100:	04070463          	beqz	a4,20148 <__subtf3+0x26c>
   20104:	00f7f713          	andi	a4,a5,15
   20108:	00400693          	li	a3,4
   2010c:	02d70e63          	beq	a4,a3,20148 <__subtf3+0x26c>
   20110:	03412703          	lw	a4,52(sp)
   20114:	00478793          	addi	a5,a5,4
   20118:	02f12823          	sw	a5,48(sp)
   2011c:	0047b793          	sltiu	a5,a5,4
   20120:	00f707b3          	add	a5,a4,a5
   20124:	02f12a23          	sw	a5,52(sp)
   20128:	00e7b7b3          	sltu	a5,a5,a4
   2012c:	03812703          	lw	a4,56(sp)
   20130:	00f707b3          	add	a5,a4,a5
   20134:	02f12c23          	sw	a5,56(sp)
   20138:	00e7b7b3          	sltu	a5,a5,a4
   2013c:	03c12703          	lw	a4,60(sp)
   20140:	00e787b3          	add	a5,a5,a4
   20144:	02f12e23          	sw	a5,60(sp)
   20148:	03c12783          	lw	a5,60(sp)
   2014c:	00c79713          	slli	a4,a5,0xc
   20150:	02075463          	bgez	a4,20178 <__subtf3+0x29c>
   20154:	00008737          	lui	a4,0x8
   20158:	00148493          	addi	s1,s1,1
   2015c:	fff70713          	addi	a4,a4,-1 # 7fff <exit-0x8095>
   20160:	00e49463          	bne	s1,a4,20168 <__subtf3+0x28c>
   20164:	1f80106f          	j	2135c <__subtf3+0x1480>
   20168:	fff80737          	lui	a4,0xfff80
   2016c:	fff70713          	addi	a4,a4,-1 # fff7ffff <__BSS_END__+0xfff5c2f3>
   20170:	00e7f7b3          	and	a5,a5,a4
   20174:	02f12e23          	sw	a5,60(sp)
   20178:	03010793          	addi	a5,sp,48
   2017c:	03c10613          	addi	a2,sp,60
   20180:	0007a703          	lw	a4,0(a5)
   20184:	0047a683          	lw	a3,4(a5)
   20188:	00478793          	addi	a5,a5,4
   2018c:	00375713          	srli	a4,a4,0x3
   20190:	01d69693          	slli	a3,a3,0x1d
   20194:	00d76733          	or	a4,a4,a3
   20198:	fee7ae23          	sw	a4,-4(a5)
   2019c:	fec792e3          	bne	a5,a2,20180 <__subtf3+0x2a4>
   201a0:	03c12703          	lw	a4,60(sp)
   201a4:	000086b7          	lui	a3,0x8
   201a8:	fff68793          	addi	a5,a3,-1 # 7fff <exit-0x8095>
   201ac:	00375713          	srli	a4,a4,0x3
   201b0:	02e12e23          	sw	a4,60(sp)
   201b4:	02f49a63          	bne	s1,a5,201e8 <__subtf3+0x30c>
   201b8:	03412603          	lw	a2,52(sp)
   201bc:	03012783          	lw	a5,48(sp)
   201c0:	00c7e7b3          	or	a5,a5,a2
   201c4:	03812603          	lw	a2,56(sp)
   201c8:	00c7e7b3          	or	a5,a5,a2
   201cc:	00e7e7b3          	or	a5,a5,a4
   201d0:	00078c63          	beqz	a5,201e8 <__subtf3+0x30c>
   201d4:	02d12e23          	sw	a3,60(sp)
   201d8:	02012c23          	sw	zero,56(sp)
   201dc:	02012a23          	sw	zero,52(sp)
   201e0:	02012823          	sw	zero,48(sp)
   201e4:	00000a93          	li	s5,0
   201e8:	03c12783          	lw	a5,60(sp)
   201ec:	01149493          	slli	s1,s1,0x11
   201f0:	0114d493          	srli	s1,s1,0x11
   201f4:	00f11623          	sh	a5,12(sp)
   201f8:	03012783          	lw	a5,48(sp)
   201fc:	00fa9a93          	slli	s5,s5,0xf
   20200:	009aeab3          	or	s5,s5,s1
   20204:	00fa2023          	sw	a5,0(s4)
   20208:	03412783          	lw	a5,52(sp)
   2020c:	01511723          	sh	s5,14(sp)
   20210:	06c12083          	lw	ra,108(sp)
   20214:	00fa2223          	sw	a5,4(s4)
   20218:	03812783          	lw	a5,56(sp)
   2021c:	06812403          	lw	s0,104(sp)
   20220:	06412483          	lw	s1,100(sp)
   20224:	00fa2423          	sw	a5,8(s4)
   20228:	00c12783          	lw	a5,12(sp)
   2022c:	06012903          	lw	s2,96(sp)
   20230:	05c12983          	lw	s3,92(sp)
   20234:	00fa2623          	sw	a5,12(s4)
   20238:	05412a83          	lw	s5,84(sp)
   2023c:	05012b03          	lw	s6,80(sp)
   20240:	04c12b83          	lw	s7,76(sp)
   20244:	04812c03          	lw	s8,72(sp)
   20248:	000a0513          	mv	a0,s4
   2024c:	05812a03          	lw	s4,88(sp)
   20250:	07010113          	addi	sp,sp,112
   20254:	00008067          	ret
   20258:	02c12703          	lw	a4,44(sp)
   2025c:	000806b7          	lui	a3,0x80
   20260:	00d76733          	or	a4,a4,a3
   20264:	02e12623          	sw	a4,44(sp)
   20268:	07400713          	li	a4,116
   2026c:	01175463          	bge	a4,a7,20274 <__subtf3+0x398>
   20270:	10c0106f          	j	2137c <__subtf3+0x14a0>
   20274:	00088613          	mv	a2,a7
   20278:	40565693          	srai	a3,a2,0x5
   2027c:	00030513          	mv	a0,t1
   20280:	01f67613          	andi	a2,a2,31
   20284:	00000713          	li	a4,0
   20288:	00000593          	li	a1,0
   2028c:	02d59c63          	bne	a1,a3,202c4 <__subtf3+0x3e8>
   20290:	00300593          	li	a1,3
   20294:	40d585b3          	sub	a1,a1,a3
   20298:	00269513          	slli	a0,a3,0x2
   2029c:	02061e63          	bnez	a2,202d8 <__subtf3+0x3fc>
   202a0:	00a308b3          	add	a7,t1,a0
   202a4:	0008a883          	lw	a7,0(a7)
   202a8:	00160613          	addi	a2,a2,1
   202ac:	00430313          	addi	t1,t1,4
   202b0:	ff132e23          	sw	a7,-4(t1)
   202b4:	fec5d6e3          	bge	a1,a2,202a0 <__subtf3+0x3c4>
   202b8:	00400613          	li	a2,4
   202bc:	40d606b3          	sub	a3,a2,a3
   202c0:	0600006f          	j	20320 <__subtf3+0x444>
   202c4:	00052883          	lw	a7,0(a0)
   202c8:	00158593          	addi	a1,a1,1
   202cc:	00450513          	addi	a0,a0,4
   202d0:	01176733          	or	a4,a4,a7
   202d4:	fb9ff06f          	j	2028c <__subtf3+0x3b0>
   202d8:	04050893          	addi	a7,a0,64
   202dc:	002888b3          	add	a7,a7,sp
   202e0:	fe08a883          	lw	a7,-32(a7)
   202e4:	02000e13          	li	t3,32
   202e8:	40ce0e33          	sub	t3,t3,a2
   202ec:	01c898b3          	sll	a7,a7,t3
   202f0:	01176733          	or	a4,a4,a7
   202f4:	00a80533          	add	a0,a6,a0
   202f8:	00000e93          	li	t4,0
   202fc:	14bec263          	blt	t4,a1,20440 <__subtf3+0x564>
   20300:	00400513          	li	a0,4
   20304:	40d506b3          	sub	a3,a0,a3
   20308:	02c12503          	lw	a0,44(sp)
   2030c:	00259593          	slli	a1,a1,0x2
   20310:	04058593          	addi	a1,a1,64
   20314:	002585b3          	add	a1,a1,sp
   20318:	00c55633          	srl	a2,a0,a2
   2031c:	fec5a023          	sw	a2,-32(a1)
   20320:	00400613          	li	a2,4
   20324:	40d60633          	sub	a2,a2,a3
   20328:	00261613          	slli	a2,a2,0x2
   2032c:	00269693          	slli	a3,a3,0x2
   20330:	00800593          	li	a1,8
   20334:	00d806b3          	add	a3,a6,a3
   20338:	00b66a63          	bltu	a2,a1,2034c <__subtf3+0x470>
   2033c:	0006a023          	sw	zero,0(a3) # 80000 <__BSS_END__+0x5c2f4>
   20340:	0006a223          	sw	zero,4(a3)
   20344:	ff860613          	addi	a2,a2,-8
   20348:	00868693          	addi	a3,a3,8
   2034c:	00400593          	li	a1,4
   20350:	00b66463          	bltu	a2,a1,20358 <__subtf3+0x47c>
   20354:	0006a023          	sw	zero,0(a3)
   20358:	02012683          	lw	a3,32(sp)
   2035c:	00e03733          	snez	a4,a4
   20360:	00d76733          	or	a4,a4,a3
   20364:	02412683          	lw	a3,36(sp)
   20368:	02e12023          	sw	a4,32(sp)
   2036c:	00e78733          	add	a4,a5,a4
   20370:	01268933          	add	s2,a3,s2
   20374:	02e12823          	sw	a4,48(sp)
   20378:	00f73733          	sltu	a4,a4,a5
   2037c:	02812783          	lw	a5,40(sp)
   20380:	00e90733          	add	a4,s2,a4
   20384:	02e12a23          	sw	a4,52(sp)
   20388:	00d936b3          	sltu	a3,s2,a3
   2038c:	01273733          	sltu	a4,a4,s2
   20390:	013789b3          	add	s3,a5,s3
   20394:	00e6e733          	or	a4,a3,a4
   20398:	00e98733          	add	a4,s3,a4
   2039c:	02e12c23          	sw	a4,56(sp)
   203a0:	00f9b7b3          	sltu	a5,s3,a5
   203a4:	01373733          	sltu	a4,a4,s3
   203a8:	00e7e7b3          	or	a5,a5,a4
   203ac:	02c12703          	lw	a4,44(sp)
   203b0:	00eb0733          	add	a4,s6,a4
   203b4:	00e787b3          	add	a5,a5,a4
   203b8:	02f12e23          	sw	a5,60(sp)
   203bc:	00c79713          	slli	a4,a5,0xc
   203c0:	d2075ce3          	bgez	a4,200f8 <__subtf3+0x21c>
   203c4:	03012683          	lw	a3,48(sp)
   203c8:	fff80737          	lui	a4,0xfff80
   203cc:	fff70713          	addi	a4,a4,-1 # fff7ffff <__BSS_END__+0xfff5c2f3>
   203d0:	00e7f7b3          	and	a5,a5,a4
   203d4:	02f12e23          	sw	a5,60(sp)
   203d8:	00148493          	addi	s1,s1,1
   203dc:	01f69693          	slli	a3,a3,0x1f
   203e0:	03010713          	addi	a4,sp,48
   203e4:	03c10513          	addi	a0,sp,60
   203e8:	00072603          	lw	a2,0(a4)
   203ec:	00472583          	lw	a1,4(a4)
   203f0:	00470713          	addi	a4,a4,4
   203f4:	00165613          	srli	a2,a2,0x1
   203f8:	01f59593          	slli	a1,a1,0x1f
   203fc:	00b66633          	or	a2,a2,a1
   20400:	fec72e23          	sw	a2,-4(a4)
   20404:	fee512e3          	bne	a0,a4,203e8 <__subtf3+0x50c>
   20408:	03012703          	lw	a4,48(sp)
   2040c:	0017d793          	srli	a5,a5,0x1
   20410:	02f12e23          	sw	a5,60(sp)
   20414:	00d037b3          	snez	a5,a3
   20418:	00f767b3          	or	a5,a4,a5
   2041c:	02f12823          	sw	a5,48(sp)
   20420:	000087b7          	lui	a5,0x8
   20424:	fff78793          	addi	a5,a5,-1 # 7fff <exit-0x8095>
   20428:	ccf498e3          	bne	s1,a5,200f8 <__subtf3+0x21c>
   2042c:	02012e23          	sw	zero,60(sp)
   20430:	02012c23          	sw	zero,56(sp)
   20434:	02012a23          	sw	zero,52(sp)
   20438:	02012823          	sw	zero,48(sp)
   2043c:	cbdff06f          	j	200f8 <__subtf3+0x21c>
   20440:	00052883          	lw	a7,0(a0)
   20444:	00452f03          	lw	t5,4(a0)
   20448:	00450513          	addi	a0,a0,4
   2044c:	00c8d8b3          	srl	a7,a7,a2
   20450:	01cf1f33          	sll	t5,t5,t3
   20454:	01e8e8b3          	or	a7,a7,t5
   20458:	01132023          	sw	a7,0(t1)
   2045c:	001e8e93          	addi	t4,t4,1
   20460:	00430313          	addi	t1,t1,4
   20464:	e99ff06f          	j	202fc <__subtf3+0x420>
   20468:	02412903          	lw	s2,36(sp)
   2046c:	02812983          	lw	s3,40(sp)
   20470:	02c12b03          	lw	s6,44(sp)
   20474:	28088063          	beqz	a7,206f4 <__subtf3+0x818>
   20478:	409b85b3          	sub	a1,s7,s1
   2047c:	0a049c63          	bnez	s1,20534 <__subtf3+0x658>
   20480:	01412683          	lw	a3,20(sp)
   20484:	01812703          	lw	a4,24(sp)
   20488:	01c12883          	lw	a7,28(sp)
   2048c:	00e6e833          	or	a6,a3,a4
   20490:	01186833          	or	a6,a6,a7
   20494:	00f86833          	or	a6,a6,a5
   20498:	00081e63          	bnez	a6,204b4 <__subtf3+0x5d8>
   2049c:	02812823          	sw	s0,48(sp)
   204a0:	03212a23          	sw	s2,52(sp)
   204a4:	03312c23          	sw	s3,56(sp)
   204a8:	03612e23          	sw	s6,60(sp)
   204ac:	00058493          	mv	s1,a1
   204b0:	c49ff06f          	j	200f8 <__subtf3+0x21c>
   204b4:	fff58813          	addi	a6,a1,-1
   204b8:	04081663          	bnez	a6,20504 <__subtf3+0x628>
   204bc:	00878433          	add	s0,a5,s0
   204c0:	01268933          	add	s2,a3,s2
   204c4:	02812823          	sw	s0,48(sp)
   204c8:	00f43433          	sltu	s0,s0,a5
   204cc:	00890433          	add	s0,s2,s0
   204d0:	02812a23          	sw	s0,52(sp)
   204d4:	00d936b3          	sltu	a3,s2,a3
   204d8:	01243433          	sltu	s0,s0,s2
   204dc:	013709b3          	add	s3,a4,s3
   204e0:	0086e6b3          	or	a3,a3,s0
   204e4:	00d986b3          	add	a3,s3,a3
   204e8:	00e9b7b3          	sltu	a5,s3,a4
   204ec:	02d12c23          	sw	a3,56(sp)
   204f0:	0136b6b3          	sltu	a3,a3,s3
   204f4:	00d7e7b3          	or	a5,a5,a3
   204f8:	01688733          	add	a4,a7,s6
   204fc:	00e787b3          	add	a5,a5,a4
   20500:	bbdff06f          	j	200bc <__subtf3+0x1e0>
   20504:	000087b7          	lui	a5,0x8
   20508:	fff78793          	addi	a5,a5,-1 # 7fff <exit-0x8095>
   2050c:	68f592e3          	bne	a1,a5,21390 <__subtf3+0x14b4>
   20510:	02812823          	sw	s0,48(sp)
   20514:	03212a23          	sw	s2,52(sp)
   20518:	03312c23          	sw	s3,56(sp)
   2051c:	03612e23          	sw	s6,60(sp)
   20520:	000084b7          	lui	s1,0x8
   20524:	fff48493          	addi	s1,s1,-1 # 7fff <exit-0x8095>
   20528:	bd1ff06f          	j	200f8 <__subtf3+0x21c>
   2052c:	00078413          	mv	s0,a5
   20530:	fe1ff06f          	j	20510 <__subtf3+0x634>
   20534:	000087b7          	lui	a5,0x8
   20538:	fff78793          	addi	a5,a5,-1 # 7fff <exit-0x8095>
   2053c:	fcfb8ae3          	beq	s7,a5,20510 <__subtf3+0x634>
   20540:	01c12783          	lw	a5,28(sp)
   20544:	00080737          	lui	a4,0x80
   20548:	00e7e7b3          	or	a5,a5,a4
   2054c:	00f12e23          	sw	a5,28(sp)
   20550:	07400793          	li	a5,116
   20554:	64b7c2e3          	blt	a5,a1,21398 <__subtf3+0x14bc>
   20558:	00058813          	mv	a6,a1
   2055c:	41f85713          	srai	a4,a6,0x1f
   20560:	01f77713          	andi	a4,a4,31
   20564:	01070733          	add	a4,a4,a6
   20568:	40575713          	srai	a4,a4,0x5
   2056c:	00060693          	mv	a3,a2
   20570:	00000493          	li	s1,0
   20574:	00000793          	li	a5,0
   20578:	02e7ce63          	blt	a5,a4,205b4 <__subtf3+0x6d8>
   2057c:	00300793          	li	a5,3
   20580:	01f87893          	andi	a7,a6,31
   20584:	40e787b3          	sub	a5,a5,a4
   20588:	00271593          	slli	a1,a4,0x2
   2058c:	02089e63          	bnez	a7,205c8 <__subtf3+0x6ec>
   20590:	00b606b3          	add	a3,a2,a1
   20594:	0006a683          	lw	a3,0(a3)
   20598:	00188893          	addi	a7,a7,1
   2059c:	00460613          	addi	a2,a2,4
   205a0:	fed62e23          	sw	a3,-4(a2)
   205a4:	ff17d6e3          	bge	a5,a7,20590 <__subtf3+0x6b4>
   205a8:	00400793          	li	a5,4
   205ac:	40e78733          	sub	a4,a5,a4
   205b0:	0900006f          	j	20640 <__subtf3+0x764>
   205b4:	0006a583          	lw	a1,0(a3)
   205b8:	00178793          	addi	a5,a5,1
   205bc:	00468693          	addi	a3,a3,4
   205c0:	00b4e4b3          	or	s1,s1,a1
   205c4:	fb5ff06f          	j	20578 <__subtf3+0x69c>
   205c8:	800006b7          	lui	a3,0x80000
   205cc:	01f68693          	addi	a3,a3,31 # 8000001f <__BSS_END__+0x7ffdc313>
   205d0:	00d876b3          	and	a3,a6,a3
   205d4:	0006d863          	bgez	a3,205e4 <__subtf3+0x708>
   205d8:	fff68693          	addi	a3,a3,-1
   205dc:	fe06e693          	ori	a3,a3,-32
   205e0:	00168693          	addi	a3,a3,1
   205e4:	02000813          	li	a6,32
   205e8:	40d80833          	sub	a6,a6,a3
   205ec:	00070693          	mv	a3,a4
   205f0:	00075463          	bgez	a4,205f8 <__subtf3+0x71c>
   205f4:	00000693          	li	a3,0
   205f8:	00269693          	slli	a3,a3,0x2
   205fc:	04068693          	addi	a3,a3,64
   20600:	002686b3          	add	a3,a3,sp
   20604:	fd06a683          	lw	a3,-48(a3)
   20608:	00000313          	li	t1,0
   2060c:	010696b3          	sll	a3,a3,a6
   20610:	00d4e4b3          	or	s1,s1,a3
   20614:	00b506b3          	add	a3,a0,a1
   20618:	00468693          	addi	a3,a3,4
   2061c:	0af34a63          	blt	t1,a5,206d0 <__subtf3+0x7f4>
   20620:	00400693          	li	a3,4
   20624:	40e68733          	sub	a4,a3,a4
   20628:	01c12683          	lw	a3,28(sp)
   2062c:	00279793          	slli	a5,a5,0x2
   20630:	04078793          	addi	a5,a5,64
   20634:	002787b3          	add	a5,a5,sp
   20638:	0116d6b3          	srl	a3,a3,a7
   2063c:	fcd7a823          	sw	a3,-48(a5)
   20640:	00572793          	slti	a5,a4,5
   20644:	00000613          	li	a2,0
   20648:	00078863          	beqz	a5,20658 <__subtf3+0x77c>
   2064c:	00400613          	li	a2,4
   20650:	40e60633          	sub	a2,a2,a4
   20654:	00261613          	slli	a2,a2,0x2
   20658:	00271713          	slli	a4,a4,0x2
   2065c:	00e50533          	add	a0,a0,a4
   20660:	00000593          	li	a1,0
   20664:	c68f00ef          	jal	ra,10acc <memset>
   20668:	01012703          	lw	a4,16(sp)
   2066c:	009037b3          	snez	a5,s1
   20670:	00e7e7b3          	or	a5,a5,a4
   20674:	01412683          	lw	a3,20(sp)
   20678:	00f12823          	sw	a5,16(sp)
   2067c:	00f407b3          	add	a5,s0,a5
   20680:	01268933          	add	s2,a3,s2
   20684:	02f12823          	sw	a5,48(sp)
   20688:	0087b7b3          	sltu	a5,a5,s0
   2068c:	00f90733          	add	a4,s2,a5
   20690:	01812783          	lw	a5,24(sp)
   20694:	02e12a23          	sw	a4,52(sp)
   20698:	00d936b3          	sltu	a3,s2,a3
   2069c:	01273733          	sltu	a4,a4,s2
   206a0:	013789b3          	add	s3,a5,s3
   206a4:	00e6e733          	or	a4,a3,a4
   206a8:	00e98733          	add	a4,s3,a4
   206ac:	02e12c23          	sw	a4,56(sp)
   206b0:	00f9b7b3          	sltu	a5,s3,a5
   206b4:	01373733          	sltu	a4,a4,s3
   206b8:	00e7e7b3          	or	a5,a5,a4
   206bc:	01c12703          	lw	a4,28(sp)
   206c0:	000b8493          	mv	s1,s7
   206c4:	00eb0733          	add	a4,s6,a4
   206c8:	00e787b3          	add	a5,a5,a4
   206cc:	cedff06f          	j	203b8 <__subtf3+0x4dc>
   206d0:	ffc6a583          	lw	a1,-4(a3)
   206d4:	0006ae03          	lw	t3,0(a3)
   206d8:	00130313          	addi	t1,t1,1
   206dc:	0115d5b3          	srl	a1,a1,a7
   206e0:	010e1e33          	sll	t3,t3,a6
   206e4:	01c5e5b3          	or	a1,a1,t3
   206e8:	00b62023          	sw	a1,0(a2)
   206ec:	00460613          	addi	a2,a2,4
   206f0:	f29ff06f          	j	20618 <__subtf3+0x73c>
   206f4:	00148813          	addi	a6,s1,1
   206f8:	01181893          	slli	a7,a6,0x11
   206fc:	0128d893          	srli	a7,a7,0x12
   20700:	01412683          	lw	a3,20(sp)
   20704:	01812703          	lw	a4,24(sp)
   20708:	01c12603          	lw	a2,28(sp)
   2070c:	03010593          	addi	a1,sp,48
   20710:	03c10513          	addi	a0,sp,60
   20714:	10089e63          	bnez	a7,20830 <__subtf3+0x954>
   20718:	00e6e833          	or	a6,a3,a4
   2071c:	00c86833          	or	a6,a6,a2
   20720:	00f86833          	or	a6,a6,a5
   20724:	0a049863          	bnez	s1,207d4 <__subtf3+0x8f8>
   20728:	00081e63          	bnez	a6,20744 <__subtf3+0x868>
   2072c:	02812823          	sw	s0,48(sp)
   20730:	03212a23          	sw	s2,52(sp)
   20734:	03312c23          	sw	s3,56(sp)
   20738:	03612e23          	sw	s6,60(sp)
   2073c:	00000493          	li	s1,0
   20740:	9b9ff06f          	j	200f8 <__subtf3+0x21c>
   20744:	013965b3          	or	a1,s2,s3
   20748:	0165e5b3          	or	a1,a1,s6
   2074c:	0085e5b3          	or	a1,a1,s0
   20750:	00059c63          	bnez	a1,20768 <__subtf3+0x88c>
   20754:	02f12823          	sw	a5,48(sp)
   20758:	02d12a23          	sw	a3,52(sp)
   2075c:	02e12c23          	sw	a4,56(sp)
   20760:	02c12e23          	sw	a2,60(sp)
   20764:	995ff06f          	j	200f8 <__subtf3+0x21c>
   20768:	00878433          	add	s0,a5,s0
   2076c:	01268933          	add	s2,a3,s2
   20770:	02812823          	sw	s0,48(sp)
   20774:	00f43433          	sltu	s0,s0,a5
   20778:	00890433          	add	s0,s2,s0
   2077c:	02812a23          	sw	s0,52(sp)
   20780:	00d936b3          	sltu	a3,s2,a3
   20784:	01243433          	sltu	s0,s0,s2
   20788:	013709b3          	add	s3,a4,s3
   2078c:	0086e6b3          	or	a3,a3,s0
   20790:	00d986b3          	add	a3,s3,a3
   20794:	02d12c23          	sw	a3,56(sp)
   20798:	00e9b733          	sltu	a4,s3,a4
   2079c:	0136b6b3          	sltu	a3,a3,s3
   207a0:	00d76733          	or	a4,a4,a3
   207a4:	01660633          	add	a2,a2,s6
   207a8:	00c70733          	add	a4,a4,a2
   207ac:	00c71793          	slli	a5,a4,0xc
   207b0:	0007c663          	bltz	a5,207bc <__subtf3+0x8e0>
   207b4:	02e12e23          	sw	a4,60(sp)
   207b8:	941ff06f          	j	200f8 <__subtf3+0x21c>
   207bc:	fff807b7          	lui	a5,0xfff80
   207c0:	fff78793          	addi	a5,a5,-1 # fff7ffff <__BSS_END__+0xfff5c2f3>
   207c4:	00f77733          	and	a4,a4,a5
   207c8:	02e12e23          	sw	a4,60(sp)
   207cc:	00100493          	li	s1,1
   207d0:	929ff06f          	j	200f8 <__subtf3+0x21c>
   207d4:	1a080663          	beqz	a6,20980 <__subtf3+0xaa4>
   207d8:	01396933          	or	s2,s2,s3
   207dc:	01696933          	or	s2,s2,s6
   207e0:	00896933          	or	s2,s2,s0
   207e4:	1a090263          	beqz	s2,20988 <__subtf3+0xaac>
   207e8:	000087b7          	lui	a5,0x8
   207ec:	02f12e23          	sw	a5,60(sp)
   207f0:	02012c23          	sw	zero,56(sp)
   207f4:	02012a23          	sw	zero,52(sp)
   207f8:	02012823          	sw	zero,48(sp)
   207fc:	00050793          	mv	a5,a0
   20800:	0007a703          	lw	a4,0(a5) # 8000 <exit-0x8094>
   20804:	ffc7a683          	lw	a3,-4(a5)
   20808:	ffc78793          	addi	a5,a5,-4
   2080c:	00371713          	slli	a4,a4,0x3
   20810:	01d6d693          	srli	a3,a3,0x1d
   20814:	00d76733          	or	a4,a4,a3
   20818:	00e7a223          	sw	a4,4(a5)
   2081c:	fef592e3          	bne	a1,a5,20800 <__subtf3+0x924>
   20820:	000084b7          	lui	s1,0x8
   20824:	fff48493          	addi	s1,s1,-1 # 7fff <exit-0x8095>
   20828:	00000a93          	li	s5,0
   2082c:	8cdff06f          	j	200f8 <__subtf3+0x21c>
   20830:	00878433          	add	s0,a5,s0
   20834:	01268933          	add	s2,a3,s2
   20838:	02812823          	sw	s0,48(sp)
   2083c:	00f43433          	sltu	s0,s0,a5
   20840:	00890433          	add	s0,s2,s0
   20844:	02812a23          	sw	s0,52(sp)
   20848:	00d936b3          	sltu	a3,s2,a3
   2084c:	01243433          	sltu	s0,s0,s2
   20850:	013709b3          	add	s3,a4,s3
   20854:	0086e6b3          	or	a3,a3,s0
   20858:	00d986b3          	add	a3,s3,a3
   2085c:	02d12c23          	sw	a3,56(sp)
   20860:	00e9b733          	sltu	a4,s3,a4
   20864:	0136b6b3          	sltu	a3,a3,s3
   20868:	00d76733          	or	a4,a4,a3
   2086c:	01660633          	add	a2,a2,s6
   20870:	00c70733          	add	a4,a4,a2
   20874:	02e12e23          	sw	a4,60(sp)
   20878:	00058793          	mv	a5,a1
   2087c:	0007a683          	lw	a3,0(a5)
   20880:	0047a603          	lw	a2,4(a5)
   20884:	00478793          	addi	a5,a5,4
   20888:	0016d693          	srli	a3,a3,0x1
   2088c:	01f61613          	slli	a2,a2,0x1f
   20890:	00c6e6b3          	or	a3,a3,a2
   20894:	fed7ae23          	sw	a3,-4(a5)
   20898:	fef512e3          	bne	a0,a5,2087c <__subtf3+0x9a0>
   2089c:	000087b7          	lui	a5,0x8
   208a0:	fff78793          	addi	a5,a5,-1 # 7fff <exit-0x8095>
   208a4:	00f80a63          	beq	a6,a5,208b8 <__subtf3+0x9dc>
   208a8:	00175713          	srli	a4,a4,0x1
   208ac:	02e12e23          	sw	a4,60(sp)
   208b0:	00080493          	mv	s1,a6
   208b4:	845ff06f          	j	200f8 <__subtf3+0x21c>
   208b8:	02012e23          	sw	zero,60(sp)
   208bc:	02012c23          	sw	zero,56(sp)
   208c0:	02012a23          	sw	zero,52(sp)
   208c4:	02012823          	sw	zero,48(sp)
   208c8:	fe9ff06f          	j	208b0 <__subtf3+0x9d4>
   208cc:	29105a63          	blez	a7,20b60 <__subtf3+0xc84>
   208d0:	01412903          	lw	s2,20(sp)
   208d4:	01812983          	lw	s3,24(sp)
   208d8:	01c12b03          	lw	s6,28(sp)
   208dc:	0a0b9e63          	bnez	s7,20998 <__subtf3+0xabc>
   208e0:	02412e03          	lw	t3,36(sp)
   208e4:	02812503          	lw	a0,40(sp)
   208e8:	02c12683          	lw	a3,44(sp)
   208ec:	00ae6733          	or	a4,t3,a0
   208f0:	00d76733          	or	a4,a4,a3
   208f4:	00876733          	or	a4,a4,s0
   208f8:	f6070063          	beqz	a4,20058 <__subtf3+0x17c>
   208fc:	fff88e93          	addi	t4,a7,-1
   20900:	040e9c63          	bnez	t4,20958 <__subtf3+0xa7c>
   20904:	40878733          	sub	a4,a5,s0
   20908:	41c90633          	sub	a2,s2,t3
   2090c:	00e7b5b3          	sltu	a1,a5,a4
   20910:	00c93833          	sltu	a6,s2,a2
   20914:	40b60633          	sub	a2,a2,a1
   20918:	00000593          	li	a1,0
   2091c:	00e7f663          	bgeu	a5,a4,20928 <__subtf3+0xa4c>
   20920:	412e0e33          	sub	t3,t3,s2
   20924:	001e3593          	seqz	a1,t3
   20928:	0105e7b3          	or	a5,a1,a6
   2092c:	40a985b3          	sub	a1,s3,a0
   20930:	00b9b833          	sltu	a6,s3,a1
   20934:	40f585b3          	sub	a1,a1,a5
   20938:	00078663          	beqz	a5,20944 <__subtf3+0xa68>
   2093c:	41350533          	sub	a0,a0,s3
   20940:	00153e93          	seqz	t4,a0
   20944:	40db07b3          	sub	a5,s6,a3
   20948:	010ee6b3          	or	a3,t4,a6
   2094c:	40d787b3          	sub	a5,a5,a3
   20950:	00100493          	li	s1,1
   20954:	1b80006f          	j	20b0c <__subtf3+0xc30>
   20958:	00008737          	lui	a4,0x8
   2095c:	fff70713          	addi	a4,a4,-1 # 7fff <exit-0x8095>
   20960:	f6e88a63          	beq	a7,a4,200d4 <__subtf3+0x1f8>
   20964:	07400713          	li	a4,116
   20968:	05d75c63          	bge	a4,t4,209c0 <__subtf3+0xae4>
   2096c:	02012623          	sw	zero,44(sp)
   20970:	02012423          	sw	zero,40(sp)
   20974:	02012223          	sw	zero,36(sp)
   20978:	00100713          	li	a4,1
   2097c:	1300006f          	j	20aac <__subtf3+0xbd0>
   20980:	00040793          	mv	a5,s0
   20984:	f50ff06f          	j	200d4 <__subtf3+0x1f8>
   20988:	00068913          	mv	s2,a3
   2098c:	00070993          	mv	s3,a4
   20990:	00060b13          	mv	s6,a2
   20994:	f40ff06f          	j	200d4 <__subtf3+0x1f8>
   20998:	00008737          	lui	a4,0x8
   2099c:	fff70713          	addi	a4,a4,-1 # 7fff <exit-0x8095>
   209a0:	b8e486e3          	beq	s1,a4,2052c <__subtf3+0x650>
   209a4:	02c12703          	lw	a4,44(sp)
   209a8:	000806b7          	lui	a3,0x80
   209ac:	00d76733          	or	a4,a4,a3
   209b0:	02e12623          	sw	a4,44(sp)
   209b4:	07400713          	li	a4,116
   209b8:	fb174ae3          	blt	a4,a7,2096c <__subtf3+0xa90>
   209bc:	00088e93          	mv	t4,a7
   209c0:	405ed693          	srai	a3,t4,0x5
   209c4:	00030593          	mv	a1,t1
   209c8:	01fefe93          	andi	t4,t4,31
   209cc:	00000713          	li	a4,0
   209d0:	00000613          	li	a2,0
   209d4:	02d61c63          	bne	a2,a3,20a0c <__subtf3+0xb30>
   209d8:	00300613          	li	a2,3
   209dc:	40d60633          	sub	a2,a2,a3
   209e0:	00269593          	slli	a1,a3,0x2
   209e4:	020e9e63          	bnez	t4,20a20 <__subtf3+0xb44>
   209e8:	00b30533          	add	a0,t1,a1
   209ec:	00052503          	lw	a0,0(a0)
   209f0:	001e8e93          	addi	t4,t4,1
   209f4:	00430313          	addi	t1,t1,4
   209f8:	fea32e23          	sw	a0,-4(t1)
   209fc:	ffd656e3          	bge	a2,t4,209e8 <__subtf3+0xb0c>
   20a00:	00400613          	li	a2,4
   20a04:	40d606b3          	sub	a3,a2,a3
   20a08:	0600006f          	j	20a68 <__subtf3+0xb8c>
   20a0c:	0005a503          	lw	a0,0(a1)
   20a10:	00160613          	addi	a2,a2,1
   20a14:	00458593          	addi	a1,a1,4
   20a18:	00a76733          	or	a4,a4,a0
   20a1c:	fb9ff06f          	j	209d4 <__subtf3+0xaf8>
   20a20:	04058513          	addi	a0,a1,64
   20a24:	00250533          	add	a0,a0,sp
   20a28:	fe052503          	lw	a0,-32(a0)
   20a2c:	02000893          	li	a7,32
   20a30:	41d888b3          	sub	a7,a7,t4
   20a34:	01151533          	sll	a0,a0,a7
   20a38:	00a76733          	or	a4,a4,a0
   20a3c:	00b805b3          	add	a1,a6,a1
   20a40:	00000e13          	li	t3,0
   20a44:	0ece4a63          	blt	t3,a2,20b38 <__subtf3+0xc5c>
   20a48:	00400593          	li	a1,4
   20a4c:	40d586b3          	sub	a3,a1,a3
   20a50:	02c12583          	lw	a1,44(sp)
   20a54:	00261613          	slli	a2,a2,0x2
   20a58:	04060613          	addi	a2,a2,64
   20a5c:	00260633          	add	a2,a2,sp
   20a60:	01d5d5b3          	srl	a1,a1,t4
   20a64:	feb62023          	sw	a1,-32(a2)
   20a68:	00400613          	li	a2,4
   20a6c:	40d60633          	sub	a2,a2,a3
   20a70:	00261613          	slli	a2,a2,0x2
   20a74:	00269693          	slli	a3,a3,0x2
   20a78:	00800593          	li	a1,8
   20a7c:	00d806b3          	add	a3,a6,a3
   20a80:	00b66a63          	bltu	a2,a1,20a94 <__subtf3+0xbb8>
   20a84:	0006a023          	sw	zero,0(a3) # 80000 <__BSS_END__+0x5c2f4>
   20a88:	0006a223          	sw	zero,4(a3)
   20a8c:	ff860613          	addi	a2,a2,-8
   20a90:	00868693          	addi	a3,a3,8
   20a94:	00400593          	li	a1,4
   20a98:	00b66463          	bltu	a2,a1,20aa0 <__subtf3+0xbc4>
   20a9c:	0006a023          	sw	zero,0(a3)
   20aa0:	02012683          	lw	a3,32(sp)
   20aa4:	00e03733          	snez	a4,a4
   20aa8:	00d76733          	or	a4,a4,a3
   20aac:	02412583          	lw	a1,36(sp)
   20ab0:	02e12023          	sw	a4,32(sp)
   20ab4:	40e78733          	sub	a4,a5,a4
   20ab8:	40b90633          	sub	a2,s2,a1
   20abc:	00e7b6b3          	sltu	a3,a5,a4
   20ac0:	00c93533          	sltu	a0,s2,a2
   20ac4:	40d60633          	sub	a2,a2,a3
   20ac8:	00000693          	li	a3,0
   20acc:	00e7f663          	bgeu	a5,a4,20ad8 <__subtf3+0xbfc>
   20ad0:	412585b3          	sub	a1,a1,s2
   20ad4:	0015b693          	seqz	a3,a1
   20ad8:	00a6e7b3          	or	a5,a3,a0
   20adc:	02812503          	lw	a0,40(sp)
   20ae0:	00000693          	li	a3,0
   20ae4:	40a985b3          	sub	a1,s3,a0
   20ae8:	00b9b833          	sltu	a6,s3,a1
   20aec:	40f585b3          	sub	a1,a1,a5
   20af0:	00078663          	beqz	a5,20afc <__subtf3+0xc20>
   20af4:	41350533          	sub	a0,a0,s3
   20af8:	00153693          	seqz	a3,a0
   20afc:	02c12783          	lw	a5,44(sp)
   20b00:	0106e6b3          	or	a3,a3,a6
   20b04:	40fb07b3          	sub	a5,s6,a5
   20b08:	40d787b3          	sub	a5,a5,a3
   20b0c:	02e12823          	sw	a4,48(sp)
   20b10:	02f12e23          	sw	a5,60(sp)
   20b14:	02b12c23          	sw	a1,56(sp)
   20b18:	02c12a23          	sw	a2,52(sp)
   20b1c:	00c79713          	slli	a4,a5,0xc
   20b20:	dc075c63          	bgez	a4,200f8 <__subtf3+0x21c>
   20b24:	00080737          	lui	a4,0x80
   20b28:	fff70713          	addi	a4,a4,-1 # 7ffff <__BSS_END__+0x5c2f3>
   20b2c:	00e7f7b3          	and	a5,a5,a4
   20b30:	02f12e23          	sw	a5,60(sp)
   20b34:	58c0006f          	j	210c0 <__subtf3+0x11e4>
   20b38:	0005a503          	lw	a0,0(a1)
   20b3c:	0045af03          	lw	t5,4(a1)
   20b40:	00458593          	addi	a1,a1,4
   20b44:	01d55533          	srl	a0,a0,t4
   20b48:	011f1f33          	sll	t5,t5,a7
   20b4c:	01e56533          	or	a0,a0,t5
   20b50:	00a32023          	sw	a0,0(t1)
   20b54:	001e0e13          	addi	t3,t3,1
   20b58:	00430313          	addi	t1,t1,4
   20b5c:	ee9ff06f          	j	20a44 <__subtf3+0xb68>
   20b60:	02412c03          	lw	s8,36(sp)
   20b64:	02812983          	lw	s3,40(sp)
   20b68:	02c12b03          	lw	s6,44(sp)
   20b6c:	2a088263          	beqz	a7,20e10 <__subtf3+0xf34>
   20b70:	409b8333          	sub	t1,s7,s1
   20b74:	0a049e63          	bnez	s1,20c30 <__subtf3+0xd54>
   20b78:	01412583          	lw	a1,20(sp)
   20b7c:	01812803          	lw	a6,24(sp)
   20b80:	01c12683          	lw	a3,28(sp)
   20b84:	0105e8b3          	or	a7,a1,a6
   20b88:	00d8e8b3          	or	a7,a7,a3
   20b8c:	00f8e8b3          	or	a7,a7,a5
   20b90:	02089063          	bnez	a7,20bb0 <__subtf3+0xcd4>
   20b94:	02812823          	sw	s0,48(sp)
   20b98:	03812a23          	sw	s8,52(sp)
   20b9c:	03312c23          	sw	s3,56(sp)
   20ba0:	03612e23          	sw	s6,60(sp)
   20ba4:	00030493          	mv	s1,t1
   20ba8:	00090a93          	mv	s5,s2
   20bac:	d4cff06f          	j	200f8 <__subtf3+0x21c>
   20bb0:	fff30893          	addi	a7,t1,-1
   20bb4:	04089c63          	bnez	a7,20c0c <__subtf3+0xd30>
   20bb8:	40f40733          	sub	a4,s0,a5
   20bbc:	40bc0633          	sub	a2,s8,a1
   20bc0:	00e437b3          	sltu	a5,s0,a4
   20bc4:	00cc3533          	sltu	a0,s8,a2
   20bc8:	40f60633          	sub	a2,a2,a5
   20bcc:	00000793          	li	a5,0
   20bd0:	00e47663          	bgeu	s0,a4,20bdc <__subtf3+0xd00>
   20bd4:	418585b3          	sub	a1,a1,s8
   20bd8:	0015b793          	seqz	a5,a1
   20bdc:	00a7e7b3          	or	a5,a5,a0
   20be0:	410985b3          	sub	a1,s3,a6
   20be4:	00b9b533          	sltu	a0,s3,a1
   20be8:	40f585b3          	sub	a1,a1,a5
   20bec:	00078663          	beqz	a5,20bf8 <__subtf3+0xd1c>
   20bf0:	41380833          	sub	a6,a6,s3
   20bf4:	00183893          	seqz	a7,a6
   20bf8:	40db07b3          	sub	a5,s6,a3
   20bfc:	00a8e6b3          	or	a3,a7,a0
   20c00:	40d787b3          	sub	a5,a5,a3
   20c04:	00090a93          	mv	s5,s2
   20c08:	d49ff06f          	j	20950 <__subtf3+0xa74>
   20c0c:	000087b7          	lui	a5,0x8
   20c10:	fff78793          	addi	a5,a5,-1 # 7fff <exit-0x8095>
   20c14:	78f31c63          	bne	t1,a5,213ac <__subtf3+0x14d0>
   20c18:	02812823          	sw	s0,48(sp)
   20c1c:	03812a23          	sw	s8,52(sp)
   20c20:	03312c23          	sw	s3,56(sp)
   20c24:	03612e23          	sw	s6,60(sp)
   20c28:	00090a93          	mv	s5,s2
   20c2c:	8f5ff06f          	j	20520 <__subtf3+0x644>
   20c30:	000087b7          	lui	a5,0x8
   20c34:	fff78793          	addi	a5,a5,-1 # 7fff <exit-0x8095>
   20c38:	fefb80e3          	beq	s7,a5,20c18 <__subtf3+0xd3c>
   20c3c:	01c12783          	lw	a5,28(sp)
   20c40:	00080737          	lui	a4,0x80
   20c44:	00e7e7b3          	or	a5,a5,a4
   20c48:	00f12e23          	sw	a5,28(sp)
   20c4c:	07400793          	li	a5,116
   20c50:	1a67c663          	blt	a5,t1,20dfc <__subtf3+0xf20>
   20c54:	41f35793          	srai	a5,t1,0x1f
   20c58:	01f7f793          	andi	a5,a5,31
   20c5c:	006787b3          	add	a5,a5,t1
   20c60:	4057d793          	srai	a5,a5,0x5
   20c64:	00060693          	mv	a3,a2
   20c68:	00000493          	li	s1,0
   20c6c:	00000713          	li	a4,0
   20c70:	02f74e63          	blt	a4,a5,20cac <__subtf3+0xdd0>
   20c74:	00300713          	li	a4,3
   20c78:	01f37e13          	andi	t3,t1,31
   20c7c:	40f708b3          	sub	a7,a4,a5
   20c80:	00279693          	slli	a3,a5,0x2
   20c84:	020e1e63          	bnez	t3,20cc0 <__subtf3+0xde4>
   20c88:	00d60733          	add	a4,a2,a3
   20c8c:	00072703          	lw	a4,0(a4) # 80000 <__BSS_END__+0x5c2f4>
   20c90:	001e0e13          	addi	t3,t3,1
   20c94:	00460613          	addi	a2,a2,4
   20c98:	fee62e23          	sw	a4,-4(a2)
   20c9c:	ffc8d6e3          	bge	a7,t3,20c88 <__subtf3+0xdac>
   20ca0:	00400713          	li	a4,4
   20ca4:	40f707b3          	sub	a5,a4,a5
   20ca8:	0900006f          	j	20d38 <__subtf3+0xe5c>
   20cac:	0006a583          	lw	a1,0(a3)
   20cb0:	00170713          	addi	a4,a4,1
   20cb4:	00468693          	addi	a3,a3,4
   20cb8:	00b4e4b3          	or	s1,s1,a1
   20cbc:	fb5ff06f          	j	20c70 <__subtf3+0xd94>
   20cc0:	80000737          	lui	a4,0x80000
   20cc4:	01f70713          	addi	a4,a4,31 # 8000001f <__BSS_END__+0x7ffdc313>
   20cc8:	00e37733          	and	a4,t1,a4
   20ccc:	00075863          	bgez	a4,20cdc <__subtf3+0xe00>
   20cd0:	fff70713          	addi	a4,a4,-1
   20cd4:	fe076713          	ori	a4,a4,-32
   20cd8:	00170713          	addi	a4,a4,1
   20cdc:	02000813          	li	a6,32
   20ce0:	40e80833          	sub	a6,a6,a4
   20ce4:	00078593          	mv	a1,a5
   20ce8:	0007d463          	bgez	a5,20cf0 <__subtf3+0xe14>
   20cec:	00000593          	li	a1,0
   20cf0:	00259593          	slli	a1,a1,0x2
   20cf4:	04058713          	addi	a4,a1,64
   20cf8:	002705b3          	add	a1,a4,sp
   20cfc:	fd05a703          	lw	a4,-48(a1)
   20d00:	00d506b3          	add	a3,a0,a3
   20d04:	01071733          	sll	a4,a4,a6
   20d08:	00e4e4b3          	or	s1,s1,a4
   20d0c:	00000713          	li	a4,0
   20d10:	00468693          	addi	a3,a3,4
   20d14:	0d174263          	blt	a4,a7,20dd8 <__subtf3+0xefc>
   20d18:	01c12683          	lw	a3,28(sp)
   20d1c:	00400713          	li	a4,4
   20d20:	40f707b3          	sub	a5,a4,a5
   20d24:	00289713          	slli	a4,a7,0x2
   20d28:	04070713          	addi	a4,a4,64
   20d2c:	00270733          	add	a4,a4,sp
   20d30:	01c6d6b3          	srl	a3,a3,t3
   20d34:	fcd72823          	sw	a3,-48(a4)
   20d38:	0057a713          	slti	a4,a5,5
   20d3c:	00000613          	li	a2,0
   20d40:	00070863          	beqz	a4,20d50 <__subtf3+0xe74>
   20d44:	00400613          	li	a2,4
   20d48:	40f60633          	sub	a2,a2,a5
   20d4c:	00261613          	slli	a2,a2,0x2
   20d50:	00279793          	slli	a5,a5,0x2
   20d54:	00f50533          	add	a0,a0,a5
   20d58:	00000593          	li	a1,0
   20d5c:	d71ef0ef          	jal	ra,10acc <memset>
   20d60:	01012783          	lw	a5,16(sp)
   20d64:	00903733          	snez	a4,s1
   20d68:	00f76733          	or	a4,a4,a5
   20d6c:	01412683          	lw	a3,20(sp)
   20d70:	00e12823          	sw	a4,16(sp)
   20d74:	40e40733          	sub	a4,s0,a4
   20d78:	40dc0633          	sub	a2,s8,a3
   20d7c:	00e437b3          	sltu	a5,s0,a4
   20d80:	00cc35b3          	sltu	a1,s8,a2
   20d84:	40f60633          	sub	a2,a2,a5
   20d88:	00000793          	li	a5,0
   20d8c:	00e47663          	bgeu	s0,a4,20d98 <__subtf3+0xebc>
   20d90:	418686b3          	sub	a3,a3,s8
   20d94:	0016b793          	seqz	a5,a3
   20d98:	01812503          	lw	a0,24(sp)
   20d9c:	00b7e7b3          	or	a5,a5,a1
   20da0:	00000693          	li	a3,0
   20da4:	40a985b3          	sub	a1,s3,a0
   20da8:	00b9b833          	sltu	a6,s3,a1
   20dac:	40f585b3          	sub	a1,a1,a5
   20db0:	00078663          	beqz	a5,20dbc <__subtf3+0xee0>
   20db4:	41350533          	sub	a0,a0,s3
   20db8:	00153693          	seqz	a3,a0
   20dbc:	01c12783          	lw	a5,28(sp)
   20dc0:	0106e6b3          	or	a3,a3,a6
   20dc4:	000b8493          	mv	s1,s7
   20dc8:	40fb07b3          	sub	a5,s6,a5
   20dcc:	40d787b3          	sub	a5,a5,a3
   20dd0:	00090a93          	mv	s5,s2
   20dd4:	d39ff06f          	j	20b0c <__subtf3+0xc30>
   20dd8:	ffc6a583          	lw	a1,-4(a3)
   20ddc:	0006a303          	lw	t1,0(a3)
   20de0:	00170713          	addi	a4,a4,1
   20de4:	01c5d5b3          	srl	a1,a1,t3
   20de8:	01031333          	sll	t1,t1,a6
   20dec:	0065e5b3          	or	a1,a1,t1
   20df0:	00b62023          	sw	a1,0(a2)
   20df4:	00460613          	addi	a2,a2,4
   20df8:	f19ff06f          	j	20d10 <__subtf3+0xe34>
   20dfc:	00012e23          	sw	zero,28(sp)
   20e00:	00012c23          	sw	zero,24(sp)
   20e04:	00012a23          	sw	zero,20(sp)
   20e08:	00100713          	li	a4,1
   20e0c:	f61ff06f          	j	20d6c <__subtf3+0xe90>
   20e10:	00148593          	addi	a1,s1,1
   20e14:	01159513          	slli	a0,a1,0x11
   20e18:	01255513          	srli	a0,a0,0x12
   20e1c:	01412683          	lw	a3,20(sp)
   20e20:	01812603          	lw	a2,24(sp)
   20e24:	01c12703          	lw	a4,28(sp)
   20e28:	00008837          	lui	a6,0x8
   20e2c:	1c051e63          	bnez	a0,21008 <__subtf3+0x112c>
   20e30:	013c6533          	or	a0,s8,s3
   20e34:	00c6e5b3          	or	a1,a3,a2
   20e38:	01656533          	or	a0,a0,s6
   20e3c:	00e5e5b3          	or	a1,a1,a4
   20e40:	00856533          	or	a0,a0,s0
   20e44:	00f5e5b3          	or	a1,a1,a5
   20e48:	10049863          	bnez	s1,20f58 <__subtf3+0x107c>
   20e4c:	02059263          	bnez	a1,20e70 <__subtf3+0xf94>
   20e50:	02812823          	sw	s0,48(sp)
   20e54:	03812a23          	sw	s8,52(sp)
   20e58:	03312c23          	sw	s3,56(sp)
   20e5c:	03612e23          	sw	s6,60(sp)
   20e60:	00090a93          	mv	s5,s2
   20e64:	a8051a63          	bnez	a0,200f8 <__subtf3+0x21c>
   20e68:	00000493          	li	s1,0
   20e6c:	9bdff06f          	j	20828 <__subtf3+0x94c>
   20e70:	00051c63          	bnez	a0,20e88 <__subtf3+0xfac>
   20e74:	02f12823          	sw	a5,48(sp)
   20e78:	02d12a23          	sw	a3,52(sp)
   20e7c:	02c12c23          	sw	a2,56(sp)
   20e80:	02e12e23          	sw	a4,60(sp)
   20e84:	8b9ff06f          	j	2073c <__subtf3+0x860>
   20e88:	40878533          	sub	a0,a5,s0
   20e8c:	41868e33          	sub	t3,a3,s8
   20e90:	00a7b833          	sltu	a6,a5,a0
   20e94:	01c6b8b3          	sltu	a7,a3,t3
   20e98:	410e0833          	sub	a6,t3,a6
   20e9c:	00000593          	li	a1,0
   20ea0:	00a7f463          	bgeu	a5,a0,20ea8 <__subtf3+0xfcc>
   20ea4:	001e3593          	seqz	a1,t3
   20ea8:	0115e5b3          	or	a1,a1,a7
   20eac:	413608b3          	sub	a7,a2,s3
   20eb0:	01163f33          	sltu	t5,a2,a7
   20eb4:	40b88eb3          	sub	t4,a7,a1
   20eb8:	00000313          	li	t1,0
   20ebc:	00058463          	beqz	a1,20ec4 <__subtf3+0xfe8>
   20ec0:	0018b313          	seqz	t1,a7
   20ec4:	01e36333          	or	t1,t1,t5
   20ec8:	416705b3          	sub	a1,a4,s6
   20ecc:	406585b3          	sub	a1,a1,t1
   20ed0:	02b12e23          	sw	a1,60(sp)
   20ed4:	03d12c23          	sw	t4,56(sp)
   20ed8:	03012a23          	sw	a6,52(sp)
   20edc:	02a12823          	sw	a0,48(sp)
   20ee0:	00c59313          	slli	t1,a1,0xc
   20ee4:	06035063          	bgez	t1,20f44 <__subtf3+0x1068>
   20ee8:	40f407b3          	sub	a5,s0,a5
   20eec:	40dc06b3          	sub	a3,s8,a3
   20ef0:	00f435b3          	sltu	a1,s0,a5
   20ef4:	00dc3c33          	sltu	s8,s8,a3
   20ef8:	40b686b3          	sub	a3,a3,a1
   20efc:	00000593          	li	a1,0
   20f00:	00f47463          	bgeu	s0,a5,20f08 <__subtf3+0x102c>
   20f04:	001e3593          	seqz	a1,t3
   20f08:	40c98633          	sub	a2,s3,a2
   20f0c:	0185ec33          	or	s8,a1,s8
   20f10:	00c9b9b3          	sltu	s3,s3,a2
   20f14:	00000513          	li	a0,0
   20f18:	41860633          	sub	a2,a2,s8
   20f1c:	000c0463          	beqz	s8,20f24 <__subtf3+0x1048>
   20f20:	0018b513          	seqz	a0,a7
   20f24:	40eb0733          	sub	a4,s6,a4
   20f28:	01356533          	or	a0,a0,s3
   20f2c:	40a70733          	sub	a4,a4,a0
   20f30:	02e12e23          	sw	a4,60(sp)
   20f34:	02c12c23          	sw	a2,56(sp)
   20f38:	02d12a23          	sw	a3,52(sp)
   20f3c:	02f12823          	sw	a5,48(sp)
   20f40:	c69ff06f          	j	20ba8 <__subtf3+0xccc>
   20f44:	01056533          	or	a0,a0,a6
   20f48:	01d56533          	or	a0,a0,t4
   20f4c:	00b56533          	or	a0,a0,a1
   20f50:	f0050ce3          	beqz	a0,20e68 <__subtf3+0xf8c>
   20f54:	fe8ff06f          	j	2073c <__subtf3+0x860>
   20f58:	03010893          	addi	a7,sp,48
   20f5c:	04059e63          	bnez	a1,20fb8 <__subtf3+0x10dc>
   20f60:	02051e63          	bnez	a0,20f9c <__subtf3+0x10c0>
   20f64:	03012e23          	sw	a6,60(sp)
   20f68:	02012c23          	sw	zero,56(sp)
   20f6c:	02012a23          	sw	zero,52(sp)
   20f70:	02012823          	sw	zero,48(sp)
   20f74:	03c10793          	addi	a5,sp,60
   20f78:	0007a703          	lw	a4,0(a5)
   20f7c:	ffc7a683          	lw	a3,-4(a5)
   20f80:	ffc78793          	addi	a5,a5,-4
   20f84:	00371713          	slli	a4,a4,0x3
   20f88:	01d6d693          	srli	a3,a3,0x1d
   20f8c:	00d76733          	or	a4,a4,a3
   20f90:	00e7a223          	sw	a4,4(a5)
   20f94:	fef892e3          	bne	a7,a5,20f78 <__subtf3+0x109c>
   20f98:	889ff06f          	j	20820 <__subtf3+0x944>
   20f9c:	02812823          	sw	s0,48(sp)
   20fa0:	03812a23          	sw	s8,52(sp)
   20fa4:	03312c23          	sw	s3,56(sp)
   20fa8:	03612e23          	sw	s6,60(sp)
   20fac:	00090a93          	mv	s5,s2
   20fb0:	fff80493          	addi	s1,a6,-1 # 7fff <exit-0x8095>
   20fb4:	944ff06f          	j	200f8 <__subtf3+0x21c>
   20fb8:	00051c63          	bnez	a0,20fd0 <__subtf3+0x10f4>
   20fbc:	02f12823          	sw	a5,48(sp)
   20fc0:	02d12a23          	sw	a3,52(sp)
   20fc4:	02c12c23          	sw	a2,56(sp)
   20fc8:	02e12e23          	sw	a4,60(sp)
   20fcc:	fe5ff06f          	j	20fb0 <__subtf3+0x10d4>
   20fd0:	03012e23          	sw	a6,60(sp)
   20fd4:	02012c23          	sw	zero,56(sp)
   20fd8:	02012a23          	sw	zero,52(sp)
   20fdc:	02012823          	sw	zero,48(sp)
   20fe0:	03c10793          	addi	a5,sp,60
   20fe4:	0007a703          	lw	a4,0(a5)
   20fe8:	ffc7a683          	lw	a3,-4(a5)
   20fec:	ffc78793          	addi	a5,a5,-4
   20ff0:	00371713          	slli	a4,a4,0x3
   20ff4:	01d6d693          	srli	a3,a3,0x1d
   20ff8:	00d76733          	or	a4,a4,a3
   20ffc:	00e7a223          	sw	a4,4(a5)
   21000:	fef892e3          	bne	a7,a5,20fe4 <__subtf3+0x1108>
   21004:	81dff06f          	j	20820 <__subtf3+0x944>
   21008:	40878533          	sub	a0,a5,s0
   2100c:	41868eb3          	sub	t4,a3,s8
   21010:	00a7b833          	sltu	a6,a5,a0
   21014:	01d6b333          	sltu	t1,a3,t4
   21018:	410e8833          	sub	a6,t4,a6
   2101c:	00000593          	li	a1,0
   21020:	00a7f463          	bgeu	a5,a0,21028 <__subtf3+0x114c>
   21024:	001eb593          	seqz	a1,t4
   21028:	0065e5b3          	or	a1,a1,t1
   2102c:	41360333          	sub	t1,a2,s3
   21030:	00663fb3          	sltu	t6,a2,t1
   21034:	40b30f33          	sub	t5,t1,a1
   21038:	00000e13          	li	t3,0
   2103c:	00058463          	beqz	a1,21044 <__subtf3+0x1168>
   21040:	00133e13          	seqz	t3,t1
   21044:	01fe6e33          	or	t3,t3,t6
   21048:	416705b3          	sub	a1,a4,s6
   2104c:	41c585b3          	sub	a1,a1,t3
   21050:	02b12e23          	sw	a1,60(sp)
   21054:	03e12c23          	sw	t5,56(sp)
   21058:	03012a23          	sw	a6,52(sp)
   2105c:	02a12823          	sw	a0,48(sp)
   21060:	00c59e13          	slli	t3,a1,0xc
   21064:	160e5863          	bgez	t3,211d4 <__subtf3+0x12f8>
   21068:	40f407b3          	sub	a5,s0,a5
   2106c:	40dc06b3          	sub	a3,s8,a3
   21070:	00f435b3          	sltu	a1,s0,a5
   21074:	00dc3c33          	sltu	s8,s8,a3
   21078:	40b686b3          	sub	a3,a3,a1
   2107c:	00000593          	li	a1,0
   21080:	00f47463          	bgeu	s0,a5,21088 <__subtf3+0x11ac>
   21084:	001eb593          	seqz	a1,t4
   21088:	40c98633          	sub	a2,s3,a2
   2108c:	0185ec33          	or	s8,a1,s8
   21090:	00c9b9b3          	sltu	s3,s3,a2
   21094:	41860633          	sub	a2,a2,s8
   21098:	000c0463          	beqz	s8,210a0 <__subtf3+0x11c4>
   2109c:	00133893          	seqz	a7,t1
   210a0:	40eb05b3          	sub	a1,s6,a4
   210a4:	0138e733          	or	a4,a7,s3
   210a8:	40e58733          	sub	a4,a1,a4
   210ac:	02e12e23          	sw	a4,60(sp)
   210b0:	02c12c23          	sw	a2,56(sp)
   210b4:	02d12a23          	sw	a3,52(sp)
   210b8:	02f12823          	sw	a5,48(sp)
   210bc:	00090a93          	mv	s5,s2
   210c0:	03c12503          	lw	a0,60(sp)
   210c4:	12050263          	beqz	a0,211e8 <__subtf3+0x130c>
   210c8:	0ad000ef          	jal	ra,21974 <__clzsi2>
   210cc:	ff450513          	addi	a0,a0,-12
   210d0:	41f55793          	srai	a5,a0,0x1f
   210d4:	01f7f793          	andi	a5,a5,31
   210d8:	00a787b3          	add	a5,a5,a0
   210dc:	4057d793          	srai	a5,a5,0x5
   210e0:	01f57593          	andi	a1,a0,31
   210e4:	40f006b3          	neg	a3,a5
   210e8:	12058c63          	beqz	a1,21220 <__subtf3+0x1344>
   210ec:	80000737          	lui	a4,0x80000
   210f0:	01f70713          	addi	a4,a4,31 # 8000001f <__BSS_END__+0x7ffdc313>
   210f4:	00e57733          	and	a4,a0,a4
   210f8:	00075863          	bgez	a4,21108 <__subtf3+0x122c>
   210fc:	fff70713          	addi	a4,a4,-1
   21100:	fe076713          	ori	a4,a4,-32
   21104:	00170713          	addi	a4,a4,1
   21108:	00269693          	slli	a3,a3,0x2
   2110c:	02000813          	li	a6,32
   21110:	40e80833          	sub	a6,a6,a4
   21114:	03010313          	addi	t1,sp,48
   21118:	00c68713          	addi	a4,a3,12
   2111c:	00e30733          	add	a4,t1,a4
   21120:	40d006b3          	neg	a3,a3
   21124:	12e31463          	bne	t1,a4,2124c <__subtf3+0x1370>
   21128:	03012683          	lw	a3,48(sp)
   2112c:	fff78713          	addi	a4,a5,-1
   21130:	00279793          	slli	a5,a5,0x2
   21134:	04078793          	addi	a5,a5,64
   21138:	002787b3          	add	a5,a5,sp
   2113c:	00b696b3          	sll	a3,a3,a1
   21140:	fed7a823          	sw	a3,-16(a5)
   21144:	00170713          	addi	a4,a4,1
   21148:	03010793          	addi	a5,sp,48
   2114c:	00271713          	slli	a4,a4,0x2
   21150:	00800693          	li	a3,8
   21154:	00078893          	mv	a7,a5
   21158:	00d76a63          	bltu	a4,a3,2116c <__subtf3+0x1290>
   2115c:	02012823          	sw	zero,48(sp)
   21160:	0007a223          	sw	zero,4(a5)
   21164:	ff870713          	addi	a4,a4,-8
   21168:	03810793          	addi	a5,sp,56
   2116c:	00400693          	li	a3,4
   21170:	00d76463          	bltu	a4,a3,21178 <__subtf3+0x129c>
   21174:	0007a023          	sw	zero,0(a5)
   21178:	1c954463          	blt	a0,s1,21340 <__subtf3+0x1464>
   2117c:	40950533          	sub	a0,a0,s1
   21180:	00150513          	addi	a0,a0,1
   21184:	40555793          	srai	a5,a0,0x5
   21188:	00088613          	mv	a2,a7
   2118c:	01f57513          	andi	a0,a0,31
   21190:	00088693          	mv	a3,a7
   21194:	00000313          	li	t1,0
   21198:	00000713          	li	a4,0
   2119c:	0cf71a63          	bne	a4,a5,21270 <__subtf3+0x1394>
   211a0:	00300713          	li	a4,3
   211a4:	40f70733          	sub	a4,a4,a5
   211a8:	00279693          	slli	a3,a5,0x2
   211ac:	0c051c63          	bnez	a0,21284 <__subtf3+0x13a8>
   211b0:	00d605b3          	add	a1,a2,a3
   211b4:	0005a583          	lw	a1,0(a1)
   211b8:	00150513          	addi	a0,a0,1
   211bc:	00460613          	addi	a2,a2,4
   211c0:	feb62e23          	sw	a1,-4(a2)
   211c4:	fea756e3          	bge	a4,a0,211b0 <__subtf3+0x12d4>
   211c8:	00400713          	li	a4,4
   211cc:	40f707b3          	sub	a5,a4,a5
   211d0:	1000006f          	j	212d0 <__subtf3+0x13f4>
   211d4:	01056533          	or	a0,a0,a6
   211d8:	01e56533          	or	a0,a0,t5
   211dc:	00b56533          	or	a0,a0,a1
   211e0:	c80504e3          	beqz	a0,20e68 <__subtf3+0xf8c>
   211e4:	eddff06f          	j	210c0 <__subtf3+0x11e4>
   211e8:	03812503          	lw	a0,56(sp)
   211ec:	00050863          	beqz	a0,211fc <__subtf3+0x1320>
   211f0:	784000ef          	jal	ra,21974 <__clzsi2>
   211f4:	02050513          	addi	a0,a0,32
   211f8:	ed5ff06f          	j	210cc <__subtf3+0x11f0>
   211fc:	03412503          	lw	a0,52(sp)
   21200:	00050863          	beqz	a0,21210 <__subtf3+0x1334>
   21204:	770000ef          	jal	ra,21974 <__clzsi2>
   21208:	04050513          	addi	a0,a0,64
   2120c:	ec1ff06f          	j	210cc <__subtf3+0x11f0>
   21210:	03012503          	lw	a0,48(sp)
   21214:	760000ef          	jal	ra,21974 <__clzsi2>
   21218:	06050513          	addi	a0,a0,96
   2121c:	eb1ff06f          	j	210cc <__subtf3+0x11f0>
   21220:	03c10713          	addi	a4,sp,60
   21224:	00269693          	slli	a3,a3,0x2
   21228:	00300613          	li	a2,3
   2122c:	00d705b3          	add	a1,a4,a3
   21230:	0005a583          	lw	a1,0(a1)
   21234:	fff60613          	addi	a2,a2,-1
   21238:	ffc70713          	addi	a4,a4,-4
   2123c:	00b72223          	sw	a1,4(a4)
   21240:	fef656e3          	bge	a2,a5,2122c <__subtf3+0x1350>
   21244:	fff78713          	addi	a4,a5,-1
   21248:	efdff06f          	j	21144 <__subtf3+0x1268>
   2124c:	00072603          	lw	a2,0(a4)
   21250:	ffc72883          	lw	a7,-4(a4)
   21254:	00d70e33          	add	t3,a4,a3
   21258:	00b61633          	sll	a2,a2,a1
   2125c:	0108d8b3          	srl	a7,a7,a6
   21260:	01166633          	or	a2,a2,a7
   21264:	00ce2023          	sw	a2,0(t3)
   21268:	ffc70713          	addi	a4,a4,-4
   2126c:	eb9ff06f          	j	21124 <__subtf3+0x1248>
   21270:	0006a583          	lw	a1,0(a3)
   21274:	00170713          	addi	a4,a4,1
   21278:	00468693          	addi	a3,a3,4
   2127c:	00b36333          	or	t1,t1,a1
   21280:	f1dff06f          	j	2119c <__subtf3+0x12c0>
   21284:	04068593          	addi	a1,a3,64
   21288:	002585b3          	add	a1,a1,sp
   2128c:	ff05a583          	lw	a1,-16(a1)
   21290:	02000813          	li	a6,32
   21294:	40a80833          	sub	a6,a6,a0
   21298:	010595b3          	sll	a1,a1,a6
   2129c:	00b36333          	or	t1,t1,a1
   212a0:	00d886b3          	add	a3,a7,a3
   212a4:	00000e13          	li	t3,0
   212a8:	00468693          	addi	a3,a3,4
   212ac:	06ee4863          	blt	t3,a4,2131c <__subtf3+0x1440>
   212b0:	00400693          	li	a3,4
   212b4:	40f687b3          	sub	a5,a3,a5
   212b8:	03c12683          	lw	a3,60(sp)
   212bc:	00271713          	slli	a4,a4,0x2
   212c0:	04070713          	addi	a4,a4,64
   212c4:	00270733          	add	a4,a4,sp
   212c8:	00a6d533          	srl	a0,a3,a0
   212cc:	fea72823          	sw	a0,-16(a4)
   212d0:	00400713          	li	a4,4
   212d4:	40f70733          	sub	a4,a4,a5
   212d8:	00271713          	slli	a4,a4,0x2
   212dc:	00279793          	slli	a5,a5,0x2
   212e0:	00800693          	li	a3,8
   212e4:	00f887b3          	add	a5,a7,a5
   212e8:	00d76a63          	bltu	a4,a3,212fc <__subtf3+0x1420>
   212ec:	0007a023          	sw	zero,0(a5)
   212f0:	0007a223          	sw	zero,4(a5)
   212f4:	ff870713          	addi	a4,a4,-8
   212f8:	00878793          	addi	a5,a5,8
   212fc:	00400693          	li	a3,4
   21300:	00d76463          	bltu	a4,a3,21308 <__subtf3+0x142c>
   21304:	0007a023          	sw	zero,0(a5)
   21308:	03012703          	lw	a4,48(sp)
   2130c:	006037b3          	snez	a5,t1
   21310:	00f767b3          	or	a5,a4,a5
   21314:	02f12823          	sw	a5,48(sp)
   21318:	c24ff06f          	j	2073c <__subtf3+0x860>
   2131c:	ffc6a583          	lw	a1,-4(a3)
   21320:	0006ae83          	lw	t4,0(a3)
   21324:	001e0e13          	addi	t3,t3,1
   21328:	00a5d5b3          	srl	a1,a1,a0
   2132c:	010e9eb3          	sll	t4,t4,a6
   21330:	01d5e5b3          	or	a1,a1,t4
   21334:	00b62023          	sw	a1,0(a2)
   21338:	00460613          	addi	a2,a2,4
   2133c:	f6dff06f          	j	212a8 <__subtf3+0x13cc>
   21340:	03c12783          	lw	a5,60(sp)
   21344:	fff80737          	lui	a4,0xfff80
   21348:	fff70713          	addi	a4,a4,-1 # fff7ffff <__BSS_END__+0xfff5c2f3>
   2134c:	00e7f7b3          	and	a5,a5,a4
   21350:	40a484b3          	sub	s1,s1,a0
   21354:	02f12e23          	sw	a5,60(sp)
   21358:	da1fe06f          	j	200f8 <__subtf3+0x21c>
   2135c:	02012e23          	sw	zero,60(sp)
   21360:	02012c23          	sw	zero,56(sp)
   21364:	02012a23          	sw	zero,52(sp)
   21368:	02012823          	sw	zero,48(sp)
   2136c:	e0dfe06f          	j	20178 <__subtf3+0x29c>
   21370:	07400713          	li	a4,116
   21374:	00c74463          	blt	a4,a2,2137c <__subtf3+0x14a0>
   21378:	f01fe06f          	j	20278 <__subtf3+0x39c>
   2137c:	02012623          	sw	zero,44(sp)
   21380:	02012423          	sw	zero,40(sp)
   21384:	02012223          	sw	zero,36(sp)
   21388:	00100713          	li	a4,1
   2138c:	fd9fe06f          	j	20364 <__subtf3+0x488>
   21390:	07400793          	li	a5,116
   21394:	9d07d463          	bge	a5,a6,2055c <__subtf3+0x680>
   21398:	00012e23          	sw	zero,28(sp)
   2139c:	00012c23          	sw	zero,24(sp)
   213a0:	00012a23          	sw	zero,20(sp)
   213a4:	00100793          	li	a5,1
   213a8:	accff06f          	j	20674 <__subtf3+0x798>
   213ac:	07400793          	li	a5,116
   213b0:	a517c6e3          	blt	a5,a7,20dfc <__subtf3+0xf20>
   213b4:	00088313          	mv	t1,a7
   213b8:	89dff06f          	j	20c54 <__subtf3+0xd78>

000213bc <__unordtf2>:
   213bc:	00052703          	lw	a4,0(a0)
   213c0:	00452e83          	lw	t4,4(a0)
   213c4:	00852e03          	lw	t3,8(a0)
   213c8:	00c52503          	lw	a0,12(a0)
   213cc:	00c5a603          	lw	a2,12(a1)
   213d0:	000086b7          	lui	a3,0x8
   213d4:	fff68693          	addi	a3,a3,-1 # 7fff <exit-0x8095>
   213d8:	01055813          	srli	a6,a0,0x10
   213dc:	0005a783          	lw	a5,0(a1)
   213e0:	0045a303          	lw	t1,4(a1)
   213e4:	0085a883          	lw	a7,8(a1)
   213e8:	00d87833          	and	a6,a6,a3
   213ec:	01065593          	srli	a1,a2,0x10
   213f0:	ff010113          	addi	sp,sp,-16
   213f4:	00d5f5b3          	and	a1,a1,a3
   213f8:	02d81063          	bne	a6,a3,21418 <__unordtf2+0x5c>
   213fc:	01d76733          	or	a4,a4,t4
   21400:	01051513          	slli	a0,a0,0x10
   21404:	01055513          	srli	a0,a0,0x10
   21408:	01c76733          	or	a4,a4,t3
   2140c:	00a76733          	or	a4,a4,a0
   21410:	00100513          	li	a0,1
   21414:	02071663          	bnez	a4,21440 <__unordtf2+0x84>
   21418:	00008737          	lui	a4,0x8
   2141c:	fff70713          	addi	a4,a4,-1 # 7fff <exit-0x8095>
   21420:	00000513          	li	a0,0
   21424:	00e59e63          	bne	a1,a4,21440 <__unordtf2+0x84>
   21428:	0067e533          	or	a0,a5,t1
   2142c:	01061613          	slli	a2,a2,0x10
   21430:	01156533          	or	a0,a0,a7
   21434:	01065613          	srli	a2,a2,0x10
   21438:	00c56533          	or	a0,a0,a2
   2143c:	00a03533          	snez	a0,a0
   21440:	01010113          	addi	sp,sp,16
   21444:	00008067          	ret

00021448 <__fixtfsi>:
   21448:	00052703          	lw	a4,0(a0)
   2144c:	00452683          	lw	a3,4(a0)
   21450:	00c52783          	lw	a5,12(a0)
   21454:	00852583          	lw	a1,8(a0)
   21458:	fe010113          	addi	sp,sp,-32
   2145c:	00e12023          	sw	a4,0(sp)
   21460:	00d12223          	sw	a3,4(sp)
   21464:	00e12823          	sw	a4,16(sp)
   21468:	00179693          	slli	a3,a5,0x1
   2146c:	00004737          	lui	a4,0x4
   21470:	00b12423          	sw	a1,8(sp)
   21474:	00f12623          	sw	a5,12(sp)
   21478:	00b12c23          	sw	a1,24(sp)
   2147c:	0116d693          	srli	a3,a3,0x11
   21480:	ffe70713          	addi	a4,a4,-2 # 3ffe <exit-0xc096>
   21484:	00000513          	li	a0,0
   21488:	02d75063          	bge	a4,a3,214a8 <__fixtfsi+0x60>
   2148c:	00004737          	lui	a4,0x4
   21490:	01d70713          	addi	a4,a4,29 # 401d <exit-0xc077>
   21494:	01f7d813          	srli	a6,a5,0x1f
   21498:	00d75c63          	bge	a4,a3,214b0 <__fixtfsi+0x68>
   2149c:	80000537          	lui	a0,0x80000
   214a0:	fff50513          	addi	a0,a0,-1 # 7fffffff <__BSS_END__+0x7ffdc2f3>
   214a4:	00a80533          	add	a0,a6,a0
   214a8:	02010113          	addi	sp,sp,32
   214ac:	00008067          	ret
   214b0:	01079793          	slli	a5,a5,0x10
   214b4:	00010737          	lui	a4,0x10
   214b8:	0107d793          	srli	a5,a5,0x10
   214bc:	00e7e7b3          	or	a5,a5,a4
   214c0:	00004737          	lui	a4,0x4
   214c4:	06f70713          	addi	a4,a4,111 # 406f <exit-0xc025>
   214c8:	40d70733          	sub	a4,a4,a3
   214cc:	40575613          	srai	a2,a4,0x5
   214d0:	00f12e23          	sw	a5,28(sp)
   214d4:	01f77713          	andi	a4,a4,31
   214d8:	02071463          	bnez	a4,21500 <__fixtfsi+0xb8>
   214dc:	00261613          	slli	a2,a2,0x2
   214e0:	02060793          	addi	a5,a2,32
   214e4:	00278633          	add	a2,a5,sp
   214e8:	ff062783          	lw	a5,-16(a2)
   214ec:	00f12823          	sw	a5,16(sp)
   214f0:	01012503          	lw	a0,16(sp)
   214f4:	fa080ae3          	beqz	a6,214a8 <__fixtfsi+0x60>
   214f8:	40a00533          	neg	a0,a0
   214fc:	fadff06f          	j	214a8 <__fixtfsi+0x60>
   21500:	00200513          	li	a0,2
   21504:	00000693          	li	a3,0
   21508:	02a61063          	bne	a2,a0,21528 <__fixtfsi+0xe0>
   2150c:	02000693          	li	a3,32
   21510:	40e686b3          	sub	a3,a3,a4
   21514:	00d796b3          	sll	a3,a5,a3
   21518:	00e5d5b3          	srl	a1,a1,a4
   2151c:	00b6e6b3          	or	a3,a3,a1
   21520:	00d12823          	sw	a3,16(sp)
   21524:	00100693          	li	a3,1
   21528:	00269693          	slli	a3,a3,0x2
   2152c:	02068693          	addi	a3,a3,32
   21530:	002686b3          	add	a3,a3,sp
   21534:	00e7d7b3          	srl	a5,a5,a4
   21538:	fef6a823          	sw	a5,-16(a3)
   2153c:	fb5ff06f          	j	214f0 <__fixtfsi+0xa8>

00021540 <__floatsitf>:
   21540:	fd010113          	addi	sp,sp,-48
   21544:	02912223          	sw	s1,36(sp)
   21548:	02112623          	sw	ra,44(sp)
   2154c:	02812423          	sw	s0,40(sp)
   21550:	03212023          	sw	s2,32(sp)
   21554:	00050493          	mv	s1,a0
   21558:	12058263          	beqz	a1,2167c <__floatsitf+0x13c>
   2155c:	41f5d793          	srai	a5,a1,0x1f
   21560:	00b7c433          	xor	s0,a5,a1
   21564:	40f40433          	sub	s0,s0,a5
   21568:	00040513          	mv	a0,s0
   2156c:	01f5d913          	srli	s2,a1,0x1f
   21570:	404000ef          	jal	ra,21974 <__clzsi2>
   21574:	00004737          	lui	a4,0x4
   21578:	01e70713          	addi	a4,a4,30 # 401e <exit-0xc076>
   2157c:	05150793          	addi	a5,a0,81
   21580:	40a70633          	sub	a2,a4,a0
   21584:	00812823          	sw	s0,16(sp)
   21588:	4057d713          	srai	a4,a5,0x5
   2158c:	00012a23          	sw	zero,20(sp)
   21590:	00012c23          	sw	zero,24(sp)
   21594:	00012e23          	sw	zero,28(sp)
   21598:	01f7f793          	andi	a5,a5,31
   2159c:	02078c63          	beqz	a5,215d4 <__floatsitf+0x94>
   215a0:	00200693          	li	a3,2
   215a4:	0cd71863          	bne	a4,a3,21674 <__floatsitf+0x134>
   215a8:	02000693          	li	a3,32
   215ac:	40f686b3          	sub	a3,a3,a5
   215b0:	00d456b3          	srl	a3,s0,a3
   215b4:	00d12e23          	sw	a3,28(sp)
   215b8:	fff70693          	addi	a3,a4,-1
   215bc:	00271713          	slli	a4,a4,0x2
   215c0:	02070713          	addi	a4,a4,32
   215c4:	00270733          	add	a4,a4,sp
   215c8:	00f41433          	sll	s0,s0,a5
   215cc:	fe872823          	sw	s0,-16(a4)
   215d0:	0340006f          	j	21604 <__floatsitf+0xc4>
   215d4:	00300793          	li	a5,3
   215d8:	40e787b3          	sub	a5,a5,a4
   215dc:	00279793          	slli	a5,a5,0x2
   215e0:	02078793          	addi	a5,a5,32
   215e4:	002787b3          	add	a5,a5,sp
   215e8:	ff07a783          	lw	a5,-16(a5)
   215ec:	00200693          	li	a3,2
   215f0:	00f12e23          	sw	a5,28(sp)
   215f4:	00200793          	li	a5,2
   215f8:	00f71663          	bne	a4,a5,21604 <__floatsitf+0xc4>
   215fc:	00812c23          	sw	s0,24(sp)
   21600:	00100693          	li	a3,1
   21604:	00269693          	slli	a3,a3,0x2
   21608:	00012823          	sw	zero,16(sp)
   2160c:	00012a23          	sw	zero,20(sp)
   21610:	ffc68693          	addi	a3,a3,-4
   21614:	00400793          	li	a5,4
   21618:	00f6e463          	bltu	a3,a5,21620 <__floatsitf+0xe0>
   2161c:	00012c23          	sw	zero,24(sp)
   21620:	00090593          	mv	a1,s2
   21624:	01c12783          	lw	a5,28(sp)
   21628:	00f59413          	slli	s0,a1,0xf
   2162c:	00c46433          	or	s0,s0,a2
   21630:	00f11623          	sh	a5,12(sp)
   21634:	01012783          	lw	a5,16(sp)
   21638:	00811723          	sh	s0,14(sp)
   2163c:	02c12083          	lw	ra,44(sp)
   21640:	00f4a023          	sw	a5,0(s1)
   21644:	01412783          	lw	a5,20(sp)
   21648:	02812403          	lw	s0,40(sp)
   2164c:	02012903          	lw	s2,32(sp)
   21650:	00f4a223          	sw	a5,4(s1)
   21654:	01812783          	lw	a5,24(sp)
   21658:	00048513          	mv	a0,s1
   2165c:	00f4a423          	sw	a5,8(s1)
   21660:	00c12783          	lw	a5,12(sp)
   21664:	00f4a623          	sw	a5,12(s1)
   21668:	02412483          	lw	s1,36(sp)
   2166c:	03010113          	addi	sp,sp,48
   21670:	00008067          	ret
   21674:	00300713          	li	a4,3
   21678:	f41ff06f          	j	215b8 <__floatsitf+0x78>
   2167c:	00012e23          	sw	zero,28(sp)
   21680:	00012c23          	sw	zero,24(sp)
   21684:	00012a23          	sw	zero,20(sp)
   21688:	00012823          	sw	zero,16(sp)
   2168c:	00000613          	li	a2,0
   21690:	f95ff06f          	j	21624 <__floatsitf+0xe4>

00021694 <__extenddftf2>:
   21694:	01465713          	srli	a4,a2,0x14
   21698:	00c61793          	slli	a5,a2,0xc
   2169c:	7ff77713          	andi	a4,a4,2047
   216a0:	fd010113          	addi	sp,sp,-48
   216a4:	00c7d793          	srli	a5,a5,0xc
   216a8:	00170693          	addi	a3,a4,1
   216ac:	02812423          	sw	s0,40(sp)
   216b0:	02912223          	sw	s1,36(sp)
   216b4:	03212023          	sw	s2,32(sp)
   216b8:	02112623          	sw	ra,44(sp)
   216bc:	00b12823          	sw	a1,16(sp)
   216c0:	00f12a23          	sw	a5,20(sp)
   216c4:	00012e23          	sw	zero,28(sp)
   216c8:	00012c23          	sw	zero,24(sp)
   216cc:	7fe6f693          	andi	a3,a3,2046
   216d0:	00050913          	mv	s2,a0
   216d4:	00058413          	mv	s0,a1
   216d8:	01f65493          	srli	s1,a2,0x1f
   216dc:	08068263          	beqz	a3,21760 <__extenddftf2+0xcc>
   216e0:	000046b7          	lui	a3,0x4
   216e4:	c0068693          	addi	a3,a3,-1024 # 3c00 <exit-0xc494>
   216e8:	00d70733          	add	a4,a4,a3
   216ec:	0047d693          	srli	a3,a5,0x4
   216f0:	00d12e23          	sw	a3,28(sp)
   216f4:	01c79793          	slli	a5,a5,0x1c
   216f8:	0045d693          	srli	a3,a1,0x4
   216fc:	00d7e7b3          	or	a5,a5,a3
   21700:	01c59413          	slli	s0,a1,0x1c
   21704:	00f12c23          	sw	a5,24(sp)
   21708:	00812a23          	sw	s0,20(sp)
   2170c:	00012823          	sw	zero,16(sp)
   21710:	01c12783          	lw	a5,28(sp)
   21714:	00f49493          	slli	s1,s1,0xf
   21718:	00e4e4b3          	or	s1,s1,a4
   2171c:	00f11623          	sh	a5,12(sp)
   21720:	01012783          	lw	a5,16(sp)
   21724:	00911723          	sh	s1,14(sp)
   21728:	02c12083          	lw	ra,44(sp)
   2172c:	00f92023          	sw	a5,0(s2)
   21730:	01412783          	lw	a5,20(sp)
   21734:	02812403          	lw	s0,40(sp)
   21738:	02412483          	lw	s1,36(sp)
   2173c:	00f92223          	sw	a5,4(s2)
   21740:	01812783          	lw	a5,24(sp)
   21744:	00090513          	mv	a0,s2
   21748:	00f92423          	sw	a5,8(s2)
   2174c:	00c12783          	lw	a5,12(sp)
   21750:	00f92623          	sw	a5,12(s2)
   21754:	02012903          	lw	s2,32(sp)
   21758:	03010113          	addi	sp,sp,48
   2175c:	00008067          	ret
   21760:	00b7e533          	or	a0,a5,a1
   21764:	0e071e63          	bnez	a4,21860 <__extenddftf2+0x1cc>
   21768:	fa0504e3          	beqz	a0,21710 <__extenddftf2+0x7c>
   2176c:	04078e63          	beqz	a5,217c8 <__extenddftf2+0x134>
   21770:	00078513          	mv	a0,a5
   21774:	200000ef          	jal	ra,21974 <__clzsi2>
   21778:	03150693          	addi	a3,a0,49
   2177c:	4056d713          	srai	a4,a3,0x5
   21780:	01f6f693          	andi	a3,a3,31
   21784:	40e007b3          	neg	a5,a4
   21788:	04068663          	beqz	a3,217d4 <__extenddftf2+0x140>
   2178c:	00279793          	slli	a5,a5,0x2
   21790:	00c78613          	addi	a2,a5,12
   21794:	02000813          	li	a6,32
   21798:	01010313          	addi	t1,sp,16
   2179c:	40d80833          	sub	a6,a6,a3
   217a0:	00c30633          	add	a2,t1,a2
   217a4:	40f007b3          	neg	a5,a5
   217a8:	08c31a63          	bne	t1,a2,2183c <__extenddftf2+0x1a8>
   217ac:	fff70793          	addi	a5,a4,-1
   217b0:	00271713          	slli	a4,a4,0x2
   217b4:	02070713          	addi	a4,a4,32
   217b8:	00270733          	add	a4,a4,sp
   217bc:	00d416b3          	sll	a3,s0,a3
   217c0:	fed72823          	sw	a3,-16(a4)
   217c4:	0380006f          	j	217fc <__extenddftf2+0x168>
   217c8:	1ac000ef          	jal	ra,21974 <__clzsi2>
   217cc:	02050513          	addi	a0,a0,32
   217d0:	fa9ff06f          	j	21778 <__extenddftf2+0xe4>
   217d4:	01c10693          	addi	a3,sp,28
   217d8:	00279793          	slli	a5,a5,0x2
   217dc:	00300613          	li	a2,3
   217e0:	00f685b3          	add	a1,a3,a5
   217e4:	0005a583          	lw	a1,0(a1)
   217e8:	fff60613          	addi	a2,a2,-1
   217ec:	ffc68693          	addi	a3,a3,-4
   217f0:	00b6a223          	sw	a1,4(a3)
   217f4:	fee656e3          	bge	a2,a4,217e0 <__extenddftf2+0x14c>
   217f8:	fff70793          	addi	a5,a4,-1
   217fc:	00178793          	addi	a5,a5,1
   21800:	00279793          	slli	a5,a5,0x2
   21804:	00800693          	li	a3,8
   21808:	01010713          	addi	a4,sp,16
   2180c:	00d7ea63          	bltu	a5,a3,21820 <__extenddftf2+0x18c>
   21810:	00012823          	sw	zero,16(sp)
   21814:	00072223          	sw	zero,4(a4)
   21818:	ff878793          	addi	a5,a5,-8
   2181c:	01810713          	addi	a4,sp,24
   21820:	00400693          	li	a3,4
   21824:	00d7e463          	bltu	a5,a3,2182c <__extenddftf2+0x198>
   21828:	00072023          	sw	zero,0(a4)
   2182c:	00004737          	lui	a4,0x4
   21830:	c0c70713          	addi	a4,a4,-1012 # 3c0c <exit-0xc488>
   21834:	40a70733          	sub	a4,a4,a0
   21838:	ed9ff06f          	j	21710 <__extenddftf2+0x7c>
   2183c:	00062583          	lw	a1,0(a2)
   21840:	ffc62883          	lw	a7,-4(a2)
   21844:	00f60e33          	add	t3,a2,a5
   21848:	00d595b3          	sll	a1,a1,a3
   2184c:	0108d8b3          	srl	a7,a7,a6
   21850:	0115e5b3          	or	a1,a1,a7
   21854:	00be2023          	sw	a1,0(t3)
   21858:	ffc60613          	addi	a2,a2,-4
   2185c:	f4dff06f          	j	217a8 <__extenddftf2+0x114>
   21860:	02050863          	beqz	a0,21890 <__extenddftf2+0x1fc>
   21864:	01c79713          	slli	a4,a5,0x1c
   21868:	0045d693          	srli	a3,a1,0x4
   2186c:	00d76733          	or	a4,a4,a3
   21870:	00e12c23          	sw	a4,24(sp)
   21874:	0047d793          	srli	a5,a5,0x4
   21878:	00008737          	lui	a4,0x8
   2187c:	01c59413          	slli	s0,a1,0x1c
   21880:	00e7e7b3          	or	a5,a5,a4
   21884:	00812a23          	sw	s0,20(sp)
   21888:	00012823          	sw	zero,16(sp)
   2188c:	00f12e23          	sw	a5,28(sp)
   21890:	00008737          	lui	a4,0x8
   21894:	fff70713          	addi	a4,a4,-1 # 7fff <exit-0x8095>
   21898:	e79ff06f          	j	21710 <__extenddftf2+0x7c>

0002189c <__mulsi3>:
   2189c:	00050613          	mv	a2,a0
   218a0:	00000513          	li	a0,0
   218a4:	0015f693          	andi	a3,a1,1
   218a8:	00068463          	beqz	a3,218b0 <__mulsi3+0x14>
   218ac:	00c50533          	add	a0,a0,a2
   218b0:	0015d593          	srli	a1,a1,0x1
   218b4:	00161613          	slli	a2,a2,0x1
   218b8:	fe0596e3          	bnez	a1,218a4 <__mulsi3+0x8>
   218bc:	00008067          	ret

000218c0 <__divsi3>:
   218c0:	06054063          	bltz	a0,21920 <__umodsi3+0x10>
   218c4:	0605c663          	bltz	a1,21930 <__umodsi3+0x20>

000218c8 <__hidden___udivsi3>:
   218c8:	00058613          	mv	a2,a1
   218cc:	00050593          	mv	a1,a0
   218d0:	fff00513          	li	a0,-1
   218d4:	02060c63          	beqz	a2,2190c <__hidden___udivsi3+0x44>
   218d8:	00100693          	li	a3,1
   218dc:	00b67a63          	bgeu	a2,a1,218f0 <__hidden___udivsi3+0x28>
   218e0:	00c05863          	blez	a2,218f0 <__hidden___udivsi3+0x28>
   218e4:	00161613          	slli	a2,a2,0x1
   218e8:	00169693          	slli	a3,a3,0x1
   218ec:	feb66ae3          	bltu	a2,a1,218e0 <__hidden___udivsi3+0x18>
   218f0:	00000513          	li	a0,0
   218f4:	00c5e663          	bltu	a1,a2,21900 <__hidden___udivsi3+0x38>
   218f8:	40c585b3          	sub	a1,a1,a2
   218fc:	00d56533          	or	a0,a0,a3
   21900:	0016d693          	srli	a3,a3,0x1
   21904:	00165613          	srli	a2,a2,0x1
   21908:	fe0696e3          	bnez	a3,218f4 <__hidden___udivsi3+0x2c>
   2190c:	00008067          	ret

00021910 <__umodsi3>:
   21910:	00008293          	mv	t0,ra
   21914:	fb5ff0ef          	jal	ra,218c8 <__hidden___udivsi3>
   21918:	00058513          	mv	a0,a1
   2191c:	00028067          	jr	t0
   21920:	40a00533          	neg	a0,a0
   21924:	00b04863          	bgtz	a1,21934 <__umodsi3+0x24>
   21928:	40b005b3          	neg	a1,a1
   2192c:	f9dff06f          	j	218c8 <__hidden___udivsi3>
   21930:	40b005b3          	neg	a1,a1
   21934:	00008293          	mv	t0,ra
   21938:	f91ff0ef          	jal	ra,218c8 <__hidden___udivsi3>
   2193c:	40a00533          	neg	a0,a0
   21940:	00028067          	jr	t0

00021944 <__modsi3>:
   21944:	00008293          	mv	t0,ra
   21948:	0005ca63          	bltz	a1,2195c <__modsi3+0x18>
   2194c:	00054c63          	bltz	a0,21964 <__modsi3+0x20>
   21950:	f79ff0ef          	jal	ra,218c8 <__hidden___udivsi3>
   21954:	00058513          	mv	a0,a1
   21958:	00028067          	jr	t0
   2195c:	40b005b3          	neg	a1,a1
   21960:	fe0558e3          	bgez	a0,21950 <__modsi3+0xc>
   21964:	40a00533          	neg	a0,a0
   21968:	f61ff0ef          	jal	ra,218c8 <__hidden___udivsi3>
   2196c:	40b00533          	neg	a0,a1
   21970:	00028067          	jr	t0

00021974 <__clzsi2>:
   21974:	000107b7          	lui	a5,0x10
   21978:	02f57a63          	bgeu	a0,a5,219ac <__clzsi2+0x38>
   2197c:	10053793          	sltiu	a5,a0,256
   21980:	0017b793          	seqz	a5,a5
   21984:	00379793          	slli	a5,a5,0x3
   21988:	00022737          	lui	a4,0x22
   2198c:	02000693          	li	a3,32
   21990:	40f686b3          	sub	a3,a3,a5
   21994:	00f55533          	srl	a0,a0,a5
   21998:	10870793          	addi	a5,a4,264 # 22108 <__clz_tab>
   2199c:	00a787b3          	add	a5,a5,a0
   219a0:	0007c503          	lbu	a0,0(a5) # 10000 <exit-0x94>
   219a4:	40a68533          	sub	a0,a3,a0
   219a8:	00008067          	ret
   219ac:	01000737          	lui	a4,0x1000
   219b0:	01800793          	li	a5,24
   219b4:	fce57ae3          	bgeu	a0,a4,21988 <__clzsi2+0x14>
   219b8:	01000793          	li	a5,16
   219bc:	fcdff06f          	j	21988 <__clzsi2+0x14>
