
test7.o:     file format elf32-littleriscv


Disassembly of section .text:

00010094 <exit>:
   10094:	ff010113          	addi	sp,sp,-16
   10098:	00000593          	li	a1,0
   1009c:	00812423          	sw	s0,8(sp)
   100a0:	00112623          	sw	ra,12(sp)
   100a4:	00050413          	mv	s0,a0
   100a8:	364010ef          	jal	1140c <__call_exitprocs>
   100ac:	f241a783          	lw	a5,-220(gp) # 227e4 <__stdio_exit_handler>
   100b0:	00078463          	beqz	a5,100b8 <exit+0x24>
   100b4:	000780e7          	jalr	a5
   100b8:	00040513          	mv	a0,s0
   100bc:	20c0b0ef          	jal	1b2c8 <_exit>

000100c0 <register_fini>:
   100c0:	00000793          	li	a5,0
   100c4:	00078863          	beqz	a5,100d4 <register_fini+0x14>
   100c8:	00015537          	lui	a0,0x15
   100cc:	f7050513          	addi	a0,a0,-144 # 14f70 <__libc_fini_array>
   100d0:	4700106f          	j	11540 <atexit>
   100d4:	00008067          	ret

000100d8 <_start>:
   100d8:	00012197          	auipc	gp,0x12
   100dc:	7e818193          	addi	gp,gp,2024 # 228c0 <__global_pointer$>
   100e0:	f1818513          	addi	a0,gp,-232 # 227d8 <__malloc_max_total_mem>
   100e4:	24418613          	addi	a2,gp,580 # 22b04 <__BSS_END__>
   100e8:	40a60633          	sub	a2,a2,a0
   100ec:	00000593          	li	a1,0
   100f0:	240010ef          	jal	11330 <memset>
   100f4:	00001517          	auipc	a0,0x1
   100f8:	44c50513          	addi	a0,a0,1100 # 11540 <atexit>
   100fc:	00050863          	beqz	a0,1010c <_start+0x34>
   10100:	00005517          	auipc	a0,0x5
   10104:	e7050513          	addi	a0,a0,-400 # 14f70 <__libc_fini_array>
   10108:	438010ef          	jal	11540 <atexit>
   1010c:	188010ef          	jal	11294 <__libc_init_array>
   10110:	00012503          	lw	a0,0(sp)
   10114:	00410593          	addi	a1,sp,4
   10118:	00000613          	li	a2,0
   1011c:	06c000ef          	jal	10188 <main>
   10120:	f75ff06f          	j	10094 <exit>

00010124 <__do_global_dtors_aux>:
   10124:	ff010113          	addi	sp,sp,-16
   10128:	00812423          	sw	s0,8(sp)
   1012c:	f381c783          	lbu	a5,-200(gp) # 227f8 <completed.1>
   10130:	00112623          	sw	ra,12(sp)
   10134:	02079263          	bnez	a5,10158 <__do_global_dtors_aux+0x34>
   10138:	00000793          	li	a5,0
   1013c:	00078a63          	beqz	a5,10150 <__do_global_dtors_aux+0x2c>
   10140:	00022537          	lui	a0,0x22
   10144:	00050513          	mv	a0,a0
   10148:	00000097          	auipc	ra,0x0
   1014c:	000000e7          	jalr	zero # 0 <exit-0x10094>
   10150:	00100793          	li	a5,1
   10154:	f2f18c23          	sb	a5,-200(gp) # 227f8 <completed.1>
   10158:	00c12083          	lw	ra,12(sp)
   1015c:	00812403          	lw	s0,8(sp)
   10160:	01010113          	addi	sp,sp,16
   10164:	00008067          	ret

00010168 <frame_dummy>:
   10168:	00000793          	li	a5,0
   1016c:	00078c63          	beqz	a5,10184 <frame_dummy+0x1c>
   10170:	00022537          	lui	a0,0x22
   10174:	f3c18593          	addi	a1,gp,-196 # 227fc <object.0>
   10178:	00050513          	mv	a0,a0
   1017c:	00000317          	auipc	t1,0x0
   10180:	00000067          	jr	zero # 0 <exit-0x10094>
   10184:	00008067          	ret

00010188 <main>:
   10188:	fe010113          	addi	sp,sp,-32
   1018c:	00112e23          	sw	ra,28(sp)
   10190:	00812c23          	sw	s0,24(sp)
   10194:	02010413          	addi	s0,sp,32
   10198:	00a00513          	li	a0,10
   1019c:	048000ef          	jal	101e4 <malloc>
   101a0:	00050793          	mv	a5,a0
   101a4:	fef42623          	sw	a5,-20(s0)
   101a8:	fec42783          	lw	a5,-20(s0)
   101ac:	06100713          	li	a4,97
   101b0:	00e78023          	sb	a4,0(a5)
   101b4:	fec42783          	lw	a5,-20(s0)
   101b8:	0007c783          	lbu	a5,0(a5)
   101bc:	00078593          	mv	a1,a5
   101c0:	000217b7          	lui	a5,0x21
   101c4:	34078513          	addi	a0,a5,832 # 21340 <__clzsi2+0x4c>
   101c8:	441000ef          	jal	10e08 <printf>
   101cc:	00000793          	li	a5,0
   101d0:	00078513          	mv	a0,a5
   101d4:	01c12083          	lw	ra,28(sp)
   101d8:	01812403          	lw	s0,24(sp)
   101dc:	02010113          	addi	sp,sp,32
   101e0:	00008067          	ret

000101e4 <malloc>:
   101e4:	00050593          	mv	a1,a0
   101e8:	f141a503          	lw	a0,-236(gp) # 227d4 <_impure_ptr>
   101ec:	0100006f          	j	101fc <_malloc_r>

000101f0 <free>:
   101f0:	00050593          	mv	a1,a0
   101f4:	f141a503          	lw	a0,-236(gp) # 227d4 <_impure_ptr>
   101f8:	4940106f          	j	1168c <_free_r>

000101fc <_malloc_r>:
   101fc:	fd010113          	addi	sp,sp,-48
   10200:	01312e23          	sw	s3,28(sp)
   10204:	02112623          	sw	ra,44(sp)
   10208:	02812423          	sw	s0,40(sp)
   1020c:	02912223          	sw	s1,36(sp)
   10210:	03212023          	sw	s2,32(sp)
   10214:	00b58793          	addi	a5,a1,11
   10218:	01600713          	li	a4,22
   1021c:	00050993          	mv	s3,a0
   10220:	08f76263          	bltu	a4,a5,102a4 <_malloc_r+0xa8>
   10224:	01000793          	li	a5,16
   10228:	20b7e663          	bltu	a5,a1,10434 <_malloc_r+0x238>
   1022c:	78c000ef          	jal	109b8 <__malloc_lock>
   10230:	01800793          	li	a5,24
   10234:	00200593          	li	a1,2
   10238:	01000493          	li	s1,16
   1023c:	00022937          	lui	s2,0x22
   10240:	0c090913          	addi	s2,s2,192 # 220c0 <__malloc_av_>
   10244:	00f907b3          	add	a5,s2,a5
   10248:	0047a403          	lw	s0,4(a5)
   1024c:	ff878713          	addi	a4,a5,-8
   10250:	34e40463          	beq	s0,a4,10598 <_malloc_r+0x39c>
   10254:	00442783          	lw	a5,4(s0)
   10258:	00c42683          	lw	a3,12(s0)
   1025c:	00842603          	lw	a2,8(s0)
   10260:	ffc7f793          	andi	a5,a5,-4
   10264:	00f407b3          	add	a5,s0,a5
   10268:	0047a703          	lw	a4,4(a5)
   1026c:	00d62623          	sw	a3,12(a2)
   10270:	00c6a423          	sw	a2,8(a3)
   10274:	00176713          	ori	a4,a4,1
   10278:	00098513          	mv	a0,s3
   1027c:	00e7a223          	sw	a4,4(a5)
   10280:	73c000ef          	jal	109bc <__malloc_unlock>
   10284:	00840513          	addi	a0,s0,8
   10288:	02c12083          	lw	ra,44(sp)
   1028c:	02812403          	lw	s0,40(sp)
   10290:	02412483          	lw	s1,36(sp)
   10294:	02012903          	lw	s2,32(sp)
   10298:	01c12983          	lw	s3,28(sp)
   1029c:	03010113          	addi	sp,sp,48
   102a0:	00008067          	ret
   102a4:	ff87f493          	andi	s1,a5,-8
   102a8:	1807c663          	bltz	a5,10434 <_malloc_r+0x238>
   102ac:	18b4e463          	bltu	s1,a1,10434 <_malloc_r+0x238>
   102b0:	708000ef          	jal	109b8 <__malloc_lock>
   102b4:	1f700793          	li	a5,503
   102b8:	3e97fa63          	bgeu	a5,s1,106ac <_malloc_r+0x4b0>
   102bc:	0094d793          	srli	a5,s1,0x9
   102c0:	18078263          	beqz	a5,10444 <_malloc_r+0x248>
   102c4:	00400713          	li	a4,4
   102c8:	34f76063          	bltu	a4,a5,10608 <_malloc_r+0x40c>
   102cc:	0064d793          	srli	a5,s1,0x6
   102d0:	03978593          	addi	a1,a5,57
   102d4:	03878813          	addi	a6,a5,56
   102d8:	00359613          	slli	a2,a1,0x3
   102dc:	00022937          	lui	s2,0x22
   102e0:	0c090913          	addi	s2,s2,192 # 220c0 <__malloc_av_>
   102e4:	00c90633          	add	a2,s2,a2
   102e8:	00462403          	lw	s0,4(a2)
   102ec:	ff860613          	addi	a2,a2,-8
   102f0:	02860863          	beq	a2,s0,10320 <_malloc_r+0x124>
   102f4:	00f00513          	li	a0,15
   102f8:	0140006f          	j	1030c <_malloc_r+0x110>
   102fc:	00c42683          	lw	a3,12(s0)
   10300:	28075863          	bgez	a4,10590 <_malloc_r+0x394>
   10304:	00d60e63          	beq	a2,a3,10320 <_malloc_r+0x124>
   10308:	00068413          	mv	s0,a3
   1030c:	00442783          	lw	a5,4(s0)
   10310:	ffc7f793          	andi	a5,a5,-4
   10314:	40978733          	sub	a4,a5,s1
   10318:	fee552e3          	bge	a0,a4,102fc <_malloc_r+0x100>
   1031c:	00080593          	mv	a1,a6
   10320:	01092403          	lw	s0,16(s2)
   10324:	00022837          	lui	a6,0x22
   10328:	0c880813          	addi	a6,a6,200 # 220c8 <__malloc_av_+0x8>
   1032c:	25040e63          	beq	s0,a6,10588 <_malloc_r+0x38c>
   10330:	00442783          	lw	a5,4(s0)
   10334:	00f00693          	li	a3,15
   10338:	ffc7f793          	andi	a5,a5,-4
   1033c:	40978733          	sub	a4,a5,s1
   10340:	36e6cc63          	blt	a3,a4,106b8 <_malloc_r+0x4bc>
   10344:	01092a23          	sw	a6,20(s2)
   10348:	01092823          	sw	a6,16(s2)
   1034c:	34075063          	bgez	a4,1068c <_malloc_r+0x490>
   10350:	1ff00713          	li	a4,511
   10354:	00492503          	lw	a0,4(s2)
   10358:	24f76863          	bltu	a4,a5,105a8 <_malloc_r+0x3ac>
   1035c:	ff87f713          	andi	a4,a5,-8
   10360:	00870713          	addi	a4,a4,8
   10364:	00e90733          	add	a4,s2,a4
   10368:	00072683          	lw	a3,0(a4)
   1036c:	0057d613          	srli	a2,a5,0x5
   10370:	00100793          	li	a5,1
   10374:	00c797b3          	sll	a5,a5,a2
   10378:	00f56533          	or	a0,a0,a5
   1037c:	ff870793          	addi	a5,a4,-8
   10380:	00f42623          	sw	a5,12(s0)
   10384:	00d42423          	sw	a3,8(s0)
   10388:	00a92223          	sw	a0,4(s2)
   1038c:	00872023          	sw	s0,0(a4)
   10390:	0086a623          	sw	s0,12(a3)
   10394:	4025d793          	srai	a5,a1,0x2
   10398:	00100613          	li	a2,1
   1039c:	00f61633          	sll	a2,a2,a5
   103a0:	0ac56a63          	bltu	a0,a2,10454 <_malloc_r+0x258>
   103a4:	00a677b3          	and	a5,a2,a0
   103a8:	02079463          	bnez	a5,103d0 <_malloc_r+0x1d4>
   103ac:	00161613          	slli	a2,a2,0x1
   103b0:	ffc5f593          	andi	a1,a1,-4
   103b4:	00a677b3          	and	a5,a2,a0
   103b8:	00458593          	addi	a1,a1,4
   103bc:	00079a63          	bnez	a5,103d0 <_malloc_r+0x1d4>
   103c0:	00161613          	slli	a2,a2,0x1
   103c4:	00a677b3          	and	a5,a2,a0
   103c8:	00458593          	addi	a1,a1,4
   103cc:	fe078ae3          	beqz	a5,103c0 <_malloc_r+0x1c4>
   103d0:	00f00893          	li	a7,15
   103d4:	00359313          	slli	t1,a1,0x3
   103d8:	00690333          	add	t1,s2,t1
   103dc:	00030513          	mv	a0,t1
   103e0:	00c52783          	lw	a5,12(a0) # 2200c <__EH_FRAME_BEGIN__+0xc>
   103e4:	00058e13          	mv	t3,a1
   103e8:	24f50263          	beq	a0,a5,1062c <_malloc_r+0x430>
   103ec:	0047a703          	lw	a4,4(a5)
   103f0:	00078413          	mv	s0,a5
   103f4:	00c7a783          	lw	a5,12(a5)
   103f8:	ffc77713          	andi	a4,a4,-4
   103fc:	409706b3          	sub	a3,a4,s1
   10400:	24d8c263          	blt	a7,a3,10644 <_malloc_r+0x448>
   10404:	fe06c2e3          	bltz	a3,103e8 <_malloc_r+0x1ec>
   10408:	00e40733          	add	a4,s0,a4
   1040c:	00472683          	lw	a3,4(a4)
   10410:	00842603          	lw	a2,8(s0)
   10414:	00098513          	mv	a0,s3
   10418:	0016e693          	ori	a3,a3,1
   1041c:	00d72223          	sw	a3,4(a4)
   10420:	00f62623          	sw	a5,12(a2)
   10424:	00c7a423          	sw	a2,8(a5)
   10428:	594000ef          	jal	109bc <__malloc_unlock>
   1042c:	00840513          	addi	a0,s0,8
   10430:	e59ff06f          	j	10288 <_malloc_r+0x8c>
   10434:	00c00793          	li	a5,12
   10438:	00f9a023          	sw	a5,0(s3)
   1043c:	00000513          	li	a0,0
   10440:	e49ff06f          	j	10288 <_malloc_r+0x8c>
   10444:	20000613          	li	a2,512
   10448:	04000593          	li	a1,64
   1044c:	03f00813          	li	a6,63
   10450:	e8dff06f          	j	102dc <_malloc_r+0xe0>
   10454:	00892403          	lw	s0,8(s2)
   10458:	01612823          	sw	s6,16(sp)
   1045c:	00442783          	lw	a5,4(s0)
   10460:	ffc7fb13          	andi	s6,a5,-4
   10464:	009b6863          	bltu	s6,s1,10474 <_malloc_r+0x278>
   10468:	409b0733          	sub	a4,s6,s1
   1046c:	00f00793          	li	a5,15
   10470:	0ce7ca63          	blt	a5,a4,10544 <_malloc_r+0x348>
   10474:	01912223          	sw	s9,4(sp)
   10478:	01512a23          	sw	s5,20(sp)
   1047c:	f0c1a703          	lw	a4,-244(gp) # 227cc <__malloc_sbrk_base>
   10480:	f201aa83          	lw	s5,-224(gp) # 227e0 <__malloc_top_pad>
   10484:	01412c23          	sw	s4,24(sp)
   10488:	01712623          	sw	s7,12(sp)
   1048c:	fff00793          	li	a5,-1
   10490:	01640a33          	add	s4,s0,s6
   10494:	01548ab3          	add	s5,s1,s5
   10498:	3cf70663          	beq	a4,a5,10864 <_malloc_r+0x668>
   1049c:	000017b7          	lui	a5,0x1
   104a0:	00f78793          	addi	a5,a5,15 # 100f <exit-0xf085>
   104a4:	00fa8ab3          	add	s5,s5,a5
   104a8:	fffff7b7          	lui	a5,0xfffff
   104ac:	00fafab3          	and	s5,s5,a5
   104b0:	000a8593          	mv	a1,s5
   104b4:	00098513          	mv	a0,s3
   104b8:	519000ef          	jal	111d0 <_sbrk_r>
   104bc:	fff00793          	li	a5,-1
   104c0:	00050b93          	mv	s7,a0
   104c4:	44f50a63          	beq	a0,a5,10918 <_malloc_r+0x71c>
   104c8:	01812423          	sw	s8,8(sp)
   104cc:	23456e63          	bltu	a0,s4,10708 <_malloc_r+0x50c>
   104d0:	f5418c13          	addi	s8,gp,-172 # 22814 <__malloc_current_mallinfo>
   104d4:	000c2583          	lw	a1,0(s8)
   104d8:	00ba85b3          	add	a1,s5,a1
   104dc:	00bc2023          	sw	a1,0(s8)
   104e0:	00058713          	mv	a4,a1
   104e4:	2aaa1663          	bne	s4,a0,10790 <_malloc_r+0x594>
   104e8:	01451793          	slli	a5,a0,0x14
   104ec:	2a079263          	bnez	a5,10790 <_malloc_r+0x594>
   104f0:	00892b83          	lw	s7,8(s2)
   104f4:	015b07b3          	add	a5,s6,s5
   104f8:	0017e793          	ori	a5,a5,1
   104fc:	00fba223          	sw	a5,4(s7)
   10500:	f1c1a683          	lw	a3,-228(gp) # 227dc <__malloc_max_sbrked_mem>
   10504:	00b6f463          	bgeu	a3,a1,1050c <_malloc_r+0x310>
   10508:	f0b1ae23          	sw	a1,-228(gp) # 227dc <__malloc_max_sbrked_mem>
   1050c:	f181a683          	lw	a3,-232(gp) # 227d8 <__malloc_max_total_mem>
   10510:	00b6f463          	bgeu	a3,a1,10518 <_malloc_r+0x31c>
   10514:	f0b1ac23          	sw	a1,-232(gp) # 227d8 <__malloc_max_total_mem>
   10518:	00812c03          	lw	s8,8(sp)
   1051c:	000b8413          	mv	s0,s7
   10520:	ffc7f793          	andi	a5,a5,-4
   10524:	40978733          	sub	a4,a5,s1
   10528:	3897ea63          	bltu	a5,s1,108bc <_malloc_r+0x6c0>
   1052c:	00f00793          	li	a5,15
   10530:	38e7d663          	bge	a5,a4,108bc <_malloc_r+0x6c0>
   10534:	01812a03          	lw	s4,24(sp)
   10538:	01412a83          	lw	s5,20(sp)
   1053c:	00c12b83          	lw	s7,12(sp)
   10540:	00412c83          	lw	s9,4(sp)
   10544:	0014e793          	ori	a5,s1,1
   10548:	00f42223          	sw	a5,4(s0)
   1054c:	009404b3          	add	s1,s0,s1
   10550:	00992423          	sw	s1,8(s2)
   10554:	00176713          	ori	a4,a4,1
   10558:	00098513          	mv	a0,s3
   1055c:	00e4a223          	sw	a4,4(s1)
   10560:	45c000ef          	jal	109bc <__malloc_unlock>
   10564:	02c12083          	lw	ra,44(sp)
   10568:	00840513          	addi	a0,s0,8
   1056c:	02812403          	lw	s0,40(sp)
   10570:	01012b03          	lw	s6,16(sp)
   10574:	02412483          	lw	s1,36(sp)
   10578:	02012903          	lw	s2,32(sp)
   1057c:	01c12983          	lw	s3,28(sp)
   10580:	03010113          	addi	sp,sp,48
   10584:	00008067          	ret
   10588:	00492503          	lw	a0,4(s2)
   1058c:	e09ff06f          	j	10394 <_malloc_r+0x198>
   10590:	00842603          	lw	a2,8(s0)
   10594:	cd1ff06f          	j	10264 <_malloc_r+0x68>
   10598:	00c7a403          	lw	s0,12(a5) # fffff00c <__BSS_END__+0xfffdc508>
   1059c:	00258593          	addi	a1,a1,2
   105a0:	d88780e3          	beq	a5,s0,10320 <_malloc_r+0x124>
   105a4:	cb1ff06f          	j	10254 <_malloc_r+0x58>
   105a8:	0097d713          	srli	a4,a5,0x9
   105ac:	00400693          	li	a3,4
   105b0:	14e6f263          	bgeu	a3,a4,106f4 <_malloc_r+0x4f8>
   105b4:	01400693          	li	a3,20
   105b8:	32e6e463          	bltu	a3,a4,108e0 <_malloc_r+0x6e4>
   105bc:	05c70613          	addi	a2,a4,92
   105c0:	05b70693          	addi	a3,a4,91
   105c4:	00361613          	slli	a2,a2,0x3
   105c8:	00c90633          	add	a2,s2,a2
   105cc:	00062703          	lw	a4,0(a2)
   105d0:	ff860613          	addi	a2,a2,-8
   105d4:	00e61863          	bne	a2,a4,105e4 <_malloc_r+0x3e8>
   105d8:	2940006f          	j	1086c <_malloc_r+0x670>
   105dc:	00872703          	lw	a4,8(a4)
   105e0:	00e60863          	beq	a2,a4,105f0 <_malloc_r+0x3f4>
   105e4:	00472683          	lw	a3,4(a4)
   105e8:	ffc6f693          	andi	a3,a3,-4
   105ec:	fed7e8e3          	bltu	a5,a3,105dc <_malloc_r+0x3e0>
   105f0:	00c72603          	lw	a2,12(a4)
   105f4:	00c42623          	sw	a2,12(s0)
   105f8:	00e42423          	sw	a4,8(s0)
   105fc:	00862423          	sw	s0,8(a2)
   10600:	00872623          	sw	s0,12(a4)
   10604:	d91ff06f          	j	10394 <_malloc_r+0x198>
   10608:	01400713          	li	a4,20
   1060c:	10f77863          	bgeu	a4,a5,1071c <_malloc_r+0x520>
   10610:	05400713          	li	a4,84
   10614:	2ef76463          	bltu	a4,a5,108fc <_malloc_r+0x700>
   10618:	00c4d793          	srli	a5,s1,0xc
   1061c:	06f78593          	addi	a1,a5,111
   10620:	06e78813          	addi	a6,a5,110
   10624:	00359613          	slli	a2,a1,0x3
   10628:	cb5ff06f          	j	102dc <_malloc_r+0xe0>
   1062c:	001e0e13          	addi	t3,t3,1
   10630:	003e7793          	andi	a5,t3,3
   10634:	00850513          	addi	a0,a0,8
   10638:	10078063          	beqz	a5,10738 <_malloc_r+0x53c>
   1063c:	00c52783          	lw	a5,12(a0)
   10640:	da9ff06f          	j	103e8 <_malloc_r+0x1ec>
   10644:	00842603          	lw	a2,8(s0)
   10648:	0014e593          	ori	a1,s1,1
   1064c:	00b42223          	sw	a1,4(s0)
   10650:	00f62623          	sw	a5,12(a2)
   10654:	00c7a423          	sw	a2,8(a5)
   10658:	009404b3          	add	s1,s0,s1
   1065c:	00992a23          	sw	s1,20(s2)
   10660:	00992823          	sw	s1,16(s2)
   10664:	0016e793          	ori	a5,a3,1
   10668:	0104a623          	sw	a6,12(s1)
   1066c:	0104a423          	sw	a6,8(s1)
   10670:	00f4a223          	sw	a5,4(s1)
   10674:	00e40733          	add	a4,s0,a4
   10678:	00098513          	mv	a0,s3
   1067c:	00d72023          	sw	a3,0(a4)
   10680:	33c000ef          	jal	109bc <__malloc_unlock>
   10684:	00840513          	addi	a0,s0,8
   10688:	c01ff06f          	j	10288 <_malloc_r+0x8c>
   1068c:	00f407b3          	add	a5,s0,a5
   10690:	0047a703          	lw	a4,4(a5)
   10694:	00098513          	mv	a0,s3
   10698:	00176713          	ori	a4,a4,1
   1069c:	00e7a223          	sw	a4,4(a5)
   106a0:	31c000ef          	jal	109bc <__malloc_unlock>
   106a4:	00840513          	addi	a0,s0,8
   106a8:	be1ff06f          	j	10288 <_malloc_r+0x8c>
   106ac:	0034d593          	srli	a1,s1,0x3
   106b0:	00848793          	addi	a5,s1,8
   106b4:	b89ff06f          	j	1023c <_malloc_r+0x40>
   106b8:	0014e693          	ori	a3,s1,1
   106bc:	00d42223          	sw	a3,4(s0)
   106c0:	009404b3          	add	s1,s0,s1
   106c4:	00992a23          	sw	s1,20(s2)
   106c8:	00992823          	sw	s1,16(s2)
   106cc:	00176693          	ori	a3,a4,1
   106d0:	0104a623          	sw	a6,12(s1)
   106d4:	0104a423          	sw	a6,8(s1)
   106d8:	00d4a223          	sw	a3,4(s1)
   106dc:	00f407b3          	add	a5,s0,a5
   106e0:	00098513          	mv	a0,s3
   106e4:	00e7a023          	sw	a4,0(a5)
   106e8:	2d4000ef          	jal	109bc <__malloc_unlock>
   106ec:	00840513          	addi	a0,s0,8
   106f0:	b99ff06f          	j	10288 <_malloc_r+0x8c>
   106f4:	0067d713          	srli	a4,a5,0x6
   106f8:	03970613          	addi	a2,a4,57
   106fc:	03870693          	addi	a3,a4,56
   10700:	00361613          	slli	a2,a2,0x3
   10704:	ec5ff06f          	j	105c8 <_malloc_r+0x3cc>
   10708:	07240c63          	beq	s0,s2,10780 <_malloc_r+0x584>
   1070c:	00892403          	lw	s0,8(s2)
   10710:	00812c03          	lw	s8,8(sp)
   10714:	00442783          	lw	a5,4(s0)
   10718:	e09ff06f          	j	10520 <_malloc_r+0x324>
   1071c:	05c78593          	addi	a1,a5,92
   10720:	05b78813          	addi	a6,a5,91
   10724:	00359613          	slli	a2,a1,0x3
   10728:	bb5ff06f          	j	102dc <_malloc_r+0xe0>
   1072c:	00832783          	lw	a5,8(t1) # 10184 <frame_dummy+0x1c>
   10730:	fff58593          	addi	a1,a1,-1
   10734:	26679e63          	bne	a5,t1,109b0 <_malloc_r+0x7b4>
   10738:	0035f793          	andi	a5,a1,3
   1073c:	ff830313          	addi	t1,t1,-8
   10740:	fe0796e3          	bnez	a5,1072c <_malloc_r+0x530>
   10744:	00492703          	lw	a4,4(s2)
   10748:	fff64793          	not	a5,a2
   1074c:	00e7f7b3          	and	a5,a5,a4
   10750:	00f92223          	sw	a5,4(s2)
   10754:	00161613          	slli	a2,a2,0x1
   10758:	cec7eee3          	bltu	a5,a2,10454 <_malloc_r+0x258>
   1075c:	ce060ce3          	beqz	a2,10454 <_malloc_r+0x258>
   10760:	00f67733          	and	a4,a2,a5
   10764:	00071a63          	bnez	a4,10778 <_malloc_r+0x57c>
   10768:	00161613          	slli	a2,a2,0x1
   1076c:	00f67733          	and	a4,a2,a5
   10770:	004e0e13          	addi	t3,t3,4
   10774:	fe070ae3          	beqz	a4,10768 <_malloc_r+0x56c>
   10778:	000e0593          	mv	a1,t3
   1077c:	c59ff06f          	j	103d4 <_malloc_r+0x1d8>
   10780:	f5418c13          	addi	s8,gp,-172 # 22814 <__malloc_current_mallinfo>
   10784:	000c2703          	lw	a4,0(s8)
   10788:	00ea8733          	add	a4,s5,a4
   1078c:	00ec2023          	sw	a4,0(s8)
   10790:	f0c1a683          	lw	a3,-244(gp) # 227cc <__malloc_sbrk_base>
   10794:	fff00793          	li	a5,-1
   10798:	18f68663          	beq	a3,a5,10924 <_malloc_r+0x728>
   1079c:	414b87b3          	sub	a5,s7,s4
   107a0:	00e787b3          	add	a5,a5,a4
   107a4:	00fc2023          	sw	a5,0(s8)
   107a8:	007bfc93          	andi	s9,s7,7
   107ac:	0c0c8c63          	beqz	s9,10884 <_malloc_r+0x688>
   107b0:	419b8bb3          	sub	s7,s7,s9
   107b4:	000017b7          	lui	a5,0x1
   107b8:	00878793          	addi	a5,a5,8 # 1008 <exit-0xf08c>
   107bc:	008b8b93          	addi	s7,s7,8
   107c0:	419785b3          	sub	a1,a5,s9
   107c4:	015b8ab3          	add	s5,s7,s5
   107c8:	415585b3          	sub	a1,a1,s5
   107cc:	01459593          	slli	a1,a1,0x14
   107d0:	0145da13          	srli	s4,a1,0x14
   107d4:	000a0593          	mv	a1,s4
   107d8:	00098513          	mv	a0,s3
   107dc:	1f5000ef          	jal	111d0 <_sbrk_r>
   107e0:	fff00793          	li	a5,-1
   107e4:	18f50063          	beq	a0,a5,10964 <_malloc_r+0x768>
   107e8:	41750533          	sub	a0,a0,s7
   107ec:	01450ab3          	add	s5,a0,s4
   107f0:	000c2703          	lw	a4,0(s8)
   107f4:	01792423          	sw	s7,8(s2)
   107f8:	001ae793          	ori	a5,s5,1
   107fc:	00ea05b3          	add	a1,s4,a4
   10800:	00bc2023          	sw	a1,0(s8)
   10804:	00fba223          	sw	a5,4(s7)
   10808:	cf240ce3          	beq	s0,s2,10500 <_malloc_r+0x304>
   1080c:	00f00693          	li	a3,15
   10810:	0b66f063          	bgeu	a3,s6,108b0 <_malloc_r+0x6b4>
   10814:	00442703          	lw	a4,4(s0)
   10818:	ff4b0793          	addi	a5,s6,-12
   1081c:	ff87f793          	andi	a5,a5,-8
   10820:	00177713          	andi	a4,a4,1
   10824:	00f76733          	or	a4,a4,a5
   10828:	00e42223          	sw	a4,4(s0)
   1082c:	00500613          	li	a2,5
   10830:	00f40733          	add	a4,s0,a5
   10834:	00c72223          	sw	a2,4(a4)
   10838:	00c72423          	sw	a2,8(a4)
   1083c:	00f6e663          	bltu	a3,a5,10848 <_malloc_r+0x64c>
   10840:	004ba783          	lw	a5,4(s7)
   10844:	cbdff06f          	j	10500 <_malloc_r+0x304>
   10848:	00840593          	addi	a1,s0,8
   1084c:	00098513          	mv	a0,s3
   10850:	63d000ef          	jal	1168c <_free_r>
   10854:	00892b83          	lw	s7,8(s2)
   10858:	000c2583          	lw	a1,0(s8)
   1085c:	004ba783          	lw	a5,4(s7)
   10860:	ca1ff06f          	j	10500 <_malloc_r+0x304>
   10864:	010a8a93          	addi	s5,s5,16
   10868:	c49ff06f          	j	104b0 <_malloc_r+0x2b4>
   1086c:	4026d693          	srai	a3,a3,0x2
   10870:	00100793          	li	a5,1
   10874:	00d797b3          	sll	a5,a5,a3
   10878:	00f56533          	or	a0,a0,a5
   1087c:	00a92223          	sw	a0,4(s2)
   10880:	d75ff06f          	j	105f4 <_malloc_r+0x3f8>
   10884:	015b85b3          	add	a1,s7,s5
   10888:	40b005b3          	neg	a1,a1
   1088c:	01459593          	slli	a1,a1,0x14
   10890:	0145da13          	srli	s4,a1,0x14
   10894:	000a0593          	mv	a1,s4
   10898:	00098513          	mv	a0,s3
   1089c:	135000ef          	jal	111d0 <_sbrk_r>
   108a0:	fff00793          	li	a5,-1
   108a4:	f4f512e3          	bne	a0,a5,107e8 <_malloc_r+0x5ec>
   108a8:	00000a13          	li	s4,0
   108ac:	f45ff06f          	j	107f0 <_malloc_r+0x5f4>
   108b0:	00812c03          	lw	s8,8(sp)
   108b4:	00100793          	li	a5,1
   108b8:	00fba223          	sw	a5,4(s7)
   108bc:	00098513          	mv	a0,s3
   108c0:	0fc000ef          	jal	109bc <__malloc_unlock>
   108c4:	00000513          	li	a0,0
   108c8:	01812a03          	lw	s4,24(sp)
   108cc:	01412a83          	lw	s5,20(sp)
   108d0:	01012b03          	lw	s6,16(sp)
   108d4:	00c12b83          	lw	s7,12(sp)
   108d8:	00412c83          	lw	s9,4(sp)
   108dc:	9adff06f          	j	10288 <_malloc_r+0x8c>
   108e0:	05400693          	li	a3,84
   108e4:	04e6e463          	bltu	a3,a4,1092c <_malloc_r+0x730>
   108e8:	00c7d713          	srli	a4,a5,0xc
   108ec:	06f70613          	addi	a2,a4,111
   108f0:	06e70693          	addi	a3,a4,110
   108f4:	00361613          	slli	a2,a2,0x3
   108f8:	cd1ff06f          	j	105c8 <_malloc_r+0x3cc>
   108fc:	15400713          	li	a4,340
   10900:	04f76463          	bltu	a4,a5,10948 <_malloc_r+0x74c>
   10904:	00f4d793          	srli	a5,s1,0xf
   10908:	07878593          	addi	a1,a5,120
   1090c:	07778813          	addi	a6,a5,119
   10910:	00359613          	slli	a2,a1,0x3
   10914:	9c9ff06f          	j	102dc <_malloc_r+0xe0>
   10918:	00892403          	lw	s0,8(s2)
   1091c:	00442783          	lw	a5,4(s0)
   10920:	c01ff06f          	j	10520 <_malloc_r+0x324>
   10924:	f171a623          	sw	s7,-244(gp) # 227cc <__malloc_sbrk_base>
   10928:	e81ff06f          	j	107a8 <_malloc_r+0x5ac>
   1092c:	15400693          	li	a3,340
   10930:	04e6e463          	bltu	a3,a4,10978 <_malloc_r+0x77c>
   10934:	00f7d713          	srli	a4,a5,0xf
   10938:	07870613          	addi	a2,a4,120
   1093c:	07770693          	addi	a3,a4,119
   10940:	00361613          	slli	a2,a2,0x3
   10944:	c85ff06f          	j	105c8 <_malloc_r+0x3cc>
   10948:	55400713          	li	a4,1364
   1094c:	04f76463          	bltu	a4,a5,10994 <_malloc_r+0x798>
   10950:	0124d793          	srli	a5,s1,0x12
   10954:	07d78593          	addi	a1,a5,125
   10958:	07c78813          	addi	a6,a5,124
   1095c:	00359613          	slli	a2,a1,0x3
   10960:	97dff06f          	j	102dc <_malloc_r+0xe0>
   10964:	ff8c8c93          	addi	s9,s9,-8
   10968:	019a8ab3          	add	s5,s5,s9
   1096c:	417a8ab3          	sub	s5,s5,s7
   10970:	00000a13          	li	s4,0
   10974:	e7dff06f          	j	107f0 <_malloc_r+0x5f4>
   10978:	55400693          	li	a3,1364
   1097c:	02e6e463          	bltu	a3,a4,109a4 <_malloc_r+0x7a8>
   10980:	0127d713          	srli	a4,a5,0x12
   10984:	07d70613          	addi	a2,a4,125
   10988:	07c70693          	addi	a3,a4,124
   1098c:	00361613          	slli	a2,a2,0x3
   10990:	c39ff06f          	j	105c8 <_malloc_r+0x3cc>
   10994:	3f800613          	li	a2,1016
   10998:	07f00593          	li	a1,127
   1099c:	07e00813          	li	a6,126
   109a0:	93dff06f          	j	102dc <_malloc_r+0xe0>
   109a4:	3f800613          	li	a2,1016
   109a8:	07e00693          	li	a3,126
   109ac:	c1dff06f          	j	105c8 <_malloc_r+0x3cc>
   109b0:	00492783          	lw	a5,4(s2)
   109b4:	da1ff06f          	j	10754 <_malloc_r+0x558>

000109b8 <__malloc_lock>:
   109b8:	00008067          	ret

000109bc <__malloc_unlock>:
   109bc:	00008067          	ret

000109c0 <__fp_lock>:
   109c0:	00000513          	li	a0,0
   109c4:	00008067          	ret

000109c8 <stdio_exit_handler>:
   109c8:	000145b7          	lui	a1,0x14
   109cc:	c0818613          	addi	a2,gp,-1016 # 224c8 <__sglue>
   109d0:	35858593          	addi	a1,a1,856 # 14358 <_fclose_r>
   109d4:	c1818513          	addi	a0,gp,-1000 # 224d8 <_impure_data>
   109d8:	33c0006f          	j	10d14 <_fwalk_sglue>

000109dc <cleanup_stdio>:
   109dc:	00452583          	lw	a1,4(a0)
   109e0:	ff010113          	addi	sp,sp,-16
   109e4:	00812423          	sw	s0,8(sp)
   109e8:	00112623          	sw	ra,12(sp)
   109ec:	f7c18793          	addi	a5,gp,-132 # 2283c <__sf>
   109f0:	00050413          	mv	s0,a0
   109f4:	00f58463          	beq	a1,a5,109fc <cleanup_stdio+0x20>
   109f8:	161030ef          	jal	14358 <_fclose_r>
   109fc:	00842583          	lw	a1,8(s0)
   10a00:	fe418793          	addi	a5,gp,-28 # 228a4 <__sf+0x68>
   10a04:	00f58663          	beq	a1,a5,10a10 <cleanup_stdio+0x34>
   10a08:	00040513          	mv	a0,s0
   10a0c:	14d030ef          	jal	14358 <_fclose_r>
   10a10:	00c42583          	lw	a1,12(s0)
   10a14:	04c18793          	addi	a5,gp,76 # 2290c <__global_pointer$+0x4c>
   10a18:	00f58c63          	beq	a1,a5,10a30 <cleanup_stdio+0x54>
   10a1c:	00040513          	mv	a0,s0
   10a20:	00812403          	lw	s0,8(sp)
   10a24:	00c12083          	lw	ra,12(sp)
   10a28:	01010113          	addi	sp,sp,16
   10a2c:	12d0306f          	j	14358 <_fclose_r>
   10a30:	00c12083          	lw	ra,12(sp)
   10a34:	00812403          	lw	s0,8(sp)
   10a38:	01010113          	addi	sp,sp,16
   10a3c:	00008067          	ret

00010a40 <__fp_unlock>:
   10a40:	00000513          	li	a0,0
   10a44:	00008067          	ret

00010a48 <global_stdio_init.part.0>:
   10a48:	fe010113          	addi	sp,sp,-32
   10a4c:	000117b7          	lui	a5,0x11
   10a50:	00812c23          	sw	s0,24(sp)
   10a54:	9c878793          	addi	a5,a5,-1592 # 109c8 <stdio_exit_handler>
   10a58:	f7c18413          	addi	s0,gp,-132 # 2283c <__sf>
   10a5c:	00112e23          	sw	ra,28(sp)
   10a60:	00912a23          	sw	s1,20(sp)
   10a64:	01212823          	sw	s2,16(sp)
   10a68:	01312623          	sw	s3,12(sp)
   10a6c:	01412423          	sw	s4,8(sp)
   10a70:	f2f1a223          	sw	a5,-220(gp) # 227e4 <__stdio_exit_handler>
   10a74:	00800613          	li	a2,8
   10a78:	00400793          	li	a5,4
   10a7c:	00000593          	li	a1,0
   10a80:	fd818513          	addi	a0,gp,-40 # 22898 <__sf+0x5c>
   10a84:	00f42623          	sw	a5,12(s0)
   10a88:	00042023          	sw	zero,0(s0)
   10a8c:	00042223          	sw	zero,4(s0)
   10a90:	00042423          	sw	zero,8(s0)
   10a94:	06042223          	sw	zero,100(s0)
   10a98:	00042823          	sw	zero,16(s0)
   10a9c:	00042a23          	sw	zero,20(s0)
   10aa0:	00042c23          	sw	zero,24(s0)
   10aa4:	08d000ef          	jal	11330 <memset>
   10aa8:	000107b7          	lui	a5,0x10
   10aac:	00011a37          	lui	s4,0x11
   10ab0:	000119b7          	lui	s3,0x11
   10ab4:	00011937          	lui	s2,0x11
   10ab8:	000114b7          	lui	s1,0x11
   10abc:	e54a0a13          	addi	s4,s4,-428 # 10e54 <__sread>
   10ac0:	eb898993          	addi	s3,s3,-328 # 10eb8 <__swrite>
   10ac4:	f4090913          	addi	s2,s2,-192 # 10f40 <__sseek>
   10ac8:	fb848493          	addi	s1,s1,-72 # 10fb8 <__sclose>
   10acc:	00978793          	addi	a5,a5,9 # 10009 <exit-0x8b>
   10ad0:	00800613          	li	a2,8
   10ad4:	00000593          	li	a1,0
   10ad8:	04018513          	addi	a0,gp,64 # 22900 <__global_pointer$+0x40>
   10adc:	03442023          	sw	s4,32(s0)
   10ae0:	03342223          	sw	s3,36(s0)
   10ae4:	03242423          	sw	s2,40(s0)
   10ae8:	02942623          	sw	s1,44(s0)
   10aec:	06f42a23          	sw	a5,116(s0)
   10af0:	00842e23          	sw	s0,28(s0)
   10af4:	06042423          	sw	zero,104(s0)
   10af8:	06042623          	sw	zero,108(s0)
   10afc:	06042823          	sw	zero,112(s0)
   10b00:	0c042623          	sw	zero,204(s0)
   10b04:	06042c23          	sw	zero,120(s0)
   10b08:	06042e23          	sw	zero,124(s0)
   10b0c:	08042023          	sw	zero,128(s0)
   10b10:	021000ef          	jal	11330 <memset>
   10b14:	000207b7          	lui	a5,0x20
   10b18:	01278793          	addi	a5,a5,18 # 20012 <__subtf3+0x7b6>
   10b1c:	fe418713          	addi	a4,gp,-28 # 228a4 <__sf+0x68>
   10b20:	00800613          	li	a2,8
   10b24:	00000593          	li	a1,0
   10b28:	0a818513          	addi	a0,gp,168 # 22968 <__global_pointer$+0xa8>
   10b2c:	09442423          	sw	s4,136(s0)
   10b30:	09342623          	sw	s3,140(s0)
   10b34:	09242823          	sw	s2,144(s0)
   10b38:	08942a23          	sw	s1,148(s0)
   10b3c:	0cf42e23          	sw	a5,220(s0)
   10b40:	08e42223          	sw	a4,132(s0)
   10b44:	0c042823          	sw	zero,208(s0)
   10b48:	0c042a23          	sw	zero,212(s0)
   10b4c:	0c042c23          	sw	zero,216(s0)
   10b50:	12042a23          	sw	zero,308(s0)
   10b54:	0e042023          	sw	zero,224(s0)
   10b58:	0e042223          	sw	zero,228(s0)
   10b5c:	0e042423          	sw	zero,232(s0)
   10b60:	7d0000ef          	jal	11330 <memset>
   10b64:	04c18793          	addi	a5,gp,76 # 2290c <__global_pointer$+0x4c>
   10b68:	0f442823          	sw	s4,240(s0)
   10b6c:	0f342a23          	sw	s3,244(s0)
   10b70:	0f242c23          	sw	s2,248(s0)
   10b74:	0e942e23          	sw	s1,252(s0)
   10b78:	01c12083          	lw	ra,28(sp)
   10b7c:	0ef42623          	sw	a5,236(s0)
   10b80:	01812403          	lw	s0,24(sp)
   10b84:	01412483          	lw	s1,20(sp)
   10b88:	01012903          	lw	s2,16(sp)
   10b8c:	00c12983          	lw	s3,12(sp)
   10b90:	00812a03          	lw	s4,8(sp)
   10b94:	02010113          	addi	sp,sp,32
   10b98:	00008067          	ret

00010b9c <__sfp>:
   10b9c:	f241a783          	lw	a5,-220(gp) # 227e4 <__stdio_exit_handler>
   10ba0:	fe010113          	addi	sp,sp,-32
   10ba4:	01312623          	sw	s3,12(sp)
   10ba8:	00112e23          	sw	ra,28(sp)
   10bac:	00812c23          	sw	s0,24(sp)
   10bb0:	00912a23          	sw	s1,20(sp)
   10bb4:	01212823          	sw	s2,16(sp)
   10bb8:	00050993          	mv	s3,a0
   10bbc:	0e078663          	beqz	a5,10ca8 <__sfp+0x10c>
   10bc0:	c0818913          	addi	s2,gp,-1016 # 224c8 <__sglue>
   10bc4:	fff00493          	li	s1,-1
   10bc8:	00492783          	lw	a5,4(s2)
   10bcc:	00892403          	lw	s0,8(s2)
   10bd0:	fff78793          	addi	a5,a5,-1
   10bd4:	0007d863          	bgez	a5,10be4 <__sfp+0x48>
   10bd8:	0800006f          	j	10c58 <__sfp+0xbc>
   10bdc:	06840413          	addi	s0,s0,104
   10be0:	06978c63          	beq	a5,s1,10c58 <__sfp+0xbc>
   10be4:	00c41703          	lh	a4,12(s0)
   10be8:	fff78793          	addi	a5,a5,-1
   10bec:	fe0718e3          	bnez	a4,10bdc <__sfp+0x40>
   10bf0:	ffff07b7          	lui	a5,0xffff0
   10bf4:	00178793          	addi	a5,a5,1 # ffff0001 <__BSS_END__+0xfffcd4fd>
   10bf8:	00f42623          	sw	a5,12(s0)
   10bfc:	06042223          	sw	zero,100(s0)
   10c00:	00042023          	sw	zero,0(s0)
   10c04:	00042423          	sw	zero,8(s0)
   10c08:	00042223          	sw	zero,4(s0)
   10c0c:	00042823          	sw	zero,16(s0)
   10c10:	00042a23          	sw	zero,20(s0)
   10c14:	00042c23          	sw	zero,24(s0)
   10c18:	00800613          	li	a2,8
   10c1c:	00000593          	li	a1,0
   10c20:	05c40513          	addi	a0,s0,92
   10c24:	70c000ef          	jal	11330 <memset>
   10c28:	02042823          	sw	zero,48(s0)
   10c2c:	02042a23          	sw	zero,52(s0)
   10c30:	04042223          	sw	zero,68(s0)
   10c34:	04042423          	sw	zero,72(s0)
   10c38:	01c12083          	lw	ra,28(sp)
   10c3c:	00040513          	mv	a0,s0
   10c40:	01812403          	lw	s0,24(sp)
   10c44:	01412483          	lw	s1,20(sp)
   10c48:	01012903          	lw	s2,16(sp)
   10c4c:	00c12983          	lw	s3,12(sp)
   10c50:	02010113          	addi	sp,sp,32
   10c54:	00008067          	ret
   10c58:	00092403          	lw	s0,0(s2)
   10c5c:	00040663          	beqz	s0,10c68 <__sfp+0xcc>
   10c60:	00040913          	mv	s2,s0
   10c64:	f65ff06f          	j	10bc8 <__sfp+0x2c>
   10c68:	1ac00593          	li	a1,428
   10c6c:	00098513          	mv	a0,s3
   10c70:	d8cff0ef          	jal	101fc <_malloc_r>
   10c74:	00050413          	mv	s0,a0
   10c78:	02050c63          	beqz	a0,10cb0 <__sfp+0x114>
   10c7c:	00c50513          	addi	a0,a0,12
   10c80:	00400793          	li	a5,4
   10c84:	00042023          	sw	zero,0(s0)
   10c88:	00f42223          	sw	a5,4(s0)
   10c8c:	00a42423          	sw	a0,8(s0)
   10c90:	1a000613          	li	a2,416
   10c94:	00000593          	li	a1,0
   10c98:	698000ef          	jal	11330 <memset>
   10c9c:	00892023          	sw	s0,0(s2)
   10ca0:	00040913          	mv	s2,s0
   10ca4:	f25ff06f          	j	10bc8 <__sfp+0x2c>
   10ca8:	da1ff0ef          	jal	10a48 <global_stdio_init.part.0>
   10cac:	f15ff06f          	j	10bc0 <__sfp+0x24>
   10cb0:	00092023          	sw	zero,0(s2)
   10cb4:	00c00793          	li	a5,12
   10cb8:	00f9a023          	sw	a5,0(s3)
   10cbc:	f7dff06f          	j	10c38 <__sfp+0x9c>

00010cc0 <__sinit>:
   10cc0:	03452783          	lw	a5,52(a0)
   10cc4:	00078463          	beqz	a5,10ccc <__sinit+0xc>
   10cc8:	00008067          	ret
   10ccc:	f241a703          	lw	a4,-220(gp) # 227e4 <__stdio_exit_handler>
   10cd0:	000117b7          	lui	a5,0x11
   10cd4:	9dc78793          	addi	a5,a5,-1572 # 109dc <cleanup_stdio>
   10cd8:	02f52a23          	sw	a5,52(a0)
   10cdc:	fe0716e3          	bnez	a4,10cc8 <__sinit+0x8>
   10ce0:	d69ff06f          	j	10a48 <global_stdio_init.part.0>

00010ce4 <__sfp_lock_acquire>:
   10ce4:	00008067          	ret

00010ce8 <__sfp_lock_release>:
   10ce8:	00008067          	ret

00010cec <__fp_lock_all>:
   10cec:	000115b7          	lui	a1,0x11
   10cf0:	c0818613          	addi	a2,gp,-1016 # 224c8 <__sglue>
   10cf4:	9c058593          	addi	a1,a1,-1600 # 109c0 <__fp_lock>
   10cf8:	00000513          	li	a0,0
   10cfc:	0180006f          	j	10d14 <_fwalk_sglue>

00010d00 <__fp_unlock_all>:
   10d00:	000115b7          	lui	a1,0x11
   10d04:	c0818613          	addi	a2,gp,-1016 # 224c8 <__sglue>
   10d08:	a4058593          	addi	a1,a1,-1472 # 10a40 <__fp_unlock>
   10d0c:	00000513          	li	a0,0
   10d10:	0040006f          	j	10d14 <_fwalk_sglue>

00010d14 <_fwalk_sglue>:
   10d14:	fd010113          	addi	sp,sp,-48
   10d18:	03212023          	sw	s2,32(sp)
   10d1c:	01312e23          	sw	s3,28(sp)
   10d20:	01412c23          	sw	s4,24(sp)
   10d24:	01512a23          	sw	s5,20(sp)
   10d28:	01612823          	sw	s6,16(sp)
   10d2c:	01712623          	sw	s7,12(sp)
   10d30:	02112623          	sw	ra,44(sp)
   10d34:	02812423          	sw	s0,40(sp)
   10d38:	02912223          	sw	s1,36(sp)
   10d3c:	00050b13          	mv	s6,a0
   10d40:	00058b93          	mv	s7,a1
   10d44:	00060a93          	mv	s5,a2
   10d48:	00000a13          	li	s4,0
   10d4c:	00100993          	li	s3,1
   10d50:	fff00913          	li	s2,-1
   10d54:	004aa483          	lw	s1,4(s5)
   10d58:	008aa403          	lw	s0,8(s5)
   10d5c:	fff48493          	addi	s1,s1,-1
   10d60:	0204c863          	bltz	s1,10d90 <_fwalk_sglue+0x7c>
   10d64:	00c45783          	lhu	a5,12(s0)
   10d68:	00f9fe63          	bgeu	s3,a5,10d84 <_fwalk_sglue+0x70>
   10d6c:	00e41783          	lh	a5,14(s0)
   10d70:	00040593          	mv	a1,s0
   10d74:	000b0513          	mv	a0,s6
   10d78:	01278663          	beq	a5,s2,10d84 <_fwalk_sglue+0x70>
   10d7c:	000b80e7          	jalr	s7
   10d80:	00aa6a33          	or	s4,s4,a0
   10d84:	fff48493          	addi	s1,s1,-1
   10d88:	06840413          	addi	s0,s0,104
   10d8c:	fd249ce3          	bne	s1,s2,10d64 <_fwalk_sglue+0x50>
   10d90:	000aaa83          	lw	s5,0(s5)
   10d94:	fc0a90e3          	bnez	s5,10d54 <_fwalk_sglue+0x40>
   10d98:	02c12083          	lw	ra,44(sp)
   10d9c:	02812403          	lw	s0,40(sp)
   10da0:	02412483          	lw	s1,36(sp)
   10da4:	02012903          	lw	s2,32(sp)
   10da8:	01c12983          	lw	s3,28(sp)
   10dac:	01412a83          	lw	s5,20(sp)
   10db0:	01012b03          	lw	s6,16(sp)
   10db4:	00c12b83          	lw	s7,12(sp)
   10db8:	000a0513          	mv	a0,s4
   10dbc:	01812a03          	lw	s4,24(sp)
   10dc0:	03010113          	addi	sp,sp,48
   10dc4:	00008067          	ret

00010dc8 <_printf_r>:
   10dc8:	fc010113          	addi	sp,sp,-64
   10dcc:	02c12423          	sw	a2,40(sp)
   10dd0:	02d12623          	sw	a3,44(sp)
   10dd4:	02e12823          	sw	a4,48(sp)
   10dd8:	02f12a23          	sw	a5,52(sp)
   10ddc:	03012c23          	sw	a6,56(sp)
   10de0:	03112e23          	sw	a7,60(sp)
   10de4:	00058613          	mv	a2,a1
   10de8:	00852583          	lw	a1,8(a0)
   10dec:	02810693          	addi	a3,sp,40
   10df0:	00112e23          	sw	ra,28(sp)
   10df4:	00d12623          	sw	a3,12(sp)
   10df8:	399000ef          	jal	11990 <_vfprintf_r>
   10dfc:	01c12083          	lw	ra,28(sp)
   10e00:	04010113          	addi	sp,sp,64
   10e04:	00008067          	ret

00010e08 <printf>:
   10e08:	f141a303          	lw	t1,-236(gp) # 227d4 <_impure_ptr>
   10e0c:	fc010113          	addi	sp,sp,-64
   10e10:	02c12423          	sw	a2,40(sp)
   10e14:	02d12623          	sw	a3,44(sp)
   10e18:	02b12223          	sw	a1,36(sp)
   10e1c:	02e12823          	sw	a4,48(sp)
   10e20:	02f12a23          	sw	a5,52(sp)
   10e24:	03012c23          	sw	a6,56(sp)
   10e28:	03112e23          	sw	a7,60(sp)
   10e2c:	00832583          	lw	a1,8(t1)
   10e30:	02410693          	addi	a3,sp,36
   10e34:	00050613          	mv	a2,a0
   10e38:	00030513          	mv	a0,t1
   10e3c:	00112e23          	sw	ra,28(sp)
   10e40:	00d12623          	sw	a3,12(sp)
   10e44:	34d000ef          	jal	11990 <_vfprintf_r>
   10e48:	01c12083          	lw	ra,28(sp)
   10e4c:	04010113          	addi	sp,sp,64
   10e50:	00008067          	ret

00010e54 <__sread>:
   10e54:	ff010113          	addi	sp,sp,-16
   10e58:	00812423          	sw	s0,8(sp)
   10e5c:	00058413          	mv	s0,a1
   10e60:	00e59583          	lh	a1,14(a1)
   10e64:	00112623          	sw	ra,12(sp)
   10e68:	300000ef          	jal	11168 <_read_r>
   10e6c:	02054063          	bltz	a0,10e8c <__sread+0x38>
   10e70:	05042783          	lw	a5,80(s0)
   10e74:	00c12083          	lw	ra,12(sp)
   10e78:	00a787b3          	add	a5,a5,a0
   10e7c:	04f42823          	sw	a5,80(s0)
   10e80:	00812403          	lw	s0,8(sp)
   10e84:	01010113          	addi	sp,sp,16
   10e88:	00008067          	ret
   10e8c:	00c45783          	lhu	a5,12(s0)
   10e90:	fffff737          	lui	a4,0xfffff
   10e94:	fff70713          	addi	a4,a4,-1 # ffffefff <__BSS_END__+0xfffdc4fb>
   10e98:	00e7f7b3          	and	a5,a5,a4
   10e9c:	00c12083          	lw	ra,12(sp)
   10ea0:	00f41623          	sh	a5,12(s0)
   10ea4:	00812403          	lw	s0,8(sp)
   10ea8:	01010113          	addi	sp,sp,16
   10eac:	00008067          	ret

00010eb0 <__seofread>:
   10eb0:	00000513          	li	a0,0
   10eb4:	00008067          	ret

00010eb8 <__swrite>:
   10eb8:	00c59783          	lh	a5,12(a1)
   10ebc:	fe010113          	addi	sp,sp,-32
   10ec0:	00812c23          	sw	s0,24(sp)
   10ec4:	00912a23          	sw	s1,20(sp)
   10ec8:	01212823          	sw	s2,16(sp)
   10ecc:	01312623          	sw	s3,12(sp)
   10ed0:	00112e23          	sw	ra,28(sp)
   10ed4:	1007f713          	andi	a4,a5,256
   10ed8:	00058413          	mv	s0,a1
   10edc:	00050493          	mv	s1,a0
   10ee0:	00060913          	mv	s2,a2
   10ee4:	00068993          	mv	s3,a3
   10ee8:	04071063          	bnez	a4,10f28 <__swrite+0x70>
   10eec:	fffff737          	lui	a4,0xfffff
   10ef0:	fff70713          	addi	a4,a4,-1 # ffffefff <__BSS_END__+0xfffdc4fb>
   10ef4:	00e7f7b3          	and	a5,a5,a4
   10ef8:	00e41583          	lh	a1,14(s0)
   10efc:	00f41623          	sh	a5,12(s0)
   10f00:	01812403          	lw	s0,24(sp)
   10f04:	01c12083          	lw	ra,28(sp)
   10f08:	00098693          	mv	a3,s3
   10f0c:	00090613          	mv	a2,s2
   10f10:	00c12983          	lw	s3,12(sp)
   10f14:	01012903          	lw	s2,16(sp)
   10f18:	00048513          	mv	a0,s1
   10f1c:	01412483          	lw	s1,20(sp)
   10f20:	02010113          	addi	sp,sp,32
   10f24:	3080006f          	j	1122c <_write_r>
   10f28:	00e59583          	lh	a1,14(a1)
   10f2c:	00200693          	li	a3,2
   10f30:	00000613          	li	a2,0
   10f34:	1cc000ef          	jal	11100 <_lseek_r>
   10f38:	00c41783          	lh	a5,12(s0)
   10f3c:	fb1ff06f          	j	10eec <__swrite+0x34>

00010f40 <__sseek>:
   10f40:	ff010113          	addi	sp,sp,-16
   10f44:	00812423          	sw	s0,8(sp)
   10f48:	00058413          	mv	s0,a1
   10f4c:	00e59583          	lh	a1,14(a1)
   10f50:	00112623          	sw	ra,12(sp)
   10f54:	1ac000ef          	jal	11100 <_lseek_r>
   10f58:	fff00793          	li	a5,-1
   10f5c:	02f50863          	beq	a0,a5,10f8c <__sseek+0x4c>
   10f60:	00c45783          	lhu	a5,12(s0)
   10f64:	00001737          	lui	a4,0x1
   10f68:	00c12083          	lw	ra,12(sp)
   10f6c:	00e7e7b3          	or	a5,a5,a4
   10f70:	01079793          	slli	a5,a5,0x10
   10f74:	4107d793          	srai	a5,a5,0x10
   10f78:	04a42823          	sw	a0,80(s0)
   10f7c:	00f41623          	sh	a5,12(s0)
   10f80:	00812403          	lw	s0,8(sp)
   10f84:	01010113          	addi	sp,sp,16
   10f88:	00008067          	ret
   10f8c:	00c45783          	lhu	a5,12(s0)
   10f90:	fffff737          	lui	a4,0xfffff
   10f94:	fff70713          	addi	a4,a4,-1 # ffffefff <__BSS_END__+0xfffdc4fb>
   10f98:	00e7f7b3          	and	a5,a5,a4
   10f9c:	01079793          	slli	a5,a5,0x10
   10fa0:	4107d793          	srai	a5,a5,0x10
   10fa4:	00c12083          	lw	ra,12(sp)
   10fa8:	00f41623          	sh	a5,12(s0)
   10fac:	00812403          	lw	s0,8(sp)
   10fb0:	01010113          	addi	sp,sp,16
   10fb4:	00008067          	ret

00010fb8 <__sclose>:
   10fb8:	00e59583          	lh	a1,14(a1)
   10fbc:	0040006f          	j	10fc0 <_close_r>

00010fc0 <_close_r>:
   10fc0:	ff010113          	addi	sp,sp,-16
   10fc4:	00812423          	sw	s0,8(sp)
   10fc8:	00912223          	sw	s1,4(sp)
   10fcc:	00050413          	mv	s0,a0
   10fd0:	00058513          	mv	a0,a1
   10fd4:	00112623          	sw	ra,12(sp)
   10fd8:	f201a423          	sw	zero,-216(gp) # 227e8 <errno>
   10fdc:	2a80a0ef          	jal	1b284 <_close>
   10fe0:	fff00793          	li	a5,-1
   10fe4:	00f50c63          	beq	a0,a5,10ffc <_close_r+0x3c>
   10fe8:	00c12083          	lw	ra,12(sp)
   10fec:	00812403          	lw	s0,8(sp)
   10ff0:	00412483          	lw	s1,4(sp)
   10ff4:	01010113          	addi	sp,sp,16
   10ff8:	00008067          	ret
   10ffc:	f281a783          	lw	a5,-216(gp) # 227e8 <errno>
   11000:	fe0784e3          	beqz	a5,10fe8 <_close_r+0x28>
   11004:	00c12083          	lw	ra,12(sp)
   11008:	00f42023          	sw	a5,0(s0)
   1100c:	00812403          	lw	s0,8(sp)
   11010:	00412483          	lw	s1,4(sp)
   11014:	01010113          	addi	sp,sp,16
   11018:	00008067          	ret

0001101c <_reclaim_reent>:
   1101c:	f141a783          	lw	a5,-236(gp) # 227d4 <_impure_ptr>
   11020:	0ca78e63          	beq	a5,a0,110fc <_reclaim_reent+0xe0>
   11024:	04452583          	lw	a1,68(a0)
   11028:	fe010113          	addi	sp,sp,-32
   1102c:	00912a23          	sw	s1,20(sp)
   11030:	00112e23          	sw	ra,28(sp)
   11034:	00812c23          	sw	s0,24(sp)
   11038:	00050493          	mv	s1,a0
   1103c:	04058863          	beqz	a1,1108c <_reclaim_reent+0x70>
   11040:	01212823          	sw	s2,16(sp)
   11044:	01312623          	sw	s3,12(sp)
   11048:	00000913          	li	s2,0
   1104c:	08000993          	li	s3,128
   11050:	012587b3          	add	a5,a1,s2
   11054:	0007a403          	lw	s0,0(a5)
   11058:	00040e63          	beqz	s0,11074 <_reclaim_reent+0x58>
   1105c:	00040593          	mv	a1,s0
   11060:	00042403          	lw	s0,0(s0)
   11064:	00048513          	mv	a0,s1
   11068:	624000ef          	jal	1168c <_free_r>
   1106c:	fe0418e3          	bnez	s0,1105c <_reclaim_reent+0x40>
   11070:	0444a583          	lw	a1,68(s1)
   11074:	00490913          	addi	s2,s2,4
   11078:	fd391ce3          	bne	s2,s3,11050 <_reclaim_reent+0x34>
   1107c:	00048513          	mv	a0,s1
   11080:	60c000ef          	jal	1168c <_free_r>
   11084:	01012903          	lw	s2,16(sp)
   11088:	00c12983          	lw	s3,12(sp)
   1108c:	0384a583          	lw	a1,56(s1)
   11090:	00058663          	beqz	a1,1109c <_reclaim_reent+0x80>
   11094:	00048513          	mv	a0,s1
   11098:	5f4000ef          	jal	1168c <_free_r>
   1109c:	0404a403          	lw	s0,64(s1)
   110a0:	00040c63          	beqz	s0,110b8 <_reclaim_reent+0x9c>
   110a4:	00040593          	mv	a1,s0
   110a8:	00042403          	lw	s0,0(s0)
   110ac:	00048513          	mv	a0,s1
   110b0:	5dc000ef          	jal	1168c <_free_r>
   110b4:	fe0418e3          	bnez	s0,110a4 <_reclaim_reent+0x88>
   110b8:	04c4a583          	lw	a1,76(s1)
   110bc:	00058663          	beqz	a1,110c8 <_reclaim_reent+0xac>
   110c0:	00048513          	mv	a0,s1
   110c4:	5c8000ef          	jal	1168c <_free_r>
   110c8:	0344a783          	lw	a5,52(s1)
   110cc:	00078e63          	beqz	a5,110e8 <_reclaim_reent+0xcc>
   110d0:	01812403          	lw	s0,24(sp)
   110d4:	01c12083          	lw	ra,28(sp)
   110d8:	00048513          	mv	a0,s1
   110dc:	01412483          	lw	s1,20(sp)
   110e0:	02010113          	addi	sp,sp,32
   110e4:	00078067          	jr	a5
   110e8:	01c12083          	lw	ra,28(sp)
   110ec:	01812403          	lw	s0,24(sp)
   110f0:	01412483          	lw	s1,20(sp)
   110f4:	02010113          	addi	sp,sp,32
   110f8:	00008067          	ret
   110fc:	00008067          	ret

00011100 <_lseek_r>:
   11100:	ff010113          	addi	sp,sp,-16
   11104:	00058713          	mv	a4,a1
   11108:	00812423          	sw	s0,8(sp)
   1110c:	00912223          	sw	s1,4(sp)
   11110:	00060593          	mv	a1,a2
   11114:	00050413          	mv	s0,a0
   11118:	00068613          	mv	a2,a3
   1111c:	00070513          	mv	a0,a4
   11120:	00112623          	sw	ra,12(sp)
   11124:	f201a423          	sw	zero,-216(gp) # 227e8 <errno>
   11128:	29c0a0ef          	jal	1b3c4 <_lseek>
   1112c:	fff00793          	li	a5,-1
   11130:	00f50c63          	beq	a0,a5,11148 <_lseek_r+0x48>
   11134:	00c12083          	lw	ra,12(sp)
   11138:	00812403          	lw	s0,8(sp)
   1113c:	00412483          	lw	s1,4(sp)
   11140:	01010113          	addi	sp,sp,16
   11144:	00008067          	ret
   11148:	f281a783          	lw	a5,-216(gp) # 227e8 <errno>
   1114c:	fe0784e3          	beqz	a5,11134 <_lseek_r+0x34>
   11150:	00c12083          	lw	ra,12(sp)
   11154:	00f42023          	sw	a5,0(s0)
   11158:	00812403          	lw	s0,8(sp)
   1115c:	00412483          	lw	s1,4(sp)
   11160:	01010113          	addi	sp,sp,16
   11164:	00008067          	ret

00011168 <_read_r>:
   11168:	ff010113          	addi	sp,sp,-16
   1116c:	00058713          	mv	a4,a1
   11170:	00812423          	sw	s0,8(sp)
   11174:	00912223          	sw	s1,4(sp)
   11178:	00060593          	mv	a1,a2
   1117c:	00050413          	mv	s0,a0
   11180:	00068613          	mv	a2,a3
   11184:	00070513          	mv	a0,a4
   11188:	00112623          	sw	ra,12(sp)
   1118c:	f201a423          	sw	zero,-216(gp) # 227e8 <errno>
   11190:	2780a0ef          	jal	1b408 <_read>
   11194:	fff00793          	li	a5,-1
   11198:	00f50c63          	beq	a0,a5,111b0 <_read_r+0x48>
   1119c:	00c12083          	lw	ra,12(sp)
   111a0:	00812403          	lw	s0,8(sp)
   111a4:	00412483          	lw	s1,4(sp)
   111a8:	01010113          	addi	sp,sp,16
   111ac:	00008067          	ret
   111b0:	f281a783          	lw	a5,-216(gp) # 227e8 <errno>
   111b4:	fe0784e3          	beqz	a5,1119c <_read_r+0x34>
   111b8:	00c12083          	lw	ra,12(sp)
   111bc:	00f42023          	sw	a5,0(s0)
   111c0:	00812403          	lw	s0,8(sp)
   111c4:	00412483          	lw	s1,4(sp)
   111c8:	01010113          	addi	sp,sp,16
   111cc:	00008067          	ret

000111d0 <_sbrk_r>:
   111d0:	ff010113          	addi	sp,sp,-16
   111d4:	00812423          	sw	s0,8(sp)
   111d8:	00912223          	sw	s1,4(sp)
   111dc:	00050413          	mv	s0,a0
   111e0:	00058513          	mv	a0,a1
   111e4:	00112623          	sw	ra,12(sp)
   111e8:	f201a423          	sw	zero,-216(gp) # 227e8 <errno>
   111ec:	2600a0ef          	jal	1b44c <_sbrk>
   111f0:	fff00793          	li	a5,-1
   111f4:	00f50c63          	beq	a0,a5,1120c <_sbrk_r+0x3c>
   111f8:	00c12083          	lw	ra,12(sp)
   111fc:	00812403          	lw	s0,8(sp)
   11200:	00412483          	lw	s1,4(sp)
   11204:	01010113          	addi	sp,sp,16
   11208:	00008067          	ret
   1120c:	f281a783          	lw	a5,-216(gp) # 227e8 <errno>
   11210:	fe0784e3          	beqz	a5,111f8 <_sbrk_r+0x28>
   11214:	00c12083          	lw	ra,12(sp)
   11218:	00f42023          	sw	a5,0(s0)
   1121c:	00812403          	lw	s0,8(sp)
   11220:	00412483          	lw	s1,4(sp)
   11224:	01010113          	addi	sp,sp,16
   11228:	00008067          	ret

0001122c <_write_r>:
   1122c:	ff010113          	addi	sp,sp,-16
   11230:	00058713          	mv	a4,a1
   11234:	00812423          	sw	s0,8(sp)
   11238:	00912223          	sw	s1,4(sp)
   1123c:	00060593          	mv	a1,a2
   11240:	00050413          	mv	s0,a0
   11244:	00068613          	mv	a2,a3
   11248:	00070513          	mv	a0,a4
   1124c:	00112623          	sw	ra,12(sp)
   11250:	f201a423          	sw	zero,-216(gp) # 227e8 <errno>
   11254:	2700a0ef          	jal	1b4c4 <_write>
   11258:	fff00793          	li	a5,-1
   1125c:	00f50c63          	beq	a0,a5,11274 <_write_r+0x48>
   11260:	00c12083          	lw	ra,12(sp)
   11264:	00812403          	lw	s0,8(sp)
   11268:	00412483          	lw	s1,4(sp)
   1126c:	01010113          	addi	sp,sp,16
   11270:	00008067          	ret
   11274:	f281a783          	lw	a5,-216(gp) # 227e8 <errno>
   11278:	fe0784e3          	beqz	a5,11260 <_write_r+0x34>
   1127c:	00c12083          	lw	ra,12(sp)
   11280:	00f42023          	sw	a5,0(s0)
   11284:	00812403          	lw	s0,8(sp)
   11288:	00412483          	lw	s1,4(sp)
   1128c:	01010113          	addi	sp,sp,16
   11290:	00008067          	ret

00011294 <__libc_init_array>:
   11294:	ff010113          	addi	sp,sp,-16
   11298:	00812423          	sw	s0,8(sp)
   1129c:	000227b7          	lui	a5,0x22
   112a0:	00022437          	lui	s0,0x22
   112a4:	01212023          	sw	s2,0(sp)
   112a8:	0b478793          	addi	a5,a5,180 # 220b4 <__init_array_start>
   112ac:	0b440713          	addi	a4,s0,180 # 220b4 <__init_array_start>
   112b0:	00112623          	sw	ra,12(sp)
   112b4:	00912223          	sw	s1,4(sp)
   112b8:	40e78933          	sub	s2,a5,a4
   112bc:	02e78263          	beq	a5,a4,112e0 <__libc_init_array+0x4c>
   112c0:	40295913          	srai	s2,s2,0x2
   112c4:	0b440413          	addi	s0,s0,180
   112c8:	00000493          	li	s1,0
   112cc:	00042783          	lw	a5,0(s0)
   112d0:	00148493          	addi	s1,s1,1
   112d4:	00440413          	addi	s0,s0,4
   112d8:	000780e7          	jalr	a5
   112dc:	ff24e8e3          	bltu	s1,s2,112cc <__libc_init_array+0x38>
   112e0:	00022437          	lui	s0,0x22
   112e4:	000227b7          	lui	a5,0x22
   112e8:	0bc78793          	addi	a5,a5,188 # 220bc <__do_global_dtors_aux_fini_array_entry>
   112ec:	0b440713          	addi	a4,s0,180 # 220b4 <__init_array_start>
   112f0:	40e78933          	sub	s2,a5,a4
   112f4:	40295913          	srai	s2,s2,0x2
   112f8:	02e78063          	beq	a5,a4,11318 <__libc_init_array+0x84>
   112fc:	0b440413          	addi	s0,s0,180
   11300:	00000493          	li	s1,0
   11304:	00042783          	lw	a5,0(s0)
   11308:	00148493          	addi	s1,s1,1
   1130c:	00440413          	addi	s0,s0,4
   11310:	000780e7          	jalr	a5
   11314:	ff24e8e3          	bltu	s1,s2,11304 <__libc_init_array+0x70>
   11318:	00c12083          	lw	ra,12(sp)
   1131c:	00812403          	lw	s0,8(sp)
   11320:	00412483          	lw	s1,4(sp)
   11324:	00012903          	lw	s2,0(sp)
   11328:	01010113          	addi	sp,sp,16
   1132c:	00008067          	ret

00011330 <memset>:
   11330:	00f00313          	li	t1,15
   11334:	00050713          	mv	a4,a0
   11338:	02c37e63          	bgeu	t1,a2,11374 <memset+0x44>
   1133c:	00f77793          	andi	a5,a4,15
   11340:	0a079063          	bnez	a5,113e0 <memset+0xb0>
   11344:	08059263          	bnez	a1,113c8 <memset+0x98>
   11348:	ff067693          	andi	a3,a2,-16
   1134c:	00f67613          	andi	a2,a2,15
   11350:	00e686b3          	add	a3,a3,a4
   11354:	00b72023          	sw	a1,0(a4)
   11358:	00b72223          	sw	a1,4(a4)
   1135c:	00b72423          	sw	a1,8(a4)
   11360:	00b72623          	sw	a1,12(a4)
   11364:	01070713          	addi	a4,a4,16
   11368:	fed766e3          	bltu	a4,a3,11354 <memset+0x24>
   1136c:	00061463          	bnez	a2,11374 <memset+0x44>
   11370:	00008067          	ret
   11374:	40c306b3          	sub	a3,t1,a2
   11378:	00269693          	slli	a3,a3,0x2
   1137c:	00000297          	auipc	t0,0x0
   11380:	005686b3          	add	a3,a3,t0
   11384:	00c68067          	jr	12(a3)
   11388:	00b70723          	sb	a1,14(a4)
   1138c:	00b706a3          	sb	a1,13(a4)
   11390:	00b70623          	sb	a1,12(a4)
   11394:	00b705a3          	sb	a1,11(a4)
   11398:	00b70523          	sb	a1,10(a4)
   1139c:	00b704a3          	sb	a1,9(a4)
   113a0:	00b70423          	sb	a1,8(a4)
   113a4:	00b703a3          	sb	a1,7(a4)
   113a8:	00b70323          	sb	a1,6(a4)
   113ac:	00b702a3          	sb	a1,5(a4)
   113b0:	00b70223          	sb	a1,4(a4)
   113b4:	00b701a3          	sb	a1,3(a4)
   113b8:	00b70123          	sb	a1,2(a4)
   113bc:	00b700a3          	sb	a1,1(a4)
   113c0:	00b70023          	sb	a1,0(a4)
   113c4:	00008067          	ret
   113c8:	0ff5f593          	zext.b	a1,a1
   113cc:	00859693          	slli	a3,a1,0x8
   113d0:	00d5e5b3          	or	a1,a1,a3
   113d4:	01059693          	slli	a3,a1,0x10
   113d8:	00d5e5b3          	or	a1,a1,a3
   113dc:	f6dff06f          	j	11348 <memset+0x18>
   113e0:	00279693          	slli	a3,a5,0x2
   113e4:	00000297          	auipc	t0,0x0
   113e8:	005686b3          	add	a3,a3,t0
   113ec:	00008293          	mv	t0,ra
   113f0:	fa0680e7          	jalr	-96(a3)
   113f4:	00028093          	mv	ra,t0
   113f8:	ff078793          	addi	a5,a5,-16
   113fc:	40f70733          	sub	a4,a4,a5
   11400:	00f60633          	add	a2,a2,a5
   11404:	f6c378e3          	bgeu	t1,a2,11374 <memset+0x44>
   11408:	f3dff06f          	j	11344 <memset+0x14>

0001140c <__call_exitprocs>:
   1140c:	fd010113          	addi	sp,sp,-48
   11410:	01412c23          	sw	s4,24(sp)
   11414:	03212023          	sw	s2,32(sp)
   11418:	f2c1a903          	lw	s2,-212(gp) # 227ec <__atexit>
   1141c:	02112623          	sw	ra,44(sp)
   11420:	0a090863          	beqz	s2,114d0 <__call_exitprocs+0xc4>
   11424:	01312e23          	sw	s3,28(sp)
   11428:	01512a23          	sw	s5,20(sp)
   1142c:	01612823          	sw	s6,16(sp)
   11430:	01712623          	sw	s7,12(sp)
   11434:	02812423          	sw	s0,40(sp)
   11438:	02912223          	sw	s1,36(sp)
   1143c:	01812423          	sw	s8,8(sp)
   11440:	00050b13          	mv	s6,a0
   11444:	00058b93          	mv	s7,a1
   11448:	fff00993          	li	s3,-1
   1144c:	00100a93          	li	s5,1
   11450:	00492483          	lw	s1,4(s2)
   11454:	fff48413          	addi	s0,s1,-1
   11458:	04044e63          	bltz	s0,114b4 <__call_exitprocs+0xa8>
   1145c:	00249493          	slli	s1,s1,0x2
   11460:	009904b3          	add	s1,s2,s1
   11464:	080b9063          	bnez	s7,114e4 <__call_exitprocs+0xd8>
   11468:	00492783          	lw	a5,4(s2)
   1146c:	0044a683          	lw	a3,4(s1)
   11470:	fff78793          	addi	a5,a5,-1
   11474:	0a878c63          	beq	a5,s0,1152c <__call_exitprocs+0x120>
   11478:	0004a223          	sw	zero,4(s1)
   1147c:	02068663          	beqz	a3,114a8 <__call_exitprocs+0x9c>
   11480:	18892783          	lw	a5,392(s2)
   11484:	008a9733          	sll	a4,s5,s0
   11488:	00492c03          	lw	s8,4(s2)
   1148c:	00f777b3          	and	a5,a4,a5
   11490:	06079663          	bnez	a5,114fc <__call_exitprocs+0xf0>
   11494:	000680e7          	jalr	a3
   11498:	00492703          	lw	a4,4(s2)
   1149c:	f2c1a783          	lw	a5,-212(gp) # 227ec <__atexit>
   114a0:	09871063          	bne	a4,s8,11520 <__call_exitprocs+0x114>
   114a4:	07279e63          	bne	a5,s2,11520 <__call_exitprocs+0x114>
   114a8:	fff40413          	addi	s0,s0,-1
   114ac:	ffc48493          	addi	s1,s1,-4
   114b0:	fb341ae3          	bne	s0,s3,11464 <__call_exitprocs+0x58>
   114b4:	02812403          	lw	s0,40(sp)
   114b8:	02412483          	lw	s1,36(sp)
   114bc:	01c12983          	lw	s3,28(sp)
   114c0:	01412a83          	lw	s5,20(sp)
   114c4:	01012b03          	lw	s6,16(sp)
   114c8:	00c12b83          	lw	s7,12(sp)
   114cc:	00812c03          	lw	s8,8(sp)
   114d0:	02c12083          	lw	ra,44(sp)
   114d4:	02012903          	lw	s2,32(sp)
   114d8:	01812a03          	lw	s4,24(sp)
   114dc:	03010113          	addi	sp,sp,48
   114e0:	00008067          	ret
   114e4:	1044a783          	lw	a5,260(s1)
   114e8:	f97780e3          	beq	a5,s7,11468 <__call_exitprocs+0x5c>
   114ec:	fff40413          	addi	s0,s0,-1
   114f0:	ffc48493          	addi	s1,s1,-4
   114f4:	ff3418e3          	bne	s0,s3,114e4 <__call_exitprocs+0xd8>
   114f8:	fbdff06f          	j	114b4 <__call_exitprocs+0xa8>
   114fc:	18c92783          	lw	a5,396(s2)
   11500:	0844a583          	lw	a1,132(s1)
   11504:	00f77733          	and	a4,a4,a5
   11508:	02071663          	bnez	a4,11534 <__call_exitprocs+0x128>
   1150c:	000b0513          	mv	a0,s6
   11510:	000680e7          	jalr	a3
   11514:	00492703          	lw	a4,4(s2)
   11518:	f2c1a783          	lw	a5,-212(gp) # 227ec <__atexit>
   1151c:	f98704e3          	beq	a4,s8,114a4 <__call_exitprocs+0x98>
   11520:	f8078ae3          	beqz	a5,114b4 <__call_exitprocs+0xa8>
   11524:	00078913          	mv	s2,a5
   11528:	f29ff06f          	j	11450 <__call_exitprocs+0x44>
   1152c:	00892223          	sw	s0,4(s2)
   11530:	f4dff06f          	j	1147c <__call_exitprocs+0x70>
   11534:	00058513          	mv	a0,a1
   11538:	000680e7          	jalr	a3
   1153c:	f5dff06f          	j	11498 <__call_exitprocs+0x8c>

00011540 <atexit>:
   11540:	00050593          	mv	a1,a0
   11544:	00000693          	li	a3,0
   11548:	00000613          	li	a2,0
   1154c:	00000513          	li	a0,0
   11550:	73d0306f          	j	1548c <__register_exitproc>

00011554 <_malloc_trim_r>:
   11554:	fe010113          	addi	sp,sp,-32
   11558:	01312623          	sw	s3,12(sp)
   1155c:	000229b7          	lui	s3,0x22
   11560:	00812c23          	sw	s0,24(sp)
   11564:	00912a23          	sw	s1,20(sp)
   11568:	01212823          	sw	s2,16(sp)
   1156c:	01412423          	sw	s4,8(sp)
   11570:	00112e23          	sw	ra,28(sp)
   11574:	00058a13          	mv	s4,a1
   11578:	00050913          	mv	s2,a0
   1157c:	0c098993          	addi	s3,s3,192 # 220c0 <__malloc_av_>
   11580:	c38ff0ef          	jal	109b8 <__malloc_lock>
   11584:	0089a703          	lw	a4,8(s3)
   11588:	000017b7          	lui	a5,0x1
   1158c:	fef78793          	addi	a5,a5,-17 # fef <exit-0xf0a5>
   11590:	00472483          	lw	s1,4(a4)
   11594:	00001737          	lui	a4,0x1
   11598:	ffc4f493          	andi	s1,s1,-4
   1159c:	00f48433          	add	s0,s1,a5
   115a0:	41440433          	sub	s0,s0,s4
   115a4:	00c45413          	srli	s0,s0,0xc
   115a8:	fff40413          	addi	s0,s0,-1
   115ac:	00c41413          	slli	s0,s0,0xc
   115b0:	00e44e63          	blt	s0,a4,115cc <_malloc_trim_r+0x78>
   115b4:	00000593          	li	a1,0
   115b8:	00090513          	mv	a0,s2
   115bc:	c15ff0ef          	jal	111d0 <_sbrk_r>
   115c0:	0089a783          	lw	a5,8(s3)
   115c4:	009787b3          	add	a5,a5,s1
   115c8:	02f50863          	beq	a0,a5,115f8 <_malloc_trim_r+0xa4>
   115cc:	00090513          	mv	a0,s2
   115d0:	becff0ef          	jal	109bc <__malloc_unlock>
   115d4:	01c12083          	lw	ra,28(sp)
   115d8:	01812403          	lw	s0,24(sp)
   115dc:	01412483          	lw	s1,20(sp)
   115e0:	01012903          	lw	s2,16(sp)
   115e4:	00c12983          	lw	s3,12(sp)
   115e8:	00812a03          	lw	s4,8(sp)
   115ec:	00000513          	li	a0,0
   115f0:	02010113          	addi	sp,sp,32
   115f4:	00008067          	ret
   115f8:	408005b3          	neg	a1,s0
   115fc:	00090513          	mv	a0,s2
   11600:	bd1ff0ef          	jal	111d0 <_sbrk_r>
   11604:	fff00793          	li	a5,-1
   11608:	04f50863          	beq	a0,a5,11658 <_malloc_trim_r+0x104>
   1160c:	f5418793          	addi	a5,gp,-172 # 22814 <__malloc_current_mallinfo>
   11610:	0007a703          	lw	a4,0(a5)
   11614:	0089a683          	lw	a3,8(s3)
   11618:	408484b3          	sub	s1,s1,s0
   1161c:	0014e493          	ori	s1,s1,1
   11620:	40870733          	sub	a4,a4,s0
   11624:	00090513          	mv	a0,s2
   11628:	0096a223          	sw	s1,4(a3)
   1162c:	00e7a023          	sw	a4,0(a5)
   11630:	b8cff0ef          	jal	109bc <__malloc_unlock>
   11634:	01c12083          	lw	ra,28(sp)
   11638:	01812403          	lw	s0,24(sp)
   1163c:	01412483          	lw	s1,20(sp)
   11640:	01012903          	lw	s2,16(sp)
   11644:	00c12983          	lw	s3,12(sp)
   11648:	00812a03          	lw	s4,8(sp)
   1164c:	00100513          	li	a0,1
   11650:	02010113          	addi	sp,sp,32
   11654:	00008067          	ret
   11658:	00000593          	li	a1,0
   1165c:	00090513          	mv	a0,s2
   11660:	b71ff0ef          	jal	111d0 <_sbrk_r>
   11664:	0089a703          	lw	a4,8(s3)
   11668:	00f00693          	li	a3,15
   1166c:	40e507b3          	sub	a5,a0,a4
   11670:	f4f6dee3          	bge	a3,a5,115cc <_malloc_trim_r+0x78>
   11674:	f0c1a683          	lw	a3,-244(gp) # 227cc <__malloc_sbrk_base>
   11678:	0017e793          	ori	a5,a5,1
   1167c:	00f72223          	sw	a5,4(a4) # 1004 <exit-0xf090>
   11680:	40d50533          	sub	a0,a0,a3
   11684:	f4a1aa23          	sw	a0,-172(gp) # 22814 <__malloc_current_mallinfo>
   11688:	f45ff06f          	j	115cc <_malloc_trim_r+0x78>

0001168c <_free_r>:
   1168c:	18058263          	beqz	a1,11810 <_free_r+0x184>
   11690:	ff010113          	addi	sp,sp,-16
   11694:	00812423          	sw	s0,8(sp)
   11698:	00912223          	sw	s1,4(sp)
   1169c:	00058413          	mv	s0,a1
   116a0:	00050493          	mv	s1,a0
   116a4:	00112623          	sw	ra,12(sp)
   116a8:	b10ff0ef          	jal	109b8 <__malloc_lock>
   116ac:	ffc42503          	lw	a0,-4(s0)
   116b0:	ff840713          	addi	a4,s0,-8
   116b4:	000225b7          	lui	a1,0x22
   116b8:	ffe57793          	andi	a5,a0,-2
   116bc:	00f70633          	add	a2,a4,a5
   116c0:	0c058593          	addi	a1,a1,192 # 220c0 <__malloc_av_>
   116c4:	00462683          	lw	a3,4(a2)
   116c8:	0085a803          	lw	a6,8(a1)
   116cc:	ffc6f693          	andi	a3,a3,-4
   116d0:	1ac80263          	beq	a6,a2,11874 <_free_r+0x1e8>
   116d4:	00d62223          	sw	a3,4(a2)
   116d8:	00157513          	andi	a0,a0,1
   116dc:	00d60833          	add	a6,a2,a3
   116e0:	0a051063          	bnez	a0,11780 <_free_r+0xf4>
   116e4:	ff842303          	lw	t1,-8(s0)
   116e8:	00482803          	lw	a6,4(a6)
   116ec:	00022537          	lui	a0,0x22
   116f0:	40670733          	sub	a4,a4,t1
   116f4:	00872883          	lw	a7,8(a4)
   116f8:	0c850513          	addi	a0,a0,200 # 220c8 <__malloc_av_+0x8>
   116fc:	006787b3          	add	a5,a5,t1
   11700:	00187813          	andi	a6,a6,1
   11704:	14a88263          	beq	a7,a0,11848 <_free_r+0x1bc>
   11708:	00c72303          	lw	t1,12(a4)
   1170c:	0068a623          	sw	t1,12(a7)
   11710:	01132423          	sw	a7,8(t1)
   11714:	1a080663          	beqz	a6,118c0 <_free_r+0x234>
   11718:	0017e693          	ori	a3,a5,1
   1171c:	00d72223          	sw	a3,4(a4)
   11720:	00f62023          	sw	a5,0(a2)
   11724:	1ff00693          	li	a3,511
   11728:	06f6ec63          	bltu	a3,a5,117a0 <_free_r+0x114>
   1172c:	ff87f693          	andi	a3,a5,-8
   11730:	00868693          	addi	a3,a3,8
   11734:	0045a503          	lw	a0,4(a1)
   11738:	00d586b3          	add	a3,a1,a3
   1173c:	0006a603          	lw	a2,0(a3)
   11740:	0057d813          	srli	a6,a5,0x5
   11744:	00100793          	li	a5,1
   11748:	010797b3          	sll	a5,a5,a6
   1174c:	00a7e7b3          	or	a5,a5,a0
   11750:	ff868513          	addi	a0,a3,-8
   11754:	00a72623          	sw	a0,12(a4)
   11758:	00c72423          	sw	a2,8(a4)
   1175c:	00f5a223          	sw	a5,4(a1)
   11760:	00e6a023          	sw	a4,0(a3)
   11764:	00e62623          	sw	a4,12(a2)
   11768:	00812403          	lw	s0,8(sp)
   1176c:	00c12083          	lw	ra,12(sp)
   11770:	00048513          	mv	a0,s1
   11774:	00412483          	lw	s1,4(sp)
   11778:	01010113          	addi	sp,sp,16
   1177c:	a40ff06f          	j	109bc <__malloc_unlock>
   11780:	00482503          	lw	a0,4(a6)
   11784:	00157513          	andi	a0,a0,1
   11788:	08050663          	beqz	a0,11814 <_free_r+0x188>
   1178c:	0017e693          	ori	a3,a5,1
   11790:	fed42e23          	sw	a3,-4(s0)
   11794:	00f62023          	sw	a5,0(a2)
   11798:	1ff00693          	li	a3,511
   1179c:	f8f6f8e3          	bgeu	a3,a5,1172c <_free_r+0xa0>
   117a0:	0097d693          	srli	a3,a5,0x9
   117a4:	00400613          	li	a2,4
   117a8:	12d66063          	bltu	a2,a3,118c8 <_free_r+0x23c>
   117ac:	0067d693          	srli	a3,a5,0x6
   117b0:	03968513          	addi	a0,a3,57
   117b4:	03868613          	addi	a2,a3,56
   117b8:	00351513          	slli	a0,a0,0x3
   117bc:	00a58533          	add	a0,a1,a0
   117c0:	00052683          	lw	a3,0(a0)
   117c4:	ff850513          	addi	a0,a0,-8
   117c8:	00d51863          	bne	a0,a3,117d8 <_free_r+0x14c>
   117cc:	1540006f          	j	11920 <_free_r+0x294>
   117d0:	0086a683          	lw	a3,8(a3)
   117d4:	00d50863          	beq	a0,a3,117e4 <_free_r+0x158>
   117d8:	0046a603          	lw	a2,4(a3)
   117dc:	ffc67613          	andi	a2,a2,-4
   117e0:	fec7e8e3          	bltu	a5,a2,117d0 <_free_r+0x144>
   117e4:	00c6a503          	lw	a0,12(a3)
   117e8:	00a72623          	sw	a0,12(a4)
   117ec:	00d72423          	sw	a3,8(a4)
   117f0:	00812403          	lw	s0,8(sp)
   117f4:	00e52423          	sw	a4,8(a0)
   117f8:	00c12083          	lw	ra,12(sp)
   117fc:	00048513          	mv	a0,s1
   11800:	00412483          	lw	s1,4(sp)
   11804:	00e6a623          	sw	a4,12(a3)
   11808:	01010113          	addi	sp,sp,16
   1180c:	9b0ff06f          	j	109bc <__malloc_unlock>
   11810:	00008067          	ret
   11814:	00022537          	lui	a0,0x22
   11818:	00d787b3          	add	a5,a5,a3
   1181c:	0c850513          	addi	a0,a0,200 # 220c8 <__malloc_av_+0x8>
   11820:	00862683          	lw	a3,8(a2)
   11824:	0ca68c63          	beq	a3,a0,118fc <_free_r+0x270>
   11828:	00c62803          	lw	a6,12(a2)
   1182c:	0017e513          	ori	a0,a5,1
   11830:	00f70633          	add	a2,a4,a5
   11834:	0106a623          	sw	a6,12(a3)
   11838:	00d82423          	sw	a3,8(a6)
   1183c:	00a72223          	sw	a0,4(a4)
   11840:	00f62023          	sw	a5,0(a2)
   11844:	ee1ff06f          	j	11724 <_free_r+0x98>
   11848:	12081c63          	bnez	a6,11980 <_free_r+0x2f4>
   1184c:	00862583          	lw	a1,8(a2)
   11850:	00c62603          	lw	a2,12(a2)
   11854:	00f686b3          	add	a3,a3,a5
   11858:	0016e793          	ori	a5,a3,1
   1185c:	00c5a623          	sw	a2,12(a1)
   11860:	00b62423          	sw	a1,8(a2)
   11864:	00f72223          	sw	a5,4(a4)
   11868:	00d70733          	add	a4,a4,a3
   1186c:	00d72023          	sw	a3,0(a4)
   11870:	ef9ff06f          	j	11768 <_free_r+0xdc>
   11874:	00157513          	andi	a0,a0,1
   11878:	00d786b3          	add	a3,a5,a3
   1187c:	02051063          	bnez	a0,1189c <_free_r+0x210>
   11880:	ff842503          	lw	a0,-8(s0)
   11884:	40a70733          	sub	a4,a4,a0
   11888:	00c72783          	lw	a5,12(a4)
   1188c:	00872603          	lw	a2,8(a4)
   11890:	00a686b3          	add	a3,a3,a0
   11894:	00f62623          	sw	a5,12(a2)
   11898:	00c7a423          	sw	a2,8(a5)
   1189c:	0016e613          	ori	a2,a3,1
   118a0:	f101a783          	lw	a5,-240(gp) # 227d0 <__malloc_trim_threshold>
   118a4:	00c72223          	sw	a2,4(a4)
   118a8:	00e5a423          	sw	a4,8(a1)
   118ac:	eaf6eee3          	bltu	a3,a5,11768 <_free_r+0xdc>
   118b0:	f201a583          	lw	a1,-224(gp) # 227e0 <__malloc_top_pad>
   118b4:	00048513          	mv	a0,s1
   118b8:	c9dff0ef          	jal	11554 <_malloc_trim_r>
   118bc:	eadff06f          	j	11768 <_free_r+0xdc>
   118c0:	00d787b3          	add	a5,a5,a3
   118c4:	f5dff06f          	j	11820 <_free_r+0x194>
   118c8:	01400613          	li	a2,20
   118cc:	02d67063          	bgeu	a2,a3,118ec <_free_r+0x260>
   118d0:	05400613          	li	a2,84
   118d4:	06d66463          	bltu	a2,a3,1193c <_free_r+0x2b0>
   118d8:	00c7d693          	srli	a3,a5,0xc
   118dc:	06f68513          	addi	a0,a3,111
   118e0:	06e68613          	addi	a2,a3,110
   118e4:	00351513          	slli	a0,a0,0x3
   118e8:	ed5ff06f          	j	117bc <_free_r+0x130>
   118ec:	05c68513          	addi	a0,a3,92
   118f0:	05b68613          	addi	a2,a3,91
   118f4:	00351513          	slli	a0,a0,0x3
   118f8:	ec5ff06f          	j	117bc <_free_r+0x130>
   118fc:	00e5aa23          	sw	a4,20(a1)
   11900:	00e5a823          	sw	a4,16(a1)
   11904:	0017e693          	ori	a3,a5,1
   11908:	00a72623          	sw	a0,12(a4)
   1190c:	00a72423          	sw	a0,8(a4)
   11910:	00d72223          	sw	a3,4(a4)
   11914:	00f70733          	add	a4,a4,a5
   11918:	00f72023          	sw	a5,0(a4)
   1191c:	e4dff06f          	j	11768 <_free_r+0xdc>
   11920:	0045a803          	lw	a6,4(a1)
   11924:	40265613          	srai	a2,a2,0x2
   11928:	00100793          	li	a5,1
   1192c:	00c797b3          	sll	a5,a5,a2
   11930:	0107e7b3          	or	a5,a5,a6
   11934:	00f5a223          	sw	a5,4(a1)
   11938:	eb1ff06f          	j	117e8 <_free_r+0x15c>
   1193c:	15400613          	li	a2,340
   11940:	00d66c63          	bltu	a2,a3,11958 <_free_r+0x2cc>
   11944:	00f7d693          	srli	a3,a5,0xf
   11948:	07868513          	addi	a0,a3,120
   1194c:	07768613          	addi	a2,a3,119
   11950:	00351513          	slli	a0,a0,0x3
   11954:	e69ff06f          	j	117bc <_free_r+0x130>
   11958:	55400613          	li	a2,1364
   1195c:	00d66c63          	bltu	a2,a3,11974 <_free_r+0x2e8>
   11960:	0127d693          	srli	a3,a5,0x12
   11964:	07d68513          	addi	a0,a3,125
   11968:	07c68613          	addi	a2,a3,124
   1196c:	00351513          	slli	a0,a0,0x3
   11970:	e4dff06f          	j	117bc <_free_r+0x130>
   11974:	3f800513          	li	a0,1016
   11978:	07e00613          	li	a2,126
   1197c:	e41ff06f          	j	117bc <_free_r+0x130>
   11980:	0017e693          	ori	a3,a5,1
   11984:	00d72223          	sw	a3,4(a4)
   11988:	00f62023          	sw	a5,0(a2)
   1198c:	dddff06f          	j	11768 <_free_r+0xdc>

00011990 <_vfprintf_r>:
   11990:	e3010113          	addi	sp,sp,-464
   11994:	1c112623          	sw	ra,460(sp)
   11998:	1c812423          	sw	s0,456(sp)
   1199c:	1c912223          	sw	s1,452(sp)
   119a0:	1b612823          	sw	s6,432(sp)
   119a4:	00058493          	mv	s1,a1
   119a8:	00060b13          	mv	s6,a2
   119ac:	00d12623          	sw	a3,12(sp)
   119b0:	00050413          	mv	s0,a0
   119b4:	02a12223          	sw	a0,36(sp)
   119b8:	5a8030ef          	jal	14f60 <_localeconv_r>
   119bc:	00052703          	lw	a4,0(a0)
   119c0:	00070513          	mv	a0,a4
   119c4:	02e12623          	sw	a4,44(sp)
   119c8:	0b5030ef          	jal	1527c <strlen>
   119cc:	02a12423          	sw	a0,40(sp)
   119d0:	0c012823          	sw	zero,208(sp)
   119d4:	0c012a23          	sw	zero,212(sp)
   119d8:	0c012c23          	sw	zero,216(sp)
   119dc:	0c012e23          	sw	zero,220(sp)
   119e0:	00040863          	beqz	s0,119f0 <_vfprintf_r+0x60>
   119e4:	03442703          	lw	a4,52(s0)
   119e8:	00071463          	bnez	a4,119f0 <_vfprintf_r+0x60>
   119ec:	11d0106f          	j	13308 <_vfprintf_r+0x1978>
   119f0:	00c49683          	lh	a3,12(s1)
   119f4:	0644a703          	lw	a4,100(s1)
   119f8:	01269613          	slli	a2,a3,0x12
   119fc:	02064063          	bltz	a2,11a1c <_vfprintf_r+0x8c>
   11a00:	ffffe637          	lui	a2,0xffffe
   11a04:	fff60613          	addi	a2,a2,-1 # ffffdfff <__BSS_END__+0xfffdb4fb>
   11a08:	000025b7          	lui	a1,0x2
   11a0c:	00b6e6b3          	or	a3,a3,a1
   11a10:	00c77733          	and	a4,a4,a2
   11a14:	00d49623          	sh	a3,12(s1)
   11a18:	06e4a223          	sw	a4,100(s1)
   11a1c:	01271693          	slli	a3,a4,0x12
   11a20:	0006d463          	bgez	a3,11a28 <_vfprintf_r+0x98>
   11a24:	3d80206f          	j	13dfc <_vfprintf_r+0x246c>
   11a28:	00c49703          	lh	a4,12(s1)
   11a2c:	00877693          	andi	a3,a4,8
   11a30:	30068463          	beqz	a3,11d38 <_vfprintf_r+0x3a8>
   11a34:	0104a683          	lw	a3,16(s1)
   11a38:	30068063          	beqz	a3,11d38 <_vfprintf_r+0x3a8>
   11a3c:	01a77713          	andi	a4,a4,26
   11a40:	00a00693          	li	a3,10
   11a44:	30d70c63          	beq	a4,a3,11d5c <_vfprintf_r+0x3cc>
   11a48:	1b312e23          	sw	s3,444(sp)
   11a4c:	1b512a23          	sw	s5,436(sp)
   11a50:	1b712623          	sw	s7,428(sp)
   11a54:	1ba12023          	sw	s10,416(sp)
   11a58:	00021737          	lui	a4,0x21
   11a5c:	1d212023          	sw	s2,448(sp)
   11a60:	1b412c23          	sw	s4,440(sp)
   11a64:	1b812423          	sw	s8,424(sp)
   11a68:	1b912223          	sw	s9,420(sp)
   11a6c:	19b12e23          	sw	s11,412(sp)
   11a70:	000b0d13          	mv	s10,s6
   11a74:	48c70793          	addi	a5,a4,1164 # 2148c <__clzsi2+0x198>
   11a78:	000d4703          	lbu	a4,0(s10)
   11a7c:	0ec10993          	addi	s3,sp,236
   11a80:	00021ab7          	lui	s5,0x21
   11a84:	0d312223          	sw	s3,196(sp)
   11a88:	0c012623          	sw	zero,204(sp)
   11a8c:	0c012423          	sw	zero,200(sp)
   11a90:	00012c23          	sw	zero,24(sp)
   11a94:	02012823          	sw	zero,48(sp)
   11a98:	02012e23          	sw	zero,60(sp)
   11a9c:	02012c23          	sw	zero,56(sp)
   11aa0:	04012023          	sw	zero,64(sp)
   11aa4:	04012223          	sw	zero,68(sp)
   11aa8:	00012223          	sw	zero,4(sp)
   11aac:	00f12823          	sw	a5,16(sp)
   11ab0:	02412b83          	lw	s7,36(sp)
   11ab4:	00098413          	mv	s0,s3
   11ab8:	690a8a93          	addi	s5,s5,1680 # 21690 <zeroes.0>
   11abc:	22070063          	beqz	a4,11cdc <_vfprintf_r+0x34c>
   11ac0:	000d0913          	mv	s2,s10
   11ac4:	02500693          	li	a3,37
   11ac8:	3ed70863          	beq	a4,a3,11eb8 <_vfprintf_r+0x528>
   11acc:	00194703          	lbu	a4,1(s2)
   11ad0:	00190913          	addi	s2,s2,1
   11ad4:	fe071ae3          	bnez	a4,11ac8 <_vfprintf_r+0x138>
   11ad8:	41a90a33          	sub	s4,s2,s10
   11adc:	21a90063          	beq	s2,s10,11cdc <_vfprintf_r+0x34c>
   11ae0:	0cc12683          	lw	a3,204(sp)
   11ae4:	0c812703          	lw	a4,200(sp)
   11ae8:	01a42023          	sw	s10,0(s0)
   11aec:	014686b3          	add	a3,a3,s4
   11af0:	00170713          	addi	a4,a4,1
   11af4:	01442223          	sw	s4,4(s0)
   11af8:	0cd12623          	sw	a3,204(sp)
   11afc:	0ce12423          	sw	a4,200(sp)
   11b00:	00700693          	li	a3,7
   11b04:	00840413          	addi	s0,s0,8
   11b08:	3ce6c063          	blt	a3,a4,11ec8 <_vfprintf_r+0x538>
   11b0c:	00412783          	lw	a5,4(sp)
   11b10:	00094703          	lbu	a4,0(s2)
   11b14:	014787b3          	add	a5,a5,s4
   11b18:	00f12223          	sw	a5,4(sp)
   11b1c:	1c070063          	beqz	a4,11cdc <_vfprintf_r+0x34c>
   11b20:	00194883          	lbu	a7,1(s2)
   11b24:	0a0103a3          	sb	zero,167(sp)
   11b28:	00190913          	addi	s2,s2,1
   11b2c:	fff00a13          	li	s4,-1
   11b30:	00000c93          	li	s9,0
   11b34:	00000d93          	li	s11,0
   11b38:	05a00b13          	li	s6,90
   11b3c:	00190913          	addi	s2,s2,1
   11b40:	fe088793          	addi	a5,a7,-32
   11b44:	04fb6663          	bltu	s6,a5,11b90 <_vfprintf_r+0x200>
   11b48:	01012703          	lw	a4,16(sp)
   11b4c:	00279793          	slli	a5,a5,0x2
   11b50:	00e787b3          	add	a5,a5,a4
   11b54:	0007a783          	lw	a5,0(a5)
   11b58:	00078067          	jr	a5
   11b5c:	00000c93          	li	s9,0
   11b60:	fd088793          	addi	a5,a7,-48
   11b64:	00900693          	li	a3,9
   11b68:	00094883          	lbu	a7,0(s2)
   11b6c:	002c9713          	slli	a4,s9,0x2
   11b70:	01970cb3          	add	s9,a4,s9
   11b74:	001c9c93          	slli	s9,s9,0x1
   11b78:	01978cb3          	add	s9,a5,s9
   11b7c:	fd088793          	addi	a5,a7,-48
   11b80:	00190913          	addi	s2,s2,1
   11b84:	fef6f2e3          	bgeu	a3,a5,11b68 <_vfprintf_r+0x1d8>
   11b88:	fe088793          	addi	a5,a7,-32
   11b8c:	fafb7ee3          	bgeu	s6,a5,11b48 <_vfprintf_r+0x1b8>
   11b90:	14088663          	beqz	a7,11cdc <_vfprintf_r+0x34c>
   11b94:	13110623          	sb	a7,300(sp)
   11b98:	0a0103a3          	sb	zero,167(sp)
   11b9c:	00100c13          	li	s8,1
   11ba0:	00100b13          	li	s6,1
   11ba4:	12c10d13          	addi	s10,sp,300
   11ba8:	00012423          	sw	zero,8(sp)
   11bac:	00000a13          	li	s4,0
   11bb0:	02012023          	sw	zero,32(sp)
   11bb4:	00012e23          	sw	zero,28(sp)
   11bb8:	00012a23          	sw	zero,20(sp)
   11bbc:	002df293          	andi	t0,s11,2
   11bc0:	00028463          	beqz	t0,11bc8 <_vfprintf_r+0x238>
   11bc4:	002c0c13          	addi	s8,s8,2
   11bc8:	084dff93          	andi	t6,s11,132
   11bcc:	0cc12603          	lw	a2,204(sp)
   11bd0:	000f9663          	bnez	t6,11bdc <_vfprintf_r+0x24c>
   11bd4:	418c8733          	sub	a4,s9,s8
   11bd8:	46e04ce3          	bgtz	a4,12850 <_vfprintf_r+0xec0>
   11bdc:	0a714703          	lbu	a4,167(sp)
   11be0:	02070a63          	beqz	a4,11c14 <_vfprintf_r+0x284>
   11be4:	0c812703          	lw	a4,200(sp)
   11be8:	0a710593          	addi	a1,sp,167
   11bec:	00b42023          	sw	a1,0(s0)
   11bf0:	00160613          	addi	a2,a2,1
   11bf4:	00100593          	li	a1,1
   11bf8:	00170713          	addi	a4,a4,1
   11bfc:	00b42223          	sw	a1,4(s0)
   11c00:	0cc12623          	sw	a2,204(sp)
   11c04:	0ce12423          	sw	a4,200(sp)
   11c08:	00700593          	li	a1,7
   11c0c:	00840413          	addi	s0,s0,8
   11c10:	3ee5c463          	blt	a1,a4,11ff8 <_vfprintf_r+0x668>
   11c14:	02028a63          	beqz	t0,11c48 <_vfprintf_r+0x2b8>
   11c18:	0c812703          	lw	a4,200(sp)
   11c1c:	00200593          	li	a1,2
   11c20:	00260613          	addi	a2,a2,2
   11c24:	00170713          	addi	a4,a4,1
   11c28:	0a810793          	addi	a5,sp,168
   11c2c:	00b42223          	sw	a1,4(s0)
   11c30:	00f42023          	sw	a5,0(s0)
   11c34:	0cc12623          	sw	a2,204(sp)
   11c38:	0ce12423          	sw	a4,200(sp)
   11c3c:	00700593          	li	a1,7
   11c40:	00840413          	addi	s0,s0,8
   11c44:	50e5cce3          	blt	a1,a4,1295c <_vfprintf_r+0xfcc>
   11c48:	08000713          	li	a4,128
   11c4c:	1eef8ee3          	beq	t6,a4,12648 <_vfprintf_r+0xcb8>
   11c50:	416a0a33          	sub	s4,s4,s6
   11c54:	2f4044e3          	bgtz	s4,1273c <_vfprintf_r+0xdac>
   11c58:	100df713          	andi	a4,s11,256
   11c5c:	040718e3          	bnez	a4,124ac <_vfprintf_r+0xb1c>
   11c60:	0c812783          	lw	a5,200(sp)
   11c64:	01660633          	add	a2,a2,s6
   11c68:	01a42023          	sw	s10,0(s0)
   11c6c:	00178793          	addi	a5,a5,1
   11c70:	01642223          	sw	s6,4(s0)
   11c74:	0cc12623          	sw	a2,204(sp)
   11c78:	0cf12423          	sw	a5,200(sp)
   11c7c:	00700713          	li	a4,7
   11c80:	4cf74063          	blt	a4,a5,12140 <_vfprintf_r+0x7b0>
   11c84:	00840413          	addi	s0,s0,8
   11c88:	004dfe13          	andi	t3,s11,4
   11c8c:	000e0663          	beqz	t3,11c98 <_vfprintf_r+0x308>
   11c90:	418c8a33          	sub	s4,s9,s8
   11c94:	4f404ce3          	bgtz	s4,1298c <_vfprintf_r+0xffc>
   11c98:	000c8313          	mv	t1,s9
   11c9c:	018cd463          	bge	s9,s8,11ca4 <_vfprintf_r+0x314>
   11ca0:	000c0313          	mv	t1,s8
   11ca4:	00412783          	lw	a5,4(sp)
   11ca8:	006787b3          	add	a5,a5,t1
   11cac:	00f12223          	sw	a5,4(sp)
   11cb0:	360618e3          	bnez	a2,12820 <_vfprintf_r+0xe90>
   11cb4:	00812783          	lw	a5,8(sp)
   11cb8:	0c012423          	sw	zero,200(sp)
   11cbc:	00078863          	beqz	a5,11ccc <_vfprintf_r+0x33c>
   11cc0:	00812583          	lw	a1,8(sp)
   11cc4:	000b8513          	mv	a0,s7
   11cc8:	9c5ff0ef          	jal	1168c <_free_r>
   11ccc:	00098413          	mv	s0,s3
   11cd0:	00090d13          	mv	s10,s2
   11cd4:	000d4703          	lbu	a4,0(s10)
   11cd8:	de0714e3          	bnez	a4,11ac0 <_vfprintf_r+0x130>
   11cdc:	0cc12783          	lw	a5,204(sp)
   11ce0:	00078463          	beqz	a5,11ce8 <_vfprintf_r+0x358>
   11ce4:	3890106f          	j	1386c <_vfprintf_r+0x1edc>
   11ce8:	00c4d783          	lhu	a5,12(s1)
   11cec:	1c012903          	lw	s2,448(sp)
   11cf0:	1bc12983          	lw	s3,444(sp)
   11cf4:	0407f793          	andi	a5,a5,64
   11cf8:	1b812a03          	lw	s4,440(sp)
   11cfc:	1b412a83          	lw	s5,436(sp)
   11d00:	1ac12b83          	lw	s7,428(sp)
   11d04:	1a812c03          	lw	s8,424(sp)
   11d08:	1a412c83          	lw	s9,420(sp)
   11d0c:	1a012d03          	lw	s10,416(sp)
   11d10:	19c12d83          	lw	s11,412(sp)
   11d14:	00078463          	beqz	a5,11d1c <_vfprintf_r+0x38c>
   11d18:	0e40206f          	j	13dfc <_vfprintf_r+0x246c>
   11d1c:	1cc12083          	lw	ra,460(sp)
   11d20:	1c812403          	lw	s0,456(sp)
   11d24:	00412503          	lw	a0,4(sp)
   11d28:	1c412483          	lw	s1,452(sp)
   11d2c:	1b012b03          	lw	s6,432(sp)
   11d30:	1d010113          	addi	sp,sp,464
   11d34:	00008067          	ret
   11d38:	02412503          	lw	a0,36(sp)
   11d3c:	00048593          	mv	a1,s1
   11d40:	769020ef          	jal	14ca8 <__swsetup_r>
   11d44:	00050463          	beqz	a0,11d4c <_vfprintf_r+0x3bc>
   11d48:	0b40206f          	j	13dfc <_vfprintf_r+0x246c>
   11d4c:	00c49703          	lh	a4,12(s1)
   11d50:	00a00693          	li	a3,10
   11d54:	01a77713          	andi	a4,a4,26
   11d58:	ced718e3          	bne	a4,a3,11a48 <_vfprintf_r+0xb8>
   11d5c:	00e49703          	lh	a4,14(s1)
   11d60:	ce0744e3          	bltz	a4,11a48 <_vfprintf_r+0xb8>
   11d64:	00c12683          	lw	a3,12(sp)
   11d68:	02412503          	lw	a0,36(sp)
   11d6c:	000b0613          	mv	a2,s6
   11d70:	00048593          	mv	a1,s1
   11d74:	4cc020ef          	jal	14240 <__sbprintf>
   11d78:	00a12223          	sw	a0,4(sp)
   11d7c:	fa1ff06f          	j	11d1c <_vfprintf_r+0x38c>
   11d80:	000b8513          	mv	a0,s7
   11d84:	1dc030ef          	jal	14f60 <_localeconv_r>
   11d88:	00452783          	lw	a5,4(a0)
   11d8c:	00078513          	mv	a0,a5
   11d90:	04f12223          	sw	a5,68(sp)
   11d94:	4e8030ef          	jal	1527c <strlen>
   11d98:	00050793          	mv	a5,a0
   11d9c:	000b8513          	mv	a0,s7
   11da0:	00078c13          	mv	s8,a5
   11da4:	04f12023          	sw	a5,64(sp)
   11da8:	1b8030ef          	jal	14f60 <_localeconv_r>
   11dac:	00852703          	lw	a4,8(a0)
   11db0:	02e12c23          	sw	a4,56(sp)
   11db4:	720c1ee3          	bnez	s8,12cf0 <_vfprintf_r+0x1360>
   11db8:	00094883          	lbu	a7,0(s2)
   11dbc:	d81ff06f          	j	11b3c <_vfprintf_r+0x1ac>
   11dc0:	00094883          	lbu	a7,0(s2)
   11dc4:	020ded93          	ori	s11,s11,32
   11dc8:	d75ff06f          	j	11b3c <_vfprintf_r+0x1ac>
   11dcc:	010ded93          	ori	s11,s11,16
   11dd0:	020df793          	andi	a5,s11,32
   11dd4:	38078663          	beqz	a5,12160 <_vfprintf_r+0x7d0>
   11dd8:	00c12783          	lw	a5,12(sp)
   11ddc:	00778c13          	addi	s8,a5,7
   11de0:	ff8c7c13          	andi	s8,s8,-8
   11de4:	004c2783          	lw	a5,4(s8)
   11de8:	000c2b03          	lw	s6,0(s8)
   11dec:	008c0713          	addi	a4,s8,8
   11df0:	00e12623          	sw	a4,12(sp)
   11df4:	00078813          	mv	a6,a5
   11df8:	3807ce63          	bltz	a5,12194 <_vfprintf_r+0x804>
   11dfc:	000d8613          	mv	a2,s11
   11e00:	4e0a4e63          	bltz	s4,122fc <_vfprintf_r+0x96c>
   11e04:	010b67b3          	or	a5,s6,a6
   11e08:	f7fdf613          	andi	a2,s11,-129
   11e0c:	4e079863          	bnez	a5,122fc <_vfprintf_r+0x96c>
   11e10:	4e0a1c63          	bnez	s4,12308 <_vfprintf_r+0x978>
   11e14:	00000b13          	li	s6,0
   11e18:	00060d93          	mv	s11,a2
   11e1c:	19010d13          	addi	s10,sp,400
   11e20:	0a714703          	lbu	a4,167(sp)
   11e24:	000a0c13          	mv	s8,s4
   11e28:	016a5463          	bge	s4,s6,11e30 <_vfprintf_r+0x4a0>
   11e2c:	000b0c13          	mv	s8,s6
   11e30:	00012423          	sw	zero,8(sp)
   11e34:	02012023          	sw	zero,32(sp)
   11e38:	00012e23          	sw	zero,28(sp)
   11e3c:	00012a23          	sw	zero,20(sp)
   11e40:	d6070ee3          	beqz	a4,11bbc <_vfprintf_r+0x22c>
   11e44:	001c0c13          	addi	s8,s8,1
   11e48:	d75ff06f          	j	11bbc <_vfprintf_r+0x22c>
   11e4c:	010ded93          	ori	s11,s11,16
   11e50:	020df793          	andi	a5,s11,32
   11e54:	3c078863          	beqz	a5,12224 <_vfprintf_r+0x894>
   11e58:	00c12783          	lw	a5,12(sp)
   11e5c:	00778c13          	addi	s8,a5,7
   11e60:	ff8c7c13          	andi	s8,s8,-8
   11e64:	000c2b03          	lw	s6,0(s8)
   11e68:	004c2803          	lw	a6,4(s8)
   11e6c:	008c0793          	addi	a5,s8,8
   11e70:	00f12623          	sw	a5,12(sp)
   11e74:	bffdf613          	andi	a2,s11,-1025
   11e78:	00000793          	li	a5,0
   11e7c:	00000693          	li	a3,0
   11e80:	0ad103a3          	sb	a3,167(sp)
   11e84:	320a4a63          	bltz	s4,121b8 <_vfprintf_r+0x828>
   11e88:	010b66b3          	or	a3,s6,a6
   11e8c:	f7f67d93          	andi	s11,a2,-129
   11e90:	1a069ce3          	bnez	a3,12848 <_vfprintf_r+0xeb8>
   11e94:	740a1c63          	bnez	s4,125ec <_vfprintf_r+0xc5c>
   11e98:	5e0796e3          	bnez	a5,12c84 <_vfprintf_r+0x12f4>
   11e9c:	00167b13          	andi	s6,a2,1
   11ea0:	19010d13          	addi	s10,sp,400
   11ea4:	f60b0ee3          	beqz	s6,11e20 <_vfprintf_r+0x490>
   11ea8:	03000793          	li	a5,48
   11eac:	18f107a3          	sb	a5,399(sp)
   11eb0:	18f10d13          	addi	s10,sp,399
   11eb4:	f6dff06f          	j	11e20 <_vfprintf_r+0x490>
   11eb8:	41a90a33          	sub	s4,s2,s10
   11ebc:	c3a912e3          	bne	s2,s10,11ae0 <_vfprintf_r+0x150>
   11ec0:	00094703          	lbu	a4,0(s2)
   11ec4:	c59ff06f          	j	11b1c <_vfprintf_r+0x18c>
   11ec8:	0c410613          	addi	a2,sp,196
   11ecc:	00048593          	mv	a1,s1
   11ed0:	000b8513          	mv	a0,s7
   11ed4:	438020ef          	jal	1430c <__sprint_r>
   11ed8:	e00518e3          	bnez	a0,11ce8 <_vfprintf_r+0x358>
   11edc:	00098413          	mv	s0,s3
   11ee0:	c2dff06f          	j	11b0c <_vfprintf_r+0x17c>
   11ee4:	008df713          	andi	a4,s11,8
   11ee8:	64071ce3          	bnez	a4,12d40 <_vfprintf_r+0x13b0>
   11eec:	00c12783          	lw	a5,12(sp)
   11ef0:	09010513          	addi	a0,sp,144
   11ef4:	01112423          	sw	a7,8(sp)
   11ef8:	00778c13          	addi	s8,a5,7
   11efc:	ff8c7c13          	andi	s8,s8,-8
   11f00:	000c2583          	lw	a1,0(s8)
   11f04:	004c2603          	lw	a2,4(s8)
   11f08:	008c0793          	addi	a5,s8,8
   11f0c:	00f12623          	sw	a5,12(sp)
   11f10:	1040f0ef          	jal	21014 <__extenddftf2>
   11f14:	09012583          	lw	a1,144(sp)
   11f18:	09412603          	lw	a2,148(sp)
   11f1c:	09812683          	lw	a3,152(sp)
   11f20:	09c12703          	lw	a4,156(sp)
   11f24:	00812883          	lw	a7,8(sp)
   11f28:	0d010513          	addi	a0,sp,208
   11f2c:	01112423          	sw	a7,8(sp)
   11f30:	0ce12e23          	sw	a4,220(sp)
   11f34:	0cb12823          	sw	a1,208(sp)
   11f38:	0cc12a23          	sw	a2,212(sp)
   11f3c:	0cd12c23          	sw	a3,216(sp)
   11f40:	089030ef          	jal	157c8 <_ldcheck>
   11f44:	0aa12623          	sw	a0,172(sp)
   11f48:	00200713          	li	a4,2
   11f4c:	00812883          	lw	a7,8(sp)
   11f50:	00e51463          	bne	a0,a4,11f58 <_vfprintf_r+0x5c8>
   11f54:	4100106f          	j	13364 <_vfprintf_r+0x19d4>
   11f58:	00100713          	li	a4,1
   11f5c:	00e51463          	bne	a0,a4,11f64 <_vfprintf_r+0x5d4>
   11f60:	5640106f          	j	134c4 <_vfprintf_r+0x1b34>
   11f64:	06100713          	li	a4,97
   11f68:	00e89463          	bne	a7,a4,11f70 <_vfprintf_r+0x5e0>
   11f6c:	7b10006f          	j	12f1c <_vfprintf_r+0x158c>
   11f70:	04100713          	li	a4,65
   11f74:	05800793          	li	a5,88
   11f78:	00e89463          	bne	a7,a4,11f80 <_vfprintf_r+0x5f0>
   11f7c:	7a50006f          	j	12f20 <_vfprintf_r+0x1590>
   11f80:	fff00713          	li	a4,-1
   11f84:	00ea1463          	bne	s4,a4,11f8c <_vfprintf_r+0x5fc>
   11f88:	0f40206f          	j	1407c <_vfprintf_r+0x26ec>
   11f8c:	fdf8f713          	andi	a4,a7,-33
   11f90:	04700693          	li	a3,71
   11f94:	00012423          	sw	zero,8(sp)
   11f98:	00d71663          	bne	a4,a3,11fa4 <_vfprintf_r+0x614>
   11f9c:	000a1463          	bnez	s4,11fa4 <_vfprintf_r+0x614>
   11fa0:	00100a13          	li	s4,1
   11fa4:	0dc12c03          	lw	s8,220(sp)
   11fa8:	100de793          	ori	a5,s11,256
   11fac:	04f12423          	sw	a5,72(sp)
   11fb0:	02012a23          	sw	zero,52(sp)
   11fb4:	0d012f83          	lw	t6,208(sp)
   11fb8:	0d412f03          	lw	t5,212(sp)
   11fbc:	0d812e83          	lw	t4,216(sp)
   11fc0:	000c5a63          	bgez	s8,11fd4 <_vfprintf_r+0x644>
   11fc4:	80000737          	lui	a4,0x80000
   11fc8:	02d00793          	li	a5,45
   11fcc:	01874c33          	xor	s8,a4,s8
   11fd0:	02f12a23          	sw	a5,52(sp)
   11fd4:	fbf88713          	addi	a4,a7,-65
   11fd8:	02500693          	li	a3,37
   11fdc:	78e6e6e3          	bltu	a3,a4,12f68 <_vfprintf_r+0x15d8>
   11fe0:	000216b7          	lui	a3,0x21
   11fe4:	00271713          	slli	a4,a4,0x2
   11fe8:	5f868693          	addi	a3,a3,1528 # 215f8 <__clzsi2+0x304>
   11fec:	00d70733          	add	a4,a4,a3
   11ff0:	00072703          	lw	a4,0(a4) # 80000000 <__BSS_END__+0x7ffdd4fc>
   11ff4:	00070067          	jr	a4
   11ff8:	0c410613          	addi	a2,sp,196
   11ffc:	00048593          	mv	a1,s1
   12000:	000b8513          	mv	a0,s7
   12004:	05112623          	sw	a7,76(sp)
   12008:	05f12423          	sw	t6,72(sp)
   1200c:	02512a23          	sw	t0,52(sp)
   12010:	2fc020ef          	jal	1430c <__sprint_r>
   12014:	020510e3          	bnez	a0,12834 <_vfprintf_r+0xea4>
   12018:	0cc12603          	lw	a2,204(sp)
   1201c:	04c12883          	lw	a7,76(sp)
   12020:	04812f83          	lw	t6,72(sp)
   12024:	03412283          	lw	t0,52(sp)
   12028:	00098413          	mv	s0,s3
   1202c:	be9ff06f          	j	11c14 <_vfprintf_r+0x284>
   12030:	0c812a03          	lw	s4,200(sp)
   12034:	01812783          	lw	a5,24(sp)
   12038:	00100713          	li	a4,1
   1203c:	01a42023          	sw	s10,0(s0)
   12040:	00160613          	addi	a2,a2,1
   12044:	001a0a13          	addi	s4,s4,1
   12048:	00840b13          	addi	s6,s0,8
   1204c:	34f752e3          	bge	a4,a5,12b90 <_vfprintf_r+0x1200>
   12050:	00100713          	li	a4,1
   12054:	00e42223          	sw	a4,4(s0)
   12058:	0cc12623          	sw	a2,204(sp)
   1205c:	0d412423          	sw	s4,200(sp)
   12060:	00700713          	li	a4,7
   12064:	01475463          	bge	a4,s4,1206c <_vfprintf_r+0x6dc>
   12068:	0fc0106f          	j	13164 <_vfprintf_r+0x17d4>
   1206c:	02812783          	lw	a5,40(sp)
   12070:	02c12703          	lw	a4,44(sp)
   12074:	001a0a13          	addi	s4,s4,1
   12078:	00f60633          	add	a2,a2,a5
   1207c:	00eb2023          	sw	a4,0(s6)
   12080:	00fb2223          	sw	a5,4(s6)
   12084:	0cc12623          	sw	a2,204(sp)
   12088:	0d412423          	sw	s4,200(sp)
   1208c:	00700713          	li	a4,7
   12090:	008b0b13          	addi	s6,s6,8
   12094:	01475463          	bge	a4,s4,1209c <_vfprintf_r+0x70c>
   12098:	0f00106f          	j	13188 <_vfprintf_r+0x17f8>
   1209c:	0d012703          	lw	a4,208(sp)
   120a0:	01812783          	lw	a5,24(sp)
   120a4:	08010593          	addi	a1,sp,128
   120a8:	08e12823          	sw	a4,144(sp)
   120ac:	0d412703          	lw	a4,212(sp)
   120b0:	09010513          	addi	a0,sp,144
   120b4:	00c12a23          	sw	a2,20(sp)
   120b8:	08e12a23          	sw	a4,148(sp)
   120bc:	0d812703          	lw	a4,216(sp)
   120c0:	08012023          	sw	zero,128(sp)
   120c4:	08012223          	sw	zero,132(sp)
   120c8:	08e12c23          	sw	a4,152(sp)
   120cc:	0dc12703          	lw	a4,220(sp)
   120d0:	08012423          	sw	zero,136(sp)
   120d4:	08012623          	sw	zero,140(sp)
   120d8:	08e12e23          	sw	a4,156(sp)
   120dc:	fff78413          	addi	s0,a5,-1
   120e0:	09c0c0ef          	jal	1e17c <__eqtf2>
   120e4:	01412603          	lw	a2,20(sp)
   120e8:	2e0504e3          	beqz	a0,12bd0 <_vfprintf_r+0x1240>
   120ec:	001d0793          	addi	a5,s10,1
   120f0:	001a0a13          	addi	s4,s4,1
   120f4:	00860633          	add	a2,a2,s0
   120f8:	00fb2023          	sw	a5,0(s6)
   120fc:	008b2223          	sw	s0,4(s6)
   12100:	0cc12623          	sw	a2,204(sp)
   12104:	0d412423          	sw	s4,200(sp)
   12108:	00700793          	li	a5,7
   1210c:	008b0b13          	addi	s6,s6,8
   12110:	2947cee3          	blt	a5,s4,12bac <_vfprintf_r+0x121c>
   12114:	03c12683          	lw	a3,60(sp)
   12118:	0b410713          	addi	a4,sp,180
   1211c:	001a0793          	addi	a5,s4,1
   12120:	00c68633          	add	a2,a3,a2
   12124:	00eb2023          	sw	a4,0(s6)
   12128:	00db2223          	sw	a3,4(s6)
   1212c:	0cc12623          	sw	a2,204(sp)
   12130:	0cf12423          	sw	a5,200(sp)
   12134:	00700713          	li	a4,7
   12138:	008b0413          	addi	s0,s6,8
   1213c:	b4f756e3          	bge	a4,a5,11c88 <_vfprintf_r+0x2f8>
   12140:	0c410613          	addi	a2,sp,196
   12144:	00048593          	mv	a1,s1
   12148:	000b8513          	mv	a0,s7
   1214c:	1c0020ef          	jal	1430c <__sprint_r>
   12150:	6e051263          	bnez	a0,12834 <_vfprintf_r+0xea4>
   12154:	0cc12603          	lw	a2,204(sp)
   12158:	00098413          	mv	s0,s3
   1215c:	b2dff06f          	j	11c88 <_vfprintf_r+0x2f8>
   12160:	00c12683          	lw	a3,12(sp)
   12164:	010df793          	andi	a5,s11,16
   12168:	0006a703          	lw	a4,0(a3)
   1216c:	00468693          	addi	a3,a3,4
   12170:	00d12623          	sw	a3,12(sp)
   12174:	360796e3          	bnez	a5,12ce0 <_vfprintf_r+0x1350>
   12178:	040df793          	andi	a5,s11,64
   1217c:	34078ee3          	beqz	a5,12cd8 <_vfprintf_r+0x1348>
   12180:	01071b13          	slli	s6,a4,0x10
   12184:	410b5b13          	srai	s6,s6,0x10
   12188:	41fb5813          	srai	a6,s6,0x1f
   1218c:	00080793          	mv	a5,a6
   12190:	c607d6e3          	bgez	a5,11dfc <_vfprintf_r+0x46c>
   12194:	02d00693          	li	a3,45
   12198:	016037b3          	snez	a5,s6
   1219c:	41000833          	neg	a6,a6
   121a0:	0ad103a3          	sb	a3,167(sp)
   121a4:	40f80833          	sub	a6,a6,a5
   121a8:	41600b33          	neg	s6,s6
   121ac:	000d8613          	mv	a2,s11
   121b0:	00100793          	li	a5,1
   121b4:	cc0a5ae3          	bgez	s4,11e88 <_vfprintf_r+0x4f8>
   121b8:	00100693          	li	a3,1
   121bc:	14d78063          	beq	a5,a3,122fc <_vfprintf_r+0x96c>
   121c0:	00200693          	li	a3,2
   121c4:	44d78063          	beq	a5,a3,12604 <_vfprintf_r+0xc74>
   121c8:	19010d13          	addi	s10,sp,400
   121cc:	01d81793          	slli	a5,a6,0x1d
   121d0:	007b7693          	andi	a3,s6,7
   121d4:	003b5b13          	srli	s6,s6,0x3
   121d8:	03068693          	addi	a3,a3,48
   121dc:	0167eb33          	or	s6,a5,s6
   121e0:	00385813          	srli	a6,a6,0x3
   121e4:	fedd0fa3          	sb	a3,-1(s10)
   121e8:	010b67b3          	or	a5,s6,a6
   121ec:	000d0513          	mv	a0,s10
   121f0:	fffd0d13          	addi	s10,s10,-1
   121f4:	fc079ce3          	bnez	a5,121cc <_vfprintf_r+0x83c>
   121f8:	00167713          	andi	a4,a2,1
   121fc:	42070e63          	beqz	a4,12638 <_vfprintf_r+0xca8>
   12200:	03000713          	li	a4,48
   12204:	42e68a63          	beq	a3,a4,12638 <_vfprintf_r+0xca8>
   12208:	ffe50513          	addi	a0,a0,-2
   1220c:	19010793          	addi	a5,sp,400
   12210:	feed0fa3          	sb	a4,-1(s10)
   12214:	40a78b33          	sub	s6,a5,a0
   12218:	00060d93          	mv	s11,a2
   1221c:	00050d13          	mv	s10,a0
   12220:	c01ff06f          	j	11e20 <_vfprintf_r+0x490>
   12224:	00c12683          	lw	a3,12(sp)
   12228:	010df793          	andi	a5,s11,16
   1222c:	0006a703          	lw	a4,0(a3)
   12230:	00468693          	addi	a3,a3,4
   12234:	00d12623          	sw	a3,12(sp)
   12238:	28079ae3          	bnez	a5,12ccc <_vfprintf_r+0x133c>
   1223c:	040df793          	andi	a5,s11,64
   12240:	280782e3          	beqz	a5,12cc4 <_vfprintf_r+0x1334>
   12244:	01071b13          	slli	s6,a4,0x10
   12248:	010b5b13          	srli	s6,s6,0x10
   1224c:	00000813          	li	a6,0
   12250:	c25ff06f          	j	11e74 <_vfprintf_r+0x4e4>
   12254:	00c12703          	lw	a4,12(sp)
   12258:	0a0103a3          	sb	zero,167(sp)
   1225c:	00100c13          	li	s8,1
   12260:	00072783          	lw	a5,0(a4)
   12264:	00470713          	addi	a4,a4,4
   12268:	00e12623          	sw	a4,12(sp)
   1226c:	12f10623          	sb	a5,300(sp)
   12270:	00100b13          	li	s6,1
   12274:	12c10d13          	addi	s10,sp,300
   12278:	931ff06f          	j	11ba8 <_vfprintf_r+0x218>
   1227c:	00c12783          	lw	a5,12(sp)
   12280:	0a0103a3          	sb	zero,167(sp)
   12284:	0007ad03          	lw	s10,0(a5)
   12288:	00478813          	addi	a6,a5,4
   1228c:	3a0d02e3          	beqz	s10,12e30 <_vfprintf_r+0x14a0>
   12290:	000a5463          	bgez	s4,12298 <_vfprintf_r+0x908>
   12294:	1c80106f          	j	1345c <_vfprintf_r+0x1acc>
   12298:	000a0613          	mv	a2,s4
   1229c:	00000593          	li	a1,0
   122a0:	000d0513          	mv	a0,s10
   122a4:	01012a23          	sw	a6,20(sp)
   122a8:	01112623          	sw	a7,12(sp)
   122ac:	33d020ef          	jal	14de8 <memchr>
   122b0:	00a12423          	sw	a0,8(sp)
   122b4:	00c12883          	lw	a7,12(sp)
   122b8:	01412803          	lw	a6,20(sp)
   122bc:	00051463          	bnez	a0,122c4 <_vfprintf_r+0x934>
   122c0:	3590106f          	j	13e18 <_vfprintf_r+0x2488>
   122c4:	00812783          	lw	a5,8(sp)
   122c8:	0a714703          	lbu	a4,167(sp)
   122cc:	01012623          	sw	a6,12(sp)
   122d0:	41a78b33          	sub	s6,a5,s10
   122d4:	fffb4693          	not	a3,s6
   122d8:	41f6d693          	srai	a3,a3,0x1f
   122dc:	00012423          	sw	zero,8(sp)
   122e0:	02012023          	sw	zero,32(sp)
   122e4:	00012e23          	sw	zero,28(sp)
   122e8:	00012a23          	sw	zero,20(sp)
   122ec:	00db7c33          	and	s8,s6,a3
   122f0:	00000a13          	li	s4,0
   122f4:	b40718e3          	bnez	a4,11e44 <_vfprintf_r+0x4b4>
   122f8:	8c5ff06f          	j	11bbc <_vfprintf_r+0x22c>
   122fc:	6c0812e3          	bnez	a6,131c0 <_vfprintf_r+0x1830>
   12300:	00900793          	li	a5,9
   12304:	6b67eee3          	bltu	a5,s6,131c0 <_vfprintf_r+0x1830>
   12308:	030b0713          	addi	a4,s6,48
   1230c:	18e107a3          	sb	a4,399(sp)
   12310:	00060d93          	mv	s11,a2
   12314:	00100b13          	li	s6,1
   12318:	18f10d13          	addi	s10,sp,399
   1231c:	b05ff06f          	j	11e20 <_vfprintf_r+0x490>
   12320:	00c12783          	lw	a5,12(sp)
   12324:	0007ac83          	lw	s9,0(a5)
   12328:	00478793          	addi	a5,a5,4
   1232c:	160cdae3          	bgez	s9,12ca0 <_vfprintf_r+0x1310>
   12330:	41900cb3          	neg	s9,s9
   12334:	00f12623          	sw	a5,12(sp)
   12338:	00094883          	lbu	a7,0(s2)
   1233c:	004ded93          	ori	s11,s11,4
   12340:	ffcff06f          	j	11b3c <_vfprintf_r+0x1ac>
   12344:	02b00793          	li	a5,43
   12348:	00094883          	lbu	a7,0(s2)
   1234c:	0af103a3          	sb	a5,167(sp)
   12350:	fecff06f          	j	11b3c <_vfprintf_r+0x1ac>
   12354:	00094883          	lbu	a7,0(s2)
   12358:	080ded93          	ori	s11,s11,128
   1235c:	fe0ff06f          	j	11b3c <_vfprintf_r+0x1ac>
   12360:	00094883          	lbu	a7,0(s2)
   12364:	02a00793          	li	a5,42
   12368:	00190693          	addi	a3,s2,1
   1236c:	00f89463          	bne	a7,a5,12374 <_vfprintf_r+0x9e4>
   12370:	66d0106f          	j	141dc <_vfprintf_r+0x284c>
   12374:	fd088793          	addi	a5,a7,-48
   12378:	00900713          	li	a4,9
   1237c:	00000a13          	li	s4,0
   12380:	00900613          	li	a2,9
   12384:	02f76463          	bltu	a4,a5,123ac <_vfprintf_r+0xa1c>
   12388:	0006c883          	lbu	a7,0(a3)
   1238c:	002a1713          	slli	a4,s4,0x2
   12390:	01470a33          	add	s4,a4,s4
   12394:	001a1a13          	slli	s4,s4,0x1
   12398:	00fa0a33          	add	s4,s4,a5
   1239c:	fd088793          	addi	a5,a7,-48
   123a0:	00168693          	addi	a3,a3,1
   123a4:	fef672e3          	bgeu	a2,a5,12388 <_vfprintf_r+0x9f8>
   123a8:	1c0a44e3          	bltz	s4,12d70 <_vfprintf_r+0x13e0>
   123ac:	00068913          	mv	s2,a3
   123b0:	f90ff06f          	j	11b40 <_vfprintf_r+0x1b0>
   123b4:	00094883          	lbu	a7,0(s2)
   123b8:	001ded93          	ori	s11,s11,1
   123bc:	f80ff06f          	j	11b3c <_vfprintf_r+0x1ac>
   123c0:	0a714783          	lbu	a5,167(sp)
   123c4:	00094883          	lbu	a7,0(s2)
   123c8:	f6079a63          	bnez	a5,11b3c <_vfprintf_r+0x1ac>
   123cc:	02000793          	li	a5,32
   123d0:	0af103a3          	sb	a5,167(sp)
   123d4:	f68ff06f          	j	11b3c <_vfprintf_r+0x1ac>
   123d8:	010de613          	ori	a2,s11,16
   123dc:	02067793          	andi	a5,a2,32
   123e0:	060788e3          	beqz	a5,12c50 <_vfprintf_r+0x12c0>
   123e4:	00c12783          	lw	a5,12(sp)
   123e8:	00778c13          	addi	s8,a5,7
   123ec:	ff8c7c13          	andi	s8,s8,-8
   123f0:	008c0793          	addi	a5,s8,8
   123f4:	00f12623          	sw	a5,12(sp)
   123f8:	000c2b03          	lw	s6,0(s8)
   123fc:	004c2803          	lw	a6,4(s8)
   12400:	00100793          	li	a5,1
   12404:	a79ff06f          	j	11e7c <_vfprintf_r+0x4ec>
   12408:	00094883          	lbu	a7,0(s2)
   1240c:	008ded93          	ori	s11,s11,8
   12410:	f2cff06f          	j	11b3c <_vfprintf_r+0x1ac>
   12414:	00c12703          	lw	a4,12(sp)
   12418:	000087b7          	lui	a5,0x8
   1241c:	83078793          	addi	a5,a5,-2000 # 7830 <exit-0x8864>
   12420:	0af11423          	sh	a5,168(sp)
   12424:	00470793          	addi	a5,a4,4
   12428:	00f12623          	sw	a5,12(sp)
   1242c:	000217b7          	lui	a5,0x21
   12430:	35478793          	addi	a5,a5,852 # 21354 <__clzsi2+0x60>
   12434:	02f12823          	sw	a5,48(sp)
   12438:	00072b03          	lw	s6,0(a4)
   1243c:	00000813          	li	a6,0
   12440:	002de613          	ori	a2,s11,2
   12444:	00200793          	li	a5,2
   12448:	07800893          	li	a7,120
   1244c:	a31ff06f          	j	11e7c <_vfprintf_r+0x4ec>
   12450:	020df793          	andi	a5,s11,32
   12454:	0c0780e3          	beqz	a5,12d14 <_vfprintf_r+0x1384>
   12458:	00c12783          	lw	a5,12(sp)
   1245c:	00412683          	lw	a3,4(sp)
   12460:	0007a783          	lw	a5,0(a5)
   12464:	41f6d713          	srai	a4,a3,0x1f
   12468:	00d7a023          	sw	a3,0(a5)
   1246c:	00e7a223          	sw	a4,4(a5)
   12470:	00c12783          	lw	a5,12(sp)
   12474:	00090d13          	mv	s10,s2
   12478:	00478793          	addi	a5,a5,4
   1247c:	00f12623          	sw	a5,12(sp)
   12480:	855ff06f          	j	11cd4 <_vfprintf_r+0x344>
   12484:	00094883          	lbu	a7,0(s2)
   12488:	06c00793          	li	a5,108
   1248c:	16f88ae3          	beq	a7,a5,12e00 <_vfprintf_r+0x1470>
   12490:	010ded93          	ori	s11,s11,16
   12494:	ea8ff06f          	j	11b3c <_vfprintf_r+0x1ac>
   12498:	00094883          	lbu	a7,0(s2)
   1249c:	06800793          	li	a5,104
   124a0:	14f888e3          	beq	a7,a5,12df0 <_vfprintf_r+0x1460>
   124a4:	040ded93          	ori	s11,s11,64
   124a8:	e94ff06f          	j	11b3c <_vfprintf_r+0x1ac>
   124ac:	06500713          	li	a4,101
   124b0:	b91750e3          	bge	a4,a7,12030 <_vfprintf_r+0x6a0>
   124b4:	0d012703          	lw	a4,208(sp)
   124b8:	08010593          	addi	a1,sp,128
   124bc:	09010513          	addi	a0,sp,144
   124c0:	08e12823          	sw	a4,144(sp)
   124c4:	0d412703          	lw	a4,212(sp)
   124c8:	02c12a23          	sw	a2,52(sp)
   124cc:	08012023          	sw	zero,128(sp)
   124d0:	08e12a23          	sw	a4,148(sp)
   124d4:	0d812703          	lw	a4,216(sp)
   124d8:	08012223          	sw	zero,132(sp)
   124dc:	08012423          	sw	zero,136(sp)
   124e0:	08e12c23          	sw	a4,152(sp)
   124e4:	0dc12703          	lw	a4,220(sp)
   124e8:	08012623          	sw	zero,140(sp)
   124ec:	08e12e23          	sw	a4,156(sp)
   124f0:	48d0b0ef          	jal	1e17c <__eqtf2>
   124f4:	03412603          	lw	a2,52(sp)
   124f8:	54051463          	bnez	a0,12a40 <_vfprintf_r+0x10b0>
   124fc:	0c812783          	lw	a5,200(sp)
   12500:	00021737          	lui	a4,0x21
   12504:	38470713          	addi	a4,a4,900 # 21384 <__clzsi2+0x90>
   12508:	00e42023          	sw	a4,0(s0)
   1250c:	00160613          	addi	a2,a2,1
   12510:	00100713          	li	a4,1
   12514:	00178793          	addi	a5,a5,1
   12518:	00e42223          	sw	a4,4(s0)
   1251c:	0cc12623          	sw	a2,204(sp)
   12520:	0cf12423          	sw	a5,200(sp)
   12524:	00700713          	li	a4,7
   12528:	00840413          	addi	s0,s0,8
   1252c:	5ef744e3          	blt	a4,a5,13314 <_vfprintf_r+0x1984>
   12530:	0ac12783          	lw	a5,172(sp)
   12534:	01812703          	lw	a4,24(sp)
   12538:	74e7dc63          	bge	a5,a4,12c90 <_vfprintf_r+0x1300>
   1253c:	02c12783          	lw	a5,44(sp)
   12540:	02812703          	lw	a4,40(sp)
   12544:	00840413          	addi	s0,s0,8
   12548:	fef42c23          	sw	a5,-8(s0)
   1254c:	0c812783          	lw	a5,200(sp)
   12550:	00e60633          	add	a2,a2,a4
   12554:	fee42e23          	sw	a4,-4(s0)
   12558:	00178793          	addi	a5,a5,1
   1255c:	0cc12623          	sw	a2,204(sp)
   12560:	0cf12423          	sw	a5,200(sp)
   12564:	00700713          	li	a4,7
   12568:	0af744e3          	blt	a4,a5,12e10 <_vfprintf_r+0x1480>
   1256c:	01812783          	lw	a5,24(sp)
   12570:	fff78a13          	addi	s4,a5,-1
   12574:	f1405a63          	blez	s4,11c88 <_vfprintf_r+0x2f8>
   12578:	00021837          	lui	a6,0x21
   1257c:	01000713          	li	a4,16
   12580:	0c812783          	lw	a5,200(sp)
   12584:	69080813          	addi	a6,a6,1680 # 21690 <zeroes.0>
   12588:	5b475ae3          	bge	a4,s4,1333c <_vfprintf_r+0x19ac>
   1258c:	01212a23          	sw	s2,20(sp)
   12590:	01000b13          	li	s6,16
   12594:	00700d13          	li	s10,7
   12598:	00080913          	mv	s2,a6
   1259c:	00c0006f          	j	125a8 <_vfprintf_r+0xc18>
   125a0:	ff0a0a13          	addi	s4,s4,-16
   125a4:	594b58e3          	bge	s6,s4,13334 <_vfprintf_r+0x19a4>
   125a8:	01060613          	addi	a2,a2,16
   125ac:	00178793          	addi	a5,a5,1
   125b0:	01242023          	sw	s2,0(s0)
   125b4:	01642223          	sw	s6,4(s0)
   125b8:	0cc12623          	sw	a2,204(sp)
   125bc:	0cf12423          	sw	a5,200(sp)
   125c0:	00840413          	addi	s0,s0,8
   125c4:	fcfd5ee3          	bge	s10,a5,125a0 <_vfprintf_r+0xc10>
   125c8:	0c410613          	addi	a2,sp,196
   125cc:	00048593          	mv	a1,s1
   125d0:	000b8513          	mv	a0,s7
   125d4:	539010ef          	jal	1430c <__sprint_r>
   125d8:	24051e63          	bnez	a0,12834 <_vfprintf_r+0xea4>
   125dc:	0cc12603          	lw	a2,204(sp)
   125e0:	0c812783          	lw	a5,200(sp)
   125e4:	00098413          	mv	s0,s3
   125e8:	fb9ff06f          	j	125a0 <_vfprintf_r+0xc10>
   125ec:	00100693          	li	a3,1
   125f0:	00d79463          	bne	a5,a3,125f8 <_vfprintf_r+0xc68>
   125f4:	1850106f          	j	13f78 <_vfprintf_r+0x25e8>
   125f8:	00200693          	li	a3,2
   125fc:	000d8613          	mv	a2,s11
   12600:	bcd794e3          	bne	a5,a3,121c8 <_vfprintf_r+0x838>
   12604:	03012683          	lw	a3,48(sp)
   12608:	19010d13          	addi	s10,sp,400
   1260c:	00fb7793          	andi	a5,s6,15
   12610:	00f687b3          	add	a5,a3,a5
   12614:	0007c703          	lbu	a4,0(a5)
   12618:	004b5b13          	srli	s6,s6,0x4
   1261c:	01c81793          	slli	a5,a6,0x1c
   12620:	0167eb33          	or	s6,a5,s6
   12624:	00485813          	srli	a6,a6,0x4
   12628:	feed0fa3          	sb	a4,-1(s10)
   1262c:	010b67b3          	or	a5,s6,a6
   12630:	fffd0d13          	addi	s10,s10,-1
   12634:	fc079ce3          	bnez	a5,1260c <_vfprintf_r+0xc7c>
   12638:	19010793          	addi	a5,sp,400
   1263c:	41a78b33          	sub	s6,a5,s10
   12640:	00060d93          	mv	s11,a2
   12644:	fdcff06f          	j	11e20 <_vfprintf_r+0x490>
   12648:	418c8733          	sub	a4,s9,s8
   1264c:	e0e05263          	blez	a4,11c50 <_vfprintf_r+0x2c0>
   12650:	00021837          	lui	a6,0x21
   12654:	01000513          	li	a0,16
   12658:	0c812583          	lw	a1,200(sp)
   1265c:	69080813          	addi	a6,a6,1680 # 21690 <zeroes.0>
   12660:	08e55863          	bge	a0,a4,126f0 <_vfprintf_r+0xd60>
   12664:	03212a23          	sw	s2,52(sp)
   12668:	00040793          	mv	a5,s0
   1266c:	01000e93          	li	t4,16
   12670:	00700f93          	li	t6,7
   12674:	05112423          	sw	a7,72(sp)
   12678:	00070413          	mv	s0,a4
   1267c:	00080913          	mv	s2,a6
   12680:	00c0006f          	j	1268c <_vfprintf_r+0xcfc>
   12684:	ff040413          	addi	s0,s0,-16
   12688:	048eda63          	bge	t4,s0,126dc <_vfprintf_r+0xd4c>
   1268c:	01060613          	addi	a2,a2,16
   12690:	00158593          	addi	a1,a1,1 # 2001 <exit-0xe093>
   12694:	0127a023          	sw	s2,0(a5)
   12698:	01d7a223          	sw	t4,4(a5)
   1269c:	0cc12623          	sw	a2,204(sp)
   126a0:	0cb12423          	sw	a1,200(sp)
   126a4:	00878793          	addi	a5,a5,8
   126a8:	fcbfdee3          	bge	t6,a1,12684 <_vfprintf_r+0xcf4>
   126ac:	0c410613          	addi	a2,sp,196
   126b0:	00048593          	mv	a1,s1
   126b4:	000b8513          	mv	a0,s7
   126b8:	455010ef          	jal	1430c <__sprint_r>
   126bc:	16051c63          	bnez	a0,12834 <_vfprintf_r+0xea4>
   126c0:	01000e93          	li	t4,16
   126c4:	ff040413          	addi	s0,s0,-16
   126c8:	0cc12603          	lw	a2,204(sp)
   126cc:	0c812583          	lw	a1,200(sp)
   126d0:	00098793          	mv	a5,s3
   126d4:	00700f93          	li	t6,7
   126d8:	fa8ecae3          	blt	t4,s0,1268c <_vfprintf_r+0xcfc>
   126dc:	00090813          	mv	a6,s2
   126e0:	04812883          	lw	a7,72(sp)
   126e4:	03412903          	lw	s2,52(sp)
   126e8:	00040713          	mv	a4,s0
   126ec:	00078413          	mv	s0,a5
   126f0:	00e60633          	add	a2,a2,a4
   126f4:	00158593          	addi	a1,a1,1
   126f8:	00e42223          	sw	a4,4(s0)
   126fc:	01042023          	sw	a6,0(s0)
   12700:	0cc12623          	sw	a2,204(sp)
   12704:	0cb12423          	sw	a1,200(sp)
   12708:	00700713          	li	a4,7
   1270c:	00840413          	addi	s0,s0,8
   12710:	d4b75063          	bge	a4,a1,11c50 <_vfprintf_r+0x2c0>
   12714:	0c410613          	addi	a2,sp,196
   12718:	00048593          	mv	a1,s1
   1271c:	000b8513          	mv	a0,s7
   12720:	03112a23          	sw	a7,52(sp)
   12724:	3e9010ef          	jal	1430c <__sprint_r>
   12728:	10051663          	bnez	a0,12834 <_vfprintf_r+0xea4>
   1272c:	0cc12603          	lw	a2,204(sp)
   12730:	03412883          	lw	a7,52(sp)
   12734:	00098413          	mv	s0,s3
   12738:	d18ff06f          	j	11c50 <_vfprintf_r+0x2c0>
   1273c:	00021837          	lui	a6,0x21
   12740:	01000713          	li	a4,16
   12744:	0c812583          	lw	a1,200(sp)
   12748:	69080813          	addi	a6,a6,1680 # 21690 <zeroes.0>
   1274c:	09475463          	bge	a4,s4,127d4 <_vfprintf_r+0xe44>
   12750:	00040793          	mv	a5,s0
   12754:	01000713          	li	a4,16
   12758:	000a0413          	mv	s0,s4
   1275c:	00700e93          	li	t4,7
   12760:	03112a23          	sw	a7,52(sp)
   12764:	000a8a13          	mv	s4,s5
   12768:	00c0006f          	j	12774 <_vfprintf_r+0xde4>
   1276c:	ff040413          	addi	s0,s0,-16
   12770:	04875a63          	bge	a4,s0,127c4 <_vfprintf_r+0xe34>
   12774:	01060613          	addi	a2,a2,16
   12778:	00158593          	addi	a1,a1,1
   1277c:	0157a023          	sw	s5,0(a5)
   12780:	00e7a223          	sw	a4,4(a5)
   12784:	0cc12623          	sw	a2,204(sp)
   12788:	0cb12423          	sw	a1,200(sp)
   1278c:	00878793          	addi	a5,a5,8
   12790:	fcbedee3          	bge	t4,a1,1276c <_vfprintf_r+0xddc>
   12794:	0c410613          	addi	a2,sp,196
   12798:	00048593          	mv	a1,s1
   1279c:	000b8513          	mv	a0,s7
   127a0:	36d010ef          	jal	1430c <__sprint_r>
   127a4:	08051863          	bnez	a0,12834 <_vfprintf_r+0xea4>
   127a8:	01000713          	li	a4,16
   127ac:	ff040413          	addi	s0,s0,-16
   127b0:	0cc12603          	lw	a2,204(sp)
   127b4:	0c812583          	lw	a1,200(sp)
   127b8:	00098793          	mv	a5,s3
   127bc:	00700e93          	li	t4,7
   127c0:	fa874ae3          	blt	a4,s0,12774 <_vfprintf_r+0xde4>
   127c4:	03412883          	lw	a7,52(sp)
   127c8:	000a0813          	mv	a6,s4
   127cc:	00040a13          	mv	s4,s0
   127d0:	00078413          	mv	s0,a5
   127d4:	01460633          	add	a2,a2,s4
   127d8:	00158593          	addi	a1,a1,1
   127dc:	01042023          	sw	a6,0(s0)
   127e0:	01442223          	sw	s4,4(s0)
   127e4:	0cc12623          	sw	a2,204(sp)
   127e8:	0cb12423          	sw	a1,200(sp)
   127ec:	00700713          	li	a4,7
   127f0:	00840413          	addi	s0,s0,8
   127f4:	c6b75263          	bge	a4,a1,11c58 <_vfprintf_r+0x2c8>
   127f8:	0c410613          	addi	a2,sp,196
   127fc:	00048593          	mv	a1,s1
   12800:	000b8513          	mv	a0,s7
   12804:	03112a23          	sw	a7,52(sp)
   12808:	305010ef          	jal	1430c <__sprint_r>
   1280c:	02051463          	bnez	a0,12834 <_vfprintf_r+0xea4>
   12810:	0cc12603          	lw	a2,204(sp)
   12814:	03412883          	lw	a7,52(sp)
   12818:	00098413          	mv	s0,s3
   1281c:	c3cff06f          	j	11c58 <_vfprintf_r+0x2c8>
   12820:	0c410613          	addi	a2,sp,196
   12824:	00048593          	mv	a1,s1
   12828:	000b8513          	mv	a0,s7
   1282c:	2e1010ef          	jal	1430c <__sprint_r>
   12830:	c8050263          	beqz	a0,11cb4 <_vfprintf_r+0x324>
   12834:	00812583          	lw	a1,8(sp)
   12838:	ca058863          	beqz	a1,11ce8 <_vfprintf_r+0x358>
   1283c:	02412503          	lw	a0,36(sp)
   12840:	e4dfe0ef          	jal	1168c <_free_r>
   12844:	ca4ff06f          	j	11ce8 <_vfprintf_r+0x358>
   12848:	000d8613          	mv	a2,s11
   1284c:	96dff06f          	j	121b8 <_vfprintf_r+0x828>
   12850:	00021837          	lui	a6,0x21
   12854:	01000513          	li	a0,16
   12858:	0c812583          	lw	a1,200(sp)
   1285c:	6a080813          	addi	a6,a6,1696 # 216a0 <blanks.1>
   12860:	0ae55063          	bge	a0,a4,12900 <_vfprintf_r+0xf70>
   12864:	05212623          	sw	s2,76(sp)
   12868:	00040793          	mv	a5,s0
   1286c:	01000e93          	li	t4,16
   12870:	00700393          	li	t2,7
   12874:	02512a23          	sw	t0,52(sp)
   12878:	05f12423          	sw	t6,72(sp)
   1287c:	05112823          	sw	a7,80(sp)
   12880:	00070413          	mv	s0,a4
   12884:	00080913          	mv	s2,a6
   12888:	00c0006f          	j	12894 <_vfprintf_r+0xf04>
   1288c:	ff040413          	addi	s0,s0,-16
   12890:	048eda63          	bge	t4,s0,128e4 <_vfprintf_r+0xf54>
   12894:	01060613          	addi	a2,a2,16
   12898:	00158593          	addi	a1,a1,1
   1289c:	0127a023          	sw	s2,0(a5)
   128a0:	01d7a223          	sw	t4,4(a5)
   128a4:	0cc12623          	sw	a2,204(sp)
   128a8:	0cb12423          	sw	a1,200(sp)
   128ac:	00878793          	addi	a5,a5,8
   128b0:	fcb3dee3          	bge	t2,a1,1288c <_vfprintf_r+0xefc>
   128b4:	0c410613          	addi	a2,sp,196
   128b8:	00048593          	mv	a1,s1
   128bc:	000b8513          	mv	a0,s7
   128c0:	24d010ef          	jal	1430c <__sprint_r>
   128c4:	f60518e3          	bnez	a0,12834 <_vfprintf_r+0xea4>
   128c8:	01000e93          	li	t4,16
   128cc:	ff040413          	addi	s0,s0,-16
   128d0:	0cc12603          	lw	a2,204(sp)
   128d4:	0c812583          	lw	a1,200(sp)
   128d8:	00098793          	mv	a5,s3
   128dc:	00700393          	li	t2,7
   128e0:	fa8ecae3          	blt	t4,s0,12894 <_vfprintf_r+0xf04>
   128e4:	00090813          	mv	a6,s2
   128e8:	03412283          	lw	t0,52(sp)
   128ec:	04812f83          	lw	t6,72(sp)
   128f0:	05012883          	lw	a7,80(sp)
   128f4:	04c12903          	lw	s2,76(sp)
   128f8:	00040713          	mv	a4,s0
   128fc:	00078413          	mv	s0,a5
   12900:	00e60633          	add	a2,a2,a4
   12904:	00158593          	addi	a1,a1,1
   12908:	00e42223          	sw	a4,4(s0)
   1290c:	01042023          	sw	a6,0(s0)
   12910:	0cc12623          	sw	a2,204(sp)
   12914:	0cb12423          	sw	a1,200(sp)
   12918:	00700713          	li	a4,7
   1291c:	00840413          	addi	s0,s0,8
   12920:	aab75e63          	bge	a4,a1,11bdc <_vfprintf_r+0x24c>
   12924:	0c410613          	addi	a2,sp,196
   12928:	00048593          	mv	a1,s1
   1292c:	000b8513          	mv	a0,s7
   12930:	05112623          	sw	a7,76(sp)
   12934:	05f12423          	sw	t6,72(sp)
   12938:	02512a23          	sw	t0,52(sp)
   1293c:	1d1010ef          	jal	1430c <__sprint_r>
   12940:	ee051ae3          	bnez	a0,12834 <_vfprintf_r+0xea4>
   12944:	0cc12603          	lw	a2,204(sp)
   12948:	04c12883          	lw	a7,76(sp)
   1294c:	04812f83          	lw	t6,72(sp)
   12950:	03412283          	lw	t0,52(sp)
   12954:	00098413          	mv	s0,s3
   12958:	a84ff06f          	j	11bdc <_vfprintf_r+0x24c>
   1295c:	0c410613          	addi	a2,sp,196
   12960:	00048593          	mv	a1,s1
   12964:	000b8513          	mv	a0,s7
   12968:	05112423          	sw	a7,72(sp)
   1296c:	03f12a23          	sw	t6,52(sp)
   12970:	19d010ef          	jal	1430c <__sprint_r>
   12974:	ec0510e3          	bnez	a0,12834 <_vfprintf_r+0xea4>
   12978:	0cc12603          	lw	a2,204(sp)
   1297c:	04812883          	lw	a7,72(sp)
   12980:	03412f83          	lw	t6,52(sp)
   12984:	00098413          	mv	s0,s3
   12988:	ac0ff06f          	j	11c48 <_vfprintf_r+0x2b8>
   1298c:	00021837          	lui	a6,0x21
   12990:	6a080813          	addi	a6,a6,1696 # 216a0 <blanks.1>
   12994:	01000713          	li	a4,16
   12998:	0c812783          	lw	a5,200(sp)
   1299c:	01000b13          	li	s6,16
   129a0:	00700d13          	li	s10,7
   129a4:	00080d93          	mv	s11,a6
   129a8:	01474863          	blt	a4,s4,129b8 <_vfprintf_r+0x1028>
   129ac:	0580006f          	j	12a04 <_vfprintf_r+0x1074>
   129b0:	ff0a0a13          	addi	s4,s4,-16
   129b4:	054b5663          	bge	s6,s4,12a00 <_vfprintf_r+0x1070>
   129b8:	01060613          	addi	a2,a2,16
   129bc:	00178793          	addi	a5,a5,1
   129c0:	01b42023          	sw	s11,0(s0)
   129c4:	01642223          	sw	s6,4(s0)
   129c8:	0cc12623          	sw	a2,204(sp)
   129cc:	0cf12423          	sw	a5,200(sp)
   129d0:	00840413          	addi	s0,s0,8
   129d4:	fcfd5ee3          	bge	s10,a5,129b0 <_vfprintf_r+0x1020>
   129d8:	0c410613          	addi	a2,sp,196
   129dc:	00048593          	mv	a1,s1
   129e0:	000b8513          	mv	a0,s7
   129e4:	129010ef          	jal	1430c <__sprint_r>
   129e8:	e40516e3          	bnez	a0,12834 <_vfprintf_r+0xea4>
   129ec:	ff0a0a13          	addi	s4,s4,-16
   129f0:	0cc12603          	lw	a2,204(sp)
   129f4:	0c812783          	lw	a5,200(sp)
   129f8:	00098413          	mv	s0,s3
   129fc:	fb4b4ee3          	blt	s6,s4,129b8 <_vfprintf_r+0x1028>
   12a00:	000d8813          	mv	a6,s11
   12a04:	01460633          	add	a2,a2,s4
   12a08:	00178793          	addi	a5,a5,1
   12a0c:	01042023          	sw	a6,0(s0)
   12a10:	01442223          	sw	s4,4(s0)
   12a14:	0cc12623          	sw	a2,204(sp)
   12a18:	0cf12423          	sw	a5,200(sp)
   12a1c:	00700713          	li	a4,7
   12a20:	a6f75c63          	bge	a4,a5,11c98 <_vfprintf_r+0x308>
   12a24:	0c410613          	addi	a2,sp,196
   12a28:	00048593          	mv	a1,s1
   12a2c:	000b8513          	mv	a0,s7
   12a30:	0dd010ef          	jal	1430c <__sprint_r>
   12a34:	e00510e3          	bnez	a0,12834 <_vfprintf_r+0xea4>
   12a38:	0cc12603          	lw	a2,204(sp)
   12a3c:	a5cff06f          	j	11c98 <_vfprintf_r+0x308>
   12a40:	0ac12503          	lw	a0,172(sp)
   12a44:	04a052e3          	blez	a0,13288 <_vfprintf_r+0x18f8>
   12a48:	01412783          	lw	a5,20(sp)
   12a4c:	01812703          	lw	a4,24(sp)
   12a50:	00078a13          	mv	s4,a5
   12a54:	30f74863          	blt	a4,a5,12d64 <_vfprintf_r+0x13d4>
   12a58:	03405663          	blez	s4,12a84 <_vfprintf_r+0x10f4>
   12a5c:	0c812703          	lw	a4,200(sp)
   12a60:	01460633          	add	a2,a2,s4
   12a64:	01a42023          	sw	s10,0(s0)
   12a68:	00170713          	addi	a4,a4,1
   12a6c:	01442223          	sw	s4,4(s0)
   12a70:	0cc12623          	sw	a2,204(sp)
   12a74:	0ce12423          	sw	a4,200(sp)
   12a78:	00700593          	li	a1,7
   12a7c:	00840413          	addi	s0,s0,8
   12a80:	56e5c0e3          	blt	a1,a4,137e0 <_vfprintf_r+0x1e50>
   12a84:	fffa4713          	not	a4,s4
   12a88:	01412783          	lw	a5,20(sp)
   12a8c:	41f75713          	srai	a4,a4,0x1f
   12a90:	00ea7a33          	and	s4,s4,a4
   12a94:	41478a33          	sub	s4,a5,s4
   12a98:	3b404c63          	bgtz	s4,12e50 <_vfprintf_r+0x14c0>
   12a9c:	01412783          	lw	a5,20(sp)
   12aa0:	400df713          	andi	a4,s11,1024
   12aa4:	00fd0a33          	add	s4,s10,a5
   12aa8:	2c0714e3          	bnez	a4,13570 <_vfprintf_r+0x1be0>
   12aac:	0ac12583          	lw	a1,172(sp)
   12ab0:	01812783          	lw	a5,24(sp)
   12ab4:	40f5ca63          	blt	a1,a5,12ec8 <_vfprintf_r+0x1538>
   12ab8:	001df713          	andi	a4,s11,1
   12abc:	40071663          	bnez	a4,12ec8 <_vfprintf_r+0x1538>
   12ac0:	01812703          	lw	a4,24(sp)
   12ac4:	00ed07b3          	add	a5,s10,a4
   12ac8:	40b705b3          	sub	a1,a4,a1
   12acc:	41478b33          	sub	s6,a5,s4
   12ad0:	0165d463          	bge	a1,s6,12ad8 <_vfprintf_r+0x1148>
   12ad4:	00058b13          	mv	s6,a1
   12ad8:	03605863          	blez	s6,12b08 <_vfprintf_r+0x1178>
   12adc:	0c812703          	lw	a4,200(sp)
   12ae0:	01660633          	add	a2,a2,s6
   12ae4:	01442023          	sw	s4,0(s0)
   12ae8:	00170713          	addi	a4,a4,1
   12aec:	01642223          	sw	s6,4(s0)
   12af0:	0cc12623          	sw	a2,204(sp)
   12af4:	0ce12423          	sw	a4,200(sp)
   12af8:	00700793          	li	a5,7
   12afc:	00840413          	addi	s0,s0,8
   12b00:	00e7d463          	bge	a5,a4,12b08 <_vfprintf_r+0x1178>
   12b04:	3400106f          	j	13e44 <_vfprintf_r+0x24b4>
   12b08:	fffb4713          	not	a4,s6
   12b0c:	41f75713          	srai	a4,a4,0x1f
   12b10:	00eb77b3          	and	a5,s6,a4
   12b14:	40f58a33          	sub	s4,a1,a5
   12b18:	97405863          	blez	s4,11c88 <_vfprintf_r+0x2f8>
   12b1c:	00021837          	lui	a6,0x21
   12b20:	01000713          	li	a4,16
   12b24:	0c812783          	lw	a5,200(sp)
   12b28:	69080813          	addi	a6,a6,1680 # 21690 <zeroes.0>
   12b2c:	014758e3          	bge	a4,s4,1333c <_vfprintf_r+0x19ac>
   12b30:	01212a23          	sw	s2,20(sp)
   12b34:	01000b13          	li	s6,16
   12b38:	00700d13          	li	s10,7
   12b3c:	00080913          	mv	s2,a6
   12b40:	00c0006f          	j	12b4c <_vfprintf_r+0x11bc>
   12b44:	ff0a0a13          	addi	s4,s4,-16
   12b48:	7f4b5663          	bge	s6,s4,13334 <_vfprintf_r+0x19a4>
   12b4c:	01060613          	addi	a2,a2,16
   12b50:	00178793          	addi	a5,a5,1
   12b54:	01242023          	sw	s2,0(s0)
   12b58:	01642223          	sw	s6,4(s0)
   12b5c:	0cc12623          	sw	a2,204(sp)
   12b60:	0cf12423          	sw	a5,200(sp)
   12b64:	00840413          	addi	s0,s0,8
   12b68:	fcfd5ee3          	bge	s10,a5,12b44 <_vfprintf_r+0x11b4>
   12b6c:	0c410613          	addi	a2,sp,196
   12b70:	00048593          	mv	a1,s1
   12b74:	000b8513          	mv	a0,s7
   12b78:	794010ef          	jal	1430c <__sprint_r>
   12b7c:	ca051ce3          	bnez	a0,12834 <_vfprintf_r+0xea4>
   12b80:	0cc12603          	lw	a2,204(sp)
   12b84:	0c812783          	lw	a5,200(sp)
   12b88:	00098413          	mv	s0,s3
   12b8c:	fb9ff06f          	j	12b44 <_vfprintf_r+0x11b4>
   12b90:	001df593          	andi	a1,s11,1
   12b94:	ca059e63          	bnez	a1,12050 <_vfprintf_r+0x6c0>
   12b98:	00e42223          	sw	a4,4(s0)
   12b9c:	0cc12623          	sw	a2,204(sp)
   12ba0:	0d412423          	sw	s4,200(sp)
   12ba4:	00700793          	li	a5,7
   12ba8:	d747d663          	bge	a5,s4,12114 <_vfprintf_r+0x784>
   12bac:	0c410613          	addi	a2,sp,196
   12bb0:	00048593          	mv	a1,s1
   12bb4:	000b8513          	mv	a0,s7
   12bb8:	754010ef          	jal	1430c <__sprint_r>
   12bbc:	c6051ce3          	bnez	a0,12834 <_vfprintf_r+0xea4>
   12bc0:	0cc12603          	lw	a2,204(sp)
   12bc4:	0c812a03          	lw	s4,200(sp)
   12bc8:	00098b13          	mv	s6,s3
   12bcc:	d48ff06f          	j	12114 <_vfprintf_r+0x784>
   12bd0:	01812703          	lw	a4,24(sp)
   12bd4:	00100793          	li	a5,1
   12bd8:	d2e7de63          	bge	a5,a4,12114 <_vfprintf_r+0x784>
   12bdc:	00021837          	lui	a6,0x21
   12be0:	01100793          	li	a5,17
   12be4:	69080813          	addi	a6,a6,1680 # 21690 <zeroes.0>
   12be8:	0ce7d6e3          	bge	a5,a4,134b4 <_vfprintf_r+0x1b24>
   12bec:	01212a23          	sw	s2,20(sp)
   12bf0:	01000793          	li	a5,16
   12bf4:	00700d13          	li	s10,7
   12bf8:	00080913          	mv	s2,a6
   12bfc:	00c0006f          	j	12c08 <_vfprintf_r+0x1278>
   12c00:	ff040413          	addi	s0,s0,-16
   12c04:	0a87d4e3          	bge	a5,s0,134ac <_vfprintf_r+0x1b1c>
   12c08:	01060613          	addi	a2,a2,16
   12c0c:	001a0a13          	addi	s4,s4,1
   12c10:	012b2023          	sw	s2,0(s6)
   12c14:	00fb2223          	sw	a5,4(s6)
   12c18:	0cc12623          	sw	a2,204(sp)
   12c1c:	0d412423          	sw	s4,200(sp)
   12c20:	008b0b13          	addi	s6,s6,8
   12c24:	fd4d5ee3          	bge	s10,s4,12c00 <_vfprintf_r+0x1270>
   12c28:	0c410613          	addi	a2,sp,196
   12c2c:	00048593          	mv	a1,s1
   12c30:	000b8513          	mv	a0,s7
   12c34:	6d8010ef          	jal	1430c <__sprint_r>
   12c38:	be051ee3          	bnez	a0,12834 <_vfprintf_r+0xea4>
   12c3c:	0cc12603          	lw	a2,204(sp)
   12c40:	0c812a03          	lw	s4,200(sp)
   12c44:	00098b13          	mv	s6,s3
   12c48:	01000793          	li	a5,16
   12c4c:	fb5ff06f          	j	12c00 <_vfprintf_r+0x1270>
   12c50:	00c12683          	lw	a3,12(sp)
   12c54:	01067793          	andi	a5,a2,16
   12c58:	0006a703          	lw	a4,0(a3)
   12c5c:	00468693          	addi	a3,a3,4
   12c60:	00d12623          	sw	a3,12(sp)
   12c64:	04079863          	bnez	a5,12cb4 <_vfprintf_r+0x1324>
   12c68:	04067793          	andi	a5,a2,64
   12c6c:	04078063          	beqz	a5,12cac <_vfprintf_r+0x131c>
   12c70:	01071b13          	slli	s6,a4,0x10
   12c74:	010b5b13          	srli	s6,s6,0x10
   12c78:	00000813          	li	a6,0
   12c7c:	00100793          	li	a5,1
   12c80:	9fcff06f          	j	11e7c <_vfprintf_r+0x4ec>
   12c84:	00000b13          	li	s6,0
   12c88:	19010d13          	addi	s10,sp,400
   12c8c:	994ff06f          	j	11e20 <_vfprintf_r+0x490>
   12c90:	001df793          	andi	a5,s11,1
   12c94:	00079463          	bnez	a5,12c9c <_vfprintf_r+0x130c>
   12c98:	ff1fe06f          	j	11c88 <_vfprintf_r+0x2f8>
   12c9c:	8a1ff06f          	j	1253c <_vfprintf_r+0xbac>
   12ca0:	00094883          	lbu	a7,0(s2)
   12ca4:	00f12623          	sw	a5,12(sp)
   12ca8:	e95fe06f          	j	11b3c <_vfprintf_r+0x1ac>
   12cac:	20067793          	andi	a5,a2,512
   12cb0:	38079ee3          	bnez	a5,1384c <_vfprintf_r+0x1ebc>
   12cb4:	00070b13          	mv	s6,a4
   12cb8:	00000813          	li	a6,0
   12cbc:	00100793          	li	a5,1
   12cc0:	9bcff06f          	j	11e7c <_vfprintf_r+0x4ec>
   12cc4:	200df793          	andi	a5,s11,512
   12cc8:	360796e3          	bnez	a5,13834 <_vfprintf_r+0x1ea4>
   12ccc:	00070b13          	mv	s6,a4
   12cd0:	00000813          	li	a6,0
   12cd4:	9a0ff06f          	j	11e74 <_vfprintf_r+0x4e4>
   12cd8:	200df793          	andi	a5,s11,512
   12cdc:	340792e3          	bnez	a5,13820 <_vfprintf_r+0x1e90>
   12ce0:	41f75813          	srai	a6,a4,0x1f
   12ce4:	00070b13          	mv	s6,a4
   12ce8:	00080793          	mv	a5,a6
   12cec:	90cff06f          	j	11df8 <_vfprintf_r+0x468>
   12cf0:	03812783          	lw	a5,56(sp)
   12cf4:	00094883          	lbu	a7,0(s2)
   12cf8:	00079463          	bnez	a5,12d00 <_vfprintf_r+0x1370>
   12cfc:	e41fe06f          	j	11b3c <_vfprintf_r+0x1ac>
   12d00:	0007c783          	lbu	a5,0(a5)
   12d04:	00079463          	bnez	a5,12d0c <_vfprintf_r+0x137c>
   12d08:	e35fe06f          	j	11b3c <_vfprintf_r+0x1ac>
   12d0c:	400ded93          	ori	s11,s11,1024
   12d10:	e2dfe06f          	j	11b3c <_vfprintf_r+0x1ac>
   12d14:	010df793          	andi	a5,s11,16
   12d18:	6c079863          	bnez	a5,133e8 <_vfprintf_r+0x1a58>
   12d1c:	040df793          	andi	a5,s11,64
   12d20:	2e0796e3          	bnez	a5,1380c <_vfprintf_r+0x1e7c>
   12d24:	200dfe13          	andi	t3,s11,512
   12d28:	6c0e0063          	beqz	t3,133e8 <_vfprintf_r+0x1a58>
   12d2c:	00c12783          	lw	a5,12(sp)
   12d30:	00412703          	lw	a4,4(sp)
   12d34:	0007a783          	lw	a5,0(a5)
   12d38:	00e78023          	sb	a4,0(a5)
   12d3c:	f34ff06f          	j	12470 <_vfprintf_r+0xae0>
   12d40:	00c12783          	lw	a5,12(sp)
   12d44:	0007a703          	lw	a4,0(a5)
   12d48:	00478793          	addi	a5,a5,4
   12d4c:	00f12623          	sw	a5,12(sp)
   12d50:	00072583          	lw	a1,0(a4)
   12d54:	00472603          	lw	a2,4(a4)
   12d58:	00872683          	lw	a3,8(a4)
   12d5c:	00c72703          	lw	a4,12(a4)
   12d60:	9c8ff06f          	j	11f28 <_vfprintf_r+0x598>
   12d64:	00070a13          	mv	s4,a4
   12d68:	cf404ae3          	bgtz	s4,12a5c <_vfprintf_r+0x10cc>
   12d6c:	d19ff06f          	j	12a84 <_vfprintf_r+0x10f4>
   12d70:	fff00a13          	li	s4,-1
   12d74:	00068913          	mv	s2,a3
   12d78:	dc9fe06f          	j	11b40 <_vfprintf_r+0x1b0>
   12d7c:	000217b7          	lui	a5,0x21
   12d80:	36878793          	addi	a5,a5,872 # 21368 <__clzsi2+0x74>
   12d84:	02f12823          	sw	a5,48(sp)
   12d88:	020df793          	andi	a5,s11,32
   12d8c:	3a078463          	beqz	a5,13134 <_vfprintf_r+0x17a4>
   12d90:	00c12783          	lw	a5,12(sp)
   12d94:	00778c13          	addi	s8,a5,7
   12d98:	ff8c7c13          	andi	s8,s8,-8
   12d9c:	000c2b03          	lw	s6,0(s8)
   12da0:	004c2803          	lw	a6,4(s8)
   12da4:	008c0793          	addi	a5,s8,8
   12da8:	00f12623          	sw	a5,12(sp)
   12dac:	001df793          	andi	a5,s11,1
   12db0:	00078e63          	beqz	a5,12dcc <_vfprintf_r+0x143c>
   12db4:	010b67b3          	or	a5,s6,a6
   12db8:	00078a63          	beqz	a5,12dcc <_vfprintf_r+0x143c>
   12dbc:	03000793          	li	a5,48
   12dc0:	0af10423          	sb	a5,168(sp)
   12dc4:	0b1104a3          	sb	a7,169(sp)
   12dc8:	002ded93          	ori	s11,s11,2
   12dcc:	bffdf613          	andi	a2,s11,-1025
   12dd0:	00200793          	li	a5,2
   12dd4:	8a8ff06f          	j	11e7c <_vfprintf_r+0x4ec>
   12dd8:	000d8613          	mv	a2,s11
   12ddc:	e00ff06f          	j	123dc <_vfprintf_r+0xa4c>
   12de0:	000217b7          	lui	a5,0x21
   12de4:	35478793          	addi	a5,a5,852 # 21354 <__clzsi2+0x60>
   12de8:	02f12823          	sw	a5,48(sp)
   12dec:	f9dff06f          	j	12d88 <_vfprintf_r+0x13f8>
   12df0:	00194883          	lbu	a7,1(s2)
   12df4:	200ded93          	ori	s11,s11,512
   12df8:	00190913          	addi	s2,s2,1
   12dfc:	d41fe06f          	j	11b3c <_vfprintf_r+0x1ac>
   12e00:	00194883          	lbu	a7,1(s2)
   12e04:	020ded93          	ori	s11,s11,32
   12e08:	00190913          	addi	s2,s2,1
   12e0c:	d31fe06f          	j	11b3c <_vfprintf_r+0x1ac>
   12e10:	0c410613          	addi	a2,sp,196
   12e14:	00048593          	mv	a1,s1
   12e18:	000b8513          	mv	a0,s7
   12e1c:	4f0010ef          	jal	1430c <__sprint_r>
   12e20:	a0051ae3          	bnez	a0,12834 <_vfprintf_r+0xea4>
   12e24:	0cc12603          	lw	a2,204(sp)
   12e28:	00098413          	mv	s0,s3
   12e2c:	f40ff06f          	j	1256c <_vfprintf_r+0xbdc>
   12e30:	00600793          	li	a5,6
   12e34:	000a0b13          	mv	s6,s4
   12e38:	1d47e6e3          	bltu	a5,s4,13804 <_vfprintf_r+0x1e74>
   12e3c:	000217b7          	lui	a5,0x21
   12e40:	000b0c13          	mv	s8,s6
   12e44:	01012623          	sw	a6,12(sp)
   12e48:	37c78d13          	addi	s10,a5,892 # 2137c <__clzsi2+0x88>
   12e4c:	d5dfe06f          	j	11ba8 <_vfprintf_r+0x218>
   12e50:	00021837          	lui	a6,0x21
   12e54:	01000593          	li	a1,16
   12e58:	0c812703          	lw	a4,200(sp)
   12e5c:	69080813          	addi	a6,a6,1680 # 21690 <zeroes.0>
   12e60:	6945d663          	bge	a1,s4,134ec <_vfprintf_r+0x1b5c>
   12e64:	03212a23          	sw	s2,52(sp)
   12e68:	01000893          	li	a7,16
   12e6c:	00700b13          	li	s6,7
   12e70:	00080913          	mv	s2,a6
   12e74:	00c0006f          	j	12e80 <_vfprintf_r+0x14f0>
   12e78:	ff0a0a13          	addi	s4,s4,-16
   12e7c:	6748d463          	bge	a7,s4,134e4 <_vfprintf_r+0x1b54>
   12e80:	01060613          	addi	a2,a2,16
   12e84:	00170713          	addi	a4,a4,1
   12e88:	01242023          	sw	s2,0(s0)
   12e8c:	01142223          	sw	a7,4(s0)
   12e90:	0cc12623          	sw	a2,204(sp)
   12e94:	0ce12423          	sw	a4,200(sp)
   12e98:	00840413          	addi	s0,s0,8
   12e9c:	fceb5ee3          	bge	s6,a4,12e78 <_vfprintf_r+0x14e8>
   12ea0:	0c410613          	addi	a2,sp,196
   12ea4:	00048593          	mv	a1,s1
   12ea8:	000b8513          	mv	a0,s7
   12eac:	460010ef          	jal	1430c <__sprint_r>
   12eb0:	980512e3          	bnez	a0,12834 <_vfprintf_r+0xea4>
   12eb4:	0cc12603          	lw	a2,204(sp)
   12eb8:	0c812703          	lw	a4,200(sp)
   12ebc:	00098413          	mv	s0,s3
   12ec0:	01000893          	li	a7,16
   12ec4:	fb5ff06f          	j	12e78 <_vfprintf_r+0x14e8>
   12ec8:	02c12703          	lw	a4,44(sp)
   12ecc:	02812783          	lw	a5,40(sp)
   12ed0:	00700513          	li	a0,7
   12ed4:	00e42023          	sw	a4,0(s0)
   12ed8:	0c812703          	lw	a4,200(sp)
   12edc:	00f60633          	add	a2,a2,a5
   12ee0:	00f42223          	sw	a5,4(s0)
   12ee4:	00170713          	addi	a4,a4,1
   12ee8:	0cc12623          	sw	a2,204(sp)
   12eec:	0ce12423          	sw	a4,200(sp)
   12ef0:	00840413          	addi	s0,s0,8
   12ef4:	bce556e3          	bge	a0,a4,12ac0 <_vfprintf_r+0x1130>
   12ef8:	0c410613          	addi	a2,sp,196
   12efc:	00048593          	mv	a1,s1
   12f00:	000b8513          	mv	a0,s7
   12f04:	408010ef          	jal	1430c <__sprint_r>
   12f08:	920516e3          	bnez	a0,12834 <_vfprintf_r+0xea4>
   12f0c:	0ac12583          	lw	a1,172(sp)
   12f10:	0cc12603          	lw	a2,204(sp)
   12f14:	00098413          	mv	s0,s3
   12f18:	ba9ff06f          	j	12ac0 <_vfprintf_r+0x1130>
   12f1c:	07800793          	li	a5,120
   12f20:	03000713          	li	a4,48
   12f24:	0ae10423          	sb	a4,168(sp)
   12f28:	0af104a3          	sb	a5,169(sp)
   12f2c:	06300713          	li	a4,99
   12f30:	00012423          	sw	zero,8(sp)
   12f34:	002ded93          	ori	s11,s11,2
   12f38:	12c10d13          	addi	s10,sp,300
   12f3c:	87475463          	bge	a4,s4,11fa4 <_vfprintf_r+0x614>
   12f40:	001a0593          	addi	a1,s4,1
   12f44:	000b8513          	mv	a0,s7
   12f48:	01112423          	sw	a7,8(sp)
   12f4c:	ab0fd0ef          	jal	101fc <_malloc_r>
   12f50:	00812883          	lw	a7,8(sp)
   12f54:	00050d13          	mv	s10,a0
   12f58:	00051463          	bnez	a0,12f60 <_vfprintf_r+0x15d0>
   12f5c:	2bc0106f          	j	14218 <_vfprintf_r+0x2888>
   12f60:	00a12423          	sw	a0,8(sp)
   12f64:	840ff06f          	j	11fa4 <_vfprintf_r+0x614>
   12f68:	09010b13          	addi	s6,sp,144
   12f6c:	0ac10713          	addi	a4,sp,172
   12f70:	0bc10813          	addi	a6,sp,188
   12f74:	0b010793          	addi	a5,sp,176
   12f78:	000a0693          	mv	a3,s4
   12f7c:	00200613          	li	a2,2
   12f80:	000b0593          	mv	a1,s6
   12f84:	000b8513          	mv	a0,s7
   12f88:	03112023          	sw	a7,32(sp)
   12f8c:	09f12823          	sw	t6,144(sp)
   12f90:	01f12e23          	sw	t6,28(sp)
   12f94:	09e12a23          	sw	t5,148(sp)
   12f98:	01e12c23          	sw	t5,24(sp)
   12f9c:	09d12c23          	sw	t4,152(sp)
   12fa0:	01d12a23          	sw	t4,20(sp)
   12fa4:	09812e23          	sw	s8,156(sp)
   12fa8:	57c020ef          	jal	15524 <_ldtoa_r>
   12fac:	001df713          	andi	a4,s11,1
   12fb0:	01412e83          	lw	t4,20(sp)
   12fb4:	01812f03          	lw	t5,24(sp)
   12fb8:	01c12f83          	lw	t6,28(sp)
   12fbc:	02012883          	lw	a7,32(sp)
   12fc0:	00050d13          	mv	s10,a0
   12fc4:	0e0714e3          	bnez	a4,138ac <_vfprintf_r+0x1f1c>
   12fc8:	0ac12783          	lw	a5,172(sp)
   12fcc:	00f12a23          	sw	a5,20(sp)
   12fd0:	0bc12783          	lw	a5,188(sp)
   12fd4:	40a787b3          	sub	a5,a5,a0
   12fd8:	00f12c23          	sw	a5,24(sp)
   12fdc:	01412783          	lw	a5,20(sp)
   12fe0:	ffd00713          	li	a4,-3
   12fe4:	00e7c463          	blt	a5,a4,12fec <_vfprintf_r+0x165c>
   12fe8:	56fa5ee3          	bge	s4,a5,13d64 <_vfprintf_r+0x23d4>
   12fec:	01412783          	lw	a5,20(sp)
   12ff0:	ffe88893          	addi	a7,a7,-2
   12ff4:	fff78a13          	addi	s4,a5,-1
   12ff8:	0b412623          	sw	s4,172(sp)
   12ffc:	0ff8f693          	zext.b	a3,a7
   13000:	00000613          	li	a2,0
   13004:	0ad10a23          	sb	a3,180(sp)
   13008:	02b00693          	li	a3,43
   1300c:	000a5a63          	bgez	s4,13020 <_vfprintf_r+0x1690>
   13010:	01412783          	lw	a5,20(sp)
   13014:	00100713          	li	a4,1
   13018:	02d00693          	li	a3,45
   1301c:	40f70a33          	sub	s4,a4,a5
   13020:	0ad10aa3          	sb	a3,181(sp)
   13024:	00900693          	li	a3,9
   13028:	0146c463          	blt	a3,s4,13030 <_vfprintf_r+0x16a0>
   1302c:	0200106f          	j	1404c <_vfprintf_r+0x26bc>
   13030:	0c310613          	addi	a2,sp,195
   13034:	00812a23          	sw	s0,20(sp)
   13038:	00088b13          	mv	s6,a7
   1303c:	00060413          	mv	s0,a2
   13040:	00912e23          	sw	s1,28(sp)
   13044:	00a00593          	li	a1,10
   13048:	000a0513          	mv	a0,s4
   1304c:	2780e0ef          	jal	212c4 <__modsi3>
   13050:	03050793          	addi	a5,a0,48
   13054:	00040c13          	mv	s8,s0
   13058:	fefc0fa3          	sb	a5,-1(s8)
   1305c:	000a0513          	mv	a0,s4
   13060:	00a00593          	li	a1,10
   13064:	1dc0e0ef          	jal	21240 <__divsi3>
   13068:	000a0493          	mv	s1,s4
   1306c:	06300793          	li	a5,99
   13070:	fff40413          	addi	s0,s0,-1
   13074:	00050a13          	mv	s4,a0
   13078:	fc97c6e3          	blt	a5,s1,13044 <_vfprintf_r+0x16b4>
   1307c:	00040613          	mv	a2,s0
   13080:	03050713          	addi	a4,a0,48
   13084:	ffec0693          	addi	a3,s8,-2
   13088:	fee60fa3          	sb	a4,-1(a2)
   1308c:	0c310793          	addi	a5,sp,195
   13090:	01412403          	lw	s0,20(sp)
   13094:	01c12483          	lw	s1,28(sp)
   13098:	000b0893          	mv	a7,s6
   1309c:	00f6e463          	bltu	a3,a5,130a4 <_vfprintf_r+0x1714>
   130a0:	1300106f          	j	141d0 <_vfprintf_r+0x2840>
   130a4:	0b610613          	addi	a2,sp,182
   130a8:	0006c783          	lbu	a5,0(a3)
   130ac:	00168693          	addi	a3,a3,1
   130b0:	00160613          	addi	a2,a2,1
   130b4:	fef60fa3          	sb	a5,-1(a2)
   130b8:	0c310793          	addi	a5,sp,195
   130bc:	fef696e3          	bne	a3,a5,130a8 <_vfprintf_r+0x1718>
   130c0:	19010793          	addi	a5,sp,400
   130c4:	41878733          	sub	a4,a5,s8
   130c8:	f3770793          	addi	a5,a4,-201
   130cc:	02f12e23          	sw	a5,60(sp)
   130d0:	01812783          	lw	a5,24(sp)
   130d4:	03c12683          	lw	a3,60(sp)
   130d8:	00100713          	li	a4,1
   130dc:	00d78b33          	add	s6,a5,a3
   130e0:	00f74463          	blt	a4,a5,130e8 <_vfprintf_r+0x1758>
   130e4:	7a50006f          	j	14088 <_vfprintf_r+0x26f8>
   130e8:	02812783          	lw	a5,40(sp)
   130ec:	00fb0b33          	add	s6,s6,a5
   130f0:	fffb4693          	not	a3,s6
   130f4:	bffdfe13          	andi	t3,s11,-1025
   130f8:	41f6d693          	srai	a3,a3,0x1f
   130fc:	100e6793          	ori	a5,t3,256
   13100:	04f12423          	sw	a5,72(sp)
   13104:	00db7c33          	and	s8,s6,a3
   13108:	02012023          	sw	zero,32(sp)
   1310c:	00012e23          	sw	zero,28(sp)
   13110:	00012a23          	sw	zero,20(sp)
   13114:	03412783          	lw	a5,52(sp)
   13118:	42078ae3          	beqz	a5,13d4c <_vfprintf_r+0x23bc>
   1311c:	02d00713          	li	a4,45
   13120:	04812d83          	lw	s11,72(sp)
   13124:	0ae103a3          	sb	a4,167(sp)
   13128:	00000a13          	li	s4,0
   1312c:	001c0c13          	addi	s8,s8,1
   13130:	a8dfe06f          	j	11bbc <_vfprintf_r+0x22c>
   13134:	00c12683          	lw	a3,12(sp)
   13138:	010df793          	andi	a5,s11,16
   1313c:	0006a703          	lw	a4,0(a3)
   13140:	00468693          	addi	a3,a3,4
   13144:	00d12623          	sw	a3,12(sp)
   13148:	06079663          	bnez	a5,131b4 <_vfprintf_r+0x1824>
   1314c:	040df793          	andi	a5,s11,64
   13150:	04078e63          	beqz	a5,131ac <_vfprintf_r+0x181c>
   13154:	01071b13          	slli	s6,a4,0x10
   13158:	010b5b13          	srli	s6,s6,0x10
   1315c:	00000813          	li	a6,0
   13160:	c4dff06f          	j	12dac <_vfprintf_r+0x141c>
   13164:	0c410613          	addi	a2,sp,196
   13168:	00048593          	mv	a1,s1
   1316c:	000b8513          	mv	a0,s7
   13170:	19c010ef          	jal	1430c <__sprint_r>
   13174:	ec051063          	bnez	a0,12834 <_vfprintf_r+0xea4>
   13178:	0cc12603          	lw	a2,204(sp)
   1317c:	0c812a03          	lw	s4,200(sp)
   13180:	00098b13          	mv	s6,s3
   13184:	ee9fe06f          	j	1206c <_vfprintf_r+0x6dc>
   13188:	0c410613          	addi	a2,sp,196
   1318c:	00048593          	mv	a1,s1
   13190:	000b8513          	mv	a0,s7
   13194:	178010ef          	jal	1430c <__sprint_r>
   13198:	e8051e63          	bnez	a0,12834 <_vfprintf_r+0xea4>
   1319c:	0cc12603          	lw	a2,204(sp)
   131a0:	0c812a03          	lw	s4,200(sp)
   131a4:	00098b13          	mv	s6,s3
   131a8:	ef5fe06f          	j	1209c <_vfprintf_r+0x70c>
   131ac:	200df793          	andi	a5,s11,512
   131b0:	68079863          	bnez	a5,13840 <_vfprintf_r+0x1eb0>
   131b4:	00070b13          	mv	s6,a4
   131b8:	00000813          	li	a6,0
   131bc:	bf1ff06f          	j	12dac <_vfprintf_r+0x141c>
   131c0:	19010c13          	addi	s8,sp,400
   131c4:	01212423          	sw	s2,8(sp)
   131c8:	02812023          	sw	s0,32(sp)
   131cc:	02912a23          	sw	s1,52(sp)
   131d0:	03812403          	lw	s0,56(sp)
   131d4:	40067d93          	andi	s11,a2,1024
   131d8:	00000d13          	li	s10,0
   131dc:	01112a23          	sw	a7,20(sp)
   131e0:	00c12e23          	sw	a2,28(sp)
   131e4:	000c0493          	mv	s1,s8
   131e8:	00080913          	mv	s2,a6
   131ec:	0280006f          	j	13214 <_vfprintf_r+0x1884>
   131f0:	00a00613          	li	a2,10
   131f4:	00000693          	li	a3,0
   131f8:	000b0513          	mv	a0,s6
   131fc:	00090593          	mv	a1,s2
   13200:	3b0080ef          	jal	1b5b0 <__udivdi3>
   13204:	3e0906e3          	beqz	s2,13df0 <_vfprintf_r+0x2460>
   13208:	00050b13          	mv	s6,a0
   1320c:	00058913          	mv	s2,a1
   13210:	000c0493          	mv	s1,s8
   13214:	00a00613          	li	a2,10
   13218:	00000693          	li	a3,0
   1321c:	000b0513          	mv	a0,s6
   13220:	00090593          	mv	a1,s2
   13224:	151080ef          	jal	1bb74 <__umoddi3>
   13228:	03050513          	addi	a0,a0,48
   1322c:	fea48fa3          	sb	a0,-1(s1)
   13230:	fff48c13          	addi	s8,s1,-1
   13234:	001d0d13          	addi	s10,s10,1
   13238:	fa0d8ce3          	beqz	s11,131f0 <_vfprintf_r+0x1860>
   1323c:	00044783          	lbu	a5,0(s0)
   13240:	fafd18e3          	bne	s10,a5,131f0 <_vfprintf_r+0x1860>
   13244:	0ff00793          	li	a5,255
   13248:	fafd04e3          	beq	s10,a5,131f0 <_vfprintf_r+0x1860>
   1324c:	2e091263          	bnez	s2,13530 <_vfprintf_r+0x1ba0>
   13250:	00900793          	li	a5,9
   13254:	2d67ee63          	bltu	a5,s6,13530 <_vfprintf_r+0x1ba0>
   13258:	01c12603          	lw	a2,28(sp)
   1325c:	01a12c23          	sw	s10,24(sp)
   13260:	19010793          	addi	a5,sp,400
   13264:	000c0d13          	mv	s10,s8
   13268:	02812c23          	sw	s0,56(sp)
   1326c:	00812903          	lw	s2,8(sp)
   13270:	01412883          	lw	a7,20(sp)
   13274:	02012403          	lw	s0,32(sp)
   13278:	03412483          	lw	s1,52(sp)
   1327c:	41a78b33          	sub	s6,a5,s10
   13280:	00060d93          	mv	s11,a2
   13284:	b9dfe06f          	j	11e20 <_vfprintf_r+0x490>
   13288:	0c812703          	lw	a4,200(sp)
   1328c:	000215b7          	lui	a1,0x21
   13290:	38458593          	addi	a1,a1,900 # 21384 <__clzsi2+0x90>
   13294:	00b42023          	sw	a1,0(s0)
   13298:	00160613          	addi	a2,a2,1
   1329c:	00100593          	li	a1,1
   132a0:	00170713          	addi	a4,a4,1
   132a4:	00b42223          	sw	a1,4(s0)
   132a8:	0cc12623          	sw	a2,204(sp)
   132ac:	0ce12423          	sw	a4,200(sp)
   132b0:	00700593          	li	a1,7
   132b4:	00840413          	addi	s0,s0,8
   132b8:	4ee5ca63          	blt	a1,a4,137ac <_vfprintf_r+0x1e1c>
   132bc:	14051063          	bnez	a0,133fc <_vfprintf_r+0x1a6c>
   132c0:	01812783          	lw	a5,24(sp)
   132c4:	001df713          	andi	a4,s11,1
   132c8:	00f76733          	or	a4,a4,a5
   132cc:	00071463          	bnez	a4,132d4 <_vfprintf_r+0x1944>
   132d0:	9b9fe06f          	j	11c88 <_vfprintf_r+0x2f8>
   132d4:	02c12703          	lw	a4,44(sp)
   132d8:	02812783          	lw	a5,40(sp)
   132dc:	00700593          	li	a1,7
   132e0:	00e42023          	sw	a4,0(s0)
   132e4:	0c812703          	lw	a4,200(sp)
   132e8:	00c78633          	add	a2,a5,a2
   132ec:	00f42223          	sw	a5,4(s0)
   132f0:	00170713          	addi	a4,a4,1
   132f4:	0cc12623          	sw	a2,204(sp)
   132f8:	0ce12423          	sw	a4,200(sp)
   132fc:	58e5c263          	blt	a1,a4,13880 <_vfprintf_r+0x1ef0>
   13300:	00840413          	addi	s0,s0,8
   13304:	12c0006f          	j	13430 <_vfprintf_r+0x1aa0>
   13308:	02412503          	lw	a0,36(sp)
   1330c:	9b5fd0ef          	jal	10cc0 <__sinit>
   13310:	ee0fe06f          	j	119f0 <_vfprintf_r+0x60>
   13314:	0c410613          	addi	a2,sp,196
   13318:	00048593          	mv	a1,s1
   1331c:	000b8513          	mv	a0,s7
   13320:	7ed000ef          	jal	1430c <__sprint_r>
   13324:	d0051863          	bnez	a0,12834 <_vfprintf_r+0xea4>
   13328:	0cc12603          	lw	a2,204(sp)
   1332c:	00098413          	mv	s0,s3
   13330:	a00ff06f          	j	12530 <_vfprintf_r+0xba0>
   13334:	00090813          	mv	a6,s2
   13338:	01412903          	lw	s2,20(sp)
   1333c:	01042023          	sw	a6,0(s0)
   13340:	01442223          	sw	s4,4(s0)
   13344:	01460633          	add	a2,a2,s4
   13348:	00178793          	addi	a5,a5,1
   1334c:	0cc12623          	sw	a2,204(sp)
   13350:	0cf12423          	sw	a5,200(sp)
   13354:	00700713          	li	a4,7
   13358:	00f74463          	blt	a4,a5,13360 <_vfprintf_r+0x19d0>
   1335c:	929fe06f          	j	11c84 <_vfprintf_r+0x2f4>
   13360:	de1fe06f          	j	12140 <_vfprintf_r+0x7b0>
   13364:	0d012783          	lw	a5,208(sp)
   13368:	08010593          	addi	a1,sp,128
   1336c:	09010513          	addi	a0,sp,144
   13370:	08f12823          	sw	a5,144(sp)
   13374:	0d412783          	lw	a5,212(sp)
   13378:	08012023          	sw	zero,128(sp)
   1337c:	08012223          	sw	zero,132(sp)
   13380:	08f12a23          	sw	a5,148(sp)
   13384:	0d812783          	lw	a5,216(sp)
   13388:	08012423          	sw	zero,136(sp)
   1338c:	08012623          	sw	zero,140(sp)
   13390:	08f12c23          	sw	a5,152(sp)
   13394:	0dc12783          	lw	a5,220(sp)
   13398:	08f12e23          	sw	a5,156(sp)
   1339c:	7dd0a0ef          	jal	1e378 <__letf2>
   133a0:	00812883          	lw	a7,8(sp)
   133a4:	260542e3          	bltz	a0,13e08 <_vfprintf_r+0x2478>
   133a8:	0a714703          	lbu	a4,167(sp)
   133ac:	04700793          	li	a5,71
   133b0:	4317d263          	bge	a5,a7,137d4 <_vfprintf_r+0x1e44>
   133b4:	000217b7          	lui	a5,0x21
   133b8:	34878d13          	addi	s10,a5,840 # 21348 <__clzsi2+0x54>
   133bc:	00012423          	sw	zero,8(sp)
   133c0:	02012023          	sw	zero,32(sp)
   133c4:	00012e23          	sw	zero,28(sp)
   133c8:	00012a23          	sw	zero,20(sp)
   133cc:	f7fdfd93          	andi	s11,s11,-129
   133d0:	00300c13          	li	s8,3
   133d4:	00300b13          	li	s6,3
   133d8:	00000a13          	li	s4,0
   133dc:	00070463          	beqz	a4,133e4 <_vfprintf_r+0x1a54>
   133e0:	a65fe06f          	j	11e44 <_vfprintf_r+0x4b4>
   133e4:	fd8fe06f          	j	11bbc <_vfprintf_r+0x22c>
   133e8:	00c12783          	lw	a5,12(sp)
   133ec:	00412703          	lw	a4,4(sp)
   133f0:	0007a783          	lw	a5,0(a5)
   133f4:	00e7a023          	sw	a4,0(a5)
   133f8:	878ff06f          	j	12470 <_vfprintf_r+0xae0>
   133fc:	02c12703          	lw	a4,44(sp)
   13400:	02812783          	lw	a5,40(sp)
   13404:	00700593          	li	a1,7
   13408:	00e42023          	sw	a4,0(s0)
   1340c:	0c812703          	lw	a4,200(sp)
   13410:	00c78633          	add	a2,a5,a2
   13414:	00f42223          	sw	a5,4(s0)
   13418:	00170713          	addi	a4,a4,1
   1341c:	0cc12623          	sw	a2,204(sp)
   13420:	0ce12423          	sw	a4,200(sp)
   13424:	00840413          	addi	s0,s0,8
   13428:	44e5cc63          	blt	a1,a4,13880 <_vfprintf_r+0x1ef0>
   1342c:	34054ae3          	bltz	a0,13f80 <_vfprintf_r+0x25f0>
   13430:	01812783          	lw	a5,24(sp)
   13434:	00170713          	addi	a4,a4,1
   13438:	01a42023          	sw	s10,0(s0)
   1343c:	00c78633          	add	a2,a5,a2
   13440:	00f42223          	sw	a5,4(s0)
   13444:	0cc12623          	sw	a2,204(sp)
   13448:	0ce12423          	sw	a4,200(sp)
   1344c:	00700793          	li	a5,7
   13450:	00e7c463          	blt	a5,a4,13458 <_vfprintf_r+0x1ac8>
   13454:	831fe06f          	j	11c84 <_vfprintf_r+0x2f4>
   13458:	ce9fe06f          	j	12140 <_vfprintf_r+0x7b0>
   1345c:	000d0513          	mv	a0,s10
   13460:	01012423          	sw	a6,8(sp)
   13464:	03112a23          	sw	a7,52(sp)
   13468:	615010ef          	jal	1527c <strlen>
   1346c:	00812803          	lw	a6,8(sp)
   13470:	0a714703          	lbu	a4,167(sp)
   13474:	fff54693          	not	a3,a0
   13478:	41f6d693          	srai	a3,a3,0x1f
   1347c:	01012623          	sw	a6,12(sp)
   13480:	00012423          	sw	zero,8(sp)
   13484:	02012023          	sw	zero,32(sp)
   13488:	00012e23          	sw	zero,28(sp)
   1348c:	00012a23          	sw	zero,20(sp)
   13490:	03412883          	lw	a7,52(sp)
   13494:	00050b13          	mv	s6,a0
   13498:	00d57c33          	and	s8,a0,a3
   1349c:	00000a13          	li	s4,0
   134a0:	00070463          	beqz	a4,134a8 <_vfprintf_r+0x1b18>
   134a4:	9a1fe06f          	j	11e44 <_vfprintf_r+0x4b4>
   134a8:	f14fe06f          	j	11bbc <_vfprintf_r+0x22c>
   134ac:	00090813          	mv	a6,s2
   134b0:	01412903          	lw	s2,20(sp)
   134b4:	00860633          	add	a2,a2,s0
   134b8:	001a0a13          	addi	s4,s4,1
   134bc:	010b2023          	sw	a6,0(s6)
   134c0:	c3dfe06f          	j	120fc <_vfprintf_r+0x76c>
   134c4:	0dc12783          	lw	a5,220(sp)
   134c8:	3807ca63          	bltz	a5,1385c <_vfprintf_r+0x1ecc>
   134cc:	0a714703          	lbu	a4,167(sp)
   134d0:	04700793          	li	a5,71
   134d4:	1b17c0e3          	blt	a5,a7,13e74 <_vfprintf_r+0x24e4>
   134d8:	000217b7          	lui	a5,0x21
   134dc:	34c78d13          	addi	s10,a5,844 # 2134c <__clzsi2+0x58>
   134e0:	eddff06f          	j	133bc <_vfprintf_r+0x1a2c>
   134e4:	00090813          	mv	a6,s2
   134e8:	03412903          	lw	s2,52(sp)
   134ec:	01460633          	add	a2,a2,s4
   134f0:	00170713          	addi	a4,a4,1
   134f4:	01042023          	sw	a6,0(s0)
   134f8:	01442223          	sw	s4,4(s0)
   134fc:	0cc12623          	sw	a2,204(sp)
   13500:	0ce12423          	sw	a4,200(sp)
   13504:	00700593          	li	a1,7
   13508:	00840413          	addi	s0,s0,8
   1350c:	d8e5d863          	bge	a1,a4,12a9c <_vfprintf_r+0x110c>
   13510:	0c410613          	addi	a2,sp,196
   13514:	00048593          	mv	a1,s1
   13518:	000b8513          	mv	a0,s7
   1351c:	5f1000ef          	jal	1430c <__sprint_r>
   13520:	b0051a63          	bnez	a0,12834 <_vfprintf_r+0xea4>
   13524:	0cc12603          	lw	a2,204(sp)
   13528:	00098413          	mv	s0,s3
   1352c:	d70ff06f          	j	12a9c <_vfprintf_r+0x110c>
   13530:	04012783          	lw	a5,64(sp)
   13534:	04412583          	lw	a1,68(sp)
   13538:	00000d13          	li	s10,0
   1353c:	40fc0c33          	sub	s8,s8,a5
   13540:	00078613          	mv	a2,a5
   13544:	000c0513          	mv	a0,s8
   13548:	165010ef          	jal	14eac <strncpy>
   1354c:	00144783          	lbu	a5,1(s0)
   13550:	00a00613          	li	a2,10
   13554:	00000693          	li	a3,0
   13558:	00f037b3          	snez	a5,a5
   1355c:	000b0513          	mv	a0,s6
   13560:	00090593          	mv	a1,s2
   13564:	00f40433          	add	s0,s0,a5
   13568:	048080ef          	jal	1b5b0 <__udivdi3>
   1356c:	c9dff06f          	j	13208 <_vfprintf_r+0x1878>
   13570:	01812783          	lw	a5,24(sp)
   13574:	01c12b03          	lw	s6,28(sp)
   13578:	000218b7          	lui	a7,0x21
   1357c:	00fd07b3          	add	a5,s10,a5
   13580:	03212a23          	sw	s2,52(sp)
   13584:	05912623          	sw	s9,76(sp)
   13588:	01812e23          	sw	s8,28(sp)
   1358c:	05a12823          	sw	s10,80(sp)
   13590:	05b12423          	sw	s11,72(sp)
   13594:	000a0c93          	mv	s9,s4
   13598:	00040693          	mv	a3,s0
   1359c:	04012a03          	lw	s4,64(sp)
   135a0:	04412403          	lw	s0,68(sp)
   135a4:	03812c03          	lw	s8,56(sp)
   135a8:	02012d03          	lw	s10,32(sp)
   135ac:	00700813          	li	a6,7
   135b0:	01000713          	li	a4,16
   135b4:	69088893          	addi	a7,a7,1680 # 21690 <zeroes.0>
   135b8:	00078913          	mv	s2,a5
   135bc:	09605463          	blez	s6,13644 <_vfprintf_r+0x1cb4>
   135c0:	17a05e63          	blez	s10,1373c <_vfprintf_r+0x1dac>
   135c4:	fffd0d13          	addi	s10,s10,-1
   135c8:	0c812783          	lw	a5,200(sp)
   135cc:	01460633          	add	a2,a2,s4
   135d0:	0086a023          	sw	s0,0(a3)
   135d4:	00178793          	addi	a5,a5,1
   135d8:	0146a223          	sw	s4,4(a3)
   135dc:	0cc12623          	sw	a2,204(sp)
   135e0:	0cf12423          	sw	a5,200(sp)
   135e4:	00868693          	addi	a3,a3,8
   135e8:	16f84063          	blt	a6,a5,13748 <_vfprintf_r+0x1db8>
   135ec:	000c4583          	lbu	a1,0(s8)
   135f0:	41990db3          	sub	s11,s2,s9
   135f4:	01b5d463          	bge	a1,s11,135fc <_vfprintf_r+0x1c6c>
   135f8:	00058d93          	mv	s11,a1
   135fc:	03b05663          	blez	s11,13628 <_vfprintf_r+0x1c98>
   13600:	0c812583          	lw	a1,200(sp)
   13604:	01b60633          	add	a2,a2,s11
   13608:	0196a023          	sw	s9,0(a3)
   1360c:	00158593          	addi	a1,a1,1
   13610:	01b6a223          	sw	s11,4(a3)
   13614:	0cc12623          	sw	a2,204(sp)
   13618:	0cb12423          	sw	a1,200(sp)
   1361c:	14b84e63          	blt	a6,a1,13778 <_vfprintf_r+0x1de8>
   13620:	000c4583          	lbu	a1,0(s8)
   13624:	00868693          	addi	a3,a3,8
   13628:	fffdc513          	not	a0,s11
   1362c:	41f55513          	srai	a0,a0,0x1f
   13630:	00adf7b3          	and	a5,s11,a0
   13634:	40f58db3          	sub	s11,a1,a5
   13638:	05b04263          	bgtz	s11,1367c <_vfprintf_r+0x1cec>
   1363c:	00bc8cb3          	add	s9,s9,a1
   13640:	f96040e3          	bgtz	s6,135c0 <_vfprintf_r+0x1c30>
   13644:	f9a040e3          	bgtz	s10,135c4 <_vfprintf_r+0x1c34>
   13648:	05012d03          	lw	s10,80(sp)
   1364c:	01812783          	lw	a5,24(sp)
   13650:	03812c23          	sw	s8,56(sp)
   13654:	000c8a13          	mv	s4,s9
   13658:	00fd0733          	add	a4,s10,a5
   1365c:	03412903          	lw	s2,52(sp)
   13660:	04812d83          	lw	s11,72(sp)
   13664:	04c12c83          	lw	s9,76(sp)
   13668:	01c12c03          	lw	s8,28(sp)
   1366c:	00068413          	mv	s0,a3
   13670:	c3477e63          	bgeu	a4,s4,12aac <_vfprintf_r+0x111c>
   13674:	00070a13          	mv	s4,a4
   13678:	c34ff06f          	j	12aac <_vfprintf_r+0x111c>
   1367c:	00021fb7          	lui	t6,0x21
   13680:	0c812583          	lw	a1,200(sp)
   13684:	690f8f93          	addi	t6,t6,1680 # 21690 <zeroes.0>
   13688:	09b75463          	bge	a4,s11,13710 <_vfprintf_r+0x1d80>
   1368c:	00812a23          	sw	s0,20(sp)
   13690:	000d8413          	mv	s0,s11
   13694:	00090d93          	mv	s11,s2
   13698:	00088913          	mv	s2,a7
   1369c:	00c0006f          	j	136a8 <_vfprintf_r+0x1d18>
   136a0:	ff040413          	addi	s0,s0,-16
   136a4:	04875e63          	bge	a4,s0,13700 <_vfprintf_r+0x1d70>
   136a8:	01060613          	addi	a2,a2,16
   136ac:	00158593          	addi	a1,a1,1
   136b0:	0116a023          	sw	a7,0(a3)
   136b4:	00e6a223          	sw	a4,4(a3)
   136b8:	0cc12623          	sw	a2,204(sp)
   136bc:	0cb12423          	sw	a1,200(sp)
   136c0:	00868693          	addi	a3,a3,8
   136c4:	fcb85ee3          	bge	a6,a1,136a0 <_vfprintf_r+0x1d10>
   136c8:	0c410613          	addi	a2,sp,196
   136cc:	00048593          	mv	a1,s1
   136d0:	000b8513          	mv	a0,s7
   136d4:	439000ef          	jal	1430c <__sprint_r>
   136d8:	94051e63          	bnez	a0,12834 <_vfprintf_r+0xea4>
   136dc:	000217b7          	lui	a5,0x21
   136e0:	01000713          	li	a4,16
   136e4:	ff040413          	addi	s0,s0,-16
   136e8:	0cc12603          	lw	a2,204(sp)
   136ec:	0c812583          	lw	a1,200(sp)
   136f0:	00098693          	mv	a3,s3
   136f4:	69078893          	addi	a7,a5,1680 # 21690 <zeroes.0>
   136f8:	00700813          	li	a6,7
   136fc:	fa8746e3          	blt	a4,s0,136a8 <_vfprintf_r+0x1d18>
   13700:	00090f93          	mv	t6,s2
   13704:	000d8913          	mv	s2,s11
   13708:	00040d93          	mv	s11,s0
   1370c:	01412403          	lw	s0,20(sp)
   13710:	01b60633          	add	a2,a2,s11
   13714:	00158593          	addi	a1,a1,1
   13718:	01f6a023          	sw	t6,0(a3)
   1371c:	01b6a223          	sw	s11,4(a3)
   13720:	0cc12623          	sw	a2,204(sp)
   13724:	0cb12423          	sw	a1,200(sp)
   13728:	68b84663          	blt	a6,a1,13db4 <_vfprintf_r+0x2424>
   1372c:	000c4583          	lbu	a1,0(s8)
   13730:	00868693          	addi	a3,a3,8
   13734:	00bc8cb3          	add	s9,s9,a1
   13738:	f09ff06f          	j	13640 <_vfprintf_r+0x1cb0>
   1373c:	fffc0c13          	addi	s8,s8,-1
   13740:	fffb0b13          	addi	s6,s6,-1
   13744:	e85ff06f          	j	135c8 <_vfprintf_r+0x1c38>
   13748:	0c410613          	addi	a2,sp,196
   1374c:	00048593          	mv	a1,s1
   13750:	000b8513          	mv	a0,s7
   13754:	3b9000ef          	jal	1430c <__sprint_r>
   13758:	8c051e63          	bnez	a0,12834 <_vfprintf_r+0xea4>
   1375c:	000217b7          	lui	a5,0x21
   13760:	0cc12603          	lw	a2,204(sp)
   13764:	00098693          	mv	a3,s3
   13768:	69078893          	addi	a7,a5,1680 # 21690 <zeroes.0>
   1376c:	01000713          	li	a4,16
   13770:	00700813          	li	a6,7
   13774:	e79ff06f          	j	135ec <_vfprintf_r+0x1c5c>
   13778:	0c410613          	addi	a2,sp,196
   1377c:	00048593          	mv	a1,s1
   13780:	000b8513          	mv	a0,s7
   13784:	389000ef          	jal	1430c <__sprint_r>
   13788:	8a051663          	bnez	a0,12834 <_vfprintf_r+0xea4>
   1378c:	000217b7          	lui	a5,0x21
   13790:	000c4583          	lbu	a1,0(s8)
   13794:	0cc12603          	lw	a2,204(sp)
   13798:	00098693          	mv	a3,s3
   1379c:	69078893          	addi	a7,a5,1680 # 21690 <zeroes.0>
   137a0:	01000713          	li	a4,16
   137a4:	00700813          	li	a6,7
   137a8:	e81ff06f          	j	13628 <_vfprintf_r+0x1c98>
   137ac:	0c410613          	addi	a2,sp,196
   137b0:	00048593          	mv	a1,s1
   137b4:	000b8513          	mv	a0,s7
   137b8:	355000ef          	jal	1430c <__sprint_r>
   137bc:	00050463          	beqz	a0,137c4 <_vfprintf_r+0x1e34>
   137c0:	874ff06f          	j	12834 <_vfprintf_r+0xea4>
   137c4:	0ac12503          	lw	a0,172(sp)
   137c8:	0cc12603          	lw	a2,204(sp)
   137cc:	00098413          	mv	s0,s3
   137d0:	aedff06f          	j	132bc <_vfprintf_r+0x192c>
   137d4:	000217b7          	lui	a5,0x21
   137d8:	34478d13          	addi	s10,a5,836 # 21344 <__clzsi2+0x50>
   137dc:	be1ff06f          	j	133bc <_vfprintf_r+0x1a2c>
   137e0:	0c410613          	addi	a2,sp,196
   137e4:	00048593          	mv	a1,s1
   137e8:	000b8513          	mv	a0,s7
   137ec:	321000ef          	jal	1430c <__sprint_r>
   137f0:	00050463          	beqz	a0,137f8 <_vfprintf_r+0x1e68>
   137f4:	840ff06f          	j	12834 <_vfprintf_r+0xea4>
   137f8:	0cc12603          	lw	a2,204(sp)
   137fc:	00098413          	mv	s0,s3
   13800:	a84ff06f          	j	12a84 <_vfprintf_r+0x10f4>
   13804:	00600b13          	li	s6,6
   13808:	e34ff06f          	j	12e3c <_vfprintf_r+0x14ac>
   1380c:	00c12783          	lw	a5,12(sp)
   13810:	00412703          	lw	a4,4(sp)
   13814:	0007a783          	lw	a5,0(a5)
   13818:	00e79023          	sh	a4,0(a5)
   1381c:	c55fe06f          	j	12470 <_vfprintf_r+0xae0>
   13820:	01871b13          	slli	s6,a4,0x18
   13824:	418b5b13          	srai	s6,s6,0x18
   13828:	41fb5813          	srai	a6,s6,0x1f
   1382c:	00080793          	mv	a5,a6
   13830:	dc8fe06f          	j	11df8 <_vfprintf_r+0x468>
   13834:	0ff77b13          	zext.b	s6,a4
   13838:	00000813          	li	a6,0
   1383c:	e38fe06f          	j	11e74 <_vfprintf_r+0x4e4>
   13840:	0ff77b13          	zext.b	s6,a4
   13844:	00000813          	li	a6,0
   13848:	d64ff06f          	j	12dac <_vfprintf_r+0x141c>
   1384c:	0ff77b13          	zext.b	s6,a4
   13850:	00000813          	li	a6,0
   13854:	00100793          	li	a5,1
   13858:	e24fe06f          	j	11e7c <_vfprintf_r+0x4ec>
   1385c:	02d00793          	li	a5,45
   13860:	0af103a3          	sb	a5,167(sp)
   13864:	02d00713          	li	a4,45
   13868:	c69ff06f          	j	134d0 <_vfprintf_r+0x1b40>
   1386c:	02412503          	lw	a0,36(sp)
   13870:	0c410613          	addi	a2,sp,196
   13874:	00048593          	mv	a1,s1
   13878:	295000ef          	jal	1430c <__sprint_r>
   1387c:	c6cfe06f          	j	11ce8 <_vfprintf_r+0x358>
   13880:	0c410613          	addi	a2,sp,196
   13884:	00048593          	mv	a1,s1
   13888:	000b8513          	mv	a0,s7
   1388c:	281000ef          	jal	1430c <__sprint_r>
   13890:	00050463          	beqz	a0,13898 <_vfprintf_r+0x1f08>
   13894:	fa1fe06f          	j	12834 <_vfprintf_r+0xea4>
   13898:	0ac12503          	lw	a0,172(sp)
   1389c:	0cc12603          	lw	a2,204(sp)
   138a0:	0c812703          	lw	a4,200(sp)
   138a4:	00098413          	mv	s0,s3
   138a8:	b85ff06f          	j	1342c <_vfprintf_r+0x1a9c>
   138ac:	01450733          	add	a4,a0,s4
   138b0:	04700613          	li	a2,71
   138b4:	08010593          	addi	a1,sp,128
   138b8:	000b0513          	mv	a0,s6
   138bc:	00e12e23          	sw	a4,28(sp)
   138c0:	00c12c23          	sw	a2,24(sp)
   138c4:	01112a23          	sw	a7,20(sp)
   138c8:	09f12823          	sw	t6,144(sp)
   138cc:	09e12a23          	sw	t5,148(sp)
   138d0:	09d12c23          	sw	t4,152(sp)
   138d4:	09812e23          	sw	s8,156(sp)
   138d8:	08012023          	sw	zero,128(sp)
   138dc:	08012223          	sw	zero,132(sp)
   138e0:	08012423          	sw	zero,136(sp)
   138e4:	08012623          	sw	zero,140(sp)
   138e8:	0950a0ef          	jal	1e17c <__eqtf2>
   138ec:	01412883          	lw	a7,20(sp)
   138f0:	01812603          	lw	a2,24(sp)
   138f4:	01c12703          	lw	a4,28(sp)
   138f8:	58050463          	beqz	a0,13e80 <_vfprintf_r+0x24f0>
   138fc:	0bc12783          	lw	a5,188(sp)
   13900:	00e7fe63          	bgeu	a5,a4,1391c <_vfprintf_r+0x1f8c>
   13904:	03000593          	li	a1,48
   13908:	00178693          	addi	a3,a5,1
   1390c:	0ad12e23          	sw	a3,188(sp)
   13910:	00b78023          	sb	a1,0(a5)
   13914:	0bc12783          	lw	a5,188(sp)
   13918:	fee7e8e3          	bltu	a5,a4,13908 <_vfprintf_r+0x1f78>
   1391c:	0ac12703          	lw	a4,172(sp)
   13920:	00e12a23          	sw	a4,20(sp)
   13924:	41a787b3          	sub	a5,a5,s10
   13928:	04700713          	li	a4,71
   1392c:	00f12c23          	sw	a5,24(sp)
   13930:	eae60663          	beq	a2,a4,12fdc <_vfprintf_r+0x164c>
   13934:	04600713          	li	a4,70
   13938:	5ce60e63          	beq	a2,a4,13f14 <_vfprintf_r+0x2584>
   1393c:	01412783          	lw	a5,20(sp)
   13940:	fff78a13          	addi	s4,a5,-1
   13944:	eb4ff06f          	j	12ff8 <_vfprintf_r+0x1668>
   13948:	001a0693          	addi	a3,s4,1
   1394c:	00200613          	li	a2,2
   13950:	09010b13          	addi	s6,sp,144
   13954:	0ac10713          	addi	a4,sp,172
   13958:	000b0593          	mv	a1,s6
   1395c:	0bc10813          	addi	a6,sp,188
   13960:	0b010793          	addi	a5,sp,176
   13964:	000b8513          	mv	a0,s7
   13968:	05112623          	sw	a7,76(sp)
   1396c:	02d12023          	sw	a3,32(sp)
   13970:	09f12823          	sw	t6,144(sp)
   13974:	01f12e23          	sw	t6,28(sp)
   13978:	09e12a23          	sw	t5,148(sp)
   1397c:	01e12c23          	sw	t5,24(sp)
   13980:	09d12c23          	sw	t4,152(sp)
   13984:	01d12a23          	sw	t4,20(sp)
   13988:	09812e23          	sw	s8,156(sp)
   1398c:	399010ef          	jal	15524 <_ldtoa_r>
   13990:	04c12883          	lw	a7,76(sp)
   13994:	02012683          	lw	a3,32(sp)
   13998:	04600593          	li	a1,70
   1399c:	fdf8f613          	andi	a2,a7,-33
   139a0:	01412e83          	lw	t4,20(sp)
   139a4:	01812f03          	lw	t5,24(sp)
   139a8:	01c12f83          	lw	t6,28(sp)
   139ac:	00050d13          	mv	s10,a0
   139b0:	00d50733          	add	a4,a0,a3
   139b4:	04b61ce3          	bne	a2,a1,1420c <_vfprintf_r+0x287c>
   139b8:	000d4503          	lbu	a0,0(s10)
   139bc:	03000593          	li	a1,48
   139c0:	4cb50863          	beq	a0,a1,13e90 <_vfprintf_r+0x2500>
   139c4:	0ac12683          	lw	a3,172(sp)
   139c8:	08010593          	addi	a1,sp,128
   139cc:	00d70733          	add	a4,a4,a3
   139d0:	ee9ff06f          	j	138b8 <_vfprintf_r+0x1f28>
   139d4:	09010b13          	addi	s6,sp,144
   139d8:	08010593          	addi	a1,sp,128
   139dc:	0ac10613          	addi	a2,sp,172
   139e0:	000b0513          	mv	a0,s6
   139e4:	05112423          	sw	a7,72(sp)
   139e8:	09f12023          	sw	t6,128(sp)
   139ec:	09e12223          	sw	t5,132(sp)
   139f0:	09d12423          	sw	t4,136(sp)
   139f4:	00b12a23          	sw	a1,20(sp)
   139f8:	09812623          	sw	s8,140(sp)
   139fc:	10d010ef          	jal	15308 <frexpl>
   13a00:	09012703          	lw	a4,144(sp)
   13a04:	01412583          	lw	a1,20(sp)
   13a08:	07010613          	addi	a2,sp,112
   13a0c:	08e12023          	sw	a4,128(sp)
   13a10:	09412703          	lw	a4,148(sp)
   13a14:	000b0513          	mv	a0,s6
   13a18:	06012823          	sw	zero,112(sp)
   13a1c:	08e12223          	sw	a4,132(sp)
   13a20:	09812703          	lw	a4,152(sp)
   13a24:	06012a23          	sw	zero,116(sp)
   13a28:	06012c23          	sw	zero,120(sp)
   13a2c:	08e12423          	sw	a4,136(sp)
   13a30:	09c12703          	lw	a4,156(sp)
   13a34:	08e12623          	sw	a4,140(sp)
   13a38:	3ffc0737          	lui	a4,0x3ffc0
   13a3c:	06e12e23          	sw	a4,124(sp)
   13a40:	2690a0ef          	jal	1e4a8 <__multf3>
   13a44:	01412583          	lw	a1,20(sp)
   13a48:	09012f03          	lw	t5,144(sp)
   13a4c:	09412e83          	lw	t4,148(sp)
   13a50:	09812803          	lw	a6,152(sp)
   13a54:	09c12603          	lw	a2,156(sp)
   13a58:	000b0513          	mv	a0,s6
   13a5c:	02b12e23          	sw	a1,60(sp)
   13a60:	03e12023          	sw	t5,32(sp)
   13a64:	01d12e23          	sw	t4,28(sp)
   13a68:	01012c23          	sw	a6,24(sp)
   13a6c:	00c12a23          	sw	a2,20(sp)
   13a70:	08012023          	sw	zero,128(sp)
   13a74:	08012223          	sw	zero,132(sp)
   13a78:	08012423          	sw	zero,136(sp)
   13a7c:	08012623          	sw	zero,140(sp)
   13a80:	6fc0a0ef          	jal	1e17c <__eqtf2>
   13a84:	01412603          	lw	a2,20(sp)
   13a88:	01812803          	lw	a6,24(sp)
   13a8c:	01c12e83          	lw	t4,28(sp)
   13a90:	02012f03          	lw	t5,32(sp)
   13a94:	03c12583          	lw	a1,60(sp)
   13a98:	04812883          	lw	a7,72(sp)
   13a9c:	00051663          	bnez	a0,13aa8 <_vfprintf_r+0x2118>
   13aa0:	00100713          	li	a4,1
   13aa4:	0ae12623          	sw	a4,172(sp)
   13aa8:	06100713          	li	a4,97
   13aac:	6ce88663          	beq	a7,a4,14178 <_vfprintf_r+0x27e8>
   13ab0:	00021737          	lui	a4,0x21
   13ab4:	36870793          	addi	a5,a4,872 # 21368 <__clzsi2+0x74>
   13ab8:	00f12a23          	sw	a5,20(sp)
   13abc:	01212c23          	sw	s2,24(sp)
   13ac0:	03912e23          	sw	s9,60(sp)
   13ac4:	04812423          	sw	s0,72(sp)
   13ac8:	000d0913          	mv	s2,s10
   13acc:	05712623          	sw	s7,76(sp)
   13ad0:	04912823          	sw	s1,80(sp)
   13ad4:	05a12a23          	sw	s10,84(sp)
   13ad8:	01412483          	lw	s1,20(sp)
   13adc:	fffa0a13          	addi	s4,s4,-1
   13ae0:	01112e23          	sw	a7,28(sp)
   13ae4:	03b12023          	sw	s11,32(sp)
   13ae8:	000f0b93          	mv	s7,t5
   13aec:	000e8c13          	mv	s8,t4
   13af0:	00080c93          	mv	s9,a6
   13af4:	00060d13          	mv	s10,a2
   13af8:	00058413          	mv	s0,a1
   13afc:	03c0006f          	j	13b38 <_vfprintf_r+0x21a8>
   13b00:	00040593          	mv	a1,s0
   13b04:	000b0513          	mv	a0,s6
   13b08:	09712823          	sw	s7,144(sp)
   13b0c:	09812a23          	sw	s8,148(sp)
   13b10:	09912c23          	sw	s9,152(sp)
   13b14:	09a12e23          	sw	s10,156(sp)
   13b18:	08012023          	sw	zero,128(sp)
   13b1c:	08012223          	sw	zero,132(sp)
   13b20:	08012423          	sw	zero,136(sp)
   13b24:	08012623          	sw	zero,140(sp)
   13b28:	fffa0d93          	addi	s11,s4,-1
   13b2c:	6500a0ef          	jal	1e17c <__eqtf2>
   13b30:	5e050863          	beqz	a0,14120 <_vfprintf_r+0x2790>
   13b34:	000d8a13          	mv	s4,s11
   13b38:	400307b7          	lui	a5,0x40030
   13b3c:	07010613          	addi	a2,sp,112
   13b40:	00040593          	mv	a1,s0
   13b44:	000b0513          	mv	a0,s6
   13b48:	06f12e23          	sw	a5,124(sp)
   13b4c:	09712023          	sw	s7,128(sp)
   13b50:	09812223          	sw	s8,132(sp)
   13b54:	09912423          	sw	s9,136(sp)
   13b58:	09a12623          	sw	s10,140(sp)
   13b5c:	06012823          	sw	zero,112(sp)
   13b60:	06012a23          	sw	zero,116(sp)
   13b64:	06012c23          	sw	zero,120(sp)
   13b68:	1410a0ef          	jal	1e4a8 <__multf3>
   13b6c:	000b0513          	mv	a0,s6
   13b70:	2580d0ef          	jal	20dc8 <__fixtfsi>
   13b74:	00050593          	mv	a1,a0
   13b78:	00050d93          	mv	s11,a0
   13b7c:	000b0513          	mv	a0,s6
   13b80:	09012d03          	lw	s10,144(sp)
   13b84:	09412c83          	lw	s9,148(sp)
   13b88:	09812c03          	lw	s8,152(sp)
   13b8c:	09c12b83          	lw	s7,156(sp)
   13b90:	3300d0ef          	jal	20ec0 <__floatsitf>
   13b94:	09012683          	lw	a3,144(sp)
   13b98:	06010613          	addi	a2,sp,96
   13b9c:	07010593          	addi	a1,sp,112
   13ba0:	06d12023          	sw	a3,96(sp)
   13ba4:	09412683          	lw	a3,148(sp)
   13ba8:	00040513          	mv	a0,s0
   13bac:	07a12823          	sw	s10,112(sp)
   13bb0:	06d12223          	sw	a3,100(sp)
   13bb4:	09812683          	lw	a3,152(sp)
   13bb8:	07912a23          	sw	s9,116(sp)
   13bbc:	07812c23          	sw	s8,120(sp)
   13bc0:	06d12423          	sw	a3,104(sp)
   13bc4:	09c12683          	lw	a3,156(sp)
   13bc8:	07712e23          	sw	s7,124(sp)
   13bcc:	06d12623          	sw	a3,108(sp)
   13bd0:	48d0b0ef          	jal	1f85c <__subtf3>
   13bd4:	01b486b3          	add	a3,s1,s11
   13bd8:	0006c683          	lbu	a3,0(a3)
   13bdc:	00090f93          	mv	t6,s2
   13be0:	00190913          	addi	s2,s2,1
   13be4:	08012b83          	lw	s7,128(sp)
   13be8:	08412c03          	lw	s8,132(sp)
   13bec:	08812c83          	lw	s9,136(sp)
   13bf0:	08c12d03          	lw	s10,140(sp)
   13bf4:	fff00793          	li	a5,-1
   13bf8:	fed90fa3          	sb	a3,-1(s2)
   13bfc:	f0fa12e3          	bne	s4,a5,13b00 <_vfprintf_r+0x2170>
   13c00:	01c12883          	lw	a7,28(sp)
   13c04:	000b8f13          	mv	t5,s7
   13c08:	000c0e93          	mv	t4,s8
   13c0c:	000c8813          	mv	a6,s9
   13c10:	000d0613          	mv	a2,s10
   13c14:	00040593          	mv	a1,s0
   13c18:	3ffe0a37          	lui	s4,0x3ffe0
   13c1c:	000b0513          	mv	a0,s6
   13c20:	05112e23          	sw	a7,92(sp)
   13c24:	01f12e23          	sw	t6,28(sp)
   13c28:	05b12c23          	sw	s11,88(sp)
   13c2c:	05012483          	lw	s1,80(sp)
   13c30:	02012d83          	lw	s11,32(sp)
   13c34:	04c12b83          	lw	s7,76(sp)
   13c38:	03c12c83          	lw	s9,60(sp)
   13c3c:	04812403          	lw	s0,72(sp)
   13c40:	09e12823          	sw	t5,144(sp)
   13c44:	05e12823          	sw	t5,80(sp)
   13c48:	09d12a23          	sw	t4,148(sp)
   13c4c:	05d12623          	sw	t4,76(sp)
   13c50:	09012c23          	sw	a6,152(sp)
   13c54:	05012423          	sw	a6,72(sp)
   13c58:	08c12e23          	sw	a2,156(sp)
   13c5c:	02c12e23          	sw	a2,60(sp)
   13c60:	08012023          	sw	zero,128(sp)
   13c64:	08012223          	sw	zero,132(sp)
   13c68:	08012423          	sw	zero,136(sp)
   13c6c:	09412623          	sw	s4,140(sp)
   13c70:	02b12023          	sw	a1,32(sp)
   13c74:	5d40a0ef          	jal	1e248 <__getf2>
   13c78:	00090c13          	mv	s8,s2
   13c7c:	05412d03          	lw	s10,84(sp)
   13c80:	01812903          	lw	s2,24(sp)
   13c84:	01c12f83          	lw	t6,28(sp)
   13c88:	05c12883          	lw	a7,92(sp)
   13c8c:	02a04663          	bgtz	a0,13cb8 <_vfprintf_r+0x2328>
   13c90:	02012583          	lw	a1,32(sp)
   13c94:	000b0513          	mv	a0,s6
   13c98:	01112c23          	sw	a7,24(sp)
   13c9c:	4e00a0ef          	jal	1e17c <__eqtf2>
   13ca0:	01812883          	lw	a7,24(sp)
   13ca4:	04051e63          	bnez	a0,13d00 <_vfprintf_r+0x2370>
   13ca8:	05812783          	lw	a5,88(sp)
   13cac:	01c12f83          	lw	t6,28(sp)
   13cb0:	0017f693          	andi	a3,a5,1
   13cb4:	04068663          	beqz	a3,13d00 <_vfprintf_r+0x2370>
   13cb8:	01412783          	lw	a5,20(sp)
   13cbc:	0bf12e23          	sw	t6,188(sp)
   13cc0:	fffc4603          	lbu	a2,-1(s8)
   13cc4:	00f7c583          	lbu	a1,15(a5) # 4003000f <__BSS_END__+0x4000d50b>
   13cc8:	000c0693          	mv	a3,s8
   13ccc:	02b61063          	bne	a2,a1,13cec <_vfprintf_r+0x235c>
   13cd0:	03000513          	li	a0,48
   13cd4:	fea68fa3          	sb	a0,-1(a3)
   13cd8:	0bc12683          	lw	a3,188(sp)
   13cdc:	fff68793          	addi	a5,a3,-1
   13ce0:	0af12e23          	sw	a5,188(sp)
   13ce4:	fff6c603          	lbu	a2,-1(a3)
   13ce8:	fec586e3          	beq	a1,a2,13cd4 <_vfprintf_r+0x2344>
   13cec:	00160593          	addi	a1,a2,1
   13cf0:	03900513          	li	a0,57
   13cf4:	0ff5f593          	zext.b	a1,a1
   13cf8:	04a60463          	beq	a2,a0,13d40 <_vfprintf_r+0x23b0>
   13cfc:	feb68fa3          	sb	a1,-1(a3)
   13d00:	0ac12783          	lw	a5,172(sp)
   13d04:	41ac0733          	sub	a4,s8,s10
   13d08:	06100613          	li	a2,97
   13d0c:	fff78a13          	addi	s4,a5,-1
   13d10:	00f12a23          	sw	a5,20(sp)
   13d14:	00e12c23          	sw	a4,24(sp)
   13d18:	0b412623          	sw	s4,172(sp)
   13d1c:	07000693          	li	a3,112
   13d20:	00c88663          	beq	a7,a2,13d2c <_vfprintf_r+0x239c>
   13d24:	05000693          	li	a3,80
   13d28:	04100893          	li	a7,65
   13d2c:	00100613          	li	a2,1
   13d30:	ad4ff06f          	j	13004 <_vfprintf_r+0x1674>
   13d34:	000a0693          	mv	a3,s4
   13d38:	00300613          	li	a2,3
   13d3c:	c15ff06f          	j	13950 <_vfprintf_r+0x1fc0>
   13d40:	01412783          	lw	a5,20(sp)
   13d44:	00a7c583          	lbu	a1,10(a5)
   13d48:	fb5ff06f          	j	13cfc <_vfprintf_r+0x236c>
   13d4c:	0a714703          	lbu	a4,167(sp)
   13d50:	04812d83          	lw	s11,72(sp)
   13d54:	00000a13          	li	s4,0
   13d58:	00070463          	beqz	a4,13d60 <_vfprintf_r+0x23d0>
   13d5c:	8e8fe06f          	j	11e44 <_vfprintf_r+0x4b4>
   13d60:	e5dfd06f          	j	11bbc <_vfprintf_r+0x22c>
   13d64:	01812783          	lw	a5,24(sp)
   13d68:	01412703          	lw	a4,20(sp)
   13d6c:	1cf74e63          	blt	a4,a5,13f48 <_vfprintf_r+0x25b8>
   13d70:	01412783          	lw	a5,20(sp)
   13d74:	001df713          	andi	a4,s11,1
   13d78:	00078b13          	mv	s6,a5
   13d7c:	00070663          	beqz	a4,13d88 <_vfprintf_r+0x23f8>
   13d80:	02812703          	lw	a4,40(sp)
   13d84:	00e78b33          	add	s6,a5,a4
   13d88:	400dfe13          	andi	t3,s11,1024
   13d8c:	000e0663          	beqz	t3,13d98 <_vfprintf_r+0x2408>
   13d90:	01412783          	lw	a5,20(sp)
   13d94:	30f04263          	bgtz	a5,14098 <_vfprintf_r+0x2708>
   13d98:	fffb4693          	not	a3,s6
   13d9c:	41f6d693          	srai	a3,a3,0x1f
   13da0:	00db7c33          	and	s8,s6,a3
   13da4:	06700893          	li	a7,103
   13da8:	02012023          	sw	zero,32(sp)
   13dac:	00012e23          	sw	zero,28(sp)
   13db0:	b64ff06f          	j	13114 <_vfprintf_r+0x1784>
   13db4:	0c410613          	addi	a2,sp,196
   13db8:	00048593          	mv	a1,s1
   13dbc:	000b8513          	mv	a0,s7
   13dc0:	54c000ef          	jal	1430c <__sprint_r>
   13dc4:	00050463          	beqz	a0,13dcc <_vfprintf_r+0x243c>
   13dc8:	a6dfe06f          	j	12834 <_vfprintf_r+0xea4>
   13dcc:	000c4583          	lbu	a1,0(s8)
   13dd0:	000217b7          	lui	a5,0x21
   13dd4:	0cc12603          	lw	a2,204(sp)
   13dd8:	00098693          	mv	a3,s3
   13ddc:	69078893          	addi	a7,a5,1680 # 21690 <zeroes.0>
   13de0:	01000713          	li	a4,16
   13de4:	00700813          	li	a6,7
   13de8:	00bc8cb3          	add	s9,s9,a1
   13dec:	855ff06f          	j	13640 <_vfprintf_r+0x1cb0>
   13df0:	00900793          	li	a5,9
   13df4:	c167ea63          	bltu	a5,s6,13208 <_vfprintf_r+0x1878>
   13df8:	c60ff06f          	j	13258 <_vfprintf_r+0x18c8>
   13dfc:	fff00793          	li	a5,-1
   13e00:	00f12223          	sw	a5,4(sp)
   13e04:	f19fd06f          	j	11d1c <_vfprintf_r+0x38c>
   13e08:	02d00793          	li	a5,45
   13e0c:	0af103a3          	sb	a5,167(sp)
   13e10:	02d00713          	li	a4,45
   13e14:	d98ff06f          	j	133ac <_vfprintf_r+0x1a1c>
   13e18:	0a714703          	lbu	a4,167(sp)
   13e1c:	01012623          	sw	a6,12(sp)
   13e20:	02012023          	sw	zero,32(sp)
   13e24:	00012e23          	sw	zero,28(sp)
   13e28:	00012a23          	sw	zero,20(sp)
   13e2c:	000a0c13          	mv	s8,s4
   13e30:	000a0b13          	mv	s6,s4
   13e34:	00000a13          	li	s4,0
   13e38:	00070463          	beqz	a4,13e40 <_vfprintf_r+0x24b0>
   13e3c:	808fe06f          	j	11e44 <_vfprintf_r+0x4b4>
   13e40:	d7dfd06f          	j	11bbc <_vfprintf_r+0x22c>
   13e44:	0c410613          	addi	a2,sp,196
   13e48:	00048593          	mv	a1,s1
   13e4c:	000b8513          	mv	a0,s7
   13e50:	4bc000ef          	jal	1430c <__sprint_r>
   13e54:	00050463          	beqz	a0,13e5c <_vfprintf_r+0x24cc>
   13e58:	9ddfe06f          	j	12834 <_vfprintf_r+0xea4>
   13e5c:	0ac12583          	lw	a1,172(sp)
   13e60:	01812783          	lw	a5,24(sp)
   13e64:	0cc12603          	lw	a2,204(sp)
   13e68:	00098413          	mv	s0,s3
   13e6c:	40b785b3          	sub	a1,a5,a1
   13e70:	c99fe06f          	j	12b08 <_vfprintf_r+0x1178>
   13e74:	000217b7          	lui	a5,0x21
   13e78:	35078d13          	addi	s10,a5,848 # 21350 <__clzsi2+0x5c>
   13e7c:	d40ff06f          	j	133bc <_vfprintf_r+0x1a2c>
   13e80:	0ac12783          	lw	a5,172(sp)
   13e84:	00f12a23          	sw	a5,20(sp)
   13e88:	00070793          	mv	a5,a4
   13e8c:	a99ff06f          	j	13924 <_vfprintf_r+0x1f94>
   13e90:	08010593          	addi	a1,sp,128
   13e94:	000b0513          	mv	a0,s6
   13e98:	04e12c23          	sw	a4,88(sp)
   13e9c:	04c12a23          	sw	a2,84(sp)
   13ea0:	05112823          	sw	a7,80(sp)
   13ea4:	04d12623          	sw	a3,76(sp)
   13ea8:	09f12823          	sw	t6,144(sp)
   13eac:	03f12023          	sw	t6,32(sp)
   13eb0:	09e12a23          	sw	t5,148(sp)
   13eb4:	01e12e23          	sw	t5,28(sp)
   13eb8:	09d12c23          	sw	t4,152(sp)
   13ebc:	01d12c23          	sw	t4,24(sp)
   13ec0:	00b12a23          	sw	a1,20(sp)
   13ec4:	09812e23          	sw	s8,156(sp)
   13ec8:	08012023          	sw	zero,128(sp)
   13ecc:	08012223          	sw	zero,132(sp)
   13ed0:	08012423          	sw	zero,136(sp)
   13ed4:	08012623          	sw	zero,140(sp)
   13ed8:	2a40a0ef          	jal	1e17c <__eqtf2>
   13edc:	01412583          	lw	a1,20(sp)
   13ee0:	01812e83          	lw	t4,24(sp)
   13ee4:	01c12f03          	lw	t5,28(sp)
   13ee8:	02012f83          	lw	t6,32(sp)
   13eec:	04c12683          	lw	a3,76(sp)
   13ef0:	05012883          	lw	a7,80(sp)
   13ef4:	05412603          	lw	a2,84(sp)
   13ef8:	05812703          	lw	a4,88(sp)
   13efc:	28051663          	bnez	a0,14188 <_vfprintf_r+0x27f8>
   13f00:	0ac12783          	lw	a5,172(sp)
   13f04:	00f70733          	add	a4,a4,a5
   13f08:	00f12a23          	sw	a5,20(sp)
   13f0c:	41a707b3          	sub	a5,a4,s10
   13f10:	00f12c23          	sw	a5,24(sp)
   13f14:	01412783          	lw	a5,20(sp)
   13f18:	001df713          	andi	a4,s11,1
   13f1c:	01476733          	or	a4,a4,s4
   13f20:	26f05e63          	blez	a5,1419c <_vfprintf_r+0x280c>
   13f24:	24071063          	bnez	a4,14164 <_vfprintf_r+0x27d4>
   13f28:	01412b03          	lw	s6,20(sp)
   13f2c:	06600893          	li	a7,102
   13f30:	400dfe13          	andi	t3,s11,1024
   13f34:	160e1463          	bnez	t3,1409c <_vfprintf_r+0x270c>
   13f38:	fffb4693          	not	a3,s6
   13f3c:	41f6d693          	srai	a3,a3,0x1f
   13f40:	00db7c33          	and	s8,s6,a3
   13f44:	e65ff06f          	j	13da8 <_vfprintf_r+0x2418>
   13f48:	01812783          	lw	a5,24(sp)
   13f4c:	02812703          	lw	a4,40(sp)
   13f50:	06700893          	li	a7,103
   13f54:	00e78b33          	add	s6,a5,a4
   13f58:	01412783          	lw	a5,20(sp)
   13f5c:	fcf04ae3          	bgtz	a5,13f30 <_vfprintf_r+0x25a0>
   13f60:	40fb0f33          	sub	t5,s6,a5
   13f64:	001f0b13          	addi	s6,t5,1
   13f68:	fffb4693          	not	a3,s6
   13f6c:	41f6d693          	srai	a3,a3,0x1f
   13f70:	00db7c33          	and	s8,s6,a3
   13f74:	e35ff06f          	j	13da8 <_vfprintf_r+0x2418>
   13f78:	000d8613          	mv	a2,s11
   13f7c:	b8cfe06f          	j	12308 <_vfprintf_r+0x978>
   13f80:	00021837          	lui	a6,0x21
   13f84:	ff000593          	li	a1,-16
   13f88:	40a00a33          	neg	s4,a0
   13f8c:	69080813          	addi	a6,a6,1680 # 21690 <zeroes.0>
   13f90:	06b55a63          	bge	a0,a1,14004 <_vfprintf_r+0x2674>
   13f94:	01212a23          	sw	s2,20(sp)
   13f98:	01000b13          	li	s6,16
   13f9c:	00700893          	li	a7,7
   13fa0:	00080913          	mv	s2,a6
   13fa4:	00c0006f          	j	13fb0 <_vfprintf_r+0x2620>
   13fa8:	ff0a0a13          	addi	s4,s4,-16 # 3ffdfff0 <__BSS_END__+0x3ffbd4ec>
   13fac:	054b5863          	bge	s6,s4,13ffc <_vfprintf_r+0x266c>
   13fb0:	01060613          	addi	a2,a2,16
   13fb4:	00170713          	addi	a4,a4,1
   13fb8:	01242023          	sw	s2,0(s0)
   13fbc:	01642223          	sw	s6,4(s0)
   13fc0:	0cc12623          	sw	a2,204(sp)
   13fc4:	0ce12423          	sw	a4,200(sp)
   13fc8:	00840413          	addi	s0,s0,8
   13fcc:	fce8dee3          	bge	a7,a4,13fa8 <_vfprintf_r+0x2618>
   13fd0:	0c410613          	addi	a2,sp,196
   13fd4:	00048593          	mv	a1,s1
   13fd8:	000b8513          	mv	a0,s7
   13fdc:	330000ef          	jal	1430c <__sprint_r>
   13fe0:	00050463          	beqz	a0,13fe8 <_vfprintf_r+0x2658>
   13fe4:	851fe06f          	j	12834 <_vfprintf_r+0xea4>
   13fe8:	0cc12603          	lw	a2,204(sp)
   13fec:	0c812703          	lw	a4,200(sp)
   13ff0:	00098413          	mv	s0,s3
   13ff4:	00700893          	li	a7,7
   13ff8:	fb1ff06f          	j	13fa8 <_vfprintf_r+0x2618>
   13ffc:	00090813          	mv	a6,s2
   14000:	01412903          	lw	s2,20(sp)
   14004:	01460633          	add	a2,a2,s4
   14008:	00170713          	addi	a4,a4,1
   1400c:	01042023          	sw	a6,0(s0)
   14010:	01442223          	sw	s4,4(s0)
   14014:	0cc12623          	sw	a2,204(sp)
   14018:	0ce12423          	sw	a4,200(sp)
   1401c:	00700593          	li	a1,7
   14020:	aee5d063          	bge	a1,a4,13300 <_vfprintf_r+0x1970>
   14024:	0c410613          	addi	a2,sp,196
   14028:	00048593          	mv	a1,s1
   1402c:	000b8513          	mv	a0,s7
   14030:	2dc000ef          	jal	1430c <__sprint_r>
   14034:	00050463          	beqz	a0,1403c <_vfprintf_r+0x26ac>
   14038:	ffcfe06f          	j	12834 <_vfprintf_r+0xea4>
   1403c:	0cc12603          	lw	a2,204(sp)
   14040:	0c812703          	lw	a4,200(sp)
   14044:	00098413          	mv	s0,s3
   14048:	be8ff06f          	j	13430 <_vfprintf_r+0x1aa0>
   1404c:	0b610693          	addi	a3,sp,182
   14050:	00061863          	bnez	a2,14060 <_vfprintf_r+0x26d0>
   14054:	03000693          	li	a3,48
   14058:	0ad10b23          	sb	a3,182(sp)
   1405c:	0b710693          	addi	a3,sp,183
   14060:	19010793          	addi	a5,sp,400
   14064:	40f68633          	sub	a2,a3,a5
   14068:	030a0713          	addi	a4,s4,48
   1406c:	0dd60793          	addi	a5,a2,221
   14070:	00e68023          	sb	a4,0(a3)
   14074:	02f12e23          	sw	a5,60(sp)
   14078:	858ff06f          	j	130d0 <_vfprintf_r+0x1740>
   1407c:	00012423          	sw	zero,8(sp)
   14080:	00600a13          	li	s4,6
   14084:	f21fd06f          	j	11fa4 <_vfprintf_r+0x614>
   14088:	001df713          	andi	a4,s11,1
   1408c:	00071463          	bnez	a4,14094 <_vfprintf_r+0x2704>
   14090:	860ff06f          	j	130f0 <_vfprintf_r+0x1760>
   14094:	854ff06f          	j	130e8 <_vfprintf_r+0x1758>
   14098:	06700893          	li	a7,103
   1409c:	03812603          	lw	a2,56(sp)
   140a0:	0ff00693          	li	a3,255
   140a4:	00064703          	lbu	a4,0(a2)
   140a8:	14d70c63          	beq	a4,a3,14200 <_vfprintf_r+0x2870>
   140ac:	01412783          	lw	a5,20(sp)
   140b0:	00000513          	li	a0,0
   140b4:	00000593          	li	a1,0
   140b8:	00f75e63          	bge	a4,a5,140d4 <_vfprintf_r+0x2744>
   140bc:	40e787b3          	sub	a5,a5,a4
   140c0:	00164703          	lbu	a4,1(a2)
   140c4:	04070863          	beqz	a4,14114 <_vfprintf_r+0x2784>
   140c8:	00158593          	addi	a1,a1,1
   140cc:	00160613          	addi	a2,a2,1
   140d0:	fed714e3          	bne	a4,a3,140b8 <_vfprintf_r+0x2728>
   140d4:	02c12c23          	sw	a2,56(sp)
   140d8:	00b12e23          	sw	a1,28(sp)
   140dc:	02a12023          	sw	a0,32(sp)
   140e0:	00f12a23          	sw	a5,20(sp)
   140e4:	02012783          	lw	a5,32(sp)
   140e8:	01c12703          	lw	a4,28(sp)
   140ec:	04012583          	lw	a1,64(sp)
   140f0:	05112623          	sw	a7,76(sp)
   140f4:	00e78533          	add	a0,a5,a4
   140f8:	1240d0ef          	jal	2121c <__mulsi3>
   140fc:	01650b33          	add	s6,a0,s6
   14100:	fffb4693          	not	a3,s6
   14104:	41f6d693          	srai	a3,a3,0x1f
   14108:	04c12883          	lw	a7,76(sp)
   1410c:	00db7c33          	and	s8,s6,a3
   14110:	804ff06f          	j	13114 <_vfprintf_r+0x1784>
   14114:	00064703          	lbu	a4,0(a2)
   14118:	00150513          	addi	a0,a0,1
   1411c:	fb5ff06f          	j	140d0 <_vfprintf_r+0x2740>
   14120:	00090c13          	mv	s8,s2
   14124:	001a0693          	addi	a3,s4,1
   14128:	01c12883          	lw	a7,28(sp)
   1412c:	02012d83          	lw	s11,32(sp)
   14130:	03c12c83          	lw	s9,60(sp)
   14134:	04812403          	lw	s0,72(sp)
   14138:	01812903          	lw	s2,24(sp)
   1413c:	04c12b83          	lw	s7,76(sp)
   14140:	05012483          	lw	s1,80(sp)
   14144:	05412d03          	lw	s10,84(sp)
   14148:	00dc06b3          	add	a3,s8,a3
   1414c:	03000613          	li	a2,48
   14150:	ba0a48e3          	bltz	s4,13d00 <_vfprintf_r+0x2370>
   14154:	001c0c13          	addi	s8,s8,1
   14158:	fecc0fa3          	sb	a2,-1(s8)
   1415c:	ff869ce3          	bne	a3,s8,14154 <_vfprintf_r+0x27c4>
   14160:	ba1ff06f          	j	13d00 <_vfprintf_r+0x2370>
   14164:	02812703          	lw	a4,40(sp)
   14168:	06600893          	li	a7,102
   1416c:	00ea0f33          	add	t5,s4,a4
   14170:	00ff0b33          	add	s6,t5,a5
   14174:	dbdff06f          	j	13f30 <_vfprintf_r+0x25a0>
   14178:	00021737          	lui	a4,0x21
   1417c:	35470793          	addi	a5,a4,852 # 21354 <__clzsi2+0x60>
   14180:	00f12a23          	sw	a5,20(sp)
   14184:	939ff06f          	j	13abc <_vfprintf_r+0x212c>
   14188:	00100513          	li	a0,1
   1418c:	40d506b3          	sub	a3,a0,a3
   14190:	0ad12623          	sw	a3,172(sp)
   14194:	00d70733          	add	a4,a4,a3
   14198:	f20ff06f          	j	138b8 <_vfprintf_r+0x1f28>
   1419c:	00071a63          	bnez	a4,141b0 <_vfprintf_r+0x2820>
   141a0:	00100c13          	li	s8,1
   141a4:	06600893          	li	a7,102
   141a8:	00100b13          	li	s6,1
   141ac:	bfdff06f          	j	13da8 <_vfprintf_r+0x2418>
   141b0:	02812783          	lw	a5,40(sp)
   141b4:	06600893          	li	a7,102
   141b8:	00178f13          	addi	t5,a5,1
   141bc:	014f0b33          	add	s6,t5,s4
   141c0:	fffb4693          	not	a3,s6
   141c4:	41f6d693          	srai	a3,a3,0x1f
   141c8:	00db7c33          	and	s8,s6,a3
   141cc:	bddff06f          	j	13da8 <_vfprintf_r+0x2418>
   141d0:	00200793          	li	a5,2
   141d4:	02f12e23          	sw	a5,60(sp)
   141d8:	ef9fe06f          	j	130d0 <_vfprintf_r+0x1740>
   141dc:	00c12783          	lw	a5,12(sp)
   141e0:	0007aa03          	lw	s4,0(a5)
   141e4:	00478793          	addi	a5,a5,4
   141e8:	000a5463          	bgez	s4,141f0 <_vfprintf_r+0x2860>
   141ec:	fff00a13          	li	s4,-1
   141f0:	00194883          	lbu	a7,1(s2)
   141f4:	00f12623          	sw	a5,12(sp)
   141f8:	00068913          	mv	s2,a3
   141fc:	941fd06f          	j	11b3c <_vfprintf_r+0x1ac>
   14200:	02012023          	sw	zero,32(sp)
   14204:	00012e23          	sw	zero,28(sp)
   14208:	eddff06f          	j	140e4 <_vfprintf_r+0x2754>
   1420c:	04500613          	li	a2,69
   14210:	08010593          	addi	a1,sp,128
   14214:	ea4ff06f          	j	138b8 <_vfprintf_r+0x1f28>
   14218:	00c4d783          	lhu	a5,12(s1)
   1421c:	0407e793          	ori	a5,a5,64
   14220:	00f49623          	sh	a5,12(s1)
   14224:	ac5fd06f          	j	11ce8 <_vfprintf_r+0x358>

00014228 <vfprintf>:
   14228:	00050793          	mv	a5,a0
   1422c:	f141a503          	lw	a0,-236(gp) # 227d4 <_impure_ptr>
   14230:	00060693          	mv	a3,a2
   14234:	00058613          	mv	a2,a1
   14238:	00078593          	mv	a1,a5
   1423c:	f54fd06f          	j	11990 <_vfprintf_r>

00014240 <__sbprintf>:
   14240:	b8010113          	addi	sp,sp,-1152
   14244:	00c59783          	lh	a5,12(a1)
   14248:	00e5d703          	lhu	a4,14(a1)
   1424c:	46812c23          	sw	s0,1144(sp)
   14250:	00058413          	mv	s0,a1
   14254:	000105b7          	lui	a1,0x10
   14258:	ffd58593          	addi	a1,a1,-3 # fffd <exit-0x97>
   1425c:	06442e03          	lw	t3,100(s0)
   14260:	01c42303          	lw	t1,28(s0)
   14264:	02442883          	lw	a7,36(s0)
   14268:	01071713          	slli	a4,a4,0x10
   1426c:	00b7f7b3          	and	a5,a5,a1
   14270:	00e7e7b3          	or	a5,a5,a4
   14274:	40000813          	li	a6,1024
   14278:	00f12a23          	sw	a5,20(sp)
   1427c:	00810593          	addi	a1,sp,8
   14280:	07010793          	addi	a5,sp,112
   14284:	46912a23          	sw	s1,1140(sp)
   14288:	47212823          	sw	s2,1136(sp)
   1428c:	46112e23          	sw	ra,1148(sp)
   14290:	00050913          	mv	s2,a0
   14294:	07c12623          	sw	t3,108(sp)
   14298:	02612223          	sw	t1,36(sp)
   1429c:	03112623          	sw	a7,44(sp)
   142a0:	00f12423          	sw	a5,8(sp)
   142a4:	00f12c23          	sw	a5,24(sp)
   142a8:	01012823          	sw	a6,16(sp)
   142ac:	01012e23          	sw	a6,28(sp)
   142b0:	02012023          	sw	zero,32(sp)
   142b4:	edcfd0ef          	jal	11990 <_vfprintf_r>
   142b8:	00050493          	mv	s1,a0
   142bc:	02055c63          	bgez	a0,142f4 <__sbprintf+0xb4>
   142c0:	01415783          	lhu	a5,20(sp)
   142c4:	0407f793          	andi	a5,a5,64
   142c8:	00078863          	beqz	a5,142d8 <__sbprintf+0x98>
   142cc:	00c45783          	lhu	a5,12(s0)
   142d0:	0407e793          	ori	a5,a5,64
   142d4:	00f41623          	sh	a5,12(s0)
   142d8:	47c12083          	lw	ra,1148(sp)
   142dc:	47812403          	lw	s0,1144(sp)
   142e0:	47012903          	lw	s2,1136(sp)
   142e4:	00048513          	mv	a0,s1
   142e8:	47412483          	lw	s1,1140(sp)
   142ec:	48010113          	addi	sp,sp,1152
   142f0:	00008067          	ret
   142f4:	00810593          	addi	a1,sp,8
   142f8:	00090513          	mv	a0,s2
   142fc:	3bc000ef          	jal	146b8 <_fflush_r>
   14300:	fc0500e3          	beqz	a0,142c0 <__sbprintf+0x80>
   14304:	fff00493          	li	s1,-1
   14308:	fb9ff06f          	j	142c0 <__sbprintf+0x80>

0001430c <__sprint_r>:
   1430c:	00862783          	lw	a5,8(a2)
   14310:	ff010113          	addi	sp,sp,-16
   14314:	00812423          	sw	s0,8(sp)
   14318:	00112623          	sw	ra,12(sp)
   1431c:	00060413          	mv	s0,a2
   14320:	00079e63          	bnez	a5,1433c <__sprint_r+0x30>
   14324:	00c12083          	lw	ra,12(sp)
   14328:	00042223          	sw	zero,4(s0)
   1432c:	00812403          	lw	s0,8(sp)
   14330:	00000513          	li	a0,0
   14334:	01010113          	addi	sp,sp,16
   14338:	00008067          	ret
   1433c:	458000ef          	jal	14794 <__sfvwrite_r>
   14340:	00c12083          	lw	ra,12(sp)
   14344:	00042423          	sw	zero,8(s0)
   14348:	00042223          	sw	zero,4(s0)
   1434c:	00812403          	lw	s0,8(sp)
   14350:	01010113          	addi	sp,sp,16
   14354:	00008067          	ret

00014358 <_fclose_r>:
   14358:	ff010113          	addi	sp,sp,-16
   1435c:	00112623          	sw	ra,12(sp)
   14360:	01212023          	sw	s2,0(sp)
   14364:	02058863          	beqz	a1,14394 <_fclose_r+0x3c>
   14368:	00812423          	sw	s0,8(sp)
   1436c:	00912223          	sw	s1,4(sp)
   14370:	00058413          	mv	s0,a1
   14374:	00050493          	mv	s1,a0
   14378:	00050663          	beqz	a0,14384 <_fclose_r+0x2c>
   1437c:	03452783          	lw	a5,52(a0)
   14380:	0c078c63          	beqz	a5,14458 <_fclose_r+0x100>
   14384:	00c41783          	lh	a5,12(s0)
   14388:	02079263          	bnez	a5,143ac <_fclose_r+0x54>
   1438c:	00812403          	lw	s0,8(sp)
   14390:	00412483          	lw	s1,4(sp)
   14394:	00c12083          	lw	ra,12(sp)
   14398:	00000913          	li	s2,0
   1439c:	00090513          	mv	a0,s2
   143a0:	00012903          	lw	s2,0(sp)
   143a4:	01010113          	addi	sp,sp,16
   143a8:	00008067          	ret
   143ac:	00040593          	mv	a1,s0
   143b0:	00048513          	mv	a0,s1
   143b4:	0b8000ef          	jal	1446c <__sflush_r>
   143b8:	02c42783          	lw	a5,44(s0)
   143bc:	00050913          	mv	s2,a0
   143c0:	00078a63          	beqz	a5,143d4 <_fclose_r+0x7c>
   143c4:	01c42583          	lw	a1,28(s0)
   143c8:	00048513          	mv	a0,s1
   143cc:	000780e7          	jalr	a5
   143d0:	06054463          	bltz	a0,14438 <_fclose_r+0xe0>
   143d4:	00c45783          	lhu	a5,12(s0)
   143d8:	0807f793          	andi	a5,a5,128
   143dc:	06079663          	bnez	a5,14448 <_fclose_r+0xf0>
   143e0:	03042583          	lw	a1,48(s0)
   143e4:	00058c63          	beqz	a1,143fc <_fclose_r+0xa4>
   143e8:	04040793          	addi	a5,s0,64
   143ec:	00f58663          	beq	a1,a5,143f8 <_fclose_r+0xa0>
   143f0:	00048513          	mv	a0,s1
   143f4:	a98fd0ef          	jal	1168c <_free_r>
   143f8:	02042823          	sw	zero,48(s0)
   143fc:	04442583          	lw	a1,68(s0)
   14400:	00058863          	beqz	a1,14410 <_fclose_r+0xb8>
   14404:	00048513          	mv	a0,s1
   14408:	a84fd0ef          	jal	1168c <_free_r>
   1440c:	04042223          	sw	zero,68(s0)
   14410:	8d5fc0ef          	jal	10ce4 <__sfp_lock_acquire>
   14414:	00041623          	sh	zero,12(s0)
   14418:	8d1fc0ef          	jal	10ce8 <__sfp_lock_release>
   1441c:	00c12083          	lw	ra,12(sp)
   14420:	00812403          	lw	s0,8(sp)
   14424:	00412483          	lw	s1,4(sp)
   14428:	00090513          	mv	a0,s2
   1442c:	00012903          	lw	s2,0(sp)
   14430:	01010113          	addi	sp,sp,16
   14434:	00008067          	ret
   14438:	00c45783          	lhu	a5,12(s0)
   1443c:	fff00913          	li	s2,-1
   14440:	0807f793          	andi	a5,a5,128
   14444:	f8078ee3          	beqz	a5,143e0 <_fclose_r+0x88>
   14448:	01042583          	lw	a1,16(s0)
   1444c:	00048513          	mv	a0,s1
   14450:	a3cfd0ef          	jal	1168c <_free_r>
   14454:	f8dff06f          	j	143e0 <_fclose_r+0x88>
   14458:	869fc0ef          	jal	10cc0 <__sinit>
   1445c:	f29ff06f          	j	14384 <_fclose_r+0x2c>

00014460 <fclose>:
   14460:	00050593          	mv	a1,a0
   14464:	f141a503          	lw	a0,-236(gp) # 227d4 <_impure_ptr>
   14468:	ef1ff06f          	j	14358 <_fclose_r>

0001446c <__sflush_r>:
   1446c:	00c59703          	lh	a4,12(a1)
   14470:	fe010113          	addi	sp,sp,-32
   14474:	00812c23          	sw	s0,24(sp)
   14478:	01312623          	sw	s3,12(sp)
   1447c:	00112e23          	sw	ra,28(sp)
   14480:	00877793          	andi	a5,a4,8
   14484:	00058413          	mv	s0,a1
   14488:	00050993          	mv	s3,a0
   1448c:	12079063          	bnez	a5,145ac <__sflush_r+0x140>
   14490:	000017b7          	lui	a5,0x1
   14494:	80078793          	addi	a5,a5,-2048 # 800 <exit-0xf894>
   14498:	0045a683          	lw	a3,4(a1)
   1449c:	00f767b3          	or	a5,a4,a5
   144a0:	00f59623          	sh	a5,12(a1)
   144a4:	18d05263          	blez	a3,14628 <__sflush_r+0x1bc>
   144a8:	02842803          	lw	a6,40(s0)
   144ac:	0e080463          	beqz	a6,14594 <__sflush_r+0x128>
   144b0:	00912a23          	sw	s1,20(sp)
   144b4:	01371693          	slli	a3,a4,0x13
   144b8:	0009a483          	lw	s1,0(s3)
   144bc:	0009a023          	sw	zero,0(s3)
   144c0:	01c42583          	lw	a1,28(s0)
   144c4:	1606ce63          	bltz	a3,14640 <__sflush_r+0x1d4>
   144c8:	00000613          	li	a2,0
   144cc:	00100693          	li	a3,1
   144d0:	00098513          	mv	a0,s3
   144d4:	000800e7          	jalr	a6
   144d8:	fff00793          	li	a5,-1
   144dc:	00050613          	mv	a2,a0
   144e0:	1af50463          	beq	a0,a5,14688 <__sflush_r+0x21c>
   144e4:	00c41783          	lh	a5,12(s0)
   144e8:	02842803          	lw	a6,40(s0)
   144ec:	01c42583          	lw	a1,28(s0)
   144f0:	0047f793          	andi	a5,a5,4
   144f4:	00078e63          	beqz	a5,14510 <__sflush_r+0xa4>
   144f8:	00442703          	lw	a4,4(s0)
   144fc:	03042783          	lw	a5,48(s0)
   14500:	40e60633          	sub	a2,a2,a4
   14504:	00078663          	beqz	a5,14510 <__sflush_r+0xa4>
   14508:	03c42783          	lw	a5,60(s0)
   1450c:	40f60633          	sub	a2,a2,a5
   14510:	00000693          	li	a3,0
   14514:	00098513          	mv	a0,s3
   14518:	000800e7          	jalr	a6
   1451c:	fff00793          	li	a5,-1
   14520:	12f51463          	bne	a0,a5,14648 <__sflush_r+0x1dc>
   14524:	0009a683          	lw	a3,0(s3)
   14528:	01d00793          	li	a5,29
   1452c:	00c41703          	lh	a4,12(s0)
   14530:	16d7ea63          	bltu	a5,a3,146a4 <__sflush_r+0x238>
   14534:	204007b7          	lui	a5,0x20400
   14538:	00178793          	addi	a5,a5,1 # 20400001 <__BSS_END__+0x203dd4fd>
   1453c:	00d7d7b3          	srl	a5,a5,a3
   14540:	0017f793          	andi	a5,a5,1
   14544:	16078063          	beqz	a5,146a4 <__sflush_r+0x238>
   14548:	01042603          	lw	a2,16(s0)
   1454c:	fffff7b7          	lui	a5,0xfffff
   14550:	7ff78793          	addi	a5,a5,2047 # fffff7ff <__BSS_END__+0xfffdccfb>
   14554:	00f777b3          	and	a5,a4,a5
   14558:	00f41623          	sh	a5,12(s0)
   1455c:	00042223          	sw	zero,4(s0)
   14560:	00c42023          	sw	a2,0(s0)
   14564:	01371793          	slli	a5,a4,0x13
   14568:	0007d463          	bgez	a5,14570 <__sflush_r+0x104>
   1456c:	10068263          	beqz	a3,14670 <__sflush_r+0x204>
   14570:	03042583          	lw	a1,48(s0)
   14574:	0099a023          	sw	s1,0(s3)
   14578:	10058463          	beqz	a1,14680 <__sflush_r+0x214>
   1457c:	04040793          	addi	a5,s0,64
   14580:	00f58663          	beq	a1,a5,1458c <__sflush_r+0x120>
   14584:	00098513          	mv	a0,s3
   14588:	904fd0ef          	jal	1168c <_free_r>
   1458c:	01412483          	lw	s1,20(sp)
   14590:	02042823          	sw	zero,48(s0)
   14594:	00000513          	li	a0,0
   14598:	01c12083          	lw	ra,28(sp)
   1459c:	01812403          	lw	s0,24(sp)
   145a0:	00c12983          	lw	s3,12(sp)
   145a4:	02010113          	addi	sp,sp,32
   145a8:	00008067          	ret
   145ac:	01212823          	sw	s2,16(sp)
   145b0:	0105a903          	lw	s2,16(a1)
   145b4:	08090263          	beqz	s2,14638 <__sflush_r+0x1cc>
   145b8:	00912a23          	sw	s1,20(sp)
   145bc:	0005a483          	lw	s1,0(a1)
   145c0:	00377713          	andi	a4,a4,3
   145c4:	0125a023          	sw	s2,0(a1)
   145c8:	412484b3          	sub	s1,s1,s2
   145cc:	00000793          	li	a5,0
   145d0:	00071463          	bnez	a4,145d8 <__sflush_r+0x16c>
   145d4:	0145a783          	lw	a5,20(a1)
   145d8:	00f42423          	sw	a5,8(s0)
   145dc:	00904863          	bgtz	s1,145ec <__sflush_r+0x180>
   145e0:	0540006f          	j	14634 <__sflush_r+0x1c8>
   145e4:	00a90933          	add	s2,s2,a0
   145e8:	04905663          	blez	s1,14634 <__sflush_r+0x1c8>
   145ec:	02442783          	lw	a5,36(s0)
   145f0:	01c42583          	lw	a1,28(s0)
   145f4:	00048693          	mv	a3,s1
   145f8:	00090613          	mv	a2,s2
   145fc:	00098513          	mv	a0,s3
   14600:	000780e7          	jalr	a5
   14604:	40a484b3          	sub	s1,s1,a0
   14608:	fca04ee3          	bgtz	a0,145e4 <__sflush_r+0x178>
   1460c:	00c41703          	lh	a4,12(s0)
   14610:	01012903          	lw	s2,16(sp)
   14614:	04076713          	ori	a4,a4,64
   14618:	01412483          	lw	s1,20(sp)
   1461c:	00e41623          	sh	a4,12(s0)
   14620:	fff00513          	li	a0,-1
   14624:	f75ff06f          	j	14598 <__sflush_r+0x12c>
   14628:	03c5a683          	lw	a3,60(a1)
   1462c:	e6d04ee3          	bgtz	a3,144a8 <__sflush_r+0x3c>
   14630:	f65ff06f          	j	14594 <__sflush_r+0x128>
   14634:	01412483          	lw	s1,20(sp)
   14638:	01012903          	lw	s2,16(sp)
   1463c:	f59ff06f          	j	14594 <__sflush_r+0x128>
   14640:	05042603          	lw	a2,80(s0)
   14644:	eadff06f          	j	144f0 <__sflush_r+0x84>
   14648:	00c41703          	lh	a4,12(s0)
   1464c:	01042683          	lw	a3,16(s0)
   14650:	fffff7b7          	lui	a5,0xfffff
   14654:	7ff78793          	addi	a5,a5,2047 # fffff7ff <__BSS_END__+0xfffdccfb>
   14658:	00f777b3          	and	a5,a4,a5
   1465c:	00f41623          	sh	a5,12(s0)
   14660:	00042223          	sw	zero,4(s0)
   14664:	00d42023          	sw	a3,0(s0)
   14668:	01371793          	slli	a5,a4,0x13
   1466c:	f007d2e3          	bgez	a5,14570 <__sflush_r+0x104>
   14670:	03042583          	lw	a1,48(s0)
   14674:	04a42823          	sw	a0,80(s0)
   14678:	0099a023          	sw	s1,0(s3)
   1467c:	f00590e3          	bnez	a1,1457c <__sflush_r+0x110>
   14680:	01412483          	lw	s1,20(sp)
   14684:	f11ff06f          	j	14594 <__sflush_r+0x128>
   14688:	0009a783          	lw	a5,0(s3)
   1468c:	e4078ce3          	beqz	a5,144e4 <__sflush_r+0x78>
   14690:	01d00713          	li	a4,29
   14694:	00e78c63          	beq	a5,a4,146ac <__sflush_r+0x240>
   14698:	01600713          	li	a4,22
   1469c:	00e78863          	beq	a5,a4,146ac <__sflush_r+0x240>
   146a0:	00c41703          	lh	a4,12(s0)
   146a4:	04076713          	ori	a4,a4,64
   146a8:	f71ff06f          	j	14618 <__sflush_r+0x1ac>
   146ac:	0099a023          	sw	s1,0(s3)
   146b0:	01412483          	lw	s1,20(sp)
   146b4:	ee1ff06f          	j	14594 <__sflush_r+0x128>

000146b8 <_fflush_r>:
   146b8:	fe010113          	addi	sp,sp,-32
   146bc:	00812c23          	sw	s0,24(sp)
   146c0:	00112e23          	sw	ra,28(sp)
   146c4:	00050413          	mv	s0,a0
   146c8:	00050663          	beqz	a0,146d4 <_fflush_r+0x1c>
   146cc:	03452783          	lw	a5,52(a0)
   146d0:	02078a63          	beqz	a5,14704 <_fflush_r+0x4c>
   146d4:	00c59783          	lh	a5,12(a1)
   146d8:	00079c63          	bnez	a5,146f0 <_fflush_r+0x38>
   146dc:	01c12083          	lw	ra,28(sp)
   146e0:	01812403          	lw	s0,24(sp)
   146e4:	00000513          	li	a0,0
   146e8:	02010113          	addi	sp,sp,32
   146ec:	00008067          	ret
   146f0:	00040513          	mv	a0,s0
   146f4:	01812403          	lw	s0,24(sp)
   146f8:	01c12083          	lw	ra,28(sp)
   146fc:	02010113          	addi	sp,sp,32
   14700:	d6dff06f          	j	1446c <__sflush_r>
   14704:	00b12623          	sw	a1,12(sp)
   14708:	db8fc0ef          	jal	10cc0 <__sinit>
   1470c:	00c12583          	lw	a1,12(sp)
   14710:	fc5ff06f          	j	146d4 <_fflush_r+0x1c>

00014714 <fflush>:
   14714:	06050063          	beqz	a0,14774 <fflush+0x60>
   14718:	00050593          	mv	a1,a0
   1471c:	f141a503          	lw	a0,-236(gp) # 227d4 <_impure_ptr>
   14720:	00050663          	beqz	a0,1472c <fflush+0x18>
   14724:	03452783          	lw	a5,52(a0)
   14728:	00078c63          	beqz	a5,14740 <fflush+0x2c>
   1472c:	00c59783          	lh	a5,12(a1)
   14730:	00079663          	bnez	a5,1473c <fflush+0x28>
   14734:	00000513          	li	a0,0
   14738:	00008067          	ret
   1473c:	d31ff06f          	j	1446c <__sflush_r>
   14740:	fe010113          	addi	sp,sp,-32
   14744:	00b12623          	sw	a1,12(sp)
   14748:	00a12423          	sw	a0,8(sp)
   1474c:	00112e23          	sw	ra,28(sp)
   14750:	d70fc0ef          	jal	10cc0 <__sinit>
   14754:	00c12583          	lw	a1,12(sp)
   14758:	00812503          	lw	a0,8(sp)
   1475c:	00c59783          	lh	a5,12(a1)
   14760:	02079463          	bnez	a5,14788 <fflush+0x74>
   14764:	01c12083          	lw	ra,28(sp)
   14768:	00000513          	li	a0,0
   1476c:	02010113          	addi	sp,sp,32
   14770:	00008067          	ret
   14774:	000145b7          	lui	a1,0x14
   14778:	c0818613          	addi	a2,gp,-1016 # 224c8 <__sglue>
   1477c:	6b858593          	addi	a1,a1,1720 # 146b8 <_fflush_r>
   14780:	c1818513          	addi	a0,gp,-1000 # 224d8 <_impure_data>
   14784:	d90fc06f          	j	10d14 <_fwalk_sglue>
   14788:	01c12083          	lw	ra,28(sp)
   1478c:	02010113          	addi	sp,sp,32
   14790:	cddff06f          	j	1446c <__sflush_r>

00014794 <__sfvwrite_r>:
   14794:	00862783          	lw	a5,8(a2)
   14798:	2c078463          	beqz	a5,14a60 <__sfvwrite_r+0x2cc>
   1479c:	00c59683          	lh	a3,12(a1)
   147a0:	fd010113          	addi	sp,sp,-48
   147a4:	02812423          	sw	s0,40(sp)
   147a8:	01412c23          	sw	s4,24(sp)
   147ac:	01612823          	sw	s6,16(sp)
   147b0:	02112623          	sw	ra,44(sp)
   147b4:	0086f793          	andi	a5,a3,8
   147b8:	00060b13          	mv	s6,a2
   147bc:	00050a13          	mv	s4,a0
   147c0:	00058413          	mv	s0,a1
   147c4:	08078e63          	beqz	a5,14860 <__sfvwrite_r+0xcc>
   147c8:	0105a783          	lw	a5,16(a1)
   147cc:	08078a63          	beqz	a5,14860 <__sfvwrite_r+0xcc>
   147d0:	02912223          	sw	s1,36(sp)
   147d4:	03212023          	sw	s2,32(sp)
   147d8:	01312e23          	sw	s3,28(sp)
   147dc:	01512a23          	sw	s5,20(sp)
   147e0:	0026f793          	andi	a5,a3,2
   147e4:	000b2483          	lw	s1,0(s6)
   147e8:	0a078463          	beqz	a5,14890 <__sfvwrite_r+0xfc>
   147ec:	02442783          	lw	a5,36(s0)
   147f0:	01c42583          	lw	a1,28(s0)
   147f4:	80000ab7          	lui	s5,0x80000
   147f8:	00000993          	li	s3,0
   147fc:	00000913          	li	s2,0
   14800:	c00a8a93          	addi	s5,s5,-1024 # 7ffffc00 <__BSS_END__+0x7ffdd0fc>
   14804:	00098613          	mv	a2,s3
   14808:	000a0513          	mv	a0,s4
   1480c:	04090263          	beqz	s2,14850 <__sfvwrite_r+0xbc>
   14810:	00090693          	mv	a3,s2
   14814:	012af463          	bgeu	s5,s2,1481c <__sfvwrite_r+0x88>
   14818:	000a8693          	mv	a3,s5
   1481c:	000780e7          	jalr	a5
   14820:	46a05263          	blez	a0,14c84 <__sfvwrite_r+0x4f0>
   14824:	008b2783          	lw	a5,8(s6)
   14828:	00a989b3          	add	s3,s3,a0
   1482c:	40a90933          	sub	s2,s2,a0
   14830:	40a787b3          	sub	a5,a5,a0
   14834:	00fb2423          	sw	a5,8(s6)
   14838:	1a078663          	beqz	a5,149e4 <__sfvwrite_r+0x250>
   1483c:	02442783          	lw	a5,36(s0)
   14840:	01c42583          	lw	a1,28(s0)
   14844:	00098613          	mv	a2,s3
   14848:	000a0513          	mv	a0,s4
   1484c:	fc0912e3          	bnez	s2,14810 <__sfvwrite_r+0x7c>
   14850:	0004a983          	lw	s3,0(s1)
   14854:	0044a903          	lw	s2,4(s1)
   14858:	00848493          	addi	s1,s1,8
   1485c:	fa9ff06f          	j	14804 <__sfvwrite_r+0x70>
   14860:	00040593          	mv	a1,s0
   14864:	000a0513          	mv	a0,s4
   14868:	440000ef          	jal	14ca8 <__swsetup_r>
   1486c:	1c051c63          	bnez	a0,14a44 <__sfvwrite_r+0x2b0>
   14870:	00c41683          	lh	a3,12(s0)
   14874:	02912223          	sw	s1,36(sp)
   14878:	03212023          	sw	s2,32(sp)
   1487c:	01312e23          	sw	s3,28(sp)
   14880:	01512a23          	sw	s5,20(sp)
   14884:	0026f793          	andi	a5,a3,2
   14888:	000b2483          	lw	s1,0(s6)
   1488c:	f60790e3          	bnez	a5,147ec <__sfvwrite_r+0x58>
   14890:	01712623          	sw	s7,12(sp)
   14894:	01812423          	sw	s8,8(sp)
   14898:	0016f793          	andi	a5,a3,1
   1489c:	1c079663          	bnez	a5,14a68 <__sfvwrite_r+0x2d4>
   148a0:	00042783          	lw	a5,0(s0)
   148a4:	00842703          	lw	a4,8(s0)
   148a8:	80000ab7          	lui	s5,0x80000
   148ac:	01912223          	sw	s9,4(sp)
   148b0:	00000b93          	li	s7,0
   148b4:	00000993          	li	s3,0
   148b8:	fffa8a93          	addi	s5,s5,-1 # 7fffffff <__BSS_END__+0x7ffdd4fb>
   148bc:	00078513          	mv	a0,a5
   148c0:	00070c13          	mv	s8,a4
   148c4:	10098263          	beqz	s3,149c8 <__sfvwrite_r+0x234>
   148c8:	2006f613          	andi	a2,a3,512
   148cc:	28060863          	beqz	a2,14b5c <__sfvwrite_r+0x3c8>
   148d0:	00070c93          	mv	s9,a4
   148d4:	32e9e863          	bltu	s3,a4,14c04 <__sfvwrite_r+0x470>
   148d8:	4806f713          	andi	a4,a3,1152
   148dc:	08070a63          	beqz	a4,14970 <__sfvwrite_r+0x1dc>
   148e0:	01442603          	lw	a2,20(s0)
   148e4:	01042583          	lw	a1,16(s0)
   148e8:	00161713          	slli	a4,a2,0x1
   148ec:	00c70733          	add	a4,a4,a2
   148f0:	40b78933          	sub	s2,a5,a1
   148f4:	01f75c13          	srli	s8,a4,0x1f
   148f8:	00ec0c33          	add	s8,s8,a4
   148fc:	00190793          	addi	a5,s2,1
   14900:	401c5c13          	srai	s8,s8,0x1
   14904:	013787b3          	add	a5,a5,s3
   14908:	000c0613          	mv	a2,s8
   1490c:	00fc7663          	bgeu	s8,a5,14918 <__sfvwrite_r+0x184>
   14910:	00078c13          	mv	s8,a5
   14914:	00078613          	mv	a2,a5
   14918:	4006f693          	andi	a3,a3,1024
   1491c:	32068063          	beqz	a3,14c3c <__sfvwrite_r+0x4a8>
   14920:	00060593          	mv	a1,a2
   14924:	000a0513          	mv	a0,s4
   14928:	8d5fb0ef          	jal	101fc <_malloc_r>
   1492c:	00050c93          	mv	s9,a0
   14930:	34050e63          	beqz	a0,14c8c <__sfvwrite_r+0x4f8>
   14934:	01042583          	lw	a1,16(s0)
   14938:	00090613          	mv	a2,s2
   1493c:	79c000ef          	jal	150d8 <memcpy>
   14940:	00c45783          	lhu	a5,12(s0)
   14944:	b7f7f793          	andi	a5,a5,-1153
   14948:	0807e793          	ori	a5,a5,128
   1494c:	00f41623          	sh	a5,12(s0)
   14950:	012c8533          	add	a0,s9,s2
   14954:	412c07b3          	sub	a5,s8,s2
   14958:	01942823          	sw	s9,16(s0)
   1495c:	01842a23          	sw	s8,20(s0)
   14960:	00a42023          	sw	a0,0(s0)
   14964:	00098c13          	mv	s8,s3
   14968:	00f42423          	sw	a5,8(s0)
   1496c:	00098c93          	mv	s9,s3
   14970:	000c8613          	mv	a2,s9
   14974:	000b8593          	mv	a1,s7
   14978:	654000ef          	jal	14fcc <memmove>
   1497c:	00842703          	lw	a4,8(s0)
   14980:	00042783          	lw	a5,0(s0)
   14984:	00098913          	mv	s2,s3
   14988:	41870733          	sub	a4,a4,s8
   1498c:	019787b3          	add	a5,a5,s9
   14990:	00e42423          	sw	a4,8(s0)
   14994:	00f42023          	sw	a5,0(s0)
   14998:	00000993          	li	s3,0
   1499c:	008b2783          	lw	a5,8(s6)
   149a0:	012b8bb3          	add	s7,s7,s2
   149a4:	412787b3          	sub	a5,a5,s2
   149a8:	00fb2423          	sw	a5,8(s6)
   149ac:	02078663          	beqz	a5,149d8 <__sfvwrite_r+0x244>
   149b0:	00042783          	lw	a5,0(s0)
   149b4:	00842703          	lw	a4,8(s0)
   149b8:	00c41683          	lh	a3,12(s0)
   149bc:	00078513          	mv	a0,a5
   149c0:	00070c13          	mv	s8,a4
   149c4:	f00992e3          	bnez	s3,148c8 <__sfvwrite_r+0x134>
   149c8:	0004ab83          	lw	s7,0(s1)
   149cc:	0044a983          	lw	s3,4(s1)
   149d0:	00848493          	addi	s1,s1,8
   149d4:	ee9ff06f          	j	148bc <__sfvwrite_r+0x128>
   149d8:	00c12b83          	lw	s7,12(sp)
   149dc:	00812c03          	lw	s8,8(sp)
   149e0:	00412c83          	lw	s9,4(sp)
   149e4:	02c12083          	lw	ra,44(sp)
   149e8:	02812403          	lw	s0,40(sp)
   149ec:	02412483          	lw	s1,36(sp)
   149f0:	02012903          	lw	s2,32(sp)
   149f4:	01c12983          	lw	s3,28(sp)
   149f8:	01412a83          	lw	s5,20(sp)
   149fc:	01812a03          	lw	s4,24(sp)
   14a00:	01012b03          	lw	s6,16(sp)
   14a04:	00000513          	li	a0,0
   14a08:	03010113          	addi	sp,sp,48
   14a0c:	00008067          	ret
   14a10:	00040593          	mv	a1,s0
   14a14:	000a0513          	mv	a0,s4
   14a18:	ca1ff0ef          	jal	146b8 <_fflush_r>
   14a1c:	0a050e63          	beqz	a0,14ad8 <__sfvwrite_r+0x344>
   14a20:	00c41783          	lh	a5,12(s0)
   14a24:	00c12b83          	lw	s7,12(sp)
   14a28:	00812c03          	lw	s8,8(sp)
   14a2c:	02412483          	lw	s1,36(sp)
   14a30:	02012903          	lw	s2,32(sp)
   14a34:	01c12983          	lw	s3,28(sp)
   14a38:	01412a83          	lw	s5,20(sp)
   14a3c:	0407e793          	ori	a5,a5,64
   14a40:	00f41623          	sh	a5,12(s0)
   14a44:	02c12083          	lw	ra,44(sp)
   14a48:	02812403          	lw	s0,40(sp)
   14a4c:	01812a03          	lw	s4,24(sp)
   14a50:	01012b03          	lw	s6,16(sp)
   14a54:	fff00513          	li	a0,-1
   14a58:	03010113          	addi	sp,sp,48
   14a5c:	00008067          	ret
   14a60:	00000513          	li	a0,0
   14a64:	00008067          	ret
   14a68:	00000a93          	li	s5,0
   14a6c:	00000513          	li	a0,0
   14a70:	00000c13          	li	s8,0
   14a74:	00000993          	li	s3,0
   14a78:	08098263          	beqz	s3,14afc <__sfvwrite_r+0x368>
   14a7c:	08050a63          	beqz	a0,14b10 <__sfvwrite_r+0x37c>
   14a80:	000a8793          	mv	a5,s5
   14a84:	00098b93          	mv	s7,s3
   14a88:	0137f463          	bgeu	a5,s3,14a90 <__sfvwrite_r+0x2fc>
   14a8c:	00078b93          	mv	s7,a5
   14a90:	00042503          	lw	a0,0(s0)
   14a94:	01042783          	lw	a5,16(s0)
   14a98:	00842903          	lw	s2,8(s0)
   14a9c:	01442683          	lw	a3,20(s0)
   14aa0:	00a7f663          	bgeu	a5,a0,14aac <__sfvwrite_r+0x318>
   14aa4:	00d90933          	add	s2,s2,a3
   14aa8:	09794463          	blt	s2,s7,14b30 <__sfvwrite_r+0x39c>
   14aac:	16dbc263          	blt	s7,a3,14c10 <__sfvwrite_r+0x47c>
   14ab0:	02442783          	lw	a5,36(s0)
   14ab4:	01c42583          	lw	a1,28(s0)
   14ab8:	000c0613          	mv	a2,s8
   14abc:	000a0513          	mv	a0,s4
   14ac0:	000780e7          	jalr	a5
   14ac4:	00050913          	mv	s2,a0
   14ac8:	f4a05ce3          	blez	a0,14a20 <__sfvwrite_r+0x28c>
   14acc:	412a8ab3          	sub	s5,s5,s2
   14ad0:	00100513          	li	a0,1
   14ad4:	f20a8ee3          	beqz	s5,14a10 <__sfvwrite_r+0x27c>
   14ad8:	008b2783          	lw	a5,8(s6)
   14adc:	012c0c33          	add	s8,s8,s2
   14ae0:	412989b3          	sub	s3,s3,s2
   14ae4:	412787b3          	sub	a5,a5,s2
   14ae8:	00fb2423          	sw	a5,8(s6)
   14aec:	f80796e3          	bnez	a5,14a78 <__sfvwrite_r+0x2e4>
   14af0:	00c12b83          	lw	s7,12(sp)
   14af4:	00812c03          	lw	s8,8(sp)
   14af8:	eedff06f          	j	149e4 <__sfvwrite_r+0x250>
   14afc:	0044a983          	lw	s3,4(s1)
   14b00:	00048793          	mv	a5,s1
   14b04:	00848493          	addi	s1,s1,8
   14b08:	fe098ae3          	beqz	s3,14afc <__sfvwrite_r+0x368>
   14b0c:	0007ac03          	lw	s8,0(a5)
   14b10:	00098613          	mv	a2,s3
   14b14:	00a00593          	li	a1,10
   14b18:	000c0513          	mv	a0,s8
   14b1c:	2cc000ef          	jal	14de8 <memchr>
   14b20:	14050c63          	beqz	a0,14c78 <__sfvwrite_r+0x4e4>
   14b24:	00150513          	addi	a0,a0,1
   14b28:	41850ab3          	sub	s5,a0,s8
   14b2c:	f55ff06f          	j	14a80 <__sfvwrite_r+0x2ec>
   14b30:	000c0593          	mv	a1,s8
   14b34:	00090613          	mv	a2,s2
   14b38:	494000ef          	jal	14fcc <memmove>
   14b3c:	00042783          	lw	a5,0(s0)
   14b40:	00040593          	mv	a1,s0
   14b44:	000a0513          	mv	a0,s4
   14b48:	012787b3          	add	a5,a5,s2
   14b4c:	00f42023          	sw	a5,0(s0)
   14b50:	b69ff0ef          	jal	146b8 <_fflush_r>
   14b54:	f6050ce3          	beqz	a0,14acc <__sfvwrite_r+0x338>
   14b58:	ec9ff06f          	j	14a20 <__sfvwrite_r+0x28c>
   14b5c:	01042683          	lw	a3,16(s0)
   14b60:	04f6e463          	bltu	a3,a5,14ba8 <__sfvwrite_r+0x414>
   14b64:	01442583          	lw	a1,20(s0)
   14b68:	04b9e063          	bltu	s3,a1,14ba8 <__sfvwrite_r+0x414>
   14b6c:	00098913          	mv	s2,s3
   14b70:	013af463          	bgeu	s5,s3,14b78 <__sfvwrite_r+0x3e4>
   14b74:	000a8913          	mv	s2,s5
   14b78:	00090513          	mv	a0,s2
   14b7c:	7480c0ef          	jal	212c4 <__modsi3>
   14b80:	02442783          	lw	a5,36(s0)
   14b84:	01c42583          	lw	a1,28(s0)
   14b88:	40a906b3          	sub	a3,s2,a0
   14b8c:	000b8613          	mv	a2,s7
   14b90:	000a0513          	mv	a0,s4
   14b94:	000780e7          	jalr	a5
   14b98:	00050913          	mv	s2,a0
   14b9c:	04a05a63          	blez	a0,14bf0 <__sfvwrite_r+0x45c>
   14ba0:	412989b3          	sub	s3,s3,s2
   14ba4:	df9ff06f          	j	1499c <__sfvwrite_r+0x208>
   14ba8:	00070913          	mv	s2,a4
   14bac:	00e9f463          	bgeu	s3,a4,14bb4 <__sfvwrite_r+0x420>
   14bb0:	00098913          	mv	s2,s3
   14bb4:	00078513          	mv	a0,a5
   14bb8:	00090613          	mv	a2,s2
   14bbc:	000b8593          	mv	a1,s7
   14bc0:	40c000ef          	jal	14fcc <memmove>
   14bc4:	00842703          	lw	a4,8(s0)
   14bc8:	00042783          	lw	a5,0(s0)
   14bcc:	41270733          	sub	a4,a4,s2
   14bd0:	012787b3          	add	a5,a5,s2
   14bd4:	00e42423          	sw	a4,8(s0)
   14bd8:	00f42023          	sw	a5,0(s0)
   14bdc:	fc0712e3          	bnez	a4,14ba0 <__sfvwrite_r+0x40c>
   14be0:	00040593          	mv	a1,s0
   14be4:	000a0513          	mv	a0,s4
   14be8:	ad1ff0ef          	jal	146b8 <_fflush_r>
   14bec:	fa050ae3          	beqz	a0,14ba0 <__sfvwrite_r+0x40c>
   14bf0:	00c41783          	lh	a5,12(s0)
   14bf4:	00c12b83          	lw	s7,12(sp)
   14bf8:	00812c03          	lw	s8,8(sp)
   14bfc:	00412c83          	lw	s9,4(sp)
   14c00:	e2dff06f          	j	14a2c <__sfvwrite_r+0x298>
   14c04:	00098c13          	mv	s8,s3
   14c08:	00098c93          	mv	s9,s3
   14c0c:	d65ff06f          	j	14970 <__sfvwrite_r+0x1dc>
   14c10:	000b8613          	mv	a2,s7
   14c14:	000c0593          	mv	a1,s8
   14c18:	3b4000ef          	jal	14fcc <memmove>
   14c1c:	00842703          	lw	a4,8(s0)
   14c20:	00042783          	lw	a5,0(s0)
   14c24:	000b8913          	mv	s2,s7
   14c28:	41770733          	sub	a4,a4,s7
   14c2c:	017787b3          	add	a5,a5,s7
   14c30:	00e42423          	sw	a4,8(s0)
   14c34:	00f42023          	sw	a5,0(s0)
   14c38:	e95ff06f          	j	14acc <__sfvwrite_r+0x338>
   14c3c:	000a0513          	mv	a0,s4
   14c40:	010040ef          	jal	18c50 <_realloc_r>
   14c44:	00050c93          	mv	s9,a0
   14c48:	d00514e3          	bnez	a0,14950 <__sfvwrite_r+0x1bc>
   14c4c:	01042583          	lw	a1,16(s0)
   14c50:	000a0513          	mv	a0,s4
   14c54:	a39fc0ef          	jal	1168c <_free_r>
   14c58:	00c41783          	lh	a5,12(s0)
   14c5c:	00c00713          	li	a4,12
   14c60:	00c12b83          	lw	s7,12(sp)
   14c64:	00812c03          	lw	s8,8(sp)
   14c68:	00412c83          	lw	s9,4(sp)
   14c6c:	00ea2023          	sw	a4,0(s4)
   14c70:	f7f7f793          	andi	a5,a5,-129
   14c74:	db9ff06f          	j	14a2c <__sfvwrite_r+0x298>
   14c78:	00198793          	addi	a5,s3,1
   14c7c:	00078a93          	mv	s5,a5
   14c80:	e05ff06f          	j	14a84 <__sfvwrite_r+0x2f0>
   14c84:	00c41783          	lh	a5,12(s0)
   14c88:	da5ff06f          	j	14a2c <__sfvwrite_r+0x298>
   14c8c:	00c00713          	li	a4,12
   14c90:	00c41783          	lh	a5,12(s0)
   14c94:	00c12b83          	lw	s7,12(sp)
   14c98:	00812c03          	lw	s8,8(sp)
   14c9c:	00412c83          	lw	s9,4(sp)
   14ca0:	00ea2023          	sw	a4,0(s4)
   14ca4:	d89ff06f          	j	14a2c <__sfvwrite_r+0x298>

00014ca8 <__swsetup_r>:
   14ca8:	f141a783          	lw	a5,-236(gp) # 227d4 <_impure_ptr>
   14cac:	ff010113          	addi	sp,sp,-16
   14cb0:	00812423          	sw	s0,8(sp)
   14cb4:	00912223          	sw	s1,4(sp)
   14cb8:	00112623          	sw	ra,12(sp)
   14cbc:	00050493          	mv	s1,a0
   14cc0:	00058413          	mv	s0,a1
   14cc4:	00078663          	beqz	a5,14cd0 <__swsetup_r+0x28>
   14cc8:	0347a703          	lw	a4,52(a5)
   14ccc:	0e070c63          	beqz	a4,14dc4 <__swsetup_r+0x11c>
   14cd0:	00c41783          	lh	a5,12(s0)
   14cd4:	0087f713          	andi	a4,a5,8
   14cd8:	06070a63          	beqz	a4,14d4c <__swsetup_r+0xa4>
   14cdc:	01042703          	lw	a4,16(s0)
   14ce0:	08070663          	beqz	a4,14d6c <__swsetup_r+0xc4>
   14ce4:	0017f693          	andi	a3,a5,1
   14ce8:	02068863          	beqz	a3,14d18 <__swsetup_r+0x70>
   14cec:	01442683          	lw	a3,20(s0)
   14cf0:	00042423          	sw	zero,8(s0)
   14cf4:	00000513          	li	a0,0
   14cf8:	40d006b3          	neg	a3,a3
   14cfc:	00d42c23          	sw	a3,24(s0)
   14d00:	02070a63          	beqz	a4,14d34 <__swsetup_r+0x8c>
   14d04:	00c12083          	lw	ra,12(sp)
   14d08:	00812403          	lw	s0,8(sp)
   14d0c:	00412483          	lw	s1,4(sp)
   14d10:	01010113          	addi	sp,sp,16
   14d14:	00008067          	ret
   14d18:	0027f693          	andi	a3,a5,2
   14d1c:	00000613          	li	a2,0
   14d20:	00069463          	bnez	a3,14d28 <__swsetup_r+0x80>
   14d24:	01442603          	lw	a2,20(s0)
   14d28:	00c42423          	sw	a2,8(s0)
   14d2c:	00000513          	li	a0,0
   14d30:	fc071ae3          	bnez	a4,14d04 <__swsetup_r+0x5c>
   14d34:	0807f713          	andi	a4,a5,128
   14d38:	fc0706e3          	beqz	a4,14d04 <__swsetup_r+0x5c>
   14d3c:	0407e793          	ori	a5,a5,64
   14d40:	00f41623          	sh	a5,12(s0)
   14d44:	fff00513          	li	a0,-1
   14d48:	fbdff06f          	j	14d04 <__swsetup_r+0x5c>
   14d4c:	0107f713          	andi	a4,a5,16
   14d50:	08070063          	beqz	a4,14dd0 <__swsetup_r+0x128>
   14d54:	0047f713          	andi	a4,a5,4
   14d58:	02071c63          	bnez	a4,14d90 <__swsetup_r+0xe8>
   14d5c:	01042703          	lw	a4,16(s0)
   14d60:	0087e793          	ori	a5,a5,8
   14d64:	00f41623          	sh	a5,12(s0)
   14d68:	f6071ee3          	bnez	a4,14ce4 <__swsetup_r+0x3c>
   14d6c:	2807f693          	andi	a3,a5,640
   14d70:	20000613          	li	a2,512
   14d74:	f6c688e3          	beq	a3,a2,14ce4 <__swsetup_r+0x3c>
   14d78:	00040593          	mv	a1,s0
   14d7c:	00048513          	mv	a0,s1
   14d80:	440040ef          	jal	191c0 <__smakebuf_r>
   14d84:	00c41783          	lh	a5,12(s0)
   14d88:	01042703          	lw	a4,16(s0)
   14d8c:	f59ff06f          	j	14ce4 <__swsetup_r+0x3c>
   14d90:	03042583          	lw	a1,48(s0)
   14d94:	00058e63          	beqz	a1,14db0 <__swsetup_r+0x108>
   14d98:	04040713          	addi	a4,s0,64
   14d9c:	00e58863          	beq	a1,a4,14dac <__swsetup_r+0x104>
   14da0:	00048513          	mv	a0,s1
   14da4:	8e9fc0ef          	jal	1168c <_free_r>
   14da8:	00c41783          	lh	a5,12(s0)
   14dac:	02042823          	sw	zero,48(s0)
   14db0:	01042703          	lw	a4,16(s0)
   14db4:	fdb7f793          	andi	a5,a5,-37
   14db8:	00042223          	sw	zero,4(s0)
   14dbc:	00e42023          	sw	a4,0(s0)
   14dc0:	fa1ff06f          	j	14d60 <__swsetup_r+0xb8>
   14dc4:	00078513          	mv	a0,a5
   14dc8:	ef9fb0ef          	jal	10cc0 <__sinit>
   14dcc:	f05ff06f          	j	14cd0 <__swsetup_r+0x28>
   14dd0:	00900713          	li	a4,9
   14dd4:	00e4a023          	sw	a4,0(s1)
   14dd8:	0407e793          	ori	a5,a5,64
   14ddc:	00f41623          	sh	a5,12(s0)
   14de0:	fff00513          	li	a0,-1
   14de4:	f21ff06f          	j	14d04 <__swsetup_r+0x5c>

00014de8 <memchr>:
   14de8:	00357793          	andi	a5,a0,3
   14dec:	0ff5f693          	zext.b	a3,a1
   14df0:	02078a63          	beqz	a5,14e24 <memchr+0x3c>
   14df4:	fff60793          	addi	a5,a2,-1
   14df8:	02060e63          	beqz	a2,14e34 <memchr+0x4c>
   14dfc:	fff00613          	li	a2,-1
   14e00:	0180006f          	j	14e18 <memchr+0x30>
   14e04:	00150513          	addi	a0,a0,1
   14e08:	00357713          	andi	a4,a0,3
   14e0c:	00070e63          	beqz	a4,14e28 <memchr+0x40>
   14e10:	fff78793          	addi	a5,a5,-1
   14e14:	02c78063          	beq	a5,a2,14e34 <memchr+0x4c>
   14e18:	00054703          	lbu	a4,0(a0)
   14e1c:	fed714e3          	bne	a4,a3,14e04 <memchr+0x1c>
   14e20:	00008067          	ret
   14e24:	00060793          	mv	a5,a2
   14e28:	00300713          	li	a4,3
   14e2c:	00f76863          	bltu	a4,a5,14e3c <memchr+0x54>
   14e30:	06079063          	bnez	a5,14e90 <memchr+0xa8>
   14e34:	00000513          	li	a0,0
   14e38:	00008067          	ret
   14e3c:	0ff5f593          	zext.b	a1,a1
   14e40:	00859713          	slli	a4,a1,0x8
   14e44:	00b705b3          	add	a1,a4,a1
   14e48:	01059713          	slli	a4,a1,0x10
   14e4c:	feff08b7          	lui	a7,0xfeff0
   14e50:	80808837          	lui	a6,0x80808
   14e54:	00e585b3          	add	a1,a1,a4
   14e58:	eff88893          	addi	a7,a7,-257 # fefefeff <__BSS_END__+0xfefcd3fb>
   14e5c:	08080813          	addi	a6,a6,128 # 80808080 <__BSS_END__+0x807e557c>
   14e60:	00300313          	li	t1,3
   14e64:	0100006f          	j	14e74 <memchr+0x8c>
   14e68:	ffc78793          	addi	a5,a5,-4
   14e6c:	00450513          	addi	a0,a0,4
   14e70:	fcf370e3          	bgeu	t1,a5,14e30 <memchr+0x48>
   14e74:	00052703          	lw	a4,0(a0)
   14e78:	00e5c733          	xor	a4,a1,a4
   14e7c:	01170633          	add	a2,a4,a7
   14e80:	fff74713          	not	a4,a4
   14e84:	00e67733          	and	a4,a2,a4
   14e88:	01077733          	and	a4,a4,a6
   14e8c:	fc070ee3          	beqz	a4,14e68 <memchr+0x80>
   14e90:	00f507b3          	add	a5,a0,a5
   14e94:	00c0006f          	j	14ea0 <memchr+0xb8>
   14e98:	00150513          	addi	a0,a0,1
   14e9c:	f8f50ce3          	beq	a0,a5,14e34 <memchr+0x4c>
   14ea0:	00054703          	lbu	a4,0(a0)
   14ea4:	fed71ae3          	bne	a4,a3,14e98 <memchr+0xb0>
   14ea8:	00008067          	ret

00014eac <strncpy>:
   14eac:	00a5e7b3          	or	a5,a1,a0
   14eb0:	0037f793          	andi	a5,a5,3
   14eb4:	00079663          	bnez	a5,14ec0 <strncpy+0x14>
   14eb8:	00300793          	li	a5,3
   14ebc:	04c7e663          	bltu	a5,a2,14f08 <strncpy+0x5c>
   14ec0:	00050713          	mv	a4,a0
   14ec4:	01c0006f          	j	14ee0 <strncpy+0x34>
   14ec8:	fff5c683          	lbu	a3,-1(a1)
   14ecc:	fff60813          	addi	a6,a2,-1
   14ed0:	fed78fa3          	sb	a3,-1(a5)
   14ed4:	00068e63          	beqz	a3,14ef0 <strncpy+0x44>
   14ed8:	00078713          	mv	a4,a5
   14edc:	00080613          	mv	a2,a6
   14ee0:	00158593          	addi	a1,a1,1
   14ee4:	00170793          	addi	a5,a4,1
   14ee8:	fe0610e3          	bnez	a2,14ec8 <strncpy+0x1c>
   14eec:	00008067          	ret
   14ef0:	00c70733          	add	a4,a4,a2
   14ef4:	06080063          	beqz	a6,14f54 <strncpy+0xa8>
   14ef8:	00178793          	addi	a5,a5,1
   14efc:	fe078fa3          	sb	zero,-1(a5)
   14f00:	fee79ce3          	bne	a5,a4,14ef8 <strncpy+0x4c>
   14f04:	00008067          	ret
   14f08:	feff0337          	lui	t1,0xfeff0
   14f0c:	808088b7          	lui	a7,0x80808
   14f10:	00050713          	mv	a4,a0
   14f14:	eff30313          	addi	t1,t1,-257 # fefefeff <__BSS_END__+0xfefcd3fb>
   14f18:	08088893          	addi	a7,a7,128 # 80808080 <__BSS_END__+0x807e557c>
   14f1c:	00300e13          	li	t3,3
   14f20:	0180006f          	j	14f38 <strncpy+0x8c>
   14f24:	00d72023          	sw	a3,0(a4)
   14f28:	ffc60613          	addi	a2,a2,-4
   14f2c:	00470713          	addi	a4,a4,4
   14f30:	00458593          	addi	a1,a1,4
   14f34:	face76e3          	bgeu	t3,a2,14ee0 <strncpy+0x34>
   14f38:	0005a683          	lw	a3,0(a1)
   14f3c:	006687b3          	add	a5,a3,t1
   14f40:	fff6c813          	not	a6,a3
   14f44:	0107f7b3          	and	a5,a5,a6
   14f48:	0117f7b3          	and	a5,a5,a7
   14f4c:	fc078ce3          	beqz	a5,14f24 <strncpy+0x78>
   14f50:	f91ff06f          	j	14ee0 <strncpy+0x34>
   14f54:	00008067          	ret

00014f58 <__localeconv_l>:
   14f58:	0f050513          	addi	a0,a0,240
   14f5c:	00008067          	ret

00014f60 <_localeconv_r>:
   14f60:	e2818513          	addi	a0,gp,-472 # 226e8 <__global_locale+0xf0>
   14f64:	00008067          	ret

00014f68 <localeconv>:
   14f68:	e2818513          	addi	a0,gp,-472 # 226e8 <__global_locale+0xf0>
   14f6c:	00008067          	ret

00014f70 <__libc_fini_array>:
   14f70:	ff010113          	addi	sp,sp,-16
   14f74:	00812423          	sw	s0,8(sp)
   14f78:	000227b7          	lui	a5,0x22
   14f7c:	00022437          	lui	s0,0x22
   14f80:	0bc78793          	addi	a5,a5,188 # 220bc <__do_global_dtors_aux_fini_array_entry>
   14f84:	0c040413          	addi	s0,s0,192 # 220c0 <__malloc_av_>
   14f88:	40f40433          	sub	s0,s0,a5
   14f8c:	00912223          	sw	s1,4(sp)
   14f90:	00112623          	sw	ra,12(sp)
   14f94:	40245493          	srai	s1,s0,0x2
   14f98:	02048063          	beqz	s1,14fb8 <__libc_fini_array+0x48>
   14f9c:	ffc40413          	addi	s0,s0,-4
   14fa0:	00f40433          	add	s0,s0,a5
   14fa4:	00042783          	lw	a5,0(s0)
   14fa8:	fff48493          	addi	s1,s1,-1
   14fac:	ffc40413          	addi	s0,s0,-4
   14fb0:	000780e7          	jalr	a5
   14fb4:	fe0498e3          	bnez	s1,14fa4 <__libc_fini_array+0x34>
   14fb8:	00c12083          	lw	ra,12(sp)
   14fbc:	00812403          	lw	s0,8(sp)
   14fc0:	00412483          	lw	s1,4(sp)
   14fc4:	01010113          	addi	sp,sp,16
   14fc8:	00008067          	ret

00014fcc <memmove>:
   14fcc:	02a5f663          	bgeu	a1,a0,14ff8 <memmove+0x2c>
   14fd0:	00c58733          	add	a4,a1,a2
   14fd4:	02e57263          	bgeu	a0,a4,14ff8 <memmove+0x2c>
   14fd8:	00c507b3          	add	a5,a0,a2
   14fdc:	04060663          	beqz	a2,15028 <memmove+0x5c>
   14fe0:	fff74683          	lbu	a3,-1(a4)
   14fe4:	fff78793          	addi	a5,a5,-1
   14fe8:	fff70713          	addi	a4,a4,-1
   14fec:	00d78023          	sb	a3,0(a5)
   14ff0:	fef518e3          	bne	a0,a5,14fe0 <memmove+0x14>
   14ff4:	00008067          	ret
   14ff8:	00f00793          	li	a5,15
   14ffc:	02c7e863          	bltu	a5,a2,1502c <memmove+0x60>
   15000:	00050793          	mv	a5,a0
   15004:	fff60693          	addi	a3,a2,-1
   15008:	0c060263          	beqz	a2,150cc <memmove+0x100>
   1500c:	00168693          	addi	a3,a3,1
   15010:	00d786b3          	add	a3,a5,a3
   15014:	0005c703          	lbu	a4,0(a1)
   15018:	00178793          	addi	a5,a5,1
   1501c:	00158593          	addi	a1,a1,1
   15020:	fee78fa3          	sb	a4,-1(a5)
   15024:	fed798e3          	bne	a5,a3,15014 <memmove+0x48>
   15028:	00008067          	ret
   1502c:	00b567b3          	or	a5,a0,a1
   15030:	0037f793          	andi	a5,a5,3
   15034:	08079663          	bnez	a5,150c0 <memmove+0xf4>
   15038:	ff060893          	addi	a7,a2,-16
   1503c:	ff08f893          	andi	a7,a7,-16
   15040:	01088893          	addi	a7,a7,16
   15044:	011506b3          	add	a3,a0,a7
   15048:	00058713          	mv	a4,a1
   1504c:	00050793          	mv	a5,a0
   15050:	00072803          	lw	a6,0(a4)
   15054:	01070713          	addi	a4,a4,16
   15058:	01078793          	addi	a5,a5,16
   1505c:	ff07a823          	sw	a6,-16(a5)
   15060:	ff472803          	lw	a6,-12(a4)
   15064:	ff07aa23          	sw	a6,-12(a5)
   15068:	ff872803          	lw	a6,-8(a4)
   1506c:	ff07ac23          	sw	a6,-8(a5)
   15070:	ffc72803          	lw	a6,-4(a4)
   15074:	ff07ae23          	sw	a6,-4(a5)
   15078:	fcd79ce3          	bne	a5,a3,15050 <memmove+0x84>
   1507c:	00c67813          	andi	a6,a2,12
   15080:	011585b3          	add	a1,a1,a7
   15084:	00f67713          	andi	a4,a2,15
   15088:	04080463          	beqz	a6,150d0 <memmove+0x104>
   1508c:	ffc70813          	addi	a6,a4,-4
   15090:	ffc87813          	andi	a6,a6,-4
   15094:	00480813          	addi	a6,a6,4
   15098:	010687b3          	add	a5,a3,a6
   1509c:	00058713          	mv	a4,a1
   150a0:	00072883          	lw	a7,0(a4)
   150a4:	00468693          	addi	a3,a3,4
   150a8:	00470713          	addi	a4,a4,4
   150ac:	ff16ae23          	sw	a7,-4(a3)
   150b0:	fef698e3          	bne	a3,a5,150a0 <memmove+0xd4>
   150b4:	00367613          	andi	a2,a2,3
   150b8:	010585b3          	add	a1,a1,a6
   150bc:	f49ff06f          	j	15004 <memmove+0x38>
   150c0:	fff60693          	addi	a3,a2,-1
   150c4:	00050793          	mv	a5,a0
   150c8:	f45ff06f          	j	1500c <memmove+0x40>
   150cc:	00008067          	ret
   150d0:	00070613          	mv	a2,a4
   150d4:	f31ff06f          	j	15004 <memmove+0x38>

000150d8 <memcpy>:
   150d8:	00a5c7b3          	xor	a5,a1,a0
   150dc:	0037f793          	andi	a5,a5,3
   150e0:	00c508b3          	add	a7,a0,a2
   150e4:	06079463          	bnez	a5,1514c <memcpy+0x74>
   150e8:	00300793          	li	a5,3
   150ec:	06c7f063          	bgeu	a5,a2,1514c <memcpy+0x74>
   150f0:	00357793          	andi	a5,a0,3
   150f4:	00050713          	mv	a4,a0
   150f8:	06079a63          	bnez	a5,1516c <memcpy+0x94>
   150fc:	ffc8f613          	andi	a2,a7,-4
   15100:	40e606b3          	sub	a3,a2,a4
   15104:	02000793          	li	a5,32
   15108:	08d7ce63          	blt	a5,a3,151a4 <memcpy+0xcc>
   1510c:	00058693          	mv	a3,a1
   15110:	00070793          	mv	a5,a4
   15114:	02c77863          	bgeu	a4,a2,15144 <memcpy+0x6c>
   15118:	0006a803          	lw	a6,0(a3)
   1511c:	00478793          	addi	a5,a5,4
   15120:	00468693          	addi	a3,a3,4
   15124:	ff07ae23          	sw	a6,-4(a5)
   15128:	fec7e8e3          	bltu	a5,a2,15118 <memcpy+0x40>
   1512c:	fff60793          	addi	a5,a2,-1
   15130:	40e787b3          	sub	a5,a5,a4
   15134:	ffc7f793          	andi	a5,a5,-4
   15138:	00478793          	addi	a5,a5,4
   1513c:	00f70733          	add	a4,a4,a5
   15140:	00f585b3          	add	a1,a1,a5
   15144:	01176863          	bltu	a4,a7,15154 <memcpy+0x7c>
   15148:	00008067          	ret
   1514c:	00050713          	mv	a4,a0
   15150:	05157863          	bgeu	a0,a7,151a0 <memcpy+0xc8>
   15154:	0005c783          	lbu	a5,0(a1)
   15158:	00170713          	addi	a4,a4,1
   1515c:	00158593          	addi	a1,a1,1
   15160:	fef70fa3          	sb	a5,-1(a4)
   15164:	fee898e3          	bne	a7,a4,15154 <memcpy+0x7c>
   15168:	00008067          	ret
   1516c:	0005c683          	lbu	a3,0(a1)
   15170:	00170713          	addi	a4,a4,1
   15174:	00377793          	andi	a5,a4,3
   15178:	fed70fa3          	sb	a3,-1(a4)
   1517c:	00158593          	addi	a1,a1,1
   15180:	f6078ee3          	beqz	a5,150fc <memcpy+0x24>
   15184:	0005c683          	lbu	a3,0(a1)
   15188:	00170713          	addi	a4,a4,1
   1518c:	00377793          	andi	a5,a4,3
   15190:	fed70fa3          	sb	a3,-1(a4)
   15194:	00158593          	addi	a1,a1,1
   15198:	fc079ae3          	bnez	a5,1516c <memcpy+0x94>
   1519c:	f61ff06f          	j	150fc <memcpy+0x24>
   151a0:	00008067          	ret
   151a4:	ff010113          	addi	sp,sp,-16
   151a8:	00812623          	sw	s0,12(sp)
   151ac:	02000413          	li	s0,32
   151b0:	0005a383          	lw	t2,0(a1)
   151b4:	0045a283          	lw	t0,4(a1)
   151b8:	0085af83          	lw	t6,8(a1)
   151bc:	00c5af03          	lw	t5,12(a1)
   151c0:	0105ae83          	lw	t4,16(a1)
   151c4:	0145ae03          	lw	t3,20(a1)
   151c8:	0185a303          	lw	t1,24(a1)
   151cc:	01c5a803          	lw	a6,28(a1)
   151d0:	0205a683          	lw	a3,32(a1)
   151d4:	02470713          	addi	a4,a4,36
   151d8:	40e607b3          	sub	a5,a2,a4
   151dc:	fc772e23          	sw	t2,-36(a4)
   151e0:	fe572023          	sw	t0,-32(a4)
   151e4:	fff72223          	sw	t6,-28(a4)
   151e8:	ffe72423          	sw	t5,-24(a4)
   151ec:	ffd72623          	sw	t4,-20(a4)
   151f0:	ffc72823          	sw	t3,-16(a4)
   151f4:	fe672a23          	sw	t1,-12(a4)
   151f8:	ff072c23          	sw	a6,-8(a4)
   151fc:	fed72e23          	sw	a3,-4(a4)
   15200:	02458593          	addi	a1,a1,36
   15204:	faf446e3          	blt	s0,a5,151b0 <memcpy+0xd8>
   15208:	00058693          	mv	a3,a1
   1520c:	00070793          	mv	a5,a4
   15210:	02c77863          	bgeu	a4,a2,15240 <memcpy+0x168>
   15214:	0006a803          	lw	a6,0(a3)
   15218:	00478793          	addi	a5,a5,4
   1521c:	00468693          	addi	a3,a3,4
   15220:	ff07ae23          	sw	a6,-4(a5)
   15224:	fec7e8e3          	bltu	a5,a2,15214 <memcpy+0x13c>
   15228:	fff60793          	addi	a5,a2,-1
   1522c:	40e787b3          	sub	a5,a5,a4
   15230:	ffc7f793          	andi	a5,a5,-4
   15234:	00478793          	addi	a5,a5,4
   15238:	00f70733          	add	a4,a4,a5
   1523c:	00f585b3          	add	a1,a1,a5
   15240:	01176863          	bltu	a4,a7,15250 <memcpy+0x178>
   15244:	00c12403          	lw	s0,12(sp)
   15248:	01010113          	addi	sp,sp,16
   1524c:	00008067          	ret
   15250:	0005c783          	lbu	a5,0(a1)
   15254:	00170713          	addi	a4,a4,1
   15258:	00158593          	addi	a1,a1,1
   1525c:	fef70fa3          	sb	a5,-1(a4)
   15260:	fee882e3          	beq	a7,a4,15244 <memcpy+0x16c>
   15264:	0005c783          	lbu	a5,0(a1)
   15268:	00170713          	addi	a4,a4,1
   1526c:	00158593          	addi	a1,a1,1
   15270:	fef70fa3          	sb	a5,-1(a4)
   15274:	fce89ee3          	bne	a7,a4,15250 <memcpy+0x178>
   15278:	fcdff06f          	j	15244 <memcpy+0x16c>

0001527c <strlen>:
   1527c:	00357793          	andi	a5,a0,3
   15280:	00050713          	mv	a4,a0
   15284:	04079c63          	bnez	a5,152dc <strlen+0x60>
   15288:	7f7f86b7          	lui	a3,0x7f7f8
   1528c:	f7f68693          	addi	a3,a3,-129 # 7f7f7f7f <__BSS_END__+0x7f7d547b>
   15290:	fff00593          	li	a1,-1
   15294:	00072603          	lw	a2,0(a4)
   15298:	00470713          	addi	a4,a4,4
   1529c:	00d677b3          	and	a5,a2,a3
   152a0:	00d787b3          	add	a5,a5,a3
   152a4:	00c7e7b3          	or	a5,a5,a2
   152a8:	00d7e7b3          	or	a5,a5,a3
   152ac:	feb784e3          	beq	a5,a1,15294 <strlen+0x18>
   152b0:	ffc74683          	lbu	a3,-4(a4)
   152b4:	40a707b3          	sub	a5,a4,a0
   152b8:	04068463          	beqz	a3,15300 <strlen+0x84>
   152bc:	ffd74683          	lbu	a3,-3(a4)
   152c0:	02068c63          	beqz	a3,152f8 <strlen+0x7c>
   152c4:	ffe74503          	lbu	a0,-2(a4)
   152c8:	00a03533          	snez	a0,a0
   152cc:	00f50533          	add	a0,a0,a5
   152d0:	ffe50513          	addi	a0,a0,-2
   152d4:	00008067          	ret
   152d8:	fa0688e3          	beqz	a3,15288 <strlen+0xc>
   152dc:	00074783          	lbu	a5,0(a4)
   152e0:	00170713          	addi	a4,a4,1
   152e4:	00377693          	andi	a3,a4,3
   152e8:	fe0798e3          	bnez	a5,152d8 <strlen+0x5c>
   152ec:	40a70733          	sub	a4,a4,a0
   152f0:	fff70513          	addi	a0,a4,-1
   152f4:	00008067          	ret
   152f8:	ffd78513          	addi	a0,a5,-3
   152fc:	00008067          	ret
   15300:	ffc78513          	addi	a0,a5,-4
   15304:	00008067          	ret

00015308 <frexpl>:
   15308:	f9010113          	addi	sp,sp,-112
   1530c:	07212023          	sw	s2,96(sp)
   15310:	00c5a903          	lw	s2,12(a1)
   15314:	05412c23          	sw	s4,88(sp)
   15318:	05512a23          	sw	s5,84(sp)
   1531c:	05612823          	sw	s6,80(sp)
   15320:	0045aa83          	lw	s5,4(a1)
   15324:	0005ab03          	lw	s6,0(a1)
   15328:	0085aa03          	lw	s4,8(a1)
   1532c:	05312e23          	sw	s3,92(sp)
   15330:	000089b7          	lui	s3,0x8
   15334:	06812423          	sw	s0,104(sp)
   15338:	06912223          	sw	s1,100(sp)
   1533c:	06112623          	sw	ra,108(sp)
   15340:	01095493          	srli	s1,s2,0x10
   15344:	fff98993          	addi	s3,s3,-1 # 7fff <exit-0x8095>
   15348:	03612823          	sw	s6,48(sp)
   1534c:	03512a23          	sw	s5,52(sp)
   15350:	03412c23          	sw	s4,56(sp)
   15354:	03212e23          	sw	s2,60(sp)
   15358:	0134f4b3          	and	s1,s1,s3
   1535c:	00062023          	sw	zero,0(a2)
   15360:	00050413          	mv	s0,a0
   15364:	09348063          	beq	s1,s3,153e4 <frexpl+0xdc>
   15368:	01010593          	addi	a1,sp,16
   1536c:	02010513          	addi	a0,sp,32
   15370:	05712623          	sw	s7,76(sp)
   15374:	03612023          	sw	s6,32(sp)
   15378:	00060b93          	mv	s7,a2
   1537c:	03512223          	sw	s5,36(sp)
   15380:	03412423          	sw	s4,40(sp)
   15384:	03212623          	sw	s2,44(sp)
   15388:	00012823          	sw	zero,16(sp)
   1538c:	00012a23          	sw	zero,20(sp)
   15390:	00012c23          	sw	zero,24(sp)
   15394:	00012e23          	sw	zero,28(sp)
   15398:	5e5080ef          	jal	1e17c <__eqtf2>
   1539c:	0e050463          	beqz	a0,15484 <frexpl+0x17c>
   153a0:	00000693          	li	a3,0
   153a4:	06048e63          	beqz	s1,15420 <frexpl+0x118>
   153a8:	ffffc737          	lui	a4,0xffffc
   153ac:	00270713          	addi	a4,a4,2 # ffffc002 <__BSS_END__+0xfffd94fe>
   153b0:	03c12903          	lw	s2,60(sp)
   153b4:	00e484b3          	add	s1,s1,a4
   153b8:	800107b7          	lui	a5,0x80010
   153bc:	00d484b3          	add	s1,s1,a3
   153c0:	fff78793          	addi	a5,a5,-1 # 8000ffff <__BSS_END__+0x7ffed4fb>
   153c4:	009ba023          	sw	s1,0(s7)
   153c8:	03012b03          	lw	s6,48(sp)
   153cc:	03412a83          	lw	s5,52(sp)
   153d0:	03812a03          	lw	s4,56(sp)
   153d4:	04c12b83          	lw	s7,76(sp)
   153d8:	00f97933          	and	s2,s2,a5
   153dc:	3ffe07b7          	lui	a5,0x3ffe0
   153e0:	00f96933          	or	s2,s2,a5
   153e4:	01642023          	sw	s6,0(s0)
   153e8:	01542223          	sw	s5,4(s0)
   153ec:	01442423          	sw	s4,8(s0)
   153f0:	01242623          	sw	s2,12(s0)
   153f4:	06c12083          	lw	ra,108(sp)
   153f8:	00040513          	mv	a0,s0
   153fc:	06812403          	lw	s0,104(sp)
   15400:	06412483          	lw	s1,100(sp)
   15404:	06012903          	lw	s2,96(sp)
   15408:	05c12983          	lw	s3,92(sp)
   1540c:	05812a03          	lw	s4,88(sp)
   15410:	05412a83          	lw	s5,84(sp)
   15414:	05012b03          	lw	s6,80(sp)
   15418:	07010113          	addi	sp,sp,112
   1541c:	00008067          	ret
   15420:	407107b7          	lui	a5,0x40710
   15424:	00010613          	mv	a2,sp
   15428:	01010593          	addi	a1,sp,16
   1542c:	02010513          	addi	a0,sp,32
   15430:	00f12623          	sw	a5,12(sp)
   15434:	01612823          	sw	s6,16(sp)
   15438:	01512a23          	sw	s5,20(sp)
   1543c:	01412c23          	sw	s4,24(sp)
   15440:	01212e23          	sw	s2,28(sp)
   15444:	00012023          	sw	zero,0(sp)
   15448:	00012223          	sw	zero,4(sp)
   1544c:	00012423          	sw	zero,8(sp)
   15450:	058090ef          	jal	1e4a8 <__multf3>
   15454:	02012703          	lw	a4,32(sp)
   15458:	02c12783          	lw	a5,44(sp)
   1545c:	f8e00693          	li	a3,-114
   15460:	02e12823          	sw	a4,48(sp)
   15464:	02412703          	lw	a4,36(sp)
   15468:	0107d493          	srli	s1,a5,0x10
   1546c:	02f12e23          	sw	a5,60(sp)
   15470:	02e12a23          	sw	a4,52(sp)
   15474:	02812703          	lw	a4,40(sp)
   15478:	0134f4b3          	and	s1,s1,s3
   1547c:	02e12c23          	sw	a4,56(sp)
   15480:	f29ff06f          	j	153a8 <frexpl+0xa0>
   15484:	04c12b83          	lw	s7,76(sp)
   15488:	f5dff06f          	j	153e4 <frexpl+0xdc>

0001548c <__register_exitproc>:
   1548c:	f2c1a783          	lw	a5,-212(gp) # 227ec <__atexit>
   15490:	04078c63          	beqz	a5,154e8 <__register_exitproc+0x5c>
   15494:	0047a703          	lw	a4,4(a5) # 40710004 <__BSS_END__+0x406ed500>
   15498:	01f00813          	li	a6,31
   1549c:	08e84063          	blt	a6,a4,1551c <__register_exitproc+0x90>
   154a0:	00271813          	slli	a6,a4,0x2
   154a4:	02050663          	beqz	a0,154d0 <__register_exitproc+0x44>
   154a8:	01078333          	add	t1,a5,a6
   154ac:	08c32423          	sw	a2,136(t1)
   154b0:	1887a883          	lw	a7,392(a5)
   154b4:	00100613          	li	a2,1
   154b8:	00e61633          	sll	a2,a2,a4
   154bc:	00c8e8b3          	or	a7,a7,a2
   154c0:	1917a423          	sw	a7,392(a5)
   154c4:	10d32423          	sw	a3,264(t1)
   154c8:	00200693          	li	a3,2
   154cc:	02d50663          	beq	a0,a3,154f8 <__register_exitproc+0x6c>
   154d0:	00170713          	addi	a4,a4,1
   154d4:	00e7a223          	sw	a4,4(a5)
   154d8:	010787b3          	add	a5,a5,a6
   154dc:	00b7a423          	sw	a1,8(a5)
   154e0:	00000513          	li	a0,0
   154e4:	00008067          	ret
   154e8:	0b418813          	addi	a6,gp,180 # 22974 <__atexit0>
   154ec:	f301a623          	sw	a6,-212(gp) # 227ec <__atexit>
   154f0:	0b418793          	addi	a5,gp,180 # 22974 <__atexit0>
   154f4:	fa1ff06f          	j	15494 <__register_exitproc+0x8>
   154f8:	18c7a683          	lw	a3,396(a5)
   154fc:	00170713          	addi	a4,a4,1
   15500:	00e7a223          	sw	a4,4(a5)
   15504:	00c6e6b3          	or	a3,a3,a2
   15508:	18d7a623          	sw	a3,396(a5)
   1550c:	010787b3          	add	a5,a5,a6
   15510:	00b7a423          	sw	a1,8(a5)
   15514:	00000513          	li	a0,0
   15518:	00008067          	ret
   1551c:	fff00513          	li	a0,-1
   15520:	00008067          	ret

00015524 <_ldtoa_r>:
   15524:	000218b7          	lui	a7,0x21
   15528:	6b088893          	addi	a7,a7,1712 # 216b0 <blanks.1+0x10>
   1552c:	0008af83          	lw	t6,0(a7)
   15530:	0048af03          	lw	t5,4(a7)
   15534:	0088ae83          	lw	t4,8(a7)
   15538:	00c8ae03          	lw	t3,12(a7)
   1553c:	0108a303          	lw	t1,16(a7)
   15540:	03852883          	lw	a7,56(a0)
   15544:	f5010113          	addi	sp,sp,-176
   15548:	0b212023          	sw	s2,160(sp)
   1554c:	09312e23          	sw	s3,156(sp)
   15550:	09412c23          	sw	s4,152(sp)
   15554:	09612823          	sw	s6,144(sp)
   15558:	09712623          	sw	s7,140(sp)
   1555c:	09812423          	sw	s8,136(sp)
   15560:	09912223          	sw	s9,132(sp)
   15564:	09a12023          	sw	s10,128(sp)
   15568:	0a112623          	sw	ra,172(sp)
   1556c:	0a812423          	sw	s0,168(sp)
   15570:	0a912223          	sw	s1,164(sp)
